(dp1
S'output'
p2
S''
sS'layer'
p3
S'/home/u4hcsdaw/Python/web2py/applications/ACES/controllers/default.py'
p4
sS'code'
p5
S'# -*- coding: utf-8 -*-\n# this file is released under public domain and you can use without limitations\n\n#########################################################################\n## This is a samples controller\n## - index is the default action of any application\n## - user is required for authentication and authorization\n## - download is for downloading files uploaded in the db (does streaming)\n## - call exposes all registered services (none by default)\n#########################################################################\n\ndef index():\n    """\n    example action using the internationalization operator T and flash\n    rendered by views/default/index.html or views/generic.html\n    """\n    import datetime\n    now=datetime.datetime.now()\n    nowS=now.strftime(\'%s\')\n    t0=\'\'\n    img1=\'\'\n    ip1=INPUT(_type=\'text\', _name=\'waveHeight\', _value=\'0.85\')\n    sub1=INPUT(_type=\'submit\',_name=\'subButton\')\n    f1=FORM(\'wave\',ip1,sub1,_name=\'Form1\',_action=\'\')\n    if f1.accepts(request.vars,session):\n        session.formVars=f1.vars\n        t0=AcesCall(f1.var.waveHeight)\n        img1=IMG(_src=URL(\'static\',\'images/Waves.svg?\'+nowS))\n    return dict(form=f1,t0=t0,img1=img1)\n\ndef user():\n    """\n    exposes:\n    http://..../[app]/default/user/login\n    http://..../[app]/default/user/logout\n    http://..../[app]/default/user/register\n    http://..../[app]/default/user/profile\n    http://..../[app]/default/user/retrieve_password\n    http://..../[app]/default/user/change_password\n    use @auth.requires_login()\n        @auth.requires_membership(\'group name\')\n        @auth.requires_permission(\'read\',\'table name\',record_id)\n    to decorate functions that need access control\n    """\n    return dict(form=auth())\n\n\ndef download():\n    """\n    allows downloading of uploaded files\n    http://..../[app]/default/download/[filename]\n    """\n    return response.download(request,db)\n\n\ndef call():\n    """\n    exposes services. for example:\n    http://..../[app]/default/call/jsonrpc\n    decorate with @services.jsonrpc the functions to expose\n    supports xml, json, xmlrpc, jsonrpc, amfrpc, rss, csv\n    """\n    return service()\n\n\n@auth.requires_signature()\ndef data():\n    """\n    http://..../[app]/default/data/tables\n    http://..../[app]/default/data/create/[table]\n    http://..../[app]/default/data/read/[table]/[id]\n    http://..../[app]/default/data/update/[table]/[id]\n    http://..../[app]/default/data/delete/[table]/[id]\n    http://..../[app]/default/data/select/[table]\n    http://..../[app]/default/data/search/[table]\n    but URLs bust be signed, i.e. linked with\n      A(\'table\',_href=URL(\'data/tables\',user_signature=True))\n    or with the signed load operator\n      LOAD(\'default\',\'data.load\',args=\'tables\',ajax=True,user_signature=True)\n    """\n    return dict(form=crud())\n\nresponse._vars=response._caller(index)\n'
p6
sS'snapshot'
p7
(dp8
S'exception'
p9
(dp10
S'__hash__'
p11
S"<method-wrapper '__hash__' of exceptions.AttributeError object>"
p12
sS'__setattr__'
p13
S"<method-wrapper '__setattr__' of exceptions.AttributeError object>"
p14
sS'__reduce_ex__'
p15
S'<built-in method __reduce_ex__ of exceptions.AttributeError object>'
p16
sS'__getslice__'
p17
S"<method-wrapper '__getslice__' of exceptions.AttributeError object>"
p18
sS'__getitem__'
p19
S"<method-wrapper '__getitem__' of exceptions.AttributeError object>"
p20
sS'__setstate__'
p21
S'<built-in method __setstate__ of exceptions.AttributeError object>'
p22
sS'__reduce__'
p23
S'<built-in method __reduce__ of exceptions.AttributeError object>'
p24
sS'__str__'
p25
S"<method-wrapper '__str__' of exceptions.AttributeError object>"
p26
sS'__format__'
p27
S'<built-in method __format__ of exceptions.AttributeError object>'
p28
sS'__getattribute__'
p29
S"<method-wrapper '__getattribute__' of exceptions.AttributeError object>"
p30
sS'__class__'
p31
S"<type 'exceptions.AttributeError'>"
p32
sS'__unicode__'
p33
S'<built-in method __unicode__ of exceptions.AttributeError object>'
p34
sS'__delattr__'
p35
S"<method-wrapper '__delattr__' of exceptions.AttributeError object>"
p36
sS'__subclasshook__'
p37
S'<built-in method __subclasshook__ of type object>'
p38
sS'__repr__'
p39
S"<method-wrapper '__repr__' of exceptions.AttributeError object>"
p40
sS'args'
p41
S'("\'FORM\' object has no attribute \'var\'",)'
p42
sS'__dict__'
p43
S'{}'
p44
sS'__sizeof__'
p45
S'<built-in method __sizeof__ of exceptions.AttributeError object>'
p46
sS'__doc__'
p47
S"'Attribute not found.'"
p48
sS'__init__'
p49
S"<method-wrapper '__init__' of exceptions.AttributeError object>"
p50
sS'__new__'
p51
S'<built-in method __new__ of type object>'
p52
ssS'evalue'
p53
S"'FORM' object has no attribute 'var'"
p54
sS'request'
p55
ccopy_reg
_reconstructor
p56
(cgluon.html
BEAUTIFY
p57
c__builtin__
object
p58
NtRp59
(dp60
S'attributes'
p61
(dp62
sS'components'
p63
(lp64
g56
(cgluon.html
TABLE
p65
g58
NtRp66
(dp67
g61
(dp68
S'level'
p69
I5
ssS'parent'
p70
Nsg63
(lp71
g56
(cgluon.html
TR
p72
g58
NtRp73
(dp74
g61
(dp75
sg70
g66
sg63
(lp76
g56
(cgluon.html
TD
p77
g58
NtRp78
(dp79
g61
(dp80
S'_style'
p81
S'font-weight:bold;'
p82
ssg70
g73
sg63
(lp83
S'ajax'
p84
asbag56
(g77
g58
NtRp85
(dp86
g61
(dp87
S'_valign'
p88
S'top'
p89
ssg70
g73
sg63
(lp90
S':'
asbag56
(g77
g58
NtRp91
(dp92
g61
(dp93
sg70
g73
sg63
(lp94
g56
(g57
g58
NtRp95
(dp96
g61
(dp97
g69
I5
ssg70
g91
sg63
(lp98
S'False'
p99
asbasbasbag56
(g72
g58
NtRp100
(dp101
g61
(dp102
sg70
g66
sg63
(lp103
g56
(g77
g58
NtRp104
(dp105
g61
(dp106
g81
g82
ssg70
g100
sg63
(lp107
S'application'
p108
asbag56
(g77
g58
NtRp109
(dp110
g61
(dp111
g88
g89
ssg70
g100
sg63
(lp112
S':'
asbag56
(g77
g58
NtRp113
(dp114
g61
(dp115
sg70
g100
sg63
(lp116
g56
(g57
g58
NtRp117
(dp118
g61
(dp119
g69
I5
ssg70
g113
sg63
(lp120
S'ACES'
p121
asbasbasbag56
(g72
g58
NtRp122
(dp123
g61
(dp124
sg70
g66
sg63
(lp125
g56
(g77
g58
NtRp126
(dp127
g61
(dp128
g81
g82
ssg70
g122
sg63
(lp129
g41
asbag56
(g77
g58
NtRp130
(dp131
g61
(dp132
g88
g89
ssg70
g122
sg63
(lp133
S':'
asbag56
(g77
g58
NtRp134
(dp135
g61
(dp136
sg70
g122
sg63
(lp137
g56
(g57
g58
NtRp138
(dp139
g61
(dp140
g69
I5
ssg70
g134
sg63
(lp141
g56
(g65
g58
NtRp142
(dp143
g61
(dp144
g69
I4
ssg70
Nsg63
(lp145
sbasbasbasbag56
(g72
g58
NtRp146
(dp147
g61
(dp148
sg70
g66
sg63
(lp149
g56
(g77
g58
NtRp150
(dp151
g61
(dp152
g81
g82
ssg70
g146
sg63
(lp153
S'body'
p154
asbag56
(g77
g58
NtRp155
(dp156
g61
(dp157
g88
g89
ssg70
g146
sg63
(lp158
S':'
asbag56
(g77
g58
NtRp159
(dp160
g61
(dp161
sg70
g146
sg63
(lp162
g56
(g57
g58
NtRp163
(dp164
g61
(dp165
g69
I5
ssg70
g159
sg63
(lp166
S"<open file '<fdopen>', mode 'w+b' at 0xadbaf5a0>"
p167
asbasbasbag56
(g72
g58
NtRp168
(dp169
g61
(dp170
sg70
g66
sg63
(lp171
g56
(g77
g58
NtRp172
(dp173
g61
(dp174
g81
g82
ssg70
g168
sg63
(lp175
S'client'
p176
asbag56
(g77
g58
NtRp177
(dp178
g61
(dp179
g88
g89
ssg70
g168
sg63
(lp180
S':'
asbag56
(g77
g58
NtRp181
(dp182
g61
(dp183
sg70
g168
sg63
(lp184
g56
(g57
g58
NtRp185
(dp186
g61
(dp187
g69
I5
ssg70
g181
sg63
(lp188
S'127.0.0.1'
p189
asbasbasbag56
(g72
g58
NtRp190
(dp191
g61
(dp192
sg70
g66
sg63
(lp193
g56
(g77
g58
NtRp194
(dp195
g61
(dp196
g81
g82
ssg70
g190
sg63
(lp197
S'controller'
p198
asbag56
(g77
g58
NtRp199
(dp200
g61
(dp201
g88
g89
ssg70
g190
sg63
(lp202
S':'
asbag56
(g77
g58
NtRp203
(dp204
g61
(dp205
sg70
g190
sg63
(lp206
g56
(g57
g58
NtRp207
(dp208
g61
(dp209
g69
I5
ssg70
g203
sg63
(lp210
S'default'
p211
asbasbasbag56
(g72
g58
NtRp212
(dp213
g61
(dp214
sg70
g66
sg63
(lp215
g56
(g77
g58
NtRp216
(dp217
g61
(dp218
g81
g82
ssg70
g212
sg63
(lp219
S'cookies'
p220
asbag56
(g77
g58
NtRp221
(dp222
g61
(dp223
g88
g89
ssg70
g212
sg63
(lp224
S':'
asbag56
(g77
g58
NtRp225
(dp226
g61
(dp227
sg70
g212
sg63
(lp228
g56
(g57
g58
NtRp229
(dp230
g61
(dp231
g69
I5
ssg70
g225
sg63
(lp232
g56
(g65
g58
NtRp233
(dp234
g61
(dp235
g69
I4
ssg70
Nsg63
(lp236
g56
(g72
g58
NtRp237
(dp238
g61
(dp239
sg70
g233
sg63
(lp240
g56
(g77
g58
NtRp241
(dp242
g61
(dp243
g81
g82
ssg70
g237
sg63
(lp244
S'session_id_aces'
p245
asbag56
(g77
g58
NtRp246
(dp247
g61
(dp248
g88
g89
ssg70
g237
sg63
(lp249
S':'
asbag56
(g77
g58
NtRp250
(dp251
g61
(dp252
sg70
g237
sg63
(lp253
g56
(g57
g58
NtRp254
(dp255
g61
(dp256
g69
I4
ssg70
g250
sg63
(lp257
g56
(g65
g58
NtRp258
(dp259
g61
(dp260
g69
I3
ssg70
Nsg63
(lp261
g56
(g72
g58
NtRp262
(dp263
g61
(dp264
sg70
g258
sg63
(lp265
g56
(g77
g58
NtRp266
(dp267
g61
(dp268
g81
g82
ssg70
g262
sg63
(lp269
S'comment'
p270
asbag56
(g77
g58
NtRp271
(dp272
g61
(dp273
g88
g89
ssg70
g262
sg63
(lp274
S':'
asbag56
(g77
g58
NtRp275
(dp276
g61
(dp277
sg70
g262
sg63
(lp278
g56
(g57
g58
NtRp279
(dp280
g61
(dp281
g69
I3
ssg70
g275
sg63
(lp282
S''
asbasbasbag56
(g72
g58
NtRp283
(dp284
g61
(dp285
sg70
g258
sg63
(lp286
g56
(g77
g58
NtRp287
(dp288
g61
(dp289
g81
g82
ssg70
g283
sg63
(lp290
S'domain'
p291
asbag56
(g77
g58
NtRp292
(dp293
g61
(dp294
g88
g89
ssg70
g283
sg63
(lp295
S':'
asbag56
(g77
g58
NtRp296
(dp297
g61
(dp298
sg70
g283
sg63
(lp299
g56
(g57
g58
NtRp300
(dp301
g61
(dp302
g69
I3
ssg70
g296
sg63
(lp303
S''
asbasbasbag56
(g72
g58
NtRp304
(dp305
g61
(dp306
sg70
g258
sg63
(lp307
g56
(g77
g58
NtRp308
(dp309
g61
(dp310
g81
g82
ssg70
g304
sg63
(lp311
S'expires'
p312
asbag56
(g77
g58
NtRp313
(dp314
g61
(dp315
g88
g89
ssg70
g304
sg63
(lp316
S':'
asbag56
(g77
g58
NtRp317
(dp318
g61
(dp319
sg70
g304
sg63
(lp320
g56
(g57
g58
NtRp321
(dp322
g61
(dp323
g69
I3
ssg70
g317
sg63
(lp324
S''
asbasbasbag56
(g72
g58
NtRp325
(dp326
g61
(dp327
sg70
g258
sg63
(lp328
g56
(g77
g58
NtRp329
(dp330
g61
(dp331
g81
g82
ssg70
g325
sg63
(lp332
S'httponly'
p333
asbag56
(g77
g58
NtRp334
(dp335
g61
(dp336
g88
g89
ssg70
g325
sg63
(lp337
S':'
asbag56
(g77
g58
NtRp338
(dp339
g61
(dp340
sg70
g325
sg63
(lp341
g56
(g57
g58
NtRp342
(dp343
g61
(dp344
g69
I3
ssg70
g338
sg63
(lp345
S''
asbasbasbag56
(g72
g58
NtRp346
(dp347
g61
(dp348
sg70
g258
sg63
(lp349
g56
(g77
g58
NtRp350
(dp351
g61
(dp352
g81
g82
ssg70
g346
sg63
(lp353
S'max-age'
p354
asbag56
(g77
g58
NtRp355
(dp356
g61
(dp357
g88
g89
ssg70
g346
sg63
(lp358
S':'
asbag56
(g77
g58
NtRp359
(dp360
g61
(dp361
sg70
g346
sg63
(lp362
g56
(g57
g58
NtRp363
(dp364
g61
(dp365
g69
I3
ssg70
g359
sg63
(lp366
S''
asbasbasbag56
(g72
g58
NtRp367
(dp368
g61
(dp369
sg70
g258
sg63
(lp370
g56
(g77
g58
NtRp371
(dp372
g61
(dp373
g81
g82
ssg70
g367
sg63
(lp374
S'path'
p375
asbag56
(g77
g58
NtRp376
(dp377
g61
(dp378
g88
g89
ssg70
g367
sg63
(lp379
S':'
asbag56
(g77
g58
NtRp380
(dp381
g61
(dp382
sg70
g367
sg63
(lp383
g56
(g57
g58
NtRp384
(dp385
g61
(dp386
g69
I3
ssg70
g380
sg63
(lp387
S''
asbasbasbag56
(g72
g58
NtRp388
(dp389
g61
(dp390
sg70
g258
sg63
(lp391
g56
(g77
g58
NtRp392
(dp393
g61
(dp394
g81
g82
ssg70
g388
sg63
(lp395
S'secure'
p396
asbag56
(g77
g58
NtRp397
(dp398
g61
(dp399
g88
g89
ssg70
g388
sg63
(lp400
S':'
asbag56
(g77
g58
NtRp401
(dp402
g61
(dp403
sg70
g388
sg63
(lp404
g56
(g57
g58
NtRp405
(dp406
g61
(dp407
g69
I3
ssg70
g401
sg63
(lp408
S''
asbasbasbag56
(g72
g58
NtRp409
(dp410
g61
(dp411
sg70
g258
sg63
(lp412
g56
(g77
g58
NtRp413
(dp414
g61
(dp415
g81
g82
ssg70
g409
sg63
(lp416
S'version'
p417
asbag56
(g77
g58
NtRp418
(dp419
g61
(dp420
g88
g89
ssg70
g409
sg63
(lp421
S':'
asbag56
(g77
g58
NtRp422
(dp423
g61
(dp424
sg70
g409
sg63
(lp425
g56
(g57
g58
NtRp426
(dp427
g61
(dp428
g69
I3
ssg70
g422
sg63
(lp429
S''
asbasbasbasbasbasbasbag56
(g72
g58
NtRp430
(dp431
g61
(dp432
sg70
g233
sg63
(lp433
g56
(g77
g58
NtRp434
(dp435
g61
(dp436
g81
g82
ssg70
g430
sg63
(lp437
S'session_id_admin'
p438
asbag56
(g77
g58
NtRp439
(dp440
g61
(dp441
g88
g89
ssg70
g430
sg63
(lp442
S':'
asbag56
(g77
g58
NtRp443
(dp444
g61
(dp445
sg70
g430
sg63
(lp446
g56
(g57
g58
NtRp447
(dp448
g61
(dp449
g69
I4
ssg70
g443
sg63
(lp450
g56
(g65
g58
NtRp451
(dp452
g61
(dp453
g69
I3
ssg70
Nsg63
(lp454
g56
(g72
g58
NtRp455
(dp456
g61
(dp457
sg70
g451
sg63
(lp458
g56
(g77
g58
NtRp459
(dp460
g61
(dp461
g81
g82
ssg70
g455
sg63
(lp462
g270
asbag56
(g77
g58
NtRp463
(dp464
g61
(dp465
g88
g89
ssg70
g455
sg63
(lp466
S':'
asbag56
(g77
g58
NtRp467
(dp468
g61
(dp469
sg70
g455
sg63
(lp470
g56
(g57
g58
NtRp471
(dp472
g61
(dp473
g69
I3
ssg70
g467
sg63
(lp474
S''
asbasbasbag56
(g72
g58
NtRp475
(dp476
g61
(dp477
sg70
g451
sg63
(lp478
g56
(g77
g58
NtRp479
(dp480
g61
(dp481
g81
g82
ssg70
g475
sg63
(lp482
g291
asbag56
(g77
g58
NtRp483
(dp484
g61
(dp485
g88
g89
ssg70
g475
sg63
(lp486
S':'
asbag56
(g77
g58
NtRp487
(dp488
g61
(dp489
sg70
g475
sg63
(lp490
g56
(g57
g58
NtRp491
(dp492
g61
(dp493
g69
I3
ssg70
g487
sg63
(lp494
S''
asbasbasbag56
(g72
g58
NtRp495
(dp496
g61
(dp497
sg70
g451
sg63
(lp498
g56
(g77
g58
NtRp499
(dp500
g61
(dp501
g81
g82
ssg70
g495
sg63
(lp502
g312
asbag56
(g77
g58
NtRp503
(dp504
g61
(dp505
g88
g89
ssg70
g495
sg63
(lp506
S':'
asbag56
(g77
g58
NtRp507
(dp508
g61
(dp509
sg70
g495
sg63
(lp510
g56
(g57
g58
NtRp511
(dp512
g61
(dp513
g69
I3
ssg70
g507
sg63
(lp514
S''
asbasbasbag56
(g72
g58
NtRp515
(dp516
g61
(dp517
sg70
g451
sg63
(lp518
g56
(g77
g58
NtRp519
(dp520
g61
(dp521
g81
g82
ssg70
g515
sg63
(lp522
g333
asbag56
(g77
g58
NtRp523
(dp524
g61
(dp525
g88
g89
ssg70
g515
sg63
(lp526
S':'
asbag56
(g77
g58
NtRp527
(dp528
g61
(dp529
sg70
g515
sg63
(lp530
g56
(g57
g58
NtRp531
(dp532
g61
(dp533
g69
I3
ssg70
g527
sg63
(lp534
S''
asbasbasbag56
(g72
g58
NtRp535
(dp536
g61
(dp537
sg70
g451
sg63
(lp538
g56
(g77
g58
NtRp539
(dp540
g61
(dp541
g81
g82
ssg70
g535
sg63
(lp542
g354
asbag56
(g77
g58
NtRp543
(dp544
g61
(dp545
g88
g89
ssg70
g535
sg63
(lp546
S':'
asbag56
(g77
g58
NtRp547
(dp548
g61
(dp549
sg70
g535
sg63
(lp550
g56
(g57
g58
NtRp551
(dp552
g61
(dp553
g69
I3
ssg70
g547
sg63
(lp554
S''
asbasbasbag56
(g72
g58
NtRp555
(dp556
g61
(dp557
sg70
g451
sg63
(lp558
g56
(g77
g58
NtRp559
(dp560
g61
(dp561
g81
g82
ssg70
g555
sg63
(lp562
g375
asbag56
(g77
g58
NtRp563
(dp564
g61
(dp565
g88
g89
ssg70
g555
sg63
(lp566
S':'
asbag56
(g77
g58
NtRp567
(dp568
g61
(dp569
sg70
g555
sg63
(lp570
g56
(g57
g58
NtRp571
(dp572
g61
(dp573
g69
I3
ssg70
g567
sg63
(lp574
S''
asbasbasbag56
(g72
g58
NtRp575
(dp576
g61
(dp577
sg70
g451
sg63
(lp578
g56
(g77
g58
NtRp579
(dp580
g61
(dp581
g81
g82
ssg70
g575
sg63
(lp582
g396
asbag56
(g77
g58
NtRp583
(dp584
g61
(dp585
g88
g89
ssg70
g575
sg63
(lp586
S':'
asbag56
(g77
g58
NtRp587
(dp588
g61
(dp589
sg70
g575
sg63
(lp590
g56
(g57
g58
NtRp591
(dp592
g61
(dp593
g69
I3
ssg70
g587
sg63
(lp594
S''
asbasbasbag56
(g72
g58
NtRp595
(dp596
g61
(dp597
sg70
g451
sg63
(lp598
g56
(g77
g58
NtRp599
(dp600
g61
(dp601
g81
g82
ssg70
g595
sg63
(lp602
g417
asbag56
(g77
g58
NtRp603
(dp604
g61
(dp605
g88
g89
ssg70
g595
sg63
(lp606
S':'
asbag56
(g77
g58
NtRp607
(dp608
g61
(dp609
sg70
g595
sg63
(lp610
g56
(g57
g58
NtRp611
(dp612
g61
(dp613
g69
I3
ssg70
g607
sg63
(lp614
S''
asbasbasbasbasbasbasbag56
(g72
g58
NtRp615
(dp616
g61
(dp617
sg70
g233
sg63
(lp618
g56
(g77
g58
NtRp619
(dp620
g61
(dp621
g81
g82
ssg70
g615
sg63
(lp622
S'session_id_welcome'
p623
asbag56
(g77
g58
NtRp624
(dp625
g61
(dp626
g88
g89
ssg70
g615
sg63
(lp627
S':'
asbag56
(g77
g58
NtRp628
(dp629
g61
(dp630
sg70
g615
sg63
(lp631
g56
(g57
g58
NtRp632
(dp633
g61
(dp634
g69
I4
ssg70
g628
sg63
(lp635
g56
(g65
g58
NtRp636
(dp637
g61
(dp638
g69
I3
ssg70
Nsg63
(lp639
g56
(g72
g58
NtRp640
(dp641
g61
(dp642
sg70
g636
sg63
(lp643
g56
(g77
g58
NtRp644
(dp645
g61
(dp646
g81
g82
ssg70
g640
sg63
(lp647
g270
asbag56
(g77
g58
NtRp648
(dp649
g61
(dp650
g88
g89
ssg70
g640
sg63
(lp651
S':'
asbag56
(g77
g58
NtRp652
(dp653
g61
(dp654
sg70
g640
sg63
(lp655
g56
(g57
g58
NtRp656
(dp657
g61
(dp658
g69
I3
ssg70
g652
sg63
(lp659
S''
asbasbasbag56
(g72
g58
NtRp660
(dp661
g61
(dp662
sg70
g636
sg63
(lp663
g56
(g77
g58
NtRp664
(dp665
g61
(dp666
g81
g82
ssg70
g660
sg63
(lp667
g291
asbag56
(g77
g58
NtRp668
(dp669
g61
(dp670
g88
g89
ssg70
g660
sg63
(lp671
S':'
asbag56
(g77
g58
NtRp672
(dp673
g61
(dp674
sg70
g660
sg63
(lp675
g56
(g57
g58
NtRp676
(dp677
g61
(dp678
g69
I3
ssg70
g672
sg63
(lp679
S''
asbasbasbag56
(g72
g58
NtRp680
(dp681
g61
(dp682
sg70
g636
sg63
(lp683
g56
(g77
g58
NtRp684
(dp685
g61
(dp686
g81
g82
ssg70
g680
sg63
(lp687
g312
asbag56
(g77
g58
NtRp688
(dp689
g61
(dp690
g88
g89
ssg70
g680
sg63
(lp691
S':'
asbag56
(g77
g58
NtRp692
(dp693
g61
(dp694
sg70
g680
sg63
(lp695
g56
(g57
g58
NtRp696
(dp697
g61
(dp698
g69
I3
ssg70
g692
sg63
(lp699
S''
asbasbasbag56
(g72
g58
NtRp700
(dp701
g61
(dp702
sg70
g636
sg63
(lp703
g56
(g77
g58
NtRp704
(dp705
g61
(dp706
g81
g82
ssg70
g700
sg63
(lp707
g333
asbag56
(g77
g58
NtRp708
(dp709
g61
(dp710
g88
g89
ssg70
g700
sg63
(lp711
S':'
asbag56
(g77
g58
NtRp712
(dp713
g61
(dp714
sg70
g700
sg63
(lp715
g56
(g57
g58
NtRp716
(dp717
g61
(dp718
g69
I3
ssg70
g712
sg63
(lp719
S''
asbasbasbag56
(g72
g58
NtRp720
(dp721
g61
(dp722
sg70
g636
sg63
(lp723
g56
(g77
g58
NtRp724
(dp725
g61
(dp726
g81
g82
ssg70
g720
sg63
(lp727
g354
asbag56
(g77
g58
NtRp728
(dp729
g61
(dp730
g88
g89
ssg70
g720
sg63
(lp731
S':'
asbag56
(g77
g58
NtRp732
(dp733
g61
(dp734
sg70
g720
sg63
(lp735
g56
(g57
g58
NtRp736
(dp737
g61
(dp738
g69
I3
ssg70
g732
sg63
(lp739
S''
asbasbasbag56
(g72
g58
NtRp740
(dp741
g61
(dp742
sg70
g636
sg63
(lp743
g56
(g77
g58
NtRp744
(dp745
g61
(dp746
g81
g82
ssg70
g740
sg63
(lp747
g375
asbag56
(g77
g58
NtRp748
(dp749
g61
(dp750
g88
g89
ssg70
g740
sg63
(lp751
S':'
asbag56
(g77
g58
NtRp752
(dp753
g61
(dp754
sg70
g740
sg63
(lp755
g56
(g57
g58
NtRp756
(dp757
g61
(dp758
g69
I3
ssg70
g752
sg63
(lp759
S''
asbasbasbag56
(g72
g58
NtRp760
(dp761
g61
(dp762
sg70
g636
sg63
(lp763
g56
(g77
g58
NtRp764
(dp765
g61
(dp766
g81
g82
ssg70
g760
sg63
(lp767
g396
asbag56
(g77
g58
NtRp768
(dp769
g61
(dp770
g88
g89
ssg70
g760
sg63
(lp771
S':'
asbag56
(g77
g58
NtRp772
(dp773
g61
(dp774
sg70
g760
sg63
(lp775
g56
(g57
g58
NtRp776
(dp777
g61
(dp778
g69
I3
ssg70
g772
sg63
(lp779
S''
asbasbasbag56
(g72
g58
NtRp780
(dp781
g61
(dp782
sg70
g636
sg63
(lp783
g56
(g77
g58
NtRp784
(dp785
g61
(dp786
g81
g82
ssg70
g780
sg63
(lp787
g417
asbag56
(g77
g58
NtRp788
(dp789
g61
(dp790
g88
g89
ssg70
g780
sg63
(lp791
S':'
asbag56
(g77
g58
NtRp792
(dp793
g61
(dp794
sg70
g780
sg63
(lp795
g56
(g57
g58
NtRp796
(dp797
g61
(dp798
g69
I3
ssg70
g792
sg63
(lp799
S''
asbasbasbasbasbasbasbasbasbasbasbag56
(g72
g58
NtRp800
(dp801
g61
(dp802
sg70
g66
sg63
(lp803
g56
(g77
g58
NtRp804
(dp805
g61
(dp806
g81
g82
ssg70
g800
sg63
(lp807
S'env'
p808
asbag56
(g77
g58
NtRp809
(dp810
g61
(dp811
g88
g89
ssg70
g800
sg63
(lp812
S':'
asbag56
(g77
g58
NtRp813
(dp814
g61
(dp815
sg70
g800
sg63
(lp816
g56
(g57
g58
NtRp817
(dp818
g61
(dp819
g69
I5
ssg70
g813
sg63
(lp820
g56
(g65
g58
NtRp821
(dp822
g61
(dp823
g69
I4
ssg70
Nsg63
(lp824
g56
(g72
g58
NtRp825
(dp826
g61
(dp827
sg70
g821
sg63
(lp828
g56
(g77
g58
NtRp829
(dp830
g61
(dp831
g81
g82
ssg70
g825
sg63
(lp832
S'app_folders'
p833
asbag56
(g77
g58
NtRp834
(dp835
g61
(dp836
g88
g89
ssg70
g825
sg63
(lp837
S':'
asbag56
(g77
g58
NtRp838
(dp839
g61
(dp840
sg70
g825
sg63
(lp841
g56
(g57
g58
NtRp842
(dp843
g61
(dp844
g69
I4
ssg70
g838
sg63
(lp845
S"set(['/home/u4hcsdaw/Python/web2py/applications/ACES/', '/home/u4hcsdaw/Python/web2py/applications/admin/', '/home/u4hcsdaw/Python/web2py/applications/welcome/'])"
p846
asbasbasbag56
(g72
g58
NtRp847
(dp848
g61
(dp849
sg70
g821
sg63
(lp850
g56
(g77
g58
NtRp851
(dp852
g61
(dp853
g81
g82
ssg70
g847
sg63
(lp854
S'applications_parent'
p855
asbag56
(g77
g58
NtRp856
(dp857
g61
(dp858
g88
g89
ssg70
g847
sg63
(lp859
S':'
asbag56
(g77
g58
NtRp860
(dp861
g61
(dp862
sg70
g847
sg63
(lp863
g56
(g57
g58
NtRp864
(dp865
g61
(dp866
g69
I4
ssg70
g860
sg63
(lp867
S'/home/u4hcsdaw/Python/web2py'
p868
asbasbasbag56
(g72
g58
NtRp869
(dp870
g61
(dp871
sg70
g821
sg63
(lp872
g56
(g77
g58
NtRp873
(dp874
g61
(dp875
g81
g82
ssg70
g869
sg63
(lp876
S'cmd_args'
p877
asbag56
(g77
g58
NtRp878
(dp879
g61
(dp880
g88
g89
ssg70
g869
sg63
(lp881
S':'
asbag56
(g77
g58
NtRp882
(dp883
g61
(dp884
sg70
g869
sg63
(lp885
g56
(g57
g58
NtRp886
(dp887
g61
(dp888
g69
I4
ssg70
g882
sg63
(lp889
g56
(g65
g58
NtRp890
(dp891
g61
(dp892
g69
I3
ssg70
Nsg63
(lp893
sbasbasbasbag56
(g72
g58
NtRp894
(dp895
g61
(dp896
sg70
g821
sg63
(lp897
g56
(g77
g58
NtRp898
(dp899
g61
(dp900
g81
g82
ssg70
g894
sg63
(lp901
S'cmd_options'
p902
asbag56
(g77
g58
NtRp903
(dp904
g61
(dp905
g88
g89
ssg70
g894
sg63
(lp906
S':'
asbag56
(g77
g58
NtRp907
(dp908
g61
(dp909
sg70
g894
sg63
(lp910
g56
(g57
g58
NtRp911
(dp912
g61
(dp913
g69
I4
ssg70
g907
sg63
(lp914
S"<Values at 0x8bd702c: {'verbose': False, 'ip': '127.0.0.1', 'shutdown_timeout': 5, 'taskbar': False, 'nocron': False, 'pid_filename': 'httpserver.pid', 'maxthreads': None, 'softcron': False, 'server_name': 'chl-5833E', 'bpython': False, 'nogui': False, 'port': 8000, 'extcron': False, 'debuglevel': 30, 'test': None, 'folder': '/home/u4hcsdaw/Python/web2py', 'config': '', 'import_models': False, 'winservice': '', 'shell': None, 'run': '', 'log_filename': 'httpserver.log', 'args': [''], 'ssl_ca_certificate': None, 'scheduler': None, 'profiler_filename': None, 'ssl_private_key': '', 'password': '<ask>', 'request_queue_size': 5, 'ssl_certificate': '', 'cronjob': False, 'plain': False, 'quiet': False, 'interfaces': None, 'minthreads': None, 'timeout': 10, 'numthreads': None, 'nobanner': False}>"
p915
asbasbasbag56
(g72
g58
NtRp916
(dp917
g61
(dp918
sg70
g821
sg63
(lp919
g56
(g77
g58
NtRp920
(dp921
g61
(dp922
g81
g82
ssg70
g916
sg63
(lp923
S'content_length'
p924
asbag56
(g77
g58
NtRp925
(dp926
g61
(dp927
g88
g89
ssg70
g916
sg63
(lp928
S':'
asbag56
(g77
g58
NtRp929
(dp930
g61
(dp931
sg70
g916
sg63
(lp932
g56
(g57
g58
NtRp933
(dp934
g61
(dp935
g69
I4
ssg70
g929
sg63
(lp936
S'567'
p937
asbasbasbag56
(g72
g58
NtRp938
(dp939
g61
(dp940
sg70
g821
sg63
(lp941
g56
(g77
g58
NtRp942
(dp943
g61
(dp944
g81
g82
ssg70
g938
sg63
(lp945
S'content_type'
p946
asbag56
(g77
g58
NtRp947
(dp948
g61
(dp949
g88
g89
ssg70
g938
sg63
(lp950
S':'
asbag56
(g77
g58
NtRp951
(dp952
g61
(dp953
sg70
g938
sg63
(lp954
g56
(g57
g58
NtRp955
(dp956
g61
(dp957
g69
I4
ssg70
g951
sg63
(lp958
S'multipart/form-data; boundary=---------------------------168488614298072340940233896'
p959
asbasbasbag56
(g72
g58
NtRp960
(dp961
g61
(dp962
sg70
g821
sg63
(lp963
g56
(g77
g58
NtRp964
(dp965
g61
(dp966
g81
g82
ssg70
g960
sg63
(lp967
S'db_sessions'
p968
asbag56
(g77
g58
NtRp969
(dp970
g61
(dp971
g88
g89
ssg70
g960
sg63
(lp972
S':'
asbag56
(g77
g58
NtRp973
(dp974
g61
(dp975
sg70
g960
sg63
(lp976
g56
(g57
g58
NtRp977
(dp978
g61
(dp979
g69
I4
ssg70
g973
sg63
(lp980
S'set([])'
p981
asbasbasbag56
(g72
g58
NtRp982
(dp983
g61
(dp984
sg70
g821
sg63
(lp985
g56
(g77
g58
NtRp986
(dp987
g61
(dp988
g81
g82
ssg70
g982
sg63
(lp989
S'debugging'
p990
asbag56
(g77
g58
NtRp991
(dp992
g61
(dp993
g88
g89
ssg70
g982
sg63
(lp994
S':'
asbag56
(g77
g58
NtRp995
(dp996
g61
(dp997
sg70
g982
sg63
(lp998
g56
(g57
g58
NtRp999
(dp1000
g61
(dp1001
g69
I4
ssg70
g995
sg63
(lp1002
g99
asbasbasbag56
(g72
g58
NtRp1003
(dp1004
g61
(dp1005
sg70
g821
sg63
(lp1006
g56
(g77
g58
NtRp1007
(dp1008
g61
(dp1009
g81
g82
ssg70
g1003
sg63
(lp1010
S'gluon_parent'
p1011
asbag56
(g77
g58
NtRp1012
(dp1013
g61
(dp1014
g88
g89
ssg70
g1003
sg63
(lp1015
S':'
asbag56
(g77
g58
NtRp1016
(dp1017
g61
(dp1018
sg70
g1003
sg63
(lp1019
g56
(g57
g58
NtRp1020
(dp1021
g61
(dp1022
g69
I4
ssg70
g1016
sg63
(lp1023
S'/home/u4hcsdaw/Python/web2py'
p1024
asbasbasbag56
(g72
g58
NtRp1025
(dp1026
g61
(dp1027
sg70
g821
sg63
(lp1028
g56
(g77
g58
NtRp1029
(dp1030
g61
(dp1031
g81
g82
ssg70
g1025
sg63
(lp1032
S'http_accept'
p1033
asbag56
(g77
g58
NtRp1034
(dp1035
g61
(dp1036
g88
g89
ssg70
g1025
sg63
(lp1037
S':'
asbag56
(g77
g58
NtRp1038
(dp1039
g61
(dp1040
sg70
g1025
sg63
(lp1041
g56
(g57
g58
NtRp1042
(dp1043
g61
(dp1044
g69
I4
ssg70
g1038
sg63
(lp1045
S'text/html,application/xhtml+xml,application/xml;q=0.9,*/*;q=0.8'
p1046
asbasbasbag56
(g72
g58
NtRp1047
(dp1048
g61
(dp1049
sg70
g821
sg63
(lp1050
g56
(g77
g58
NtRp1051
(dp1052
g61
(dp1053
g81
g82
ssg70
g1047
sg63
(lp1054
S'http_accept_encoding'
p1055
asbag56
(g77
g58
NtRp1056
(dp1057
g61
(dp1058
g88
g89
ssg70
g1047
sg63
(lp1059
S':'
asbag56
(g77
g58
NtRp1060
(dp1061
g61
(dp1062
sg70
g1047
sg63
(lp1063
g56
(g57
g58
NtRp1064
(dp1065
g61
(dp1066
g69
I4
ssg70
g1060
sg63
(lp1067
S'gzip, deflate'
p1068
asbasbasbag56
(g72
g58
NtRp1069
(dp1070
g61
(dp1071
sg70
g821
sg63
(lp1072
g56
(g77
g58
NtRp1073
(dp1074
g61
(dp1075
g81
g82
ssg70
g1069
sg63
(lp1076
S'http_accept_language'
p1077
asbag56
(g77
g58
NtRp1078
(dp1079
g61
(dp1080
g88
g89
ssg70
g1069
sg63
(lp1081
S':'
asbag56
(g77
g58
NtRp1082
(dp1083
g61
(dp1084
sg70
g1069
sg63
(lp1085
g56
(g57
g58
NtRp1086
(dp1087
g61
(dp1088
g69
I4
ssg70
g1082
sg63
(lp1089
S'en-us,en;q=0.5'
p1090
asbasbasbag56
(g72
g58
NtRp1091
(dp1092
g61
(dp1093
sg70
g821
sg63
(lp1094
g56
(g77
g58
NtRp1095
(dp1096
g61
(dp1097
g81
g82
ssg70
g1091
sg63
(lp1098
S'http_connection'
p1099
asbag56
(g77
g58
NtRp1100
(dp1101
g61
(dp1102
g88
g89
ssg70
g1091
sg63
(lp1103
S':'
asbag56
(g77
g58
NtRp1104
(dp1105
g61
(dp1106
sg70
g1091
sg63
(lp1107
g56
(g57
g58
NtRp1108
(dp1109
g61
(dp1110
g69
I4
ssg70
g1104
sg63
(lp1111
S'keep-alive'
p1112
asbasbasbag56
(g72
g58
NtRp1113
(dp1114
g61
(dp1115
sg70
g821
sg63
(lp1116
g56
(g77
g58
NtRp1117
(dp1118
g61
(dp1119
g81
g82
ssg70
g1113
sg63
(lp1120
S'http_content_length'
p1121
asbag56
(g77
g58
NtRp1122
(dp1123
g61
(dp1124
g88
g89
ssg70
g1113
sg63
(lp1125
S':'
asbag56
(g77
g58
NtRp1126
(dp1127
g61
(dp1128
sg70
g1113
sg63
(lp1129
g56
(g57
g58
NtRp1130
(dp1131
g61
(dp1132
g69
I4
ssg70
g1126
sg63
(lp1133
g937
asbasbasbag56
(g72
g58
NtRp1134
(dp1135
g61
(dp1136
sg70
g821
sg63
(lp1137
g56
(g77
g58
NtRp1138
(dp1139
g61
(dp1140
g81
g82
ssg70
g1134
sg63
(lp1141
S'http_content_type'
p1142
asbag56
(g77
g58
NtRp1143
(dp1144
g61
(dp1145
g88
g89
ssg70
g1134
sg63
(lp1146
S':'
asbag56
(g77
g58
NtRp1147
(dp1148
g61
(dp1149
sg70
g1134
sg63
(lp1150
g56
(g57
g58
NtRp1151
(dp1152
g61
(dp1153
g69
I4
ssg70
g1147
sg63
(lp1154
g959
asbasbasbag56
(g72
g58
NtRp1155
(dp1156
g61
(dp1157
sg70
g821
sg63
(lp1158
g56
(g77
g58
NtRp1159
(dp1160
g61
(dp1161
g81
g82
ssg70
g1155
sg63
(lp1162
S'http_cookie'
p1163
asbag56
(g77
g58
NtRp1164
(dp1165
g61
(dp1166
g88
g89
ssg70
g1155
sg63
(lp1167
S':'
asbag56
(g77
g58
NtRp1168
(dp1169
g61
(dp1170
sg70
g1155
sg63
(lp1171
g56
(g57
g58
NtRp1172
(dp1173
g61
(dp1174
g69
I4
ssg70
g1168
sg63
(lp1175
S'session_id_welcome=127.0.0.1-e0fb68d7-6023-4232-ae5a-449200fdf2e4; session_id_admin=127.0.0.1-40bbef4e-e6af-4e22-a3b0-b45e6ccce96a; session_id_aces=127.0.0.1-c914d549-bd8c-4d4b-80c4-72a1e6cf8099'
p1176
asbasbasbag56
(g72
g58
NtRp1177
(dp1178
g61
(dp1179
sg70
g821
sg63
(lp1180
g56
(g77
g58
NtRp1181
(dp1182
g61
(dp1183
g81
g82
ssg70
g1177
sg63
(lp1184
S'http_host'
p1185
asbag56
(g77
g58
NtRp1186
(dp1187
g61
(dp1188
g88
g89
ssg70
g1177
sg63
(lp1189
S':'
asbag56
(g77
g58
NtRp1190
(dp1191
g61
(dp1192
sg70
g1177
sg63
(lp1193
g56
(g57
g58
NtRp1194
(dp1195
g61
(dp1196
g69
I4
ssg70
g1190
sg63
(lp1197
S'127.0.0.1:8000'
p1198
asbasbasbag56
(g72
g58
NtRp1199
(dp1200
g61
(dp1201
sg70
g821
sg63
(lp1202
g56
(g77
g58
NtRp1203
(dp1204
g61
(dp1205
g81
g82
ssg70
g1199
sg63
(lp1206
S'http_referer'
p1207
asbag56
(g77
g58
NtRp1208
(dp1209
g61
(dp1210
g88
g89
ssg70
g1199
sg63
(lp1211
S':'
asbag56
(g77
g58
NtRp1212
(dp1213
g61
(dp1214
sg70
g1199
sg63
(lp1215
g56
(g57
g58
NtRp1216
(dp1217
g61
(dp1218
g69
I4
ssg70
g1212
sg63
(lp1219
S'http://127.0.0.1:8000/ACES/default/index'
p1220
asbasbasbag56
(g72
g58
NtRp1221
(dp1222
g61
(dp1223
sg70
g821
sg63
(lp1224
g56
(g77
g58
NtRp1225
(dp1226
g61
(dp1227
g81
g82
ssg70
g1221
sg63
(lp1228
S'http_user_agent'
p1229
asbag56
(g77
g58
NtRp1230
(dp1231
g61
(dp1232
g88
g89
ssg70
g1221
sg63
(lp1233
S':'
asbag56
(g77
g58
NtRp1234
(dp1235
g61
(dp1236
sg70
g1221
sg63
(lp1237
g56
(g57
g58
NtRp1238
(dp1239
g61
(dp1240
g69
I4
ssg70
g1234
sg63
(lp1241
S'Mozilla/5.0 (X11; Ubuntu; Linux i686; rv:13.0) Gecko/20100101 Firefox/13.0.1'
p1242
asbasbasbag56
(g72
g58
NtRp1243
(dp1244
g61
(dp1245
sg70
g821
sg63
(lp1246
g56
(g77
g58
NtRp1247
(dp1248
g61
(dp1249
g81
g82
ssg70
g1243
sg63
(lp1250
S'is_jython'
p1251
asbag56
(g77
g58
NtRp1252
(dp1253
g61
(dp1254
g88
g89
ssg70
g1243
sg63
(lp1255
S':'
asbag56
(g77
g58
NtRp1256
(dp1257
g61
(dp1258
sg70
g1243
sg63
(lp1259
g56
(g57
g58
NtRp1260
(dp1261
g61
(dp1262
g69
I4
ssg70
g1256
sg63
(lp1263
g99
asbasbasbag56
(g72
g58
NtRp1264
(dp1265
g61
(dp1266
sg70
g821
sg63
(lp1267
g56
(g77
g58
NtRp1268
(dp1269
g61
(dp1270
g81
g82
ssg70
g1264
sg63
(lp1271
S'path_info'
p1272
asbag56
(g77
g58
NtRp1273
(dp1274
g61
(dp1275
g88
g89
ssg70
g1264
sg63
(lp1276
S':'
asbag56
(g77
g58
NtRp1277
(dp1278
g61
(dp1279
sg70
g1264
sg63
(lp1280
g56
(g57
g58
NtRp1281
(dp1282
g61
(dp1283
g69
I4
ssg70
g1277
sg63
(lp1284
S'/ACES/default/index'
p1285
asbasbasbag56
(g72
g58
NtRp1286
(dp1287
g61
(dp1288
sg70
g821
sg63
(lp1289
g56
(g77
g58
NtRp1290
(dp1291
g61
(dp1292
g81
g82
ssg70
g1286
sg63
(lp1293
S'query_string'
p1294
asbag56
(g77
g58
NtRp1295
(dp1296
g61
(dp1297
g88
g89
ssg70
g1286
sg63
(lp1298
S':'
asbag56
(g77
g58
NtRp1299
(dp1300
g61
(dp1301
sg70
g1286
sg63
(lp1302
g56
(g57
g58
NtRp1303
(dp1304
g61
(dp1305
g69
I4
ssg70
g1299
sg63
(lp1306
S''
asbasbasbag56
(g72
g58
NtRp1307
(dp1308
g61
(dp1309
sg70
g821
sg63
(lp1310
g56
(g77
g58
NtRp1311
(dp1312
g61
(dp1313
g81
g82
ssg70
g1307
sg63
(lp1314
S'remote_addr'
p1315
asbag56
(g77
g58
NtRp1316
(dp1317
g61
(dp1318
g88
g89
ssg70
g1307
sg63
(lp1319
S':'
asbag56
(g77
g58
NtRp1320
(dp1321
g61
(dp1322
sg70
g1307
sg63
(lp1323
g56
(g57
g58
NtRp1324
(dp1325
g61
(dp1326
g69
I4
ssg70
g1320
sg63
(lp1327
g189
asbasbasbag56
(g72
g58
NtRp1328
(dp1329
g61
(dp1330
sg70
g821
sg63
(lp1331
g56
(g77
g58
NtRp1332
(dp1333
g61
(dp1334
g81
g82
ssg70
g1328
sg63
(lp1335
S'remote_port'
p1336
asbag56
(g77
g58
NtRp1337
(dp1338
g61
(dp1339
g88
g89
ssg70
g1328
sg63
(lp1340
S':'
asbag56
(g77
g58
NtRp1341
(dp1342
g61
(dp1343
sg70
g1328
sg63
(lp1344
g56
(g57
g58
NtRp1345
(dp1346
g61
(dp1347
g69
I4
ssg70
g1341
sg63
(lp1348
S'51707'
p1349
asbasbasbag56
(g72
g58
NtRp1350
(dp1351
g61
(dp1352
sg70
g821
sg63
(lp1353
g56
(g77
g58
NtRp1354
(dp1355
g61
(dp1356
g81
g82
ssg70
g1350
sg63
(lp1357
S'request_method'
p1358
asbag56
(g77
g58
NtRp1359
(dp1360
g61
(dp1361
g88
g89
ssg70
g1350
sg63
(lp1362
S':'
asbag56
(g77
g58
NtRp1363
(dp1364
g61
(dp1365
sg70
g1350
sg63
(lp1366
g56
(g57
g58
NtRp1367
(dp1368
g61
(dp1369
g69
I4
ssg70
g1363
sg63
(lp1370
S'POST'
p1371
asbasbasbag56
(g72
g58
NtRp1372
(dp1373
g61
(dp1374
sg70
g821
sg63
(lp1375
g56
(g77
g58
NtRp1376
(dp1377
g61
(dp1378
g81
g82
ssg70
g1372
sg63
(lp1379
S'script_name'
p1380
asbag56
(g77
g58
NtRp1381
(dp1382
g61
(dp1383
g88
g89
ssg70
g1372
sg63
(lp1384
S':'
asbag56
(g77
g58
NtRp1385
(dp1386
g61
(dp1387
sg70
g1372
sg63
(lp1388
g56
(g57
g58
NtRp1389
(dp1390
g61
(dp1391
g69
I4
ssg70
g1385
sg63
(lp1392
S''
asbasbasbag56
(g72
g58
NtRp1393
(dp1394
g61
(dp1395
sg70
g821
sg63
(lp1396
g56
(g77
g58
NtRp1397
(dp1398
g61
(dp1399
g81
g82
ssg70
g1393
sg63
(lp1400
S'server_name'
p1401
asbag56
(g77
g58
NtRp1402
(dp1403
g61
(dp1404
g88
g89
ssg70
g1393
sg63
(lp1405
S':'
asbag56
(g77
g58
NtRp1406
(dp1407
g61
(dp1408
sg70
g1393
sg63
(lp1409
g56
(g57
g58
NtRp1410
(dp1411
g61
(dp1412
g69
I4
ssg70
g1406
sg63
(lp1413
S'chl-5833E'
p1414
asbasbasbag56
(g72
g58
NtRp1415
(dp1416
g61
(dp1417
sg70
g821
sg63
(lp1418
g56
(g77
g58
NtRp1419
(dp1420
g61
(dp1421
g81
g82
ssg70
g1415
sg63
(lp1422
S'server_port'
p1423
asbag56
(g77
g58
NtRp1424
(dp1425
g61
(dp1426
g88
g89
ssg70
g1415
sg63
(lp1427
S':'
asbag56
(g77
g58
NtRp1428
(dp1429
g61
(dp1430
sg70
g1415
sg63
(lp1431
g56
(g57
g58
NtRp1432
(dp1433
g61
(dp1434
g69
I4
ssg70
g1428
sg63
(lp1435
S'8000'
p1436
asbasbasbag56
(g72
g58
NtRp1437
(dp1438
g61
(dp1439
sg70
g821
sg63
(lp1440
g56
(g77
g58
NtRp1441
(dp1442
g61
(dp1443
g81
g82
ssg70
g1437
sg63
(lp1444
S'server_protocol'
p1445
asbag56
(g77
g58
NtRp1446
(dp1447
g61
(dp1448
g88
g89
ssg70
g1437
sg63
(lp1449
S':'
asbag56
(g77
g58
NtRp1450
(dp1451
g61
(dp1452
sg70
g1437
sg63
(lp1453
g56
(g57
g58
NtRp1454
(dp1455
g61
(dp1456
g69
I4
ssg70
g1450
sg63
(lp1457
S'HTTP/1.1'
p1458
asbasbasbag56
(g72
g58
NtRp1459
(dp1460
g61
(dp1461
sg70
g821
sg63
(lp1462
g56
(g77
g58
NtRp1463
(dp1464
g61
(dp1465
g81
g82
ssg70
g1459
sg63
(lp1466
S'server_software'
p1467
asbag56
(g77
g58
NtRp1468
(dp1469
g61
(dp1470
g88
g89
ssg70
g1459
sg63
(lp1471
S':'
asbag56
(g77
g58
NtRp1472
(dp1473
g61
(dp1474
sg70
g1459
sg63
(lp1475
g56
(g57
g58
NtRp1476
(dp1477
g61
(dp1478
g69
I4
ssg70
g1472
sg63
(lp1479
S'Rocket 1.2.4'
p1480
asbasbasbag56
(g72
g58
NtRp1481
(dp1482
g61
(dp1483
sg70
g821
sg63
(lp1484
g56
(g77
g58
NtRp1485
(dp1486
g61
(dp1487
g81
g82
ssg70
g1481
sg63
(lp1488
S'web2py_crontype'
p1489
asbag56
(g77
g58
NtRp1490
(dp1491
g61
(dp1492
g88
g89
ssg70
g1481
sg63
(lp1493
S':'
asbag56
(g77
g58
NtRp1494
(dp1495
g61
(dp1496
sg70
g1481
sg63
(lp1497
g56
(g57
g58
NtRp1498
(dp1499
g61
(dp1500
g69
I4
ssg70
g1494
sg63
(lp1501
S'hard'
p1502
asbasbasbag56
(g72
g58
NtRp1503
(dp1504
g61
(dp1505
sg70
g821
sg63
(lp1506
g56
(g77
g58
NtRp1507
(dp1508
g61
(dp1509
g81
g82
ssg70
g1503
sg63
(lp1510
S'web2py_path'
p1511
asbag56
(g77
g58
NtRp1512
(dp1513
g61
(dp1514
g88
g89
ssg70
g1503
sg63
(lp1515
S':'
asbag56
(g77
g58
NtRp1516
(dp1517
g61
(dp1518
sg70
g1503
sg63
(lp1519
g56
(g57
g58
NtRp1520
(dp1521
g61
(dp1522
g69
I4
ssg70
g1516
sg63
(lp1523
g868
asbasbasbag56
(g72
g58
NtRp1524
(dp1525
g61
(dp1526
sg70
g821
sg63
(lp1527
g56
(g77
g58
NtRp1528
(dp1529
g61
(dp1530
g81
g82
ssg70
g1524
sg63
(lp1531
S'web2py_version'
p1532
asbag56
(g77
g58
NtRp1533
(dp1534
g61
(dp1535
g88
g89
ssg70
g1524
sg63
(lp1536
S':'
asbag56
(g77
g58
NtRp1537
(dp1538
g61
(dp1539
sg70
g1524
sg63
(lp1540
g56
(g57
g58
NtRp1541
(dp1542
g61
(dp1543
g69
I4
ssg70
g1537
sg63
(lp1544
g56
(g65
g58
NtRp1545
(dp1546
g61
(dp1547
g69
I3
ssg70
Nsg63
(lp1548
g56
(g72
g58
NtRp1549
(dp1550
g61
(dp1551
sg70
g1545
sg63
(lp1552
g56
(g77
g58
NtRp1553
(dp1554
g61
(dp1555
sg70
g1549
sg63
(lp1556
g56
(g57
g58
NtRp1557
(dp1558
g61
(dp1559
g69
I3
ssg70
g1553
sg63
(lp1560
S'1'
asbasbasbag56
(g72
g58
NtRp1561
(dp1562
g61
(dp1563
sg70
g1545
sg63
(lp1564
g56
(g77
g58
NtRp1565
(dp1566
g61
(dp1567
sg70
g1561
sg63
(lp1568
g56
(g57
g58
NtRp1569
(dp1570
g61
(dp1571
g69
I3
ssg70
g1565
sg63
(lp1572
S'99'
p1573
asbasbasbag56
(g72
g58
NtRp1574
(dp1575
g61
(dp1576
sg70
g1545
sg63
(lp1577
g56
(g77
g58
NtRp1578
(dp1579
g61
(dp1580
sg70
g1574
sg63
(lp1581
g56
(g57
g58
NtRp1582
(dp1583
g61
(dp1584
g69
I3
ssg70
g1578
sg63
(lp1585
S'2'
asbasbasbag56
(g72
g58
NtRp1586
(dp1587
g61
(dp1588
sg70
g1545
sg63
(lp1589
g56
(g77
g58
NtRp1590
(dp1591
g61
(dp1592
sg70
g1586
sg63
(lp1593
g56
(g57
g58
NtRp1594
(dp1595
g61
(dp1596
g69
I3
ssg70
g1590
sg63
(lp1597
S'datetime.datetime(2011, 9, 26, 6, 55, 33)'
p1598
asbasbasbag56
(g72
g58
NtRp1599
(dp1600
g61
(dp1601
sg70
g1545
sg63
(lp1602
g56
(g77
g58
NtRp1603
(dp1604
g61
(dp1605
sg70
g1599
sg63
(lp1606
g56
(g57
g58
NtRp1607
(dp1608
g61
(dp1609
g69
I3
ssg70
g1603
sg63
(lp1610
S'stable'
p1611
asbasbasbasbasbasbasbag56
(g72
g58
NtRp1612
(dp1613
g61
(dp1614
sg70
g821
sg63
(lp1615
g56
(g77
g58
NtRp1616
(dp1617
g61
(dp1618
g81
g82
ssg70
g1612
sg63
(lp1619
S'wsgi_errors'
p1620
asbag56
(g77
g58
NtRp1621
(dp1622
g61
(dp1623
g88
g89
ssg70
g1612
sg63
(lp1624
S':'
asbag56
(g77
g58
NtRp1625
(dp1626
g61
(dp1627
sg70
g1612
sg63
(lp1628
g56
(g57
g58
NtRp1629
(dp1630
g61
(dp1631
g69
I4
ssg70
g1625
sg63
(lp1632
S"<open file '<stderr>', mode 'w' at 0xb73810d0>"
p1633
asbasbasbag56
(g72
g58
NtRp1634
(dp1635
g61
(dp1636
sg70
g821
sg63
(lp1637
g56
(g77
g58
NtRp1638
(dp1639
g61
(dp1640
g81
g82
ssg70
g1634
sg63
(lp1641
S'wsgi_file_wrapper'
p1642
asbag56
(g77
g58
NtRp1643
(dp1644
g61
(dp1645
g88
g89
ssg70
g1634
sg63
(lp1646
S':'
asbag56
(g77
g58
NtRp1647
(dp1648
g61
(dp1649
sg70
g1634
sg63
(lp1650
g56
(g57
g58
NtRp1651
(dp1652
g61
(dp1653
g69
I4
ssg70
g1647
sg63
(lp1654
S'<class wsgiref.util.FileWrapper at 0x8b168fc>'
p1655
asbasbasbag56
(g72
g58
NtRp1656
(dp1657
g61
(dp1658
sg70
g821
sg63
(lp1659
g56
(g77
g58
NtRp1660
(dp1661
g61
(dp1662
g81
g82
ssg70
g1656
sg63
(lp1663
S'wsgi_input'
p1664
asbag56
(g77
g58
NtRp1665
(dp1666
g61
(dp1667
g88
g89
ssg70
g1656
sg63
(lp1668
S':'
asbag56
(g77
g58
NtRp1669
(dp1670
g61
(dp1671
sg70
g1656
sg63
(lp1672
g56
(g57
g58
NtRp1673
(dp1674
g61
(dp1675
g69
I4
ssg70
g1669
sg63
(lp1676
S'<socket._fileobject object at 0x8f397ec>'
p1677
asbasbasbag56
(g72
g58
NtRp1678
(dp1679
g61
(dp1680
sg70
g821
sg63
(lp1681
g56
(g77
g58
NtRp1682
(dp1683
g61
(dp1684
g81
g82
ssg70
g1678
sg63
(lp1685
S'wsgi_multiprocess'
p1686
asbag56
(g77
g58
NtRp1687
(dp1688
g61
(dp1689
g88
g89
ssg70
g1678
sg63
(lp1690
S':'
asbag56
(g77
g58
NtRp1691
(dp1692
g61
(dp1693
sg70
g1678
sg63
(lp1694
g56
(g57
g58
NtRp1695
(dp1696
g61
(dp1697
g69
I4
ssg70
g1691
sg63
(lp1698
g99
asbasbasbag56
(g72
g58
NtRp1699
(dp1700
g61
(dp1701
sg70
g821
sg63
(lp1702
g56
(g77
g58
NtRp1703
(dp1704
g61
(dp1705
g81
g82
ssg70
g1699
sg63
(lp1706
S'wsgi_multithread'
p1707
asbag56
(g77
g58
NtRp1708
(dp1709
g61
(dp1710
g88
g89
ssg70
g1699
sg63
(lp1711
S':'
asbag56
(g77
g58
NtRp1712
(dp1713
g61
(dp1714
sg70
g1699
sg63
(lp1715
g56
(g57
g58
NtRp1716
(dp1717
g61
(dp1718
g69
I4
ssg70
g1712
sg63
(lp1719
S'True'
p1720
asbasbasbag56
(g72
g58
NtRp1721
(dp1722
g61
(dp1723
sg70
g821
sg63
(lp1724
g56
(g77
g58
NtRp1725
(dp1726
g61
(dp1727
g81
g82
ssg70
g1721
sg63
(lp1728
S'wsgi_run_once'
p1729
asbag56
(g77
g58
NtRp1730
(dp1731
g61
(dp1732
g88
g89
ssg70
g1721
sg63
(lp1733
S':'
asbag56
(g77
g58
NtRp1734
(dp1735
g61
(dp1736
sg70
g1721
sg63
(lp1737
g56
(g57
g58
NtRp1738
(dp1739
g61
(dp1740
g69
I4
ssg70
g1734
sg63
(lp1741
g99
asbasbasbag56
(g72
g58
NtRp1742
(dp1743
g61
(dp1744
sg70
g821
sg63
(lp1745
g56
(g77
g58
NtRp1746
(dp1747
g61
(dp1748
g81
g82
ssg70
g1742
sg63
(lp1749
S'wsgi_url_scheme'
p1750
asbag56
(g77
g58
NtRp1751
(dp1752
g61
(dp1753
g88
g89
ssg70
g1742
sg63
(lp1754
S':'
asbag56
(g77
g58
NtRp1755
(dp1756
g61
(dp1757
sg70
g1742
sg63
(lp1758
g56
(g57
g58
NtRp1759
(dp1760
g61
(dp1761
g69
I4
ssg70
g1755
sg63
(lp1762
S'http'
p1763
asbasbasbag56
(g72
g58
NtRp1764
(dp1765
g61
(dp1766
sg70
g821
sg63
(lp1767
g56
(g77
g58
NtRp1768
(dp1769
g61
(dp1770
g81
g82
ssg70
g1764
sg63
(lp1771
S'wsgi_version'
p1772
asbag56
(g77
g58
NtRp1773
(dp1774
g61
(dp1775
g88
g89
ssg70
g1764
sg63
(lp1776
S':'
asbag56
(g77
g58
NtRp1777
(dp1778
g61
(dp1779
sg70
g1764
sg63
(lp1780
g56
(g57
g58
NtRp1781
(dp1782
g61
(dp1783
g69
I4
ssg70
g1777
sg63
(lp1784
g56
(g65
g58
NtRp1785
(dp1786
g61
(dp1787
g69
I3
ssg70
Nsg63
(lp1788
g56
(g72
g58
NtRp1789
(dp1790
g61
(dp1791
sg70
g1785
sg63
(lp1792
g56
(g77
g58
NtRp1793
(dp1794
g61
(dp1795
sg70
g1789
sg63
(lp1796
g56
(g57
g58
NtRp1797
(dp1798
g61
(dp1799
g69
I3
ssg70
g1793
sg63
(lp1800
S'1'
asbasbasbag56
(g72
g58
NtRp1801
(dp1802
g61
(dp1803
sg70
g1785
sg63
(lp1804
g56
(g77
g58
NtRp1805
(dp1806
g61
(dp1807
sg70
g1801
sg63
(lp1808
g56
(g57
g58
NtRp1809
(dp1810
g61
(dp1811
g69
I3
ssg70
g1805
sg63
(lp1812
S'0'
asbasbasbasbasbasbasbasbasbasbasbag56
(g72
g58
NtRp1813
(dp1814
g61
(dp1815
sg70
g66
sg63
(lp1816
g56
(g77
g58
NtRp1817
(dp1818
g61
(dp1819
g81
g82
ssg70
g1813
sg63
(lp1820
S'extension'
p1821
asbag56
(g77
g58
NtRp1822
(dp1823
g61
(dp1824
g88
g89
ssg70
g1813
sg63
(lp1825
S':'
asbag56
(g77
g58
NtRp1826
(dp1827
g61
(dp1828
sg70
g1813
sg63
(lp1829
g56
(g57
g58
NtRp1830
(dp1831
g61
(dp1832
g69
I5
ssg70
g1826
sg63
(lp1833
S'html'
p1834
asbasbasbag56
(g72
g58
NtRp1835
(dp1836
g61
(dp1837
sg70
g66
sg63
(lp1838
g56
(g77
g58
NtRp1839
(dp1840
g61
(dp1841
g81
g82
ssg70
g1835
sg63
(lp1842
S'folder'
p1843
asbag56
(g77
g58
NtRp1844
(dp1845
g61
(dp1846
g88
g89
ssg70
g1835
sg63
(lp1847
S':'
asbag56
(g77
g58
NtRp1848
(dp1849
g61
(dp1850
sg70
g1835
sg63
(lp1851
g56
(g57
g58
NtRp1852
(dp1853
g61
(dp1854
g69
I5
ssg70
g1848
sg63
(lp1855
S'/home/u4hcsdaw/Python/web2py/applications/ACES/'
p1856
asbasbasbag56
(g72
g58
NtRp1857
(dp1858
g61
(dp1859
sg70
g66
sg63
(lp1860
g56
(g77
g58
NtRp1861
(dp1862
g61
(dp1863
g81
g82
ssg70
g1857
sg63
(lp1864
S'function'
p1865
asbag56
(g77
g58
NtRp1866
(dp1867
g61
(dp1868
g88
g89
ssg70
g1857
sg63
(lp1869
S':'
asbag56
(g77
g58
NtRp1870
(dp1871
g61
(dp1872
sg70
g1857
sg63
(lp1873
g56
(g57
g58
NtRp1874
(dp1875
g61
(dp1876
g69
I5
ssg70
g1870
sg63
(lp1877
S'index'
p1878
asbasbasbag56
(g72
g58
NtRp1879
(dp1880
g61
(dp1881
sg70
g66
sg63
(lp1882
g56
(g77
g58
NtRp1883
(dp1884
g61
(dp1885
g81
g82
ssg70
g1879
sg63
(lp1886
S'get_vars'
p1887
asbag56
(g77
g58
NtRp1888
(dp1889
g61
(dp1890
g88
g89
ssg70
g1879
sg63
(lp1891
S':'
asbag56
(g77
g58
NtRp1892
(dp1893
g61
(dp1894
sg70
g1879
sg63
(lp1895
g56
(g57
g58
NtRp1896
(dp1897
g61
(dp1898
g69
I5
ssg70
g1892
sg63
(lp1899
g56
(g65
g58
NtRp1900
(dp1901
g61
(dp1902
g69
I4
ssg70
Nsg63
(lp1903
sbasbasbasbag56
(g72
g58
NtRp1904
(dp1905
g61
(dp1906
sg70
g66
sg63
(lp1907
g56
(g77
g58
NtRp1908
(dp1909
g61
(dp1910
g81
g82
ssg70
g1904
sg63
(lp1911
S'global_settings'
p1912
asbag56
(g77
g58
NtRp1913
(dp1914
g61
(dp1915
g88
g89
ssg70
g1904
sg63
(lp1916
S':'
asbag56
(g77
g58
NtRp1917
(dp1918
g61
(dp1919
sg70
g1904
sg63
(lp1920
g56
(g57
g58
NtRp1921
(dp1922
g61
(dp1923
g69
I5
ssg70
g1917
sg63
(lp1924
g56
(g65
g58
NtRp1925
(dp1926
g61
(dp1927
g69
I4
ssg70
Nsg63
(lp1928
g56
(g72
g58
NtRp1929
(dp1930
g61
(dp1931
sg70
g1925
sg63
(lp1932
g56
(g77
g58
NtRp1933
(dp1934
g61
(dp1935
g81
g82
ssg70
g1929
sg63
(lp1936
g833
asbag56
(g77
g58
NtRp1937
(dp1938
g61
(dp1939
g88
g89
ssg70
g1929
sg63
(lp1940
S':'
asbag56
(g77
g58
NtRp1941
(dp1942
g61
(dp1943
sg70
g1929
sg63
(lp1944
g56
(g57
g58
NtRp1945
(dp1946
g61
(dp1947
g69
I4
ssg70
g1941
sg63
(lp1948
S"set(['/home/u4hcsdaw/Python/web2py/applications/ACES/', '/home/u4hcsdaw/Python/web2py/applications/admin/', '/home/u4hcsdaw/Python/web2py/applications/welcome/'])"
p1949
asbasbasbag56
(g72
g58
NtRp1950
(dp1951
g61
(dp1952
sg70
g1925
sg63
(lp1953
g56
(g77
g58
NtRp1954
(dp1955
g61
(dp1956
g81
g82
ssg70
g1950
sg63
(lp1957
g855
asbag56
(g77
g58
NtRp1958
(dp1959
g61
(dp1960
g88
g89
ssg70
g1950
sg63
(lp1961
S':'
asbag56
(g77
g58
NtRp1962
(dp1963
g61
(dp1964
sg70
g1950
sg63
(lp1965
g56
(g57
g58
NtRp1966
(dp1967
g61
(dp1968
g69
I4
ssg70
g1962
sg63
(lp1969
g868
asbasbasbag56
(g72
g58
NtRp1970
(dp1971
g61
(dp1972
sg70
g1925
sg63
(lp1973
g56
(g77
g58
NtRp1974
(dp1975
g61
(dp1976
g81
g82
ssg70
g1970
sg63
(lp1977
g877
asbag56
(g77
g58
NtRp1978
(dp1979
g61
(dp1980
g88
g89
ssg70
g1970
sg63
(lp1981
S':'
asbag56
(g77
g58
NtRp1982
(dp1983
g61
(dp1984
sg70
g1970
sg63
(lp1985
g56
(g57
g58
NtRp1986
(dp1987
g61
(dp1988
g69
I4
ssg70
g1982
sg63
(lp1989
g56
(g65
g58
NtRp1990
(dp1991
g61
(dp1992
g69
I3
ssg70
Nsg63
(lp1993
sbasbasbasbag56
(g72
g58
NtRp1994
(dp1995
g61
(dp1996
sg70
g1925
sg63
(lp1997
g56
(g77
g58
NtRp1998
(dp1999
g61
(dp2000
g81
g82
ssg70
g1994
sg63
(lp2001
g902
asbag56
(g77
g58
NtRp2002
(dp2003
g61
(dp2004
g88
g89
ssg70
g1994
sg63
(lp2005
S':'
asbag56
(g77
g58
NtRp2006
(dp2007
g61
(dp2008
sg70
g1994
sg63
(lp2009
g56
(g57
g58
NtRp2010
(dp2011
g61
(dp2012
g69
I4
ssg70
g2006
sg63
(lp2013
S"<Values at 0x8bd702c: {'verbose': False, 'ip': '127.0.0.1', 'shutdown_timeout': 5, 'taskbar': False, 'nocron': False, 'pid_filename': 'httpserver.pid', 'maxthreads': None, 'softcron': False, 'server_name': 'chl-5833E', 'bpython': False, 'nogui': False, 'port': 8000, 'extcron': False, 'debuglevel': 30, 'test': None, 'folder': '/home/u4hcsdaw/Python/web2py', 'config': '', 'import_models': False, 'winservice': '', 'shell': None, 'run': '', 'log_filename': 'httpserver.log', 'args': [''], 'ssl_ca_certificate': None, 'scheduler': None, 'profiler_filename': None, 'ssl_private_key': '', 'password': '<ask>', 'request_queue_size': 5, 'ssl_certificate': '', 'cronjob': False, 'plain': False, 'quiet': False, 'interfaces': None, 'minthreads': None, 'timeout': 10, 'numthreads': None, 'nobanner': False}>"
p2014
asbasbasbag56
(g72
g58
NtRp2015
(dp2016
g61
(dp2017
sg70
g1925
sg63
(lp2018
g56
(g77
g58
NtRp2019
(dp2020
g61
(dp2021
g81
g82
ssg70
g2015
sg63
(lp2022
g968
asbag56
(g77
g58
NtRp2023
(dp2024
g61
(dp2025
g88
g89
ssg70
g2015
sg63
(lp2026
S':'
asbag56
(g77
g58
NtRp2027
(dp2028
g61
(dp2029
sg70
g2015
sg63
(lp2030
g56
(g57
g58
NtRp2031
(dp2032
g61
(dp2033
g69
I4
ssg70
g2027
sg63
(lp2034
S'set([])'
p2035
asbasbasbag56
(g72
g58
NtRp2036
(dp2037
g61
(dp2038
sg70
g1925
sg63
(lp2039
g56
(g77
g58
NtRp2040
(dp2041
g61
(dp2042
g81
g82
ssg70
g2036
sg63
(lp2043
g990
asbag56
(g77
g58
NtRp2044
(dp2045
g61
(dp2046
g88
g89
ssg70
g2036
sg63
(lp2047
S':'
asbag56
(g77
g58
NtRp2048
(dp2049
g61
(dp2050
sg70
g2036
sg63
(lp2051
g56
(g57
g58
NtRp2052
(dp2053
g61
(dp2054
g69
I4
ssg70
g2048
sg63
(lp2055
g99
asbasbasbag56
(g72
g58
NtRp2056
(dp2057
g61
(dp2058
sg70
g1925
sg63
(lp2059
g56
(g77
g58
NtRp2060
(dp2061
g61
(dp2062
g81
g82
ssg70
g2056
sg63
(lp2063
g1011
asbag56
(g77
g58
NtRp2064
(dp2065
g61
(dp2066
g88
g89
ssg70
g2056
sg63
(lp2067
S':'
asbag56
(g77
g58
NtRp2068
(dp2069
g61
(dp2070
sg70
g2056
sg63
(lp2071
g56
(g57
g58
NtRp2072
(dp2073
g61
(dp2074
g69
I4
ssg70
g2068
sg63
(lp2075
g1024
asbasbasbag56
(g72
g58
NtRp2076
(dp2077
g61
(dp2078
sg70
g1925
sg63
(lp2079
g56
(g77
g58
NtRp2080
(dp2081
g61
(dp2082
g81
g82
ssg70
g2076
sg63
(lp2083
g1251
asbag56
(g77
g58
NtRp2084
(dp2085
g61
(dp2086
g88
g89
ssg70
g2076
sg63
(lp2087
S':'
asbag56
(g77
g58
NtRp2088
(dp2089
g61
(dp2090
sg70
g2076
sg63
(lp2091
g56
(g57
g58
NtRp2092
(dp2093
g61
(dp2094
g69
I4
ssg70
g2088
sg63
(lp2095
g99
asbasbasbag56
(g72
g58
NtRp2096
(dp2097
g61
(dp2098
sg70
g1925
sg63
(lp2099
g56
(g77
g58
NtRp2100
(dp2101
g61
(dp2102
g81
g82
ssg70
g2096
sg63
(lp2103
g1489
asbag56
(g77
g58
NtRp2104
(dp2105
g61
(dp2106
g88
g89
ssg70
g2096
sg63
(lp2107
S':'
asbag56
(g77
g58
NtRp2108
(dp2109
g61
(dp2110
sg70
g2096
sg63
(lp2111
g56
(g57
g58
NtRp2112
(dp2113
g61
(dp2114
g69
I4
ssg70
g2108
sg63
(lp2115
g1502
asbasbasbag56
(g72
g58
NtRp2116
(dp2117
g61
(dp2118
sg70
g1925
sg63
(lp2119
g56
(g77
g58
NtRp2120
(dp2121
g61
(dp2122
g81
g82
ssg70
g2116
sg63
(lp2123
g1532
asbag56
(g77
g58
NtRp2124
(dp2125
g61
(dp2126
g88
g89
ssg70
g2116
sg63
(lp2127
S':'
asbag56
(g77
g58
NtRp2128
(dp2129
g61
(dp2130
sg70
g2116
sg63
(lp2131
g56
(g57
g58
NtRp2132
(dp2133
g61
(dp2134
g69
I4
ssg70
g2128
sg63
(lp2135
g56
(g65
g58
NtRp2136
(dp2137
g61
(dp2138
g69
I3
ssg70
Nsg63
(lp2139
g56
(g72
g58
NtRp2140
(dp2141
g61
(dp2142
sg70
g2136
sg63
(lp2143
g56
(g77
g58
NtRp2144
(dp2145
g61
(dp2146
sg70
g2140
sg63
(lp2147
g56
(g57
g58
NtRp2148
(dp2149
g61
(dp2150
g69
I3
ssg70
g2144
sg63
(lp2151
S'1'
asbasbasbag56
(g72
g58
NtRp2152
(dp2153
g61
(dp2154
sg70
g2136
sg63
(lp2155
g56
(g77
g58
NtRp2156
(dp2157
g61
(dp2158
sg70
g2152
sg63
(lp2159
g56
(g57
g58
NtRp2160
(dp2161
g61
(dp2162
g69
I3
ssg70
g2156
sg63
(lp2163
S'99'
p2164
asbasbasbag56
(g72
g58
NtRp2165
(dp2166
g61
(dp2167
sg70
g2136
sg63
(lp2168
g56
(g77
g58
NtRp2169
(dp2170
g61
(dp2171
sg70
g2165
sg63
(lp2172
g56
(g57
g58
NtRp2173
(dp2174
g61
(dp2175
g69
I3
ssg70
g2169
sg63
(lp2176
S'2'
asbasbasbag56
(g72
g58
NtRp2177
(dp2178
g61
(dp2179
sg70
g2136
sg63
(lp2180
g56
(g77
g58
NtRp2181
(dp2182
g61
(dp2183
sg70
g2177
sg63
(lp2184
g56
(g57
g58
NtRp2185
(dp2186
g61
(dp2187
g69
I3
ssg70
g2181
sg63
(lp2188
S'datetime.datetime(2011, 9, 26, 6, 55, 33)'
p2189
asbasbasbag56
(g72
g58
NtRp2190
(dp2191
g61
(dp2192
sg70
g2136
sg63
(lp2193
g56
(g77
g58
NtRp2194
(dp2195
g61
(dp2196
sg70
g2190
sg63
(lp2197
g56
(g57
g58
NtRp2198
(dp2199
g61
(dp2200
g69
I3
ssg70
g2194
sg63
(lp2201
g1611
asbasbasbasbasbasbasbasbasbasbasbag56
(g72
g58
NtRp2202
(dp2203
g61
(dp2204
sg70
g66
sg63
(lp2205
g56
(g77
g58
NtRp2206
(dp2207
g61
(dp2208
g81
g82
ssg70
g2202
sg63
(lp2209
S'is_https'
p2210
asbag56
(g77
g58
NtRp2211
(dp2212
g61
(dp2213
g88
g89
ssg70
g2202
sg63
(lp2214
S':'
asbag56
(g77
g58
NtRp2215
(dp2216
g61
(dp2217
sg70
g2202
sg63
(lp2218
g56
(g57
g58
NtRp2219
(dp2220
g61
(dp2221
g69
I5
ssg70
g2215
sg63
(lp2222
g99
asbasbasbag56
(g72
g58
NtRp2223
(dp2224
g61
(dp2225
sg70
g66
sg63
(lp2226
g56
(g77
g58
NtRp2227
(dp2228
g61
(dp2229
g81
g82
ssg70
g2223
sg63
(lp2230
S'is_local'
p2231
asbag56
(g77
g58
NtRp2232
(dp2233
g61
(dp2234
g88
g89
ssg70
g2223
sg63
(lp2235
S':'
asbag56
(g77
g58
NtRp2236
(dp2237
g61
(dp2238
sg70
g2223
sg63
(lp2239
g56
(g57
g58
NtRp2240
(dp2241
g61
(dp2242
g69
I5
ssg70
g2236
sg63
(lp2243
g1720
asbasbasbag56
(g72
g58
NtRp2244
(dp2245
g61
(dp2246
sg70
g66
sg63
(lp2247
g56
(g77
g58
NtRp2248
(dp2249
g61
(dp2250
g81
g82
ssg70
g2244
sg63
(lp2251
S'is_restful'
p2252
asbag56
(g77
g58
NtRp2253
(dp2254
g61
(dp2255
g88
g89
ssg70
g2244
sg63
(lp2256
S':'
asbag56
(g77
g58
NtRp2257
(dp2258
g61
(dp2259
sg70
g2244
sg63
(lp2260
g56
(g57
g58
NtRp2261
(dp2262
g61
(dp2263
g69
I5
ssg70
g2257
sg63
(lp2264
g99
asbasbasbag56
(g72
g58
NtRp2265
(dp2266
g61
(dp2267
sg70
g66
sg63
(lp2268
g56
(g77
g58
NtRp2269
(dp2270
g61
(dp2271
g81
g82
ssg70
g2265
sg63
(lp2272
S'now'
p2273
asbag56
(g77
g58
NtRp2274
(dp2275
g61
(dp2276
g88
g89
ssg70
g2265
sg63
(lp2277
S':'
asbag56
(g77
g58
NtRp2278
(dp2279
g61
(dp2280
sg70
g2265
sg63
(lp2281
g56
(g57
g58
NtRp2282
(dp2283
g61
(dp2284
g69
I5
ssg70
g2278
sg63
(lp2285
S'datetime.datetime(2012, 6, 29, 14, 21, 53, 262145)'
p2286
asbasbasbag56
(g72
g58
NtRp2287
(dp2288
g61
(dp2289
sg70
g66
sg63
(lp2290
g56
(g77
g58
NtRp2291
(dp2292
g61
(dp2293
g81
g82
ssg70
g2287
sg63
(lp2294
S'post_vars'
p2295
asbag56
(g77
g58
NtRp2296
(dp2297
g61
(dp2298
g88
g89
ssg70
g2287
sg63
(lp2299
S':'
asbag56
(g77
g58
NtRp2300
(dp2301
g61
(dp2302
sg70
g2287
sg63
(lp2303
g56
(g57
g58
NtRp2304
(dp2305
g61
(dp2306
g69
I5
ssg70
g2300
sg63
(lp2307
g56
(g65
g58
NtRp2308
(dp2309
g61
(dp2310
g69
I4
ssg70
Nsg63
(lp2311
g56
(g72
g58
NtRp2312
(dp2313
g61
(dp2314
sg70
g2308
sg63
(lp2315
g56
(g77
g58
NtRp2316
(dp2317
g61
(dp2318
g81
g82
ssg70
g2312
sg63
(lp2319
S'subButton'
p2320
asbag56
(g77
g58
NtRp2321
(dp2322
g61
(dp2323
g88
g89
ssg70
g2312
sg63
(lp2324
S':'
asbag56
(g77
g58
NtRp2325
(dp2326
g61
(dp2327
sg70
g2312
sg63
(lp2328
g56
(g57
g58
NtRp2329
(dp2330
g61
(dp2331
g69
I4
ssg70
g2325
sg63
(lp2332
S'Submit Query'
p2333
asbasbasbag56
(g72
g58
NtRp2334
(dp2335
g61
(dp2336
sg70
g2308
sg63
(lp2337
g56
(g77
g58
NtRp2338
(dp2339
g61
(dp2340
g81
g82
ssg70
g2334
sg63
(lp2341
S'waveHeight'
p2342
asbag56
(g77
g58
NtRp2343
(dp2344
g61
(dp2345
g88
g89
ssg70
g2334
sg63
(lp2346
S':'
asbag56
(g77
g58
NtRp2347
(dp2348
g61
(dp2349
sg70
g2334
sg63
(lp2350
g56
(g57
g58
NtRp2351
(dp2352
g61
(dp2353
g69
I4
ssg70
g2347
sg63
(lp2354
S'0.85'
p2355
asbasbasbasbasbasbasbag56
(g72
g58
NtRp2356
(dp2357
g61
(dp2358
sg70
g66
sg63
(lp2359
g56
(g77
g58
NtRp2360
(dp2361
g61
(dp2362
g81
g82
ssg70
g2356
sg63
(lp2363
S'url'
p2364
asbag56
(g77
g58
NtRp2365
(dp2366
g61
(dp2367
g88
g89
ssg70
g2356
sg63
(lp2368
S':'
asbag56
(g77
g58
NtRp2369
(dp2370
g61
(dp2371
sg70
g2356
sg63
(lp2372
g56
(g57
g58
NtRp2373
(dp2374
g61
(dp2375
g69
I5
ssg70
g2369
sg63
(lp2376
S'/ACES/default/index'
p2377
asbasbasbag56
(g72
g58
NtRp2378
(dp2379
g61
(dp2380
sg70
g66
sg63
(lp2381
g56
(g77
g58
NtRp2382
(dp2383
g61
(dp2384
g81
g82
ssg70
g2378
sg63
(lp2385
S'utcnow'
p2386
asbag56
(g77
g58
NtRp2387
(dp2388
g61
(dp2389
g88
g89
ssg70
g2378
sg63
(lp2390
S':'
asbag56
(g77
g58
NtRp2391
(dp2392
g61
(dp2393
sg70
g2378
sg63
(lp2394
g56
(g57
g58
NtRp2395
(dp2396
g61
(dp2397
g69
I5
ssg70
g2391
sg63
(lp2398
S'datetime.datetime(2012, 6, 29, 19, 21, 53, 262177)'
p2399
asbasbasbag56
(g72
g58
NtRp2400
(dp2401
g61
(dp2402
sg70
g66
sg63
(lp2403
g56
(g77
g58
NtRp2404
(dp2405
g61
(dp2406
g81
g82
ssg70
g2400
sg63
(lp2407
S'uuid'
p2408
asbag56
(g77
g58
NtRp2409
(dp2410
g61
(dp2411
g88
g89
ssg70
g2400
sg63
(lp2412
S':'
asbag56
(g77
g58
NtRp2413
(dp2414
g61
(dp2415
sg70
g2400
sg63
(lp2416
g56
(g57
g58
NtRp2417
(dp2418
g61
(dp2419
g69
I5
ssg70
g2413
sg63
(lp2420
S'ACES/127.0.0.1.2012-06-29.14-21-53.728967d1-942a-458f-a474-a737ff0a7e6a'
p2421
asbasbasbag56
(g72
g58
NtRp2422
(dp2423
g61
(dp2424
sg70
g66
sg63
(lp2425
g56
(g77
g58
NtRp2426
(dp2427
g61
(dp2428
g81
g82
ssg70
g2422
sg63
(lp2429
S'vars'
p2430
asbag56
(g77
g58
NtRp2431
(dp2432
g61
(dp2433
g88
g89
ssg70
g2422
sg63
(lp2434
S':'
asbag56
(g77
g58
NtRp2435
(dp2436
g61
(dp2437
sg70
g2422
sg63
(lp2438
g56
(g57
g58
NtRp2439
(dp2440
g61
(dp2441
g69
I5
ssg70
g2435
sg63
(lp2442
g56
(g65
g58
NtRp2443
(dp2444
g61
(dp2445
g69
I4
ssg70
Nsg63
(lp2446
g56
(g72
g58
NtRp2447
(dp2448
g61
(dp2449
sg70
g2443
sg63
(lp2450
g56
(g77
g58
NtRp2451
(dp2452
g61
(dp2453
g81
g82
ssg70
g2447
sg63
(lp2454
g2320
asbag56
(g77
g58
NtRp2455
(dp2456
g61
(dp2457
g88
g89
ssg70
g2447
sg63
(lp2458
S':'
asbag56
(g77
g58
NtRp2459
(dp2460
g61
(dp2461
sg70
g2447
sg63
(lp2462
g56
(g57
g58
NtRp2463
(dp2464
g61
(dp2465
g69
I4
ssg70
g2459
sg63
(lp2466
g2333
asbasbasbag56
(g72
g58
NtRp2467
(dp2468
g61
(dp2469
sg70
g2443
sg63
(lp2470
g56
(g77
g58
NtRp2471
(dp2472
g61
(dp2473
g81
g82
ssg70
g2467
sg63
(lp2474
g2342
asbag56
(g77
g58
NtRp2475
(dp2476
g61
(dp2477
g88
g89
ssg70
g2467
sg63
(lp2478
S':'
asbag56
(g77
g58
NtRp2479
(dp2480
g61
(dp2481
sg70
g2467
sg63
(lp2482
g56
(g57
g58
NtRp2483
(dp2484
g61
(dp2485
g69
I4
ssg70
g2479
sg63
(lp2486
g2355
asbasbasbasbasbasbasbag56
(g72
g58
NtRp2487
(dp2488
g61
(dp2489
sg70
g66
sg63
(lp2490
g56
(g77
g58
NtRp2491
(dp2492
g61
(dp2493
g81
g82
ssg70
g2487
sg63
(lp2494
S'wsgi'
p2495
asbag56
(g77
g58
NtRp2496
(dp2497
g61
(dp2498
g88
g89
ssg70
g2487
sg63
(lp2499
S':'
asbag56
(g77
g58
NtRp2500
(dp2501
g61
(dp2502
sg70
g2487
sg63
(lp2503
g56
(g57
g58
NtRp2504
(dp2505
g61
(dp2506
g69
I5
ssg70
g2500
sg63
(lp2507
g56
(g65
g58
NtRp2508
(dp2509
g61
(dp2510
g69
I4
ssg70
Nsg63
(lp2511
g56
(g72
g58
NtRp2512
(dp2513
g61
(dp2514
sg70
g2508
sg63
(lp2515
g56
(g77
g58
NtRp2516
(dp2517
g61
(dp2518
g81
g82
ssg70
g2512
sg63
(lp2519
S'environ'
p2520
asbag56
(g77
g58
NtRp2521
(dp2522
g61
(dp2523
g88
g89
ssg70
g2512
sg63
(lp2524
S':'
asbag56
(g77
g58
NtRp2525
(dp2526
g61
(dp2527
sg70
g2512
sg63
(lp2528
g56
(g57
g58
NtRp2529
(dp2530
g61
(dp2531
g69
I4
ssg70
g2525
sg63
(lp2532
g56
(g65
g58
NtRp2533
(dp2534
g61
(dp2535
g69
I3
ssg70
Nsg63
(lp2536
g56
(g72
g58
NtRp2537
(dp2538
g61
(dp2539
sg70
g2533
sg63
(lp2540
g56
(g77
g58
NtRp2541
(dp2542
g61
(dp2543
g81
g82
ssg70
g2537
sg63
(lp2544
S'CONTENT_LENGTH'
p2545
asbag56
(g77
g58
NtRp2546
(dp2547
g61
(dp2548
g88
g89
ssg70
g2537
sg63
(lp2549
S':'
asbag56
(g77
g58
NtRp2550
(dp2551
g61
(dp2552
sg70
g2537
sg63
(lp2553
g56
(g57
g58
NtRp2554
(dp2555
g61
(dp2556
g69
I3
ssg70
g2550
sg63
(lp2557
g937
asbasbasbag56
(g72
g58
NtRp2558
(dp2559
g61
(dp2560
sg70
g2533
sg63
(lp2561
g56
(g77
g58
NtRp2562
(dp2563
g61
(dp2564
g81
g82
ssg70
g2558
sg63
(lp2565
S'CONTENT_TYPE'
p2566
asbag56
(g77
g58
NtRp2567
(dp2568
g61
(dp2569
g88
g89
ssg70
g2558
sg63
(lp2570
S':'
asbag56
(g77
g58
NtRp2571
(dp2572
g61
(dp2573
sg70
g2558
sg63
(lp2574
g56
(g57
g58
NtRp2575
(dp2576
g61
(dp2577
g69
I3
ssg70
g2571
sg63
(lp2578
g959
asbasbasbag56
(g72
g58
NtRp2579
(dp2580
g61
(dp2581
sg70
g2533
sg63
(lp2582
g56
(g77
g58
NtRp2583
(dp2584
g61
(dp2585
g81
g82
ssg70
g2579
sg63
(lp2586
S'HTTP_ACCEPT'
p2587
asbag56
(g77
g58
NtRp2588
(dp2589
g61
(dp2590
g88
g89
ssg70
g2579
sg63
(lp2591
S':'
asbag56
(g77
g58
NtRp2592
(dp2593
g61
(dp2594
sg70
g2579
sg63
(lp2595
g56
(g57
g58
NtRp2596
(dp2597
g61
(dp2598
g69
I3
ssg70
g2592
sg63
(lp2599
g1046
asbasbasbag56
(g72
g58
NtRp2600
(dp2601
g61
(dp2602
sg70
g2533
sg63
(lp2603
g56
(g77
g58
NtRp2604
(dp2605
g61
(dp2606
g81
g82
ssg70
g2600
sg63
(lp2607
S'HTTP_ACCEPT_ENCODING'
p2608
asbag56
(g77
g58
NtRp2609
(dp2610
g61
(dp2611
g88
g89
ssg70
g2600
sg63
(lp2612
S':'
asbag56
(g77
g58
NtRp2613
(dp2614
g61
(dp2615
sg70
g2600
sg63
(lp2616
g56
(g57
g58
NtRp2617
(dp2618
g61
(dp2619
g69
I3
ssg70
g2613
sg63
(lp2620
g1068
asbasbasbag56
(g72
g58
NtRp2621
(dp2622
g61
(dp2623
sg70
g2533
sg63
(lp2624
g56
(g77
g58
NtRp2625
(dp2626
g61
(dp2627
g81
g82
ssg70
g2621
sg63
(lp2628
S'HTTP_ACCEPT_LANGUAGE'
p2629
asbag56
(g77
g58
NtRp2630
(dp2631
g61
(dp2632
g88
g89
ssg70
g2621
sg63
(lp2633
S':'
asbag56
(g77
g58
NtRp2634
(dp2635
g61
(dp2636
sg70
g2621
sg63
(lp2637
g56
(g57
g58
NtRp2638
(dp2639
g61
(dp2640
g69
I3
ssg70
g2634
sg63
(lp2641
g1090
asbasbasbag56
(g72
g58
NtRp2642
(dp2643
g61
(dp2644
sg70
g2533
sg63
(lp2645
g56
(g77
g58
NtRp2646
(dp2647
g61
(dp2648
g81
g82
ssg70
g2642
sg63
(lp2649
S'HTTP_CONNECTION'
p2650
asbag56
(g77
g58
NtRp2651
(dp2652
g61
(dp2653
g88
g89
ssg70
g2642
sg63
(lp2654
S':'
asbag56
(g77
g58
NtRp2655
(dp2656
g61
(dp2657
sg70
g2642
sg63
(lp2658
g56
(g57
g58
NtRp2659
(dp2660
g61
(dp2661
g69
I3
ssg70
g2655
sg63
(lp2662
g1112
asbasbasbag56
(g72
g58
NtRp2663
(dp2664
g61
(dp2665
sg70
g2533
sg63
(lp2666
g56
(g77
g58
NtRp2667
(dp2668
g61
(dp2669
g81
g82
ssg70
g2663
sg63
(lp2670
S'HTTP_CONTENT_LENGTH'
p2671
asbag56
(g77
g58
NtRp2672
(dp2673
g61
(dp2674
g88
g89
ssg70
g2663
sg63
(lp2675
S':'
asbag56
(g77
g58
NtRp2676
(dp2677
g61
(dp2678
sg70
g2663
sg63
(lp2679
g56
(g57
g58
NtRp2680
(dp2681
g61
(dp2682
g69
I3
ssg70
g2676
sg63
(lp2683
g937
asbasbasbag56
(g72
g58
NtRp2684
(dp2685
g61
(dp2686
sg70
g2533
sg63
(lp2687
g56
(g77
g58
NtRp2688
(dp2689
g61
(dp2690
g81
g82
ssg70
g2684
sg63
(lp2691
S'HTTP_CONTENT_TYPE'
p2692
asbag56
(g77
g58
NtRp2693
(dp2694
g61
(dp2695
g88
g89
ssg70
g2684
sg63
(lp2696
S':'
asbag56
(g77
g58
NtRp2697
(dp2698
g61
(dp2699
sg70
g2684
sg63
(lp2700
g56
(g57
g58
NtRp2701
(dp2702
g61
(dp2703
g69
I3
ssg70
g2697
sg63
(lp2704
g959
asbasbasbag56
(g72
g58
NtRp2705
(dp2706
g61
(dp2707
sg70
g2533
sg63
(lp2708
g56
(g77
g58
NtRp2709
(dp2710
g61
(dp2711
g81
g82
ssg70
g2705
sg63
(lp2712
S'HTTP_COOKIE'
p2713
asbag56
(g77
g58
NtRp2714
(dp2715
g61
(dp2716
g88
g89
ssg70
g2705
sg63
(lp2717
S':'
asbag56
(g77
g58
NtRp2718
(dp2719
g61
(dp2720
sg70
g2705
sg63
(lp2721
g56
(g57
g58
NtRp2722
(dp2723
g61
(dp2724
g69
I3
ssg70
g2718
sg63
(lp2725
g1176
asbasbasbag56
(g72
g58
NtRp2726
(dp2727
g61
(dp2728
sg70
g2533
sg63
(lp2729
g56
(g77
g58
NtRp2730
(dp2731
g61
(dp2732
g81
g82
ssg70
g2726
sg63
(lp2733
S'HTTP_HOST'
p2734
asbag56
(g77
g58
NtRp2735
(dp2736
g61
(dp2737
g88
g89
ssg70
g2726
sg63
(lp2738
S':'
asbag56
(g77
g58
NtRp2739
(dp2740
g61
(dp2741
sg70
g2726
sg63
(lp2742
g56
(g57
g58
NtRp2743
(dp2744
g61
(dp2745
g69
I3
ssg70
g2739
sg63
(lp2746
g1198
asbasbasbag56
(g72
g58
NtRp2747
(dp2748
g61
(dp2749
sg70
g2533
sg63
(lp2750
g56
(g77
g58
NtRp2751
(dp2752
g61
(dp2753
g81
g82
ssg70
g2747
sg63
(lp2754
S'HTTP_REFERER'
p2755
asbag56
(g77
g58
NtRp2756
(dp2757
g61
(dp2758
g88
g89
ssg70
g2747
sg63
(lp2759
S':'
asbag56
(g77
g58
NtRp2760
(dp2761
g61
(dp2762
sg70
g2747
sg63
(lp2763
g56
(g57
g58
NtRp2764
(dp2765
g61
(dp2766
g69
I3
ssg70
g2760
sg63
(lp2767
g1220
asbasbasbag56
(g72
g58
NtRp2768
(dp2769
g61
(dp2770
sg70
g2533
sg63
(lp2771
g56
(g77
g58
NtRp2772
(dp2773
g61
(dp2774
g81
g82
ssg70
g2768
sg63
(lp2775
S'HTTP_USER_AGENT'
p2776
asbag56
(g77
g58
NtRp2777
(dp2778
g61
(dp2779
g88
g89
ssg70
g2768
sg63
(lp2780
S':'
asbag56
(g77
g58
NtRp2781
(dp2782
g61
(dp2783
sg70
g2768
sg63
(lp2784
g56
(g57
g58
NtRp2785
(dp2786
g61
(dp2787
g69
I3
ssg70
g2781
sg63
(lp2788
g1242
asbasbasbag56
(g72
g58
NtRp2789
(dp2790
g61
(dp2791
sg70
g2533
sg63
(lp2792
g56
(g77
g58
NtRp2793
(dp2794
g61
(dp2795
g81
g82
ssg70
g2789
sg63
(lp2796
S'PATH_INFO'
p2797
asbag56
(g77
g58
NtRp2798
(dp2799
g61
(dp2800
g88
g89
ssg70
g2789
sg63
(lp2801
S':'
asbag56
(g77
g58
NtRp2802
(dp2803
g61
(dp2804
sg70
g2789
sg63
(lp2805
g56
(g57
g58
NtRp2806
(dp2807
g61
(dp2808
g69
I3
ssg70
g2802
sg63
(lp2809
g1285
asbasbasbag56
(g72
g58
NtRp2810
(dp2811
g61
(dp2812
sg70
g2533
sg63
(lp2813
g56
(g77
g58
NtRp2814
(dp2815
g61
(dp2816
g81
g82
ssg70
g2810
sg63
(lp2817
S'QUERY_STRING'
p2818
asbag56
(g77
g58
NtRp2819
(dp2820
g61
(dp2821
g88
g89
ssg70
g2810
sg63
(lp2822
S':'
asbag56
(g77
g58
NtRp2823
(dp2824
g61
(dp2825
sg70
g2810
sg63
(lp2826
g56
(g57
g58
NtRp2827
(dp2828
g61
(dp2829
g69
I3
ssg70
g2823
sg63
(lp2830
S''
asbasbasbag56
(g72
g58
NtRp2831
(dp2832
g61
(dp2833
sg70
g2533
sg63
(lp2834
g56
(g77
g58
NtRp2835
(dp2836
g61
(dp2837
g81
g82
ssg70
g2831
sg63
(lp2838
S'REMOTE_ADDR'
p2839
asbag56
(g77
g58
NtRp2840
(dp2841
g61
(dp2842
g88
g89
ssg70
g2831
sg63
(lp2843
S':'
asbag56
(g77
g58
NtRp2844
(dp2845
g61
(dp2846
sg70
g2831
sg63
(lp2847
g56
(g57
g58
NtRp2848
(dp2849
g61
(dp2850
g69
I3
ssg70
g2844
sg63
(lp2851
g189
asbasbasbag56
(g72
g58
NtRp2852
(dp2853
g61
(dp2854
sg70
g2533
sg63
(lp2855
g56
(g77
g58
NtRp2856
(dp2857
g61
(dp2858
g81
g82
ssg70
g2852
sg63
(lp2859
S'REMOTE_PORT'
p2860
asbag56
(g77
g58
NtRp2861
(dp2862
g61
(dp2863
g88
g89
ssg70
g2852
sg63
(lp2864
S':'
asbag56
(g77
g58
NtRp2865
(dp2866
g61
(dp2867
sg70
g2852
sg63
(lp2868
g56
(g57
g58
NtRp2869
(dp2870
g61
(dp2871
g69
I3
ssg70
g2865
sg63
(lp2872
g1349
asbasbasbag56
(g72
g58
NtRp2873
(dp2874
g61
(dp2875
sg70
g2533
sg63
(lp2876
g56
(g77
g58
NtRp2877
(dp2878
g61
(dp2879
g81
g82
ssg70
g2873
sg63
(lp2880
S'REQUEST_METHOD'
p2881
asbag56
(g77
g58
NtRp2882
(dp2883
g61
(dp2884
g88
g89
ssg70
g2873
sg63
(lp2885
S':'
asbag56
(g77
g58
NtRp2886
(dp2887
g61
(dp2888
sg70
g2873
sg63
(lp2889
g56
(g57
g58
NtRp2890
(dp2891
g61
(dp2892
g69
I3
ssg70
g2886
sg63
(lp2893
g1371
asbasbasbag56
(g72
g58
NtRp2894
(dp2895
g61
(dp2896
sg70
g2533
sg63
(lp2897
g56
(g77
g58
NtRp2898
(dp2899
g61
(dp2900
g81
g82
ssg70
g2894
sg63
(lp2901
S'SCRIPT_NAME'
p2902
asbag56
(g77
g58
NtRp2903
(dp2904
g61
(dp2905
g88
g89
ssg70
g2894
sg63
(lp2906
S':'
asbag56
(g77
g58
NtRp2907
(dp2908
g61
(dp2909
sg70
g2894
sg63
(lp2910
g56
(g57
g58
NtRp2911
(dp2912
g61
(dp2913
g69
I3
ssg70
g2907
sg63
(lp2914
S''
asbasbasbag56
(g72
g58
NtRp2915
(dp2916
g61
(dp2917
sg70
g2533
sg63
(lp2918
g56
(g77
g58
NtRp2919
(dp2920
g61
(dp2921
g81
g82
ssg70
g2915
sg63
(lp2922
S'SERVER_NAME'
p2923
asbag56
(g77
g58
NtRp2924
(dp2925
g61
(dp2926
g88
g89
ssg70
g2915
sg63
(lp2927
S':'
asbag56
(g77
g58
NtRp2928
(dp2929
g61
(dp2930
sg70
g2915
sg63
(lp2931
g56
(g57
g58
NtRp2932
(dp2933
g61
(dp2934
g69
I3
ssg70
g2928
sg63
(lp2935
g1414
asbasbasbag56
(g72
g58
NtRp2936
(dp2937
g61
(dp2938
sg70
g2533
sg63
(lp2939
g56
(g77
g58
NtRp2940
(dp2941
g61
(dp2942
g81
g82
ssg70
g2936
sg63
(lp2943
S'SERVER_PORT'
p2944
asbag56
(g77
g58
NtRp2945
(dp2946
g61
(dp2947
g88
g89
ssg70
g2936
sg63
(lp2948
S':'
asbag56
(g77
g58
NtRp2949
(dp2950
g61
(dp2951
sg70
g2936
sg63
(lp2952
g56
(g57
g58
NtRp2953
(dp2954
g61
(dp2955
g69
I3
ssg70
g2949
sg63
(lp2956
g1436
asbasbasbag56
(g72
g58
NtRp2957
(dp2958
g61
(dp2959
sg70
g2533
sg63
(lp2960
g56
(g77
g58
NtRp2961
(dp2962
g61
(dp2963
g81
g82
ssg70
g2957
sg63
(lp2964
S'SERVER_PROTOCOL'
p2965
asbag56
(g77
g58
NtRp2966
(dp2967
g61
(dp2968
g88
g89
ssg70
g2957
sg63
(lp2969
S':'
asbag56
(g77
g58
NtRp2970
(dp2971
g61
(dp2972
sg70
g2957
sg63
(lp2973
g56
(g57
g58
NtRp2974
(dp2975
g61
(dp2976
g69
I3
ssg70
g2970
sg63
(lp2977
g1458
asbasbasbag56
(g72
g58
NtRp2978
(dp2979
g61
(dp2980
sg70
g2533
sg63
(lp2981
g56
(g77
g58
NtRp2982
(dp2983
g61
(dp2984
g81
g82
ssg70
g2978
sg63
(lp2985
S'SERVER_SOFTWARE'
p2986
asbag56
(g77
g58
NtRp2987
(dp2988
g61
(dp2989
g88
g89
ssg70
g2978
sg63
(lp2990
S':'
asbag56
(g77
g58
NtRp2991
(dp2992
g61
(dp2993
sg70
g2978
sg63
(lp2994
g56
(g57
g58
NtRp2995
(dp2996
g61
(dp2997
g69
I3
ssg70
g2991
sg63
(lp2998
g1480
asbasbasbag56
(g72
g58
NtRp2999
(dp3000
g61
(dp3001
sg70
g2533
sg63
(lp3002
g56
(g77
g58
NtRp3003
(dp3004
g61
(dp3005
g81
g82
ssg70
g2999
sg63
(lp3006
S'wsgi.errors'
p3007
asbag56
(g77
g58
NtRp3008
(dp3009
g61
(dp3010
g88
g89
ssg70
g2999
sg63
(lp3011
S':'
asbag56
(g77
g58
NtRp3012
(dp3013
g61
(dp3014
sg70
g2999
sg63
(lp3015
g56
(g57
g58
NtRp3016
(dp3017
g61
(dp3018
g69
I3
ssg70
g3012
sg63
(lp3019
S"<open file '<stderr>', mode 'w' at 0xb73810d0>"
p3020
asbasbasbag56
(g72
g58
NtRp3021
(dp3022
g61
(dp3023
sg70
g2533
sg63
(lp3024
g56
(g77
g58
NtRp3025
(dp3026
g61
(dp3027
g81
g82
ssg70
g3021
sg63
(lp3028
S'wsgi.file_wrapper'
p3029
asbag56
(g77
g58
NtRp3030
(dp3031
g61
(dp3032
g88
g89
ssg70
g3021
sg63
(lp3033
S':'
asbag56
(g77
g58
NtRp3034
(dp3035
g61
(dp3036
sg70
g3021
sg63
(lp3037
g56
(g57
g58
NtRp3038
(dp3039
g61
(dp3040
g69
I3
ssg70
g3034
sg63
(lp3041
S'<class wsgiref.util.FileWrapper at 0x8b168fc>'
p3042
asbasbasbag56
(g72
g58
NtRp3043
(dp3044
g61
(dp3045
sg70
g2533
sg63
(lp3046
g56
(g77
g58
NtRp3047
(dp3048
g61
(dp3049
g81
g82
ssg70
g3043
sg63
(lp3050
S'wsgi.input'
p3051
asbag56
(g77
g58
NtRp3052
(dp3053
g61
(dp3054
g88
g89
ssg70
g3043
sg63
(lp3055
S':'
asbag56
(g77
g58
NtRp3056
(dp3057
g61
(dp3058
sg70
g3043
sg63
(lp3059
g56
(g57
g58
NtRp3060
(dp3061
g61
(dp3062
g69
I3
ssg70
g3056
sg63
(lp3063
S"<open file '<fdopen>', mode 'w+b' at 0xadbaf5a0>"
p3064
asbasbasbag56
(g72
g58
NtRp3065
(dp3066
g61
(dp3067
sg70
g2533
sg63
(lp3068
g56
(g77
g58
NtRp3069
(dp3070
g61
(dp3071
g81
g82
ssg70
g3065
sg63
(lp3072
S'wsgi.multiprocess'
p3073
asbag56
(g77
g58
NtRp3074
(dp3075
g61
(dp3076
g88
g89
ssg70
g3065
sg63
(lp3077
S':'
asbag56
(g77
g58
NtRp3078
(dp3079
g61
(dp3080
sg70
g3065
sg63
(lp3081
g56
(g57
g58
NtRp3082
(dp3083
g61
(dp3084
g69
I3
ssg70
g3078
sg63
(lp3085
g99
asbasbasbag56
(g72
g58
NtRp3086
(dp3087
g61
(dp3088
sg70
g2533
sg63
(lp3089
g56
(g77
g58
NtRp3090
(dp3091
g61
(dp3092
g81
g82
ssg70
g3086
sg63
(lp3093
S'wsgi.multithread'
p3094
asbag56
(g77
g58
NtRp3095
(dp3096
g61
(dp3097
g88
g89
ssg70
g3086
sg63
(lp3098
S':'
asbag56
(g77
g58
NtRp3099
(dp3100
g61
(dp3101
sg70
g3086
sg63
(lp3102
g56
(g57
g58
NtRp3103
(dp3104
g61
(dp3105
g69
I3
ssg70
g3099
sg63
(lp3106
g1720
asbasbasbag56
(g72
g58
NtRp3107
(dp3108
g61
(dp3109
sg70
g2533
sg63
(lp3110
g56
(g77
g58
NtRp3111
(dp3112
g61
(dp3113
g81
g82
ssg70
g3107
sg63
(lp3114
S'wsgi.run_once'
p3115
asbag56
(g77
g58
NtRp3116
(dp3117
g61
(dp3118
g88
g89
ssg70
g3107
sg63
(lp3119
S':'
asbag56
(g77
g58
NtRp3120
(dp3121
g61
(dp3122
sg70
g3107
sg63
(lp3123
g56
(g57
g58
NtRp3124
(dp3125
g61
(dp3126
g69
I3
ssg70
g3120
sg63
(lp3127
g99
asbasbasbag56
(g72
g58
NtRp3128
(dp3129
g61
(dp3130
sg70
g2533
sg63
(lp3131
g56
(g77
g58
NtRp3132
(dp3133
g61
(dp3134
g81
g82
ssg70
g3128
sg63
(lp3135
S'wsgi.url_scheme'
p3136
asbag56
(g77
g58
NtRp3137
(dp3138
g61
(dp3139
g88
g89
ssg70
g3128
sg63
(lp3140
S':'
asbag56
(g77
g58
NtRp3141
(dp3142
g61
(dp3143
sg70
g3128
sg63
(lp3144
g56
(g57
g58
NtRp3145
(dp3146
g61
(dp3147
g69
I3
ssg70
g3141
sg63
(lp3148
g1763
asbasbasbag56
(g72
g58
NtRp3149
(dp3150
g61
(dp3151
sg70
g2533
sg63
(lp3152
g56
(g77
g58
NtRp3153
(dp3154
g61
(dp3155
g81
g82
ssg70
g3149
sg63
(lp3156
S'wsgi.version'
p3157
asbag56
(g77
g58
NtRp3158
(dp3159
g61
(dp3160
g88
g89
ssg70
g3149
sg63
(lp3161
S':'
asbag56
(g77
g58
NtRp3162
(dp3163
g61
(dp3164
sg70
g3149
sg63
(lp3165
g56
(g57
g58
NtRp3166
(dp3167
g61
(dp3168
g69
I3
ssg70
g3162
sg63
(lp3169
S'1'
asbasbasbasbasbasbasbasbasbasbasbasbasbsS'frames'
p3170
(lp3171
(dp3172
S'file'
p3173
S'/home/u4hcsdaw/Python/web2py/gluon/restricted.py'
p3174
sS'dump'
p3175
(dp3176
S'environment'
p3177
S"{'A': <class 'gluon.html.A'>, 'AcesCall': <function AcesCall>, 'Auth': <class 'gluon.tools.Auth'>, 'B': <class 'gluon.html.B'>, 'BEAUTIFY': <class 'gluon.html.BEAUTIFY'>, 'BODY': <class 'gluon.html.BODY'>, 'BR': <class 'gluon.html.BR'>, 'BUTTON': <class 'gluon.html.BUTTON'>, 'CAT': <class 'gluon.html.CAT'>, 'CENTER': <class 'gluon.html.CENTER'>, ...}"
p3178
sS'ccode'
p3179
S'<code object <module> at 0xadba1920, file "/home...plications/ACES/controllers/default.py", line 12>'
p3180
ssS'lnum'
p3181
I194
sS'lines'
p3182
(dp3183
I192
S'        else:'
p3184
sI193
S'            ccode = compile2(code,layer)'
p3185
sI194
S'        exec ccode in environment'
p3186
sI195
S'    except HTTP:'
p3187
sI196
S'        raise'
p3188
sI197
S'    except Exception, error:'
p3189
sI198
S'        # XXX Show exception in Wing IDE if running in debugger'
p3190
sI189
S'    try:'
p3191
sI190
S'        if type(code) == types.CodeType:'
p3192
sI191
S'            ccode = code'
p3193
ssS'call'
p3194
S"(code='# -*- coding: utf-8 -*-\\n# this file is released ...=crud())\\n\\nresponse._vars=response._caller(index)\\n', environment={'A': <class 'gluon.html.A'>, 'AcesCall': <function AcesCall>, 'Auth': <class 'gluon.tools.Auth'>, 'B': <class 'gluon.html.B'>, 'BEAUTIFY': <class 'gluon.html.BEAUTIFY'>, 'BODY': <class 'gluon.html.BODY'>, 'BR': <class 'gluon.html.BR'>, 'BUTTON': <class 'gluon.html.BUTTON'>, 'CAT': <class 'gluon.html.CAT'>, 'CENTER': <class 'gluon.html.CENTER'>, ...}, layer='/home/u4hcsdaw/Python/web2py/applications/ACES/controllers/default.py')"
p3195
sS'func'
p3196
S'restricted'
p3197
sa(dp3198
g3173
S'/home/u4hcsdaw/Python/web2py/applications/ACES/controllers/default.py'
p3199
sg3175
(dp3200
sg3181
I83
sg3182
(dp3201
I72
S'    http://..../[app]/default/data/update/[table]/[id]'
p3202
sI73
S'    http://..../[app]/default/data/delete/[table]/[id]'
p3203
sI74
S'    http://..../[app]/default/data/select/[table]'
p3204
sI75
S'    http://..../[app]/default/data/search/[table]'
p3205
sI76
S'    but URLs bust be signed, i.e. linked with'
p3206
sI77
S"      A('table',_href=URL('data/tables',user_signature=True))"
p3207
sI78
S'    or with the signed load operator'
p3208
sI79
S"      LOAD('default','data.load',args='tables',ajax=True,user_signature=True)"
p3209
sI80
S'    """'
p3210
sI81
S'    return dict(form=crud())'
p3211
ssg3194
S'()'
p3212
sg3196
S'<module>'
p3213
sa(dp3214
g3173
S'/home/u4hcsdaw/Python/web2py/gluon/globals.py'
p3215
sg3175
(dp3216
S'self'
p3217
S'undefined'
p3218
sS'f'
S'<function index>'
p3219
ssg3181
I149
sg3182
(dp3220
I144
S'        self.meta = Storage()      # used by web2py_ajax.html'
p3221
sI145
S'        self.menu = []             # used by the default view layout'
p3222
sI146
S'        self.files = []            # used by web2py_ajax.html'
p3223
sI147
S'        self.generic_patterns = [] # patterns to allow generic views'
p3224
sI148
S'        self._vars = None'
p3225
sI149
S'        self._caller = lambda f: f()'
p3226
sI150
S'        self._view_environment = None'
p3227
sI151
S'        self._custom_commit = None'
p3228
sI152
S'        self._custom_rollback = None'
p3229
sI153
S''
ssg3194
S'(f=<function index>)'
p3230
sg3196
S'<lambda>'
p3231
sa(dp3232
g3173
S'/home/u4hcsdaw/Python/web2py/applications/ACES/controllers/default.py'
p3233
sg3175
(dp3234
S'global AcesCall'
p3235
S'<function AcesCall>'
p3236
sS'f1'
p3237
S'<gluon.html.FORM object>'
p3238
sS'f1.var'
p3239
g3218
sS't0'
p3240
S"''"
p3241
ssg3181
I27
sg3182
(dp3242
I22
S"    ip1=INPUT(_type='text', _name='waveHeight', _value='0.85')"
p3243
sI23
S"    sub1=INPUT(_type='submit',_name='subButton')"
p3244
sI24
S"    f1=FORM('wave',ip1,sub1,_name='Form1',_action='')"
p3245
sI25
S'    if f1.accepts(request.vars,session):'
p3246
sI26
S'        session.formVars=f1.vars'
p3247
sI27
S'        t0=AcesCall(f1.var.waveHeight)'
p3248
sI28
S"        img1=IMG(_src=URL('static','images/Waves.svg?'+nowS))"
p3249
sI29
S'    return dict(form=f1,t0=t0,img1=img1)'
p3250
sI30
S''
sI31
S'def user():'
p3251
ssg3194
S'()'
p3252
sg3196
S'index'
p3253
sasS'pyver'
p3254
S'Python 2.7.1+: /usr/bin/python2.7'
p3255
sS'session'
p3256
g56
(g57
g58
NtRp3257
(dp3258
g61
(dp3259
sg63
(lp3260
g56
(g65
g58
NtRp3261
(dp3262
g61
(dp3263
g69
I5
ssg70
Nsg63
(lp3264
g56
(g72
g58
NtRp3265
(dp3266
g61
(dp3267
sg70
g3261
sg63
(lp3268
g56
(g77
g58
NtRp3269
(dp3270
g61
(dp3271
g81
g82
ssg70
g3265
sg63
(lp3272
S'formVars'
p3273
asbag56
(g77
g58
NtRp3274
(dp3275
g61
(dp3276
g88
g89
ssg70
g3265
sg63
(lp3277
S':'
asbag56
(g77
g58
NtRp3278
(dp3279
g61
(dp3280
sg70
g3265
sg63
(lp3281
g56
(g57
g58
NtRp3282
(dp3283
g61
(dp3284
g69
I5
ssg70
g3278
sg63
(lp3285
g56
(g65
g58
NtRp3286
(dp3287
g61
(dp3288
g69
I4
ssg70
Nsg63
(lp3289
g56
(g72
g58
NtRp3290
(dp3291
g61
(dp3292
sg70
g3286
sg63
(lp3293
g56
(g77
g58
NtRp3294
(dp3295
g61
(dp3296
g81
g82
ssg70
g3290
sg63
(lp3297
S'subButton'
p3298
asbag56
(g77
g58
NtRp3299
(dp3300
g61
(dp3301
g88
g89
ssg70
g3290
sg63
(lp3302
S':'
asbag56
(g77
g58
NtRp3303
(dp3304
g61
(dp3305
sg70
g3290
sg63
(lp3306
g56
(g57
g58
NtRp3307
(dp3308
g61
(dp3309
g69
I4
ssg70
g3303
sg63
(lp3310
g2333
asbasbasbag56
(g72
g58
NtRp3311
(dp3312
g61
(dp3313
sg70
g3286
sg63
(lp3314
g56
(g77
g58
NtRp3315
(dp3316
g61
(dp3317
g81
g82
ssg70
g3311
sg63
(lp3318
S'waveHeight'
p3319
asbag56
(g77
g58
NtRp3320
(dp3321
g61
(dp3322
g88
g89
ssg70
g3311
sg63
(lp3323
S':'
asbag56
(g77
g58
NtRp3324
(dp3325
g61
(dp3326
sg70
g3311
sg63
(lp3327
g56
(g57
g58
NtRp3328
(dp3329
g61
(dp3330
g69
I4
ssg70
g3324
sg63
(lp3331
g2355
asbasbasbasbasbasbasbasbasbsS'etype'
p3332
S"<type 'exceptions.AttributeError'>"
p3333
sS'date'
p3334
S'Fri Jun 29 14:21:53 2012'
p3335
sS'response'
p3336
g56
(g57
g58
NtRp3337
(dp3338
g61
(dp3339
sg63
(lp3340
g56
(g65
g58
NtRp3341
(dp3342
g61
(dp3343
g69
I5
ssg70
Nsg63
(lp3344
g56
(g72
g58
NtRp3345
(dp3346
g61
(dp3347
sg70
g3341
sg63
(lp3348
g56
(g77
g58
NtRp3349
(dp3350
g61
(dp3351
g81
g82
ssg70
g3345
sg63
(lp3352
g154
asbag56
(g77
g58
NtRp3353
(dp3354
g61
(dp3355
g88
g89
ssg70
g3345
sg63
(lp3356
S':'
asbag56
(g77
g58
NtRp3357
(dp3358
g61
(dp3359
sg70
g3345
sg63
(lp3360
g56
(g57
g58
NtRp3361
(dp3362
g61
(dp3363
g69
I5
ssg70
g3357
sg63
(lp3364
S'<cStringIO.StringO object at 0xae0323e0>'
p3365
asbasbasbag56
(g72
g58
NtRp3366
(dp3367
g61
(dp3368
sg70
g3341
sg63
(lp3369
g56
(g77
g58
NtRp3370
(dp3371
g61
(dp3372
g81
g82
ssg70
g3366
sg63
(lp3373
g220
asbag56
(g77
g58
NtRp3374
(dp3375
g61
(dp3376
g88
g89
ssg70
g3366
sg63
(lp3377
S':'
asbag56
(g77
g58
NtRp3378
(dp3379
g61
(dp3380
sg70
g3366
sg63
(lp3381
g56
(g57
g58
NtRp3382
(dp3383
g61
(dp3384
g69
I5
ssg70
g3378
sg63
(lp3385
g56
(g65
g58
NtRp3386
(dp3387
g61
(dp3388
g69
I4
ssg70
Nsg63
(lp3389
g56
(g72
g58
NtRp3390
(dp3391
g61
(dp3392
sg70
g3386
sg63
(lp3393
g56
(g77
g58
NtRp3394
(dp3395
g61
(dp3396
g81
g82
ssg70
g3390
sg63
(lp3397
S'session_id_aces'
p3398
asbag56
(g77
g58
NtRp3399
(dp3400
g61
(dp3401
g88
g89
ssg70
g3390
sg63
(lp3402
S':'
asbag56
(g77
g58
NtRp3403
(dp3404
g61
(dp3405
sg70
g3390
sg63
(lp3406
g56
(g57
g58
NtRp3407
(dp3408
g61
(dp3409
g69
I4
ssg70
g3403
sg63
(lp3410
g56
(g65
g58
NtRp3411
(dp3412
g61
(dp3413
g69
I3
ssg70
Nsg63
(lp3414
g56
(g72
g58
NtRp3415
(dp3416
g61
(dp3417
sg70
g3411
sg63
(lp3418
g56
(g77
g58
NtRp3419
(dp3420
g61
(dp3421
g81
g82
ssg70
g3415
sg63
(lp3422
g270
asbag56
(g77
g58
NtRp3423
(dp3424
g61
(dp3425
g88
g89
ssg70
g3415
sg63
(lp3426
S':'
asbag56
(g77
g58
NtRp3427
(dp3428
g61
(dp3429
sg70
g3415
sg63
(lp3430
g56
(g57
g58
NtRp3431
(dp3432
g61
(dp3433
g69
I3
ssg70
g3427
sg63
(lp3434
S''
asbasbasbag56
(g72
g58
NtRp3435
(dp3436
g61
(dp3437
sg70
g3411
sg63
(lp3438
g56
(g77
g58
NtRp3439
(dp3440
g61
(dp3441
g81
g82
ssg70
g3435
sg63
(lp3442
g291
asbag56
(g77
g58
NtRp3443
(dp3444
g61
(dp3445
g88
g89
ssg70
g3435
sg63
(lp3446
S':'
asbag56
(g77
g58
NtRp3447
(dp3448
g61
(dp3449
sg70
g3435
sg63
(lp3450
g56
(g57
g58
NtRp3451
(dp3452
g61
(dp3453
g69
I3
ssg70
g3447
sg63
(lp3454
S''
asbasbasbag56
(g72
g58
NtRp3455
(dp3456
g61
(dp3457
sg70
g3411
sg63
(lp3458
g56
(g77
g58
NtRp3459
(dp3460
g61
(dp3461
g81
g82
ssg70
g3455
sg63
(lp3462
g312
asbag56
(g77
g58
NtRp3463
(dp3464
g61
(dp3465
g88
g89
ssg70
g3455
sg63
(lp3466
S':'
asbag56
(g77
g58
NtRp3467
(dp3468
g61
(dp3469
sg70
g3455
sg63
(lp3470
g56
(g57
g58
NtRp3471
(dp3472
g61
(dp3473
g69
I3
ssg70
g3467
sg63
(lp3474
S''
asbasbasbag56
(g72
g58
NtRp3475
(dp3476
g61
(dp3477
sg70
g3411
sg63
(lp3478
g56
(g77
g58
NtRp3479
(dp3480
g61
(dp3481
g81
g82
ssg70
g3475
sg63
(lp3482
g333
asbag56
(g77
g58
NtRp3483
(dp3484
g61
(dp3485
g88
g89
ssg70
g3475
sg63
(lp3486
S':'
asbag56
(g77
g58
NtRp3487
(dp3488
g61
(dp3489
sg70
g3475
sg63
(lp3490
g56
(g57
g58
NtRp3491
(dp3492
g61
(dp3493
g69
I3
ssg70
g3487
sg63
(lp3494
S''
asbasbasbag56
(g72
g58
NtRp3495
(dp3496
g61
(dp3497
sg70
g3411
sg63
(lp3498
g56
(g77
g58
NtRp3499
(dp3500
g61
(dp3501
g81
g82
ssg70
g3495
sg63
(lp3502
g354
asbag56
(g77
g58
NtRp3503
(dp3504
g61
(dp3505
g88
g89
ssg70
g3495
sg63
(lp3506
S':'
asbag56
(g77
g58
NtRp3507
(dp3508
g61
(dp3509
sg70
g3495
sg63
(lp3510
g56
(g57
g58
NtRp3511
(dp3512
g61
(dp3513
g69
I3
ssg70
g3507
sg63
(lp3514
S''
asbasbasbag56
(g72
g58
NtRp3515
(dp3516
g61
(dp3517
sg70
g3411
sg63
(lp3518
g56
(g77
g58
NtRp3519
(dp3520
g61
(dp3521
g81
g82
ssg70
g3515
sg63
(lp3522
g375
asbag56
(g77
g58
NtRp3523
(dp3524
g61
(dp3525
g88
g89
ssg70
g3515
sg63
(lp3526
S':'
asbag56
(g77
g58
NtRp3527
(dp3528
g61
(dp3529
sg70
g3515
sg63
(lp3530
g56
(g57
g58
NtRp3531
(dp3532
g61
(dp3533
g69
I3
ssg70
g3527
sg63
(lp3534
S'/'
asbasbasbag56
(g72
g58
NtRp3535
(dp3536
g61
(dp3537
sg70
g3411
sg63
(lp3538
g56
(g77
g58
NtRp3539
(dp3540
g61
(dp3541
g81
g82
ssg70
g3535
sg63
(lp3542
g396
asbag56
(g77
g58
NtRp3543
(dp3544
g61
(dp3545
g88
g89
ssg70
g3535
sg63
(lp3546
S':'
asbag56
(g77
g58
NtRp3547
(dp3548
g61
(dp3549
sg70
g3535
sg63
(lp3550
g56
(g57
g58
NtRp3551
(dp3552
g61
(dp3553
g69
I3
ssg70
g3547
sg63
(lp3554
S''
asbasbasbag56
(g72
g58
NtRp3555
(dp3556
g61
(dp3557
sg70
g3411
sg63
(lp3558
g56
(g77
g58
NtRp3559
(dp3560
g61
(dp3561
g81
g82
ssg70
g3555
sg63
(lp3562
g417
asbag56
(g77
g58
NtRp3563
(dp3564
g61
(dp3565
g88
g89
ssg70
g3555
sg63
(lp3566
S':'
asbag56
(g77
g58
NtRp3567
(dp3568
g61
(dp3569
sg70
g3555
sg63
(lp3570
g56
(g57
g58
NtRp3571
(dp3572
g61
(dp3573
g69
I3
ssg70
g3567
sg63
(lp3574
S''
asbasbasbasbasbasbasbasbasbasbasbag56
(g72
g58
NtRp3575
(dp3576
g61
(dp3577
sg70
g3341
sg63
(lp3578
g56
(g77
g58
NtRp3579
(dp3580
g61
(dp3581
g81
g82
ssg70
g3575
sg63
(lp3582
S'files'
p3583
asbag56
(g77
g58
NtRp3584
(dp3585
g61
(dp3586
g88
g89
ssg70
g3575
sg63
(lp3587
S':'
asbag56
(g77
g58
NtRp3588
(dp3589
g61
(dp3590
sg70
g3575
sg63
(lp3591
g56
(g57
g58
NtRp3592
(dp3593
g61
(dp3594
g69
I5
ssg70
g3588
sg63
(lp3595
g56
(g65
g58
NtRp3596
(dp3597
g61
(dp3598
g69
I4
ssg70
Nsg63
(lp3599
sbasbasbasbag56
(g72
g58
NtRp3600
(dp3601
g61
(dp3602
sg70
g3341
sg63
(lp3603
g56
(g77
g58
NtRp3604
(dp3605
g61
(dp3606
g81
g82
ssg70
g3600
sg63
(lp3607
S'flash'
p3608
asbag56
(g77
g58
NtRp3609
(dp3610
g61
(dp3611
g88
g89
ssg70
g3600
sg63
(lp3612
S':'
asbag56
(g77
g58
NtRp3613
(dp3614
g61
(dp3615
sg70
g3600
sg63
(lp3616
g56
(g57
g58
NtRp3617
(dp3618
g61
(dp3619
g69
I5
ssg70
g3613
sg63
(lp3620
S''
asbasbasbag56
(g72
g58
NtRp3621
(dp3622
g61
(dp3623
sg70
g3341
sg63
(lp3624
g56
(g77
g58
NtRp3625
(dp3626
g61
(dp3627
g81
g82
ssg70
g3621
sg63
(lp3628
S'generic_patterns'
p3629
asbag56
(g77
g58
NtRp3630
(dp3631
g61
(dp3632
g88
g89
ssg70
g3621
sg63
(lp3633
S':'
asbag56
(g77
g58
NtRp3634
(dp3635
g61
(dp3636
sg70
g3621
sg63
(lp3637
g56
(g57
g58
NtRp3638
(dp3639
g61
(dp3640
g69
I5
ssg70
g3634
sg63
(lp3641
g56
(g65
g58
NtRp3642
(dp3643
g61
(dp3644
g69
I4
ssg70
Nsg63
(lp3645
g56
(g72
g58
NtRp3646
(dp3647
g61
(dp3648
sg70
g3642
sg63
(lp3649
g56
(g77
g58
NtRp3650
(dp3651
g61
(dp3652
sg70
g3646
sg63
(lp3653
g56
(g57
g58
NtRp3654
(dp3655
g61
(dp3656
g69
I4
ssg70
g3650
sg63
(lp3657
S'*'
asbasbasbasbasbasbasbag56
(g72
g58
NtRp3658
(dp3659
g61
(dp3660
sg70
g3341
sg63
(lp3661
g56
(g77
g58
NtRp3662
(dp3663
g61
(dp3664
g81
g82
ssg70
g3658
sg63
(lp3665
S'headers'
p3666
asbag56
(g77
g58
NtRp3667
(dp3668
g61
(dp3669
g88
g89
ssg70
g3658
sg63
(lp3670
S':'
asbag56
(g77
g58
NtRp3671
(dp3672
g61
(dp3673
sg70
g3658
sg63
(lp3674
g56
(g57
g58
NtRp3675
(dp3676
g61
(dp3677
g69
I5
ssg70
g3671
sg63
(lp3678
g56
(g65
g58
NtRp3679
(dp3680
g61
(dp3681
g69
I4
ssg70
Nsg63
(lp3682
g56
(g72
g58
NtRp3683
(dp3684
g61
(dp3685
sg70
g3679
sg63
(lp3686
g56
(g77
g58
NtRp3687
(dp3688
g61
(dp3689
g81
g82
ssg70
g3683
sg63
(lp3690
S'Cache-Control'
p3691
asbag56
(g77
g58
NtRp3692
(dp3693
g61
(dp3694
g88
g89
ssg70
g3683
sg63
(lp3695
S':'
asbag56
(g77
g58
NtRp3696
(dp3697
g61
(dp3698
sg70
g3683
sg63
(lp3699
g56
(g57
g58
NtRp3700
(dp3701
g61
(dp3702
g69
I4
ssg70
g3696
sg63
(lp3703
S'no-store, no-cache, must-revalidate, post-check=0, pre-check=0'
p3704
asbasbasbag56
(g72
g58
NtRp3705
(dp3706
g61
(dp3707
sg70
g3679
sg63
(lp3708
g56
(g77
g58
NtRp3709
(dp3710
g61
(dp3711
g81
g82
ssg70
g3705
sg63
(lp3712
S'Content-Type'
p3713
asbag56
(g77
g58
NtRp3714
(dp3715
g61
(dp3716
g88
g89
ssg70
g3705
sg63
(lp3717
S':'
asbag56
(g77
g58
NtRp3718
(dp3719
g61
(dp3720
sg70
g3705
sg63
(lp3721
g56
(g57
g58
NtRp3722
(dp3723
g61
(dp3724
g69
I4
ssg70
g3718
sg63
(lp3725
S'text/html; charset=utf-8'
p3726
asbasbasbag56
(g72
g58
NtRp3727
(dp3728
g61
(dp3729
sg70
g3679
sg63
(lp3730
g56
(g77
g58
NtRp3731
(dp3732
g61
(dp3733
g81
g82
ssg70
g3727
sg63
(lp3734
S'Expires'
p3735
asbag56
(g77
g58
NtRp3736
(dp3737
g61
(dp3738
g88
g89
ssg70
g3727
sg63
(lp3739
S':'
asbag56
(g77
g58
NtRp3740
(dp3741
g61
(dp3742
sg70
g3727
sg63
(lp3743
g56
(g57
g58
NtRp3744
(dp3745
g61
(dp3746
g69
I4
ssg70
g3740
sg63
(lp3747
S'Fri, 29 Jun 2012 19:21:53 GMT'
p3748
asbasbasbag56
(g72
g58
NtRp3749
(dp3750
g61
(dp3751
sg70
g3679
sg63
(lp3752
g56
(g77
g58
NtRp3753
(dp3754
g61
(dp3755
g81
g82
ssg70
g3749
sg63
(lp3756
S'Pragma'
p3757
asbag56
(g77
g58
NtRp3758
(dp3759
g61
(dp3760
g88
g89
ssg70
g3749
sg63
(lp3761
S':'
asbag56
(g77
g58
NtRp3762
(dp3763
g61
(dp3764
sg70
g3749
sg63
(lp3765
g56
(g57
g58
NtRp3766
(dp3767
g61
(dp3768
g69
I4
ssg70
g3762
sg63
(lp3769
S'no-cache'
p3770
asbasbasbag56
(g72
g58
NtRp3771
(dp3772
g61
(dp3773
sg70
g3679
sg63
(lp3774
g56
(g77
g58
NtRp3775
(dp3776
g61
(dp3777
g81
g82
ssg70
g3771
sg63
(lp3778
S'X-Powered-By'
p3779
asbag56
(g77
g58
NtRp3780
(dp3781
g61
(dp3782
g88
g89
ssg70
g3771
sg63
(lp3783
S':'
asbag56
(g77
g58
NtRp3784
(dp3785
g61
(dp3786
sg70
g3771
sg63
(lp3787
g56
(g57
g58
NtRp3788
(dp3789
g61
(dp3790
g69
I4
ssg70
g3784
sg63
(lp3791
S'web2py'
p3792
asbasbasbasbasbasbasbag56
(g72
g58
NtRp3793
(dp3794
g61
(dp3795
sg70
g3341
sg63
(lp3796
g56
(g77
g58
NtRp3797
(dp3798
g61
(dp3799
g81
g82
ssg70
g3793
sg63
(lp3800
S'menu'
p3801
asbag56
(g77
g58
NtRp3802
(dp3803
g61
(dp3804
g88
g89
ssg70
g3793
sg63
(lp3805
S':'
asbag56
(g77
g58
NtRp3806
(dp3807
g61
(dp3808
sg70
g3793
sg63
(lp3809
g56
(g57
g58
NtRp3810
(dp3811
g61
(dp3812
g69
I5
ssg70
g3806
sg63
(lp3813
g56
(g65
g58
NtRp3814
(dp3815
g61
(dp3816
g69
I4
ssg70
Nsg63
(lp3817
g56
(g72
g58
NtRp3818
(dp3819
g61
(dp3820
sg70
g3814
sg63
(lp3821
g56
(g77
g58
NtRp3822
(dp3823
g61
(dp3824
sg70
g3818
sg63
(lp3825
g56
(g57
g58
NtRp3826
(dp3827
g61
(dp3828
g69
I4
ssg70
g3822
sg63
(lp3829
g56
(g65
g58
NtRp3830
(dp3831
g61
(dp3832
g69
I3
ssg70
Nsg63
(lp3833
g56
(g72
g58
NtRp3834
(dp3835
g61
(dp3836
sg70
g3830
sg63
(lp3837
g56
(g77
g58
NtRp3838
(dp3839
g61
(dp3840
sg70
g3834
sg63
(lp3841
g56
(g57
g58
NtRp3842
(dp3843
g61
(dp3844
g69
I3
ssg70
g3838
sg63
(lp3845
cgluon.languages
lazyT_unpickle
p3846
(S't\x04\x00\x00\x00Home'
tRp3847
asbasbasbag56
(g72
g58
NtRp3848
(dp3849
g61
(dp3850
sg70
g3830
sg63
(lp3851
g56
(g77
g58
NtRp3852
(dp3853
g61
(dp3854
sg70
g3848
sg63
(lp3855
g56
(g57
g58
NtRp3856
(dp3857
g61
(dp3858
g69
I3
ssg70
g3852
sg63
(lp3859
g99
asbasbasbag56
(g72
g58
NtRp3860
(dp3861
g61
(dp3862
sg70
g3830
sg63
(lp3863
g56
(g77
g58
NtRp3864
(dp3865
g61
(dp3866
sg70
g3860
sg63
(lp3867
g56
(g57
g58
NtRp3868
(dp3869
g61
(dp3870
g69
I3
ssg70
g3864
sg63
(lp3871
S'/ACES/default/index'
p3872
asbasbasbag56
(g72
g58
NtRp3873
(dp3874
g61
(dp3875
sg70
g3830
sg63
(lp3876
g56
(g77
g58
NtRp3877
(dp3878
g61
(dp3879
sg70
g3873
sg63
(lp3880
g56
(g57
g58
NtRp3881
(dp3882
g61
(dp3883
g69
I3
ssg70
g3877
sg63
(lp3884
g56
(g65
g58
NtRp3885
(dp3886
g61
(dp3887
g69
I2
ssg70
Nsg63
(lp3888
sbasbasbasbasbasbasbasbag56
(g72
g58
NtRp3889
(dp3890
g61
(dp3891
sg70
g3814
sg63
(lp3892
g56
(g77
g58
NtRp3893
(dp3894
g61
(dp3895
sg70
g3889
sg63
(lp3896
g56
(g57
g58
NtRp3897
(dp3898
g61
(dp3899
g69
I4
ssg70
g3893
sg63
(lp3900
g56
(g65
g58
NtRp3901
(dp3902
g61
(dp3903
g69
I3
ssg70
Nsg63
(lp3904
g56
(g72
g58
NtRp3905
(dp3906
g61
(dp3907
sg70
g3901
sg63
(lp3908
g56
(g77
g58
NtRp3909
(dp3910
g61
(dp3911
sg70
g3905
sg63
(lp3912
g56
(g57
g58
NtRp3913
(dp3914
g61
(dp3915
g69
I3
ssg70
g3909
sg63
(lp3916
g3846
(S's\x08\x00\x00\x00This App'
tRp3917
asbasbasbag56
(g72
g58
NtRp3918
(dp3919
g61
(dp3920
sg70
g3901
sg63
(lp3921
g56
(g77
g58
NtRp3922
(dp3923
g61
(dp3924
sg70
g3918
sg63
(lp3925
g56
(g57
g58
NtRp3926
(dp3927
g61
(dp3928
g69
I3
ssg70
g3922
sg63
(lp3929
g99
asbasbasbag56
(g72
g58
NtRp3930
(dp3931
g61
(dp3932
sg70
g3901
sg63
(lp3933
g56
(g77
g58
NtRp3934
(dp3935
g61
(dp3936
sg70
g3930
sg63
(lp3937
g56
(g57
g58
NtRp3938
(dp3939
g61
(dp3940
g69
I3
ssg70
g3934
sg63
(lp3941
S'/admin/default/design/ACES'
p3942
asbasbasbag56
(g72
g58
NtRp3943
(dp3944
g61
(dp3945
sg70
g3901
sg63
(lp3946
g56
(g77
g58
NtRp3947
(dp3948
g61
(dp3949
sg70
g3943
sg63
(lp3950
g56
(g57
g58
NtRp3951
(dp3952
g61
(dp3953
g69
I3
ssg70
g3947
sg63
(lp3954
g56
(g65
g58
NtRp3955
(dp3956
g61
(dp3957
g69
I2
ssg70
Nsg63
(lp3958
g56
(g72
g58
NtRp3959
(dp3960
g61
(dp3961
sg70
g3955
sg63
(lp3962
g56
(g77
g58
NtRp3963
(dp3964
g61
(dp3965
sg70
g3959
sg63
(lp3966
g56
(g57
g58
NtRp3967
(dp3968
g61
(dp3969
g69
I2
ssg70
g3963
sg63
(lp3970
g56
(g65
g58
NtRp3971
(dp3972
g61
(dp3973
g69
I1
ssg70
Nsg63
(lp3974
g56
(g72
g58
NtRp3975
(dp3976
g61
(dp3977
sg70
g3971
sg63
(lp3978
g56
(g77
g58
NtRp3979
(dp3980
g61
(dp3981
sg70
g3975
sg63
(lp3982
g56
(g57
g58
NtRp3983
(dp3984
g61
(dp3985
g69
I1
ssg70
g3979
sg63
(lp3986
g3846
(S't\n\x00\x00\x00Controller'
tRp3987
asbasbasbag56
(g72
g58
NtRp3988
(dp3989
g61
(dp3990
sg70
g3971
sg63
(lp3991
g56
(g77
g58
NtRp3992
(dp3993
g61
(dp3994
sg70
g3988
sg63
(lp3995
g56
(g57
g58
NtRp3996
(dp3997
g61
(dp3998
g69
I1
ssg70
g3992
sg63
(lp3999
I00
asbasbasbag56
(g72
g58
NtRp4000
(dp4001
g61
(dp4002
sg70
g3971
sg63
(lp4003
g56
(g77
g58
NtRp4004
(dp4005
g61
(dp4006
sg70
g4000
sg63
(lp4007
g56
(g57
g58
NtRp4008
(dp4009
g61
(dp4010
g69
I1
ssg70
g4004
sg63
(lp4011
S'/admin/default/edit/ACES/controllers/default.py'
p4012
asbasbasbasbasbasbasbag56
(g72
g58
NtRp4013
(dp4014
g61
(dp4015
sg70
g3955
sg63
(lp4016
g56
(g77
g58
NtRp4017
(dp4018
g61
(dp4019
sg70
g4013
sg63
(lp4020
g56
(g57
g58
NtRp4021
(dp4022
g61
(dp4023
g69
I2
ssg70
g4017
sg63
(lp4024
g56
(g65
g58
NtRp4025
(dp4026
g61
(dp4027
g69
I1
ssg70
Nsg63
(lp4028
g56
(g72
g58
NtRp4029
(dp4030
g61
(dp4031
sg70
g4025
sg63
(lp4032
g56
(g77
g58
NtRp4033
(dp4034
g61
(dp4035
sg70
g4029
sg63
(lp4036
g56
(g57
g58
NtRp4037
(dp4038
g61
(dp4039
g69
I1
ssg70
g4033
sg63
(lp4040
g3846
(S't\x04\x00\x00\x00View'
tRp4041
asbasbasbag56
(g72
g58
NtRp4042
(dp4043
g61
(dp4044
sg70
g4025
sg63
(lp4045
g56
(g77
g58
NtRp4046
(dp4047
g61
(dp4048
sg70
g4042
sg63
(lp4049
g56
(g57
g58
NtRp4050
(dp4051
g61
(dp4052
g69
I1
ssg70
g4046
sg63
(lp4053
I00
asbasbasbag56
(g72
g58
NtRp4054
(dp4055
g61
(dp4056
sg70
g4025
sg63
(lp4057
g56
(g77
g58
NtRp4058
(dp4059
g61
(dp4060
sg70
g4054
sg63
(lp4061
g56
(g57
g58
NtRp4062
(dp4063
g61
(dp4064
g69
I1
ssg70
g4058
sg63
(lp4065
S'/admin/default/edit/ACES/views/default/index.html'
p4066
asbasbasbasbasbasbasbag56
(g72
g58
NtRp4067
(dp4068
g61
(dp4069
sg70
g3955
sg63
(lp4070
g56
(g77
g58
NtRp4071
(dp4072
g61
(dp4073
sg70
g4067
sg63
(lp4074
g56
(g57
g58
NtRp4075
(dp4076
g61
(dp4077
g69
I2
ssg70
g4071
sg63
(lp4078
g56
(g65
g58
NtRp4079
(dp4080
g61
(dp4081
g69
I1
ssg70
Nsg63
(lp4082
g56
(g72
g58
NtRp4083
(dp4084
g61
(dp4085
sg70
g4079
sg63
(lp4086
g56
(g77
g58
NtRp4087
(dp4088
g61
(dp4089
sg70
g4083
sg63
(lp4090
g56
(g57
g58
NtRp4091
(dp4092
g61
(dp4093
g69
I1
ssg70
g4087
sg63
(lp4094
g3846
(S't\x06\x00\x00\x00Layout'
tRp4095
asbasbasbag56
(g72
g58
NtRp4096
(dp4097
g61
(dp4098
sg70
g4079
sg63
(lp4099
g56
(g77
g58
NtRp4100
(dp4101
g61
(dp4102
sg70
g4096
sg63
(lp4103
g56
(g57
g58
NtRp4104
(dp4105
g61
(dp4106
g69
I1
ssg70
g4100
sg63
(lp4107
I00
asbasbasbag56
(g72
g58
NtRp4108
(dp4109
g61
(dp4110
sg70
g4079
sg63
(lp4111
g56
(g77
g58
NtRp4112
(dp4113
g61
(dp4114
sg70
g4108
sg63
(lp4115
g56
(g57
g58
NtRp4116
(dp4117
g61
(dp4118
g69
I1
ssg70
g4112
sg63
(lp4119
S'/admin/default/edit/ACES/views/layout.html'
p4120
asbasbasbasbasbasbasbag56
(g72
g58
NtRp4121
(dp4122
g61
(dp4123
sg70
g3955
sg63
(lp4124
g56
(g77
g58
NtRp4125
(dp4126
g61
(dp4127
sg70
g4121
sg63
(lp4128
g56
(g57
g58
NtRp4129
(dp4130
g61
(dp4131
g69
I2
ssg70
g4125
sg63
(lp4132
g56
(g65
g58
NtRp4133
(dp4134
g61
(dp4135
g69
I1
ssg70
Nsg63
(lp4136
g56
(g72
g58
NtRp4137
(dp4138
g61
(dp4139
sg70
g4133
sg63
(lp4140
g56
(g77
g58
NtRp4141
(dp4142
g61
(dp4143
sg70
g4137
sg63
(lp4144
g56
(g57
g58
NtRp4145
(dp4146
g61
(dp4147
g69
I1
ssg70
g4141
sg63
(lp4148
g3846
(S't\n\x00\x00\x00Stylesheet'
tRp4149
asbasbasbag56
(g72
g58
NtRp4150
(dp4151
g61
(dp4152
sg70
g4133
sg63
(lp4153
g56
(g77
g58
NtRp4154
(dp4155
g61
(dp4156
sg70
g4150
sg63
(lp4157
g56
(g57
g58
NtRp4158
(dp4159
g61
(dp4160
g69
I1
ssg70
g4154
sg63
(lp4161
I00
asbasbasbag56
(g72
g58
NtRp4162
(dp4163
g61
(dp4164
sg70
g4133
sg63
(lp4165
g56
(g77
g58
NtRp4166
(dp4167
g61
(dp4168
sg70
g4162
sg63
(lp4169
g56
(g57
g58
NtRp4170
(dp4171
g61
(dp4172
g69
I1
ssg70
g4166
sg63
(lp4173
S'/admin/default/edit/ACES/static/base.css'
p4174
asbasbasbasbasbasbasbag56
(g72
g58
NtRp4175
(dp4176
g61
(dp4177
sg70
g3955
sg63
(lp4178
g56
(g77
g58
NtRp4179
(dp4180
g61
(dp4181
sg70
g4175
sg63
(lp4182
g56
(g57
g58
NtRp4183
(dp4184
g61
(dp4185
g69
I2
ssg70
g4179
sg63
(lp4186
g56
(g65
g58
NtRp4187
(dp4188
g61
(dp4189
g69
I1
ssg70
Nsg63
(lp4190
g56
(g72
g58
NtRp4191
(dp4192
g61
(dp4193
sg70
g4187
sg63
(lp4194
g56
(g77
g58
NtRp4195
(dp4196
g61
(dp4197
sg70
g4191
sg63
(lp4198
g56
(g57
g58
NtRp4199
(dp4200
g61
(dp4201
g69
I1
ssg70
g4195
sg63
(lp4202
g3846
(S's\x08\x00\x00\x00DB Model'
tRp4203
asbasbasbag56
(g72
g58
NtRp4204
(dp4205
g61
(dp4206
sg70
g4187
sg63
(lp4207
g56
(g77
g58
NtRp4208
(dp4209
g61
(dp4210
sg70
g4204
sg63
(lp4211
g56
(g57
g58
NtRp4212
(dp4213
g61
(dp4214
g69
I1
ssg70
g4208
sg63
(lp4215
I00
asbasbasbag56
(g72
g58
NtRp4216
(dp4217
g61
(dp4218
sg70
g4187
sg63
(lp4219
g56
(g77
g58
NtRp4220
(dp4221
g61
(dp4222
sg70
g4216
sg63
(lp4223
g56
(g57
g58
NtRp4224
(dp4225
g61
(dp4226
g69
I1
ssg70
g4220
sg63
(lp4227
S'/admin/default/edit/ACES/models/db.py'
p4228
asbasbasbasbasbasbasbag56
(g72
g58
NtRp4229
(dp4230
g61
(dp4231
sg70
g3955
sg63
(lp4232
g56
(g77
g58
NtRp4233
(dp4234
g61
(dp4235
sg70
g4229
sg63
(lp4236
g56
(g57
g58
NtRp4237
(dp4238
g61
(dp4239
g69
I2
ssg70
g4233
sg63
(lp4240
g56
(g65
g58
NtRp4241
(dp4242
g61
(dp4243
g69
I1
ssg70
Nsg63
(lp4244
g56
(g72
g58
NtRp4245
(dp4246
g61
(dp4247
sg70
g4241
sg63
(lp4248
g56
(g77
g58
NtRp4249
(dp4250
g61
(dp4251
sg70
g4245
sg63
(lp4252
g56
(g57
g58
NtRp4253
(dp4254
g61
(dp4255
g69
I1
ssg70
g4249
sg63
(lp4256
g3846
(S's\n\x00\x00\x00Menu Model'
tRp4257
asbasbasbag56
(g72
g58
NtRp4258
(dp4259
g61
(dp4260
sg70
g4241
sg63
(lp4261
g56
(g77
g58
NtRp4262
(dp4263
g61
(dp4264
sg70
g4258
sg63
(lp4265
g56
(g57
g58
NtRp4266
(dp4267
g61
(dp4268
g69
I1
ssg70
g4262
sg63
(lp4269
I00
asbasbasbag56
(g72
g58
NtRp4270
(dp4271
g61
(dp4272
sg70
g4241
sg63
(lp4273
g56
(g77
g58
NtRp4274
(dp4275
g61
(dp4276
sg70
g4270
sg63
(lp4277
g56
(g57
g58
NtRp4278
(dp4279
g61
(dp4280
g69
I1
ssg70
g4274
sg63
(lp4281
S'/admin/default/edit/ACES/models/menu.py'
p4282
asbasbasbasbasbasbasbag56
(g72
g58
NtRp4283
(dp4284
g61
(dp4285
sg70
g3955
sg63
(lp4286
g56
(g77
g58
NtRp4287
(dp4288
g61
(dp4289
sg70
g4283
sg63
(lp4290
g56
(g57
g58
NtRp4291
(dp4292
g61
(dp4293
g69
I2
ssg70
g4287
sg63
(lp4294
g56
(g65
g58
NtRp4295
(dp4296
g61
(dp4297
g69
I1
ssg70
Nsg63
(lp4298
g56
(g72
g58
NtRp4299
(dp4300
g61
(dp4301
sg70
g4295
sg63
(lp4302
g56
(g77
g58
NtRp4303
(dp4304
g61
(dp4305
sg70
g4299
sg63
(lp4306
g56
(g57
g58
NtRp4307
(dp4308
g61
(dp4309
g69
I1
ssg70
g4303
sg63
(lp4310
g3846
(S't\x08\x00\x00\x00Database'
tRp4311
asbasbasbag56
(g72
g58
NtRp4312
(dp4313
g61
(dp4314
sg70
g4295
sg63
(lp4315
g56
(g77
g58
NtRp4316
(dp4317
g61
(dp4318
sg70
g4312
sg63
(lp4319
g56
(g57
g58
NtRp4320
(dp4321
g61
(dp4322
g69
I1
ssg70
g4316
sg63
(lp4323
I00
asbasbasbag56
(g72
g58
NtRp4324
(dp4325
g61
(dp4326
sg70
g4295
sg63
(lp4327
g56
(g77
g58
NtRp4328
(dp4329
g61
(dp4330
sg70
g4324
sg63
(lp4331
g56
(g57
g58
NtRp4332
(dp4333
g61
(dp4334
g69
I1
ssg70
g4328
sg63
(lp4335
S'/ACES/appadmin/index'
p4336
asbasbasbasbasbasbasbag56
(g72
g58
NtRp4337
(dp4338
g61
(dp4339
sg70
g3955
sg63
(lp4340
g56
(g77
g58
NtRp4341
(dp4342
g61
(dp4343
sg70
g4337
sg63
(lp4344
g56
(g57
g58
NtRp4345
(dp4346
g61
(dp4347
g69
I2
ssg70
g4341
sg63
(lp4348
g56
(g65
g58
NtRp4349
(dp4350
g61
(dp4351
g69
I1
ssg70
Nsg63
(lp4352
g56
(g72
g58
NtRp4353
(dp4354
g61
(dp4355
sg70
g4349
sg63
(lp4356
g56
(g77
g58
NtRp4357
(dp4358
g61
(dp4359
sg70
g4353
sg63
(lp4360
g56
(g57
g58
NtRp4361
(dp4362
g61
(dp4363
g69
I1
ssg70
g4357
sg63
(lp4364
g3846
(S't\x06\x00\x00\x00Errors'
tRp4365
asbasbasbag56
(g72
g58
NtRp4366
(dp4367
g61
(dp4368
sg70
g4349
sg63
(lp4369
g56
(g77
g58
NtRp4370
(dp4371
g61
(dp4372
sg70
g4366
sg63
(lp4373
g56
(g57
g58
NtRp4374
(dp4375
g61
(dp4376
g69
I1
ssg70
g4370
sg63
(lp4377
I00
asbasbasbag56
(g72
g58
NtRp4378
(dp4379
g61
(dp4380
sg70
g4349
sg63
(lp4381
g56
(g77
g58
NtRp4382
(dp4383
g61
(dp4384
sg70
g4378
sg63
(lp4385
g56
(g57
g58
NtRp4386
(dp4387
g61
(dp4388
g69
I1
ssg70
g4382
sg63
(lp4389
S'/admin/default/errors/ACES'
p4390
asbasbasbasbasbasbasbag56
(g72
g58
NtRp4391
(dp4392
g61
(dp4393
sg70
g3955
sg63
(lp4394
g56
(g77
g58
NtRp4395
(dp4396
g61
(dp4397
sg70
g4391
sg63
(lp4398
g56
(g57
g58
NtRp4399
(dp4400
g61
(dp4401
g69
I2
ssg70
g4395
sg63
(lp4402
g56
(g65
g58
NtRp4403
(dp4404
g61
(dp4405
g69
I1
ssg70
Nsg63
(lp4406
g56
(g72
g58
NtRp4407
(dp4408
g61
(dp4409
sg70
g4403
sg63
(lp4410
g56
(g77
g58
NtRp4411
(dp4412
g61
(dp4413
sg70
g4407
sg63
(lp4414
g56
(g57
g58
NtRp4415
(dp4416
g61
(dp4417
g69
I1
ssg70
g4411
sg63
(lp4418
g3846
(S't\x05\x00\x00\x00About'
tRp4419
asbasbasbag56
(g72
g58
NtRp4420
(dp4421
g61
(dp4422
sg70
g4403
sg63
(lp4423
g56
(g77
g58
NtRp4424
(dp4425
g61
(dp4426
sg70
g4420
sg63
(lp4427
g56
(g57
g58
NtRp4428
(dp4429
g61
(dp4430
g69
I1
ssg70
g4424
sg63
(lp4431
I00
asbasbasbag56
(g72
g58
NtRp4432
(dp4433
g61
(dp4434
sg70
g4403
sg63
(lp4435
g56
(g77
g58
NtRp4436
(dp4437
g61
(dp4438
sg70
g4432
sg63
(lp4439
g56
(g57
g58
NtRp4440
(dp4441
g61
(dp4442
g69
I1
ssg70
g4436
sg63
(lp4443
S'/admin/default/about/ACES'
p4444
asbasbasbasbasbasbasbasbasbasbasbasbasbasbasbag56
(g72
g58
NtRp4445
(dp4446
g61
(dp4447
sg70
g3814
sg63
(lp4448
g56
(g77
g58
NtRp4449
(dp4450
g61
(dp4451
sg70
g4445
sg63
(lp4452
g56
(g57
g58
NtRp4453
(dp4454
g61
(dp4455
g69
I4
ssg70
g4449
sg63
(lp4456
g56
(g65
g58
NtRp4457
(dp4458
g61
(dp4459
g69
I3
ssg70
Nsg63
(lp4460
g56
(g72
g58
NtRp4461
(dp4462
g61
(dp4463
sg70
g4457
sg63
(lp4464
g56
(g77
g58
NtRp4465
(dp4466
g61
(dp4467
sg70
g4461
sg63
(lp4468
g56
(g57
g58
NtRp4469
(dp4470
g61
(dp4471
g69
I3
ssg70
g4465
sg63
(lp4472
g3846
(S't\t\x00\x00\x00Resources'
tRp4473
asbasbasbag56
(g72
g58
NtRp4474
(dp4475
g61
(dp4476
sg70
g4457
sg63
(lp4477
g56
(g77
g58
NtRp4478
(dp4479
g61
(dp4480
sg70
g4474
sg63
(lp4481
g56
(g57
g58
NtRp4482
(dp4483
g61
(dp4484
g69
I3
ssg70
g4478
sg63
(lp4485
g99
asbasbasbag56
(g72
g58
NtRp4486
(dp4487
g61
(dp4488
sg70
g4457
sg63
(lp4489
g56
(g77
g58
NtRp4490
(dp4491
g61
(dp4492
sg70
g4486
sg63
(lp4493
g56
(g57
g58
NtRp4494
(dp4495
g61
(dp4496
g69
I3
ssg70
g4490
sg63
(lp4497
S'None'
p4498
asbasbasbag56
(g72
g58
NtRp4499
(dp4500
g61
(dp4501
sg70
g4457
sg63
(lp4502
g56
(g77
g58
NtRp4503
(dp4504
g61
(dp4505
sg70
g4499
sg63
(lp4506
g56
(g57
g58
NtRp4507
(dp4508
g61
(dp4509
g69
I3
ssg70
g4503
sg63
(lp4510
g56
(g65
g58
NtRp4511
(dp4512
g61
(dp4513
g69
I2
ssg70
Nsg63
(lp4514
g56
(g72
g58
NtRp4515
(dp4516
g61
(dp4517
sg70
g4511
sg63
(lp4518
g56
(g77
g58
NtRp4519
(dp4520
g61
(dp4521
sg70
g4515
sg63
(lp4522
g56
(g57
g58
NtRp4523
(dp4524
g61
(dp4525
g69
I2
ssg70
g4519
sg63
(lp4526
g56
(g65
g58
NtRp4527
(dp4528
g61
(dp4529
g69
I1
ssg70
Nsg63
(lp4530
g56
(g72
g58
NtRp4531
(dp4532
g61
(dp4533
sg70
g4527
sg63
(lp4534
g56
(g77
g58
NtRp4535
(dp4536
g61
(dp4537
sg70
g4531
sg63
(lp4538
g56
(g57
g58
NtRp4539
(dp4540
g61
(dp4541
g69
I1
ssg70
g4535
sg63
(lp4542
g3846
(S't\r\x00\x00\x00Documentation'
tRp4543
asbasbasbag56
(g72
g58
NtRp4544
(dp4545
g61
(dp4546
sg70
g4527
sg63
(lp4547
g56
(g77
g58
NtRp4548
(dp4549
g61
(dp4550
sg70
g4544
sg63
(lp4551
g56
(g57
g58
NtRp4552
(dp4553
g61
(dp4554
g69
I1
ssg70
g4548
sg63
(lp4555
I00
asbasbasbag56
(g72
g58
NtRp4556
(dp4557
g61
(dp4558
sg70
g4527
sg63
(lp4559
g56
(g77
g58
NtRp4560
(dp4561
g61
(dp4562
sg70
g4556
sg63
(lp4563
g56
(g57
g58
NtRp4564
(dp4565
g61
(dp4566
g69
I1
ssg70
g4560
sg63
(lp4567
S'http://www.web2py.com/book'
p4568
asbasbasbag56
(g72
g58
NtRp4569
(dp4570
g61
(dp4571
sg70
g4527
sg63
(lp4572
g56
(g77
g58
NtRp4573
(dp4574
g61
(dp4575
sg70
g4569
sg63
(lp4576
g56
(g57
g58
NtRp4577
(dp4578
g61
(dp4579
g69
I1
ssg70
g4573
sg63
(lp4580
(lp4581
(g3846
(S't\x07\x00\x00\x00Preface'
tRp4582
I00
S'http://www.web2py.com/book/default/chapter/00'
p4583
tp4584
a(g3846
(S't\x0c\x00\x00\x00Introduction'
tRp4585
I00
S'http://www.web2py.com/book/default/chapter/01'
p4586
tp4587
a(g3846
(S't\x06\x00\x00\x00Python'
tRp4588
I00
S'http://www.web2py.com/book/default/chapter/02'
p4589
tp4590
a(g3846
(S't\x08\x00\x00\x00Overview'
tRp4591
I00
S'http://www.web2py.com/book/default/chapter/03'
p4592
tp4593
a(g3846
(S's\x08\x00\x00\x00The Core'
tRp4594
I00
S'http://www.web2py.com/book/default/chapter/04'
p4595
tp4596
a(g3846
(S's\t\x00\x00\x00The Views'
tRp4597
I00
S'http://www.web2py.com/book/default/chapter/05'
p4598
tp4599
a(g3846
(S't\x08\x00\x00\x00Database'
tRp4600
I00
S'http://www.web2py.com/book/default/chapter/06'
p4601
tp4602
a(g3846
(S's\x14\x00\x00\x00Forms and Validators'
tRp4603
I00
S'http://www.web2py.com/book/default/chapter/07'
p4604
tp4605
a(g3846
(S's\x0e\x00\x00\x00Access Control'
tRp4606
I00
S'http://www.web2py.com/book/default/chapter/08'
p4607
tp4608
a(g3846
(S't\x08\x00\x00\x00Services'
tRp4609
I00
S'http://www.web2py.com/book/default/chapter/09'
p4610
tp4611
a(g3846
(S's\x0c\x00\x00\x00Ajax Recipes'
tRp4612
I00
S'http://www.web2py.com/book/default/chapter/10'
p4613
tp4614
a(g3846
(S's\x12\x00\x00\x00Deployment Recipes'
tRp4615
I00
S'http://www.web2py.com/book/default/chapter/11'
p4616
tp4617
a(g3846
(S's\r\x00\x00\x00Other Recipes'
tRp4618
I00
S'http://www.web2py.com/book/default/chapter/12'
p4619
tp4620
a(g3846
(S's\r\x00\x00\x00Buy this book'
tRp4621
I00
S'http://stores.lulu.com/web2py'
p4622
tp4623
aasbasbasbasbasbasbasbag56
(g72
g58
NtRp4624
(dp4625
g61
(dp4626
sg70
g4511
sg63
(lp4627
g56
(g77
g58
NtRp4628
(dp4629
g61
(dp4630
sg70
g4624
sg63
(lp4631
g56
(g57
g58
NtRp4632
(dp4633
g61
(dp4634
g69
I2
ssg70
g4628
sg63
(lp4635
g56
(g65
g58
NtRp4636
(dp4637
g61
(dp4638
g69
I1
ssg70
Nsg63
(lp4639
g56
(g72
g58
NtRp4640
(dp4641
g61
(dp4642
sg70
g4636
sg63
(lp4643
g56
(g77
g58
NtRp4644
(dp4645
g61
(dp4646
sg70
g4640
sg63
(lp4647
g56
(g57
g58
NtRp4648
(dp4649
g61
(dp4650
g69
I1
ssg70
g4644
sg63
(lp4651
g3846
(S't\t\x00\x00\x00Community'
tRp4652
asbasbasbag56
(g72
g58
NtRp4653
(dp4654
g61
(dp4655
sg70
g4636
sg63
(lp4656
g56
(g77
g58
NtRp4657
(dp4658
g61
(dp4659
sg70
g4653
sg63
(lp4660
g56
(g57
g58
NtRp4661
(dp4662
g61
(dp4663
g69
I1
ssg70
g4657
sg63
(lp4664
I00
asbasbasbag56
(g72
g58
NtRp4665
(dp4666
g61
(dp4667
sg70
g4636
sg63
(lp4668
g56
(g77
g58
NtRp4669
(dp4670
g61
(dp4671
sg70
g4665
sg63
(lp4672
g56
(g57
g58
NtRp4673
(dp4674
g61
(dp4675
g69
I1
ssg70
g4669
sg63
(lp4676
Nasbasbasbag56
(g72
g58
NtRp4677
(dp4678
g61
(dp4679
sg70
g4636
sg63
(lp4680
g56
(g77
g58
NtRp4681
(dp4682
g61
(dp4683
sg70
g4677
sg63
(lp4684
g56
(g57
g58
NtRp4685
(dp4686
g61
(dp4687
g69
I1
ssg70
g4681
sg63
(lp4688
(lp4689
(g3846
(S't\x06\x00\x00\x00Groups'
tRp4690
I00
S'http://www.web2py.com/examples/default/usergroups'
p4691
tp4692
a(g3846
(S't\x07\x00\x00\x00Twitter'
tRp4693
I00
S'http://twitter.com/web2py'
p4694
tp4695
a(g3846
(S's\t\x00\x00\x00Live chat'
tRp4696
I00
S'http://mibbit.com/?channel=%23web2py&server=irc.mibbit.net'
p4697
tp4698
a(g3846
(S's\n\x00\x00\x00User Voice'
tRp4699
I00
S'http://web2py.uservoice.com/'
p4700
tp4701
aasbasbasbasbasbasbasbag56
(g72
g58
NtRp4702
(dp4703
g61
(dp4704
sg70
g4511
sg63
(lp4705
g56
(g77
g58
NtRp4706
(dp4707
g61
(dp4708
sg70
g4702
sg63
(lp4709
g56
(g57
g58
NtRp4710
(dp4711
g61
(dp4712
g69
I2
ssg70
g4706
sg63
(lp4713
g56
(g65
g58
NtRp4714
(dp4715
g61
(dp4716
g69
I1
ssg70
Nsg63
(lp4717
g56
(g72
g58
NtRp4718
(dp4719
g61
(dp4720
sg70
g4714
sg63
(lp4721
g56
(g77
g58
NtRp4722
(dp4723
g61
(dp4724
sg70
g4718
sg63
(lp4725
g56
(g57
g58
NtRp4726
(dp4727
g61
(dp4728
g69
I1
ssg70
g4722
sg63
(lp4729
g3846
(S't\x06\x00\x00\x00Web2py'
tRp4730
asbasbasbag56
(g72
g58
NtRp4731
(dp4732
g61
(dp4733
sg70
g4714
sg63
(lp4734
g56
(g77
g58
NtRp4735
(dp4736
g61
(dp4737
sg70
g4731
sg63
(lp4738
g56
(g57
g58
NtRp4739
(dp4740
g61
(dp4741
g69
I1
ssg70
g4735
sg63
(lp4742
I00
asbasbasbag56
(g72
g58
NtRp4743
(dp4744
g61
(dp4745
sg70
g4714
sg63
(lp4746
g56
(g77
g58
NtRp4747
(dp4748
g61
(dp4749
sg70
g4743
sg63
(lp4750
g56
(g57
g58
NtRp4751
(dp4752
g61
(dp4753
g69
I1
ssg70
g4747
sg63
(lp4754
S'http://www.web2py.com'
p4755
asbasbasbag56
(g72
g58
NtRp4756
(dp4757
g61
(dp4758
sg70
g4714
sg63
(lp4759
g56
(g77
g58
NtRp4760
(dp4761
g61
(dp4762
sg70
g4756
sg63
(lp4763
g56
(g57
g58
NtRp4764
(dp4765
g61
(dp4766
g69
I1
ssg70
g4760
sg63
(lp4767
(lp4768
(g3846
(S't\x08\x00\x00\x00Download'
tRp4769
I00
S'http://www.web2py.com/examples/default/download'
p4770
tp4771
a(g3846
(S't\x07\x00\x00\x00Support'
tRp4772
I00
S'http://www.web2py.com/examples/default/support'
p4773
tp4774
a(g3846
(S's\x0e\x00\x00\x00Quick Examples'
tRp4775
I00
S'http://web2py.com/examples/default/examples'
p4776
tp4777
a(g3846
(S't\x03\x00\x00\x00FAQ'
tRp4778
I00
S'http://web2py.com/AlterEgo'
p4779
tp4780
a(g3846
(S's\x11\x00\x00\x00Free Applications'
tRp4781
I00
S'http://web2py.com/appliances'
p4782
tp4783
a(g3846
(S't\x07\x00\x00\x00Plugins'
tRp4784
I00
S'http://web2py.com/plugins'
p4785
tp4786
a(g3846
(S't\x07\x00\x00\x00Recipes'
tRp4787
I00
S'http://web2pyslices.com/'
p4788
tp4789
a(g3846
(S't\x04\x00\x00\x00Demo'
tRp4790
I00
S'http://web2py.com/demo_admin'
p4791
tp4792
a(g3846
(S't\x08\x00\x00\x00Semantic'
tRp4793
I00
S'http://web2py.com/semantic'
p4794
tp4795
a(g3846
(S't\x07\x00\x00\x00Layouts'
tRp4796
I00
S'http://web2py.com/layouts'
p4797
tp4798
a(g3846
(S't\x06\x00\x00\x00Videos'
tRp4799
I00
S'http://www.web2py.com/examples/default/videos/'
p4800
tp4801
aasbasbasbasbasbasbasbasbasbasbasbasbasbasbasbasbasbasbasbag56
(g72
g58
NtRp4802
(dp4803
g61
(dp4804
sg70
g3341
sg63
(lp4805
g56
(g77
g58
NtRp4806
(dp4807
g61
(dp4808
g81
g82
ssg70
g4802
sg63
(lp4809
S'meta'
p4810
asbag56
(g77
g58
NtRp4811
(dp4812
g61
(dp4813
g88
g89
ssg70
g4802
sg63
(lp4814
S':'
asbag56
(g77
g58
NtRp4815
(dp4816
g61
(dp4817
sg70
g4802
sg63
(lp4818
g56
(g57
g58
NtRp4819
(dp4820
g61
(dp4821
g69
I5
ssg70
g4815
sg63
(lp4822
g56
(g65
g58
NtRp4823
(dp4824
g61
(dp4825
g69
I4
ssg70
Nsg63
(lp4826
g56
(g72
g58
NtRp4827
(dp4828
g61
(dp4829
sg70
g4823
sg63
(lp4830
g56
(g77
g58
NtRp4831
(dp4832
g61
(dp4833
g81
g82
ssg70
g4827
sg63
(lp4834
S'author'
p4835
asbag56
(g77
g58
NtRp4836
(dp4837
g61
(dp4838
g88
g89
ssg70
g4827
sg63
(lp4839
S':'
asbag56
(g77
g58
NtRp4840
(dp4841
g61
(dp4842
sg70
g4827
sg63
(lp4843
g56
(g57
g58
NtRp4844
(dp4845
g61
(dp4846
g69
I4
ssg70
g4840
sg63
(lp4847
S'Your Name <you@example.com>'
p4848
asbasbasbag56
(g72
g58
NtRp4849
(dp4850
g61
(dp4851
sg70
g4823
sg63
(lp4852
g56
(g77
g58
NtRp4853
(dp4854
g61
(dp4855
g81
g82
ssg70
g4849
sg63
(lp4856
S'copyright'
p4857
asbag56
(g77
g58
NtRp4858
(dp4859
g61
(dp4860
g88
g89
ssg70
g4849
sg63
(lp4861
S':'
asbag56
(g77
g58
NtRp4862
(dp4863
g61
(dp4864
sg70
g4849
sg63
(lp4865
g56
(g57
g58
NtRp4866
(dp4867
g61
(dp4868
g69
I4
ssg70
g4862
sg63
(lp4869
S'Copyright 2011'
p4870
asbasbasbag56
(g72
g58
NtRp4871
(dp4872
g61
(dp4873
sg70
g4823
sg63
(lp4874
g56
(g77
g58
NtRp4875
(dp4876
g61
(dp4877
g81
g82
ssg70
g4871
sg63
(lp4878
S'description'
p4879
asbag56
(g77
g58
NtRp4880
(dp4881
g61
(dp4882
g88
g89
ssg70
g4871
sg63
(lp4883
S':'
asbag56
(g77
g58
NtRp4884
(dp4885
g61
(dp4886
sg70
g4871
sg63
(lp4887
g56
(g57
g58
NtRp4888
(dp4889
g61
(dp4890
g69
I4
ssg70
g4884
sg63
(lp4891
S'a cool new app'
p4892
asbasbasbag56
(g72
g58
NtRp4893
(dp4894
g61
(dp4895
sg70
g4823
sg63
(lp4896
g56
(g77
g58
NtRp4897
(dp4898
g61
(dp4899
g81
g82
ssg70
g4893
sg63
(lp4900
S'generator'
p4901
asbag56
(g77
g58
NtRp4902
(dp4903
g61
(dp4904
g88
g89
ssg70
g4893
sg63
(lp4905
S':'
asbag56
(g77
g58
NtRp4906
(dp4907
g61
(dp4908
sg70
g4893
sg63
(lp4909
g56
(g57
g58
NtRp4910
(dp4911
g61
(dp4912
g69
I4
ssg70
g4906
sg63
(lp4913
S'Web2py Web Framework'
p4914
asbasbasbag56
(g72
g58
NtRp4915
(dp4916
g61
(dp4917
sg70
g4823
sg63
(lp4918
g56
(g77
g58
NtRp4919
(dp4920
g61
(dp4921
g81
g82
ssg70
g4915
sg63
(lp4922
S'keywords'
p4923
asbag56
(g77
g58
NtRp4924
(dp4925
g61
(dp4926
g88
g89
ssg70
g4915
sg63
(lp4927
S':'
asbag56
(g77
g58
NtRp4928
(dp4929
g61
(dp4930
sg70
g4915
sg63
(lp4931
g56
(g57
g58
NtRp4932
(dp4933
g61
(dp4934
g69
I4
ssg70
g4928
sg63
(lp4935
S'web2py, python, framework'
p4936
asbasbasbasbasbasbasbag56
(g72
g58
NtRp4937
(dp4938
g61
(dp4939
sg70
g3341
sg63
(lp4940
g56
(g77
g58
NtRp4941
(dp4942
g61
(dp4943
g81
g82
ssg70
g4937
sg63
(lp4944
S'postprocessing'
p4945
asbag56
(g77
g58
NtRp4946
(dp4947
g61
(dp4948
g88
g89
ssg70
g4937
sg63
(lp4949
S':'
asbag56
(g77
g58
NtRp4950
(dp4951
g61
(dp4952
sg70
g4937
sg63
(lp4953
g56
(g57
g58
NtRp4954
(dp4955
g61
(dp4956
g69
I5
ssg70
g4950
sg63
(lp4957
g56
(g65
g58
NtRp4958
(dp4959
g61
(dp4960
g69
I4
ssg70
Nsg63
(lp4961
sbasbasbasbag56
(g72
g58
NtRp4962
(dp4963
g61
(dp4964
sg70
g3341
sg63
(lp4965
g56
(g77
g58
NtRp4966
(dp4967
g61
(dp4968
g81
g82
ssg70
g4962
sg63
(lp4969
S'session_file'
p4970
asbag56
(g77
g58
NtRp4971
(dp4972
g61
(dp4973
g88
g89
ssg70
g4962
sg63
(lp4974
S':'
asbag56
(g77
g58
NtRp4975
(dp4976
g61
(dp4977
sg70
g4962
sg63
(lp4978
g56
(g57
g58
NtRp4979
(dp4980
g61
(dp4981
g69
I5
ssg70
g4975
sg63
(lp4982
S"<open file '/home/u4hcsdaw/Python/web2py/applications/ACES/sessions/127.0.0.1-c914d549-bd8c-4d4b-80c4-72a1e6cf8099', mode 'rb+' at 0xadb99a18>"
p4983
asbasbasbag56
(g72
g58
NtRp4984
(dp4985
g61
(dp4986
sg70
g3341
sg63
(lp4987
g56
(g77
g58
NtRp4988
(dp4989
g61
(dp4990
g81
g82
ssg70
g4984
sg63
(lp4991
S'session_filename'
p4992
asbag56
(g77
g58
NtRp4993
(dp4994
g61
(dp4995
g88
g89
ssg70
g4984
sg63
(lp4996
S':'
asbag56
(g77
g58
NtRp4997
(dp4998
g61
(dp4999
sg70
g4984
sg63
(lp5000
g56
(g57
g58
NtRp5001
(dp5002
g61
(dp5003
g69
I5
ssg70
g4997
sg63
(lp5004
S'/home/u4hcsdaw/Python/web2py/applications/ACES/sessions/127.0.0.1-c914d549-bd8c-4d4b-80c4-72a1e6cf8099'
p5005
asbasbasbag56
(g72
g58
NtRp5006
(dp5007
g61
(dp5008
sg70
g3341
sg63
(lp5009
g56
(g77
g58
NtRp5010
(dp5011
g61
(dp5012
g81
g82
ssg70
g5006
sg63
(lp5013
S'session_id'
p5014
asbag56
(g77
g58
NtRp5015
(dp5016
g61
(dp5017
g88
g89
ssg70
g5006
sg63
(lp5018
S':'
asbag56
(g77
g58
NtRp5019
(dp5020
g61
(dp5021
sg70
g5006
sg63
(lp5022
g56
(g57
g58
NtRp5023
(dp5024
g61
(dp5025
g69
I5
ssg70
g5019
sg63
(lp5026
S'127.0.0.1-c914d549-bd8c-4d4b-80c4-72a1e6cf8099'
p5027
asbasbasbag56
(g72
g58
NtRp5028
(dp5029
g61
(dp5030
sg70
g3341
sg63
(lp5031
g56
(g77
g58
NtRp5032
(dp5033
g61
(dp5034
g81
g82
ssg70
g5028
sg63
(lp5035
S'session_id_name'
p5036
asbag56
(g77
g58
NtRp5037
(dp5038
g61
(dp5039
g88
g89
ssg70
g5028
sg63
(lp5040
S':'
asbag56
(g77
g58
NtRp5041
(dp5042
g61
(dp5043
sg70
g5028
sg63
(lp5044
g56
(g57
g58
NtRp5045
(dp5046
g61
(dp5047
g69
I5
ssg70
g5041
sg63
(lp5048
g3398
asbasbasbag56
(g72
g58
NtRp5049
(dp5050
g61
(dp5051
sg70
g3341
sg63
(lp5052
g56
(g77
g58
NtRp5053
(dp5054
g61
(dp5055
g81
g82
ssg70
g5049
sg63
(lp5056
S'session_locked'
p5057
asbag56
(g77
g58
NtRp5058
(dp5059
g61
(dp5060
g88
g89
ssg70
g5049
sg63
(lp5061
S':'
asbag56
(g77
g58
NtRp5062
(dp5063
g61
(dp5064
sg70
g5049
sg63
(lp5065
g56
(g57
g58
NtRp5066
(dp5067
g61
(dp5068
g69
I5
ssg70
g5062
sg63
(lp5069
g1720
asbasbasbag56
(g72
g58
NtRp5070
(dp5071
g61
(dp5072
sg70
g3341
sg63
(lp5073
g56
(g77
g58
NtRp5074
(dp5075
g61
(dp5076
g81
g82
ssg70
g5070
sg63
(lp5077
S'session_new'
p5078
asbag56
(g77
g58
NtRp5079
(dp5080
g61
(dp5081
g88
g89
ssg70
g5070
sg63
(lp5082
S':'
asbag56
(g77
g58
NtRp5083
(dp5084
g61
(dp5085
sg70
g5070
sg63
(lp5086
g56
(g57
g58
NtRp5087
(dp5088
g61
(dp5089
g69
I5
ssg70
g5083
sg63
(lp5090
g99
asbasbasbag56
(g72
g58
NtRp5091
(dp5092
g61
(dp5093
sg70
g3341
sg63
(lp5094
g56
(g77
g58
NtRp5095
(dp5096
g61
(dp5097
g81
g82
ssg70
g5091
sg63
(lp5098
S'status'
p5099
asbag56
(g77
g58
NtRp5100
(dp5101
g61
(dp5102
g88
g89
ssg70
g5091
sg63
(lp5103
S':'
asbag56
(g77
g58
NtRp5104
(dp5105
g61
(dp5106
sg70
g5091
sg63
(lp5107
g56
(g57
g58
NtRp5108
(dp5109
g61
(dp5110
g69
I5
ssg70
g5104
sg63
(lp5111
S'200'
p5112
asbasbasbag56
(g72
g58
NtRp5113
(dp5114
g61
(dp5115
sg70
g3341
sg63
(lp5116
g56
(g77
g58
NtRp5117
(dp5118
g61
(dp5119
g81
g82
ssg70
g5113
sg63
(lp5120
S'subtitle'
p5121
asbag56
(g77
g58
NtRp5122
(dp5123
g61
(dp5124
g88
g89
ssg70
g5113
sg63
(lp5125
S':'
asbag56
(g77
g58
NtRp5126
(dp5127
g61
(dp5128
sg70
g5113
sg63
(lp5129
g56
(g57
g58
NtRp5130
(dp5131
g61
(dp5132
g69
I5
ssg70
g5126
sg63
(lp5133
g3846
(S's\r\x00\x00\x00customize me!'
tRp5134
asbasbasbag56
(g72
g58
NtRp5135
(dp5136
g61
(dp5137
sg70
g3341
sg63
(lp5138
g56
(g77
g58
NtRp5139
(dp5140
g61
(dp5141
g81
g82
ssg70
g5135
sg63
(lp5142
S'title'
p5143
asbag56
(g77
g58
NtRp5144
(dp5145
g61
(dp5146
g88
g89
ssg70
g5135
sg63
(lp5147
S':'
asbag56
(g77
g58
NtRp5148
(dp5149
g61
(dp5150
sg70
g5135
sg63
(lp5151
g56
(g57
g58
NtRp5152
(dp5153
g61
(dp5154
g69
I5
ssg70
g5148
sg63
(lp5155
g121
asbasbasbag56
(g72
g58
NtRp5156
(dp5157
g61
(dp5158
sg70
g3341
sg63
(lp5159
g56
(g77
g58
NtRp5160
(dp5161
g61
(dp5162
g81
g82
ssg70
g5156
sg63
(lp5163
g2408
asbag56
(g77
g58
NtRp5164
(dp5165
g61
(dp5166
g88
g89
ssg70
g5156
sg63
(lp5167
S':'
asbag56
(g77
g58
NtRp5168
(dp5169
g61
(dp5170
sg70
g5156
sg63
(lp5171
g56
(g57
g58
NtRp5172
(dp5173
g61
(dp5174
g69
I5
ssg70
g5168
sg63
(lp5175
g2421
asbasbasbag56
(g72
g58
NtRp5176
(dp5177
g61
(dp5178
sg70
g3341
sg63
(lp5179
g56
(g77
g58
NtRp5180
(dp5181
g61
(dp5182
g81
g82
ssg70
g5176
sg63
(lp5183
S'view'
p5184
asbag56
(g77
g58
NtRp5185
(dp5186
g61
(dp5187
g88
g89
ssg70
g5176
sg63
(lp5188
S':'
asbag56
(g77
g58
NtRp5189
(dp5190
g61
(dp5191
sg70
g5176
sg63
(lp5192
g56
(g57
g58
NtRp5193
(dp5194
g61
(dp5195
g69
I5
ssg70
g5189
sg63
(lp5196
S'default/index.html'
p5197
asbasbasbasbasbsS'locals'
p5198
(dp5199
S'f1'
p5200
S'<gluon.html.FORM object>'
p5201
sS'sub1'
p5202
S'<gluon.html.INPUT object>'
p5203
sS't0'
p5204
S"''"
p5205
sS'datetime'
p5206
S"<module 'datetime' from '/usr/lib/python2.7/lib-dynload/datetime.so'>"
p5207
sS'ip1'
p5208
S'<gluon.html.INPUT object>'
p5209
sS'img1'
p5210
S"''"
p5211
sg2273
S'datetime.datetime(2012, 6, 29, 14, 21, 53, 290922)'
p5212
sS'nowS'
p5213
S"'1340997713'"
p5214
sssS'traceback'
p5215
S'Traceback (most recent call last):\n  File "/home/u4hcsdaw/Python/web2py/gluon/restricted.py", line 194, in restricted\n    exec ccode in environment\n  File "/home/u4hcsdaw/Python/web2py/applications/ACES/controllers/default.py", line 83, in <module>\n  File "/home/u4hcsdaw/Python/web2py/gluon/globals.py", line 149, in <lambda>\n    self._caller = lambda f: f()\n  File "/home/u4hcsdaw/Python/web2py/applications/ACES/controllers/default.py", line 27, in index\n    t0=AcesCall(f1.var.waveHeight)\nAttributeError: \'FORM\' object has no attribute \'var\'\n'
p5216
s.