(dp1
S'output'
p2
S''
sS'layer'
p3
S'/home/u4hcsdaw/Python/web2py/applications/ACES/controllers/default.py'
p4
sS'code'
p5
S'# -*- coding: utf-8 -*-\n# this file is released under public domain and you can use without limitations\n\n#########################################################################\n## This is a samples controller\n## - index is the default action of any application\n## - user is required for authentication and authorization\n## - download is for downloading files uploaded in the db (does streaming)\n## - call exposes all registered services (none by default)\n#########################################################################\n\ndef index():\n    """\n    example action using the internationalization operator T and flash\n    rendered by views/default/index.html or views/generic.html\n    """\n    t0=\'\'\n    ip1=INPUT(_type=\'text\', _name=\'waveHeight\', _value=\'0.85\')\n    sub1=INPUT(_type=\'submit\',_name=\'subButton\')\n    f1=FORM(\'wave\',ip1,sub1,_name=\'Form1\',_action=\'\')\n    if f1.accepts(request.vars,session):\n        session.formVars=f1.vars\n        t0=AcesCall(f1.vars)\n    return dict(form=f1,t0=t0)\n\ndef user():\n    """\n    exposes:\n    http://..../[app]/default/user/login\n    http://..../[app]/default/user/logout\n    http://..../[app]/default/user/register\n    http://..../[app]/default/user/profile\n    http://..../[app]/default/user/retrieve_password\n    http://..../[app]/default/user/change_password\n    use @auth.requires_login()\n        @auth.requires_membership(\'group name\')\n        @auth.requires_permission(\'read\',\'table name\',record_id)\n    to decorate functions that need access control\n    """\n    return dict(form=auth())\n\n\ndef download():\n    """\n    allows downloading of uploaded files\n    http://..../[app]/default/download/[filename]\n    """\n    return response.download(request,db)\n\n\ndef call():\n    """\n    exposes services. for example:\n    http://..../[app]/default/call/jsonrpc\n    decorate with @services.jsonrpc the functions to expose\n    supports xml, json, xmlrpc, jsonrpc, amfrpc, rss, csv\n    """\n    return service()\n\n\n@auth.requires_signature()\ndef data():\n    """\n    http://..../[app]/default/data/tables\n    http://..../[app]/default/data/create/[table]\n    http://..../[app]/default/data/read/[table]/[id]\n    http://..../[app]/default/data/update/[table]/[id]\n    http://..../[app]/default/data/delete/[table]/[id]\n    http://..../[app]/default/data/select/[table]\n    http://..../[app]/default/data/search/[table]\n    but URLs bust be signed, i.e. linked with\n      A(\'table\',_href=URL(\'data/tables\',user_signature=True))\n    or with the signed load operator\n      LOAD(\'default\',\'data.load\',args=\'tables\',ajax=True,user_signature=True)\n    """\n    return dict(form=crud())\n\nresponse._vars=response._caller(index)\n'
p6
sS'snapshot'
p7
(dp8
S'exception'
p9
(dp10
S'__hash__'
p11
S"<method-wrapper '__hash__' of exceptions.KeyError object>"
p12
sS'__setattr__'
p13
S"<method-wrapper '__setattr__' of exceptions.KeyError object>"
p14
sS'__reduce_ex__'
p15
S'<built-in method __reduce_ex__ of exceptions.KeyError object>'
p16
sS'__getslice__'
p17
S"<method-wrapper '__getslice__' of exceptions.KeyError object>"
p18
sS'__getitem__'
p19
S"<method-wrapper '__getitem__' of exceptions.KeyError object>"
p20
sS'__setstate__'
p21
S'<built-in method __setstate__ of exceptions.KeyError object>'
p22
sS'__reduce__'
p23
S'<built-in method __reduce__ of exceptions.KeyError object>'
p24
sS'__str__'
p25
S"<method-wrapper '__str__' of exceptions.KeyError object>"
p26
sS'__format__'
p27
S'<built-in method __format__ of exceptions.KeyError object>'
p28
sS'__getattribute__'
p29
S"<method-wrapper '__getattribute__' of exceptions.KeyError object>"
p30
sS'__class__'
p31
S"<type 'exceptions.KeyError'>"
p32
sS'__unicode__'
p33
S'<built-in method __unicode__ of exceptions.KeyError object>'
p34
sS'__delattr__'
p35
S"<method-wrapper '__delattr__' of exceptions.KeyError object>"
p36
sS'__subclasshook__'
p37
S'<built-in method __subclasshook__ of type object>'
p38
sS'__repr__'
p39
S"<method-wrapper '__repr__' of exceptions.KeyError object>"
p40
sS'args'
p41
S"('wavePeriod',)"
p42
sS'__dict__'
p43
S'{}'
p44
sS'__sizeof__'
p45
S'<built-in method __sizeof__ of exceptions.KeyError object>'
p46
sS'__doc__'
p47
S"'Mapping key not found.'"
p48
sS'__init__'
p49
S"<method-wrapper '__init__' of exceptions.KeyError object>"
p50
sS'__new__'
p51
S'<built-in method __new__ of type object>'
p52
ssS'evalue'
p53
S"'wavePeriod'"
p54
sS'request'
p55
ccopy_reg
_reconstructor
p56
(cgluon.html
BEAUTIFY
p57
c__builtin__
object
p58
NtRp59
(dp60
S'attributes'
p61
(dp62
sS'components'
p63
(lp64
g56
(cgluon.html
TABLE
p65
g58
NtRp66
(dp67
g61
(dp68
S'level'
p69
I5
ssS'parent'
p70
Nsg63
(lp71
g56
(cgluon.html
TR
p72
g58
NtRp73
(dp74
g61
(dp75
sg70
g66
sg63
(lp76
g56
(cgluon.html
TD
p77
g58
NtRp78
(dp79
g61
(dp80
S'_style'
p81
S'font-weight:bold;'
p82
ssg70
g73
sg63
(lp83
S'ajax'
p84
asbag56
(g77
g58
NtRp85
(dp86
g61
(dp87
S'_valign'
p88
S'top'
p89
ssg70
g73
sg63
(lp90
S':'
asbag56
(g77
g58
NtRp91
(dp92
g61
(dp93
sg70
g73
sg63
(lp94
g56
(g57
g58
NtRp95
(dp96
g61
(dp97
g69
I5
ssg70
g91
sg63
(lp98
S'False'
p99
asbasbasbag56
(g72
g58
NtRp100
(dp101
g61
(dp102
sg70
g66
sg63
(lp103
g56
(g77
g58
NtRp104
(dp105
g61
(dp106
g81
g82
ssg70
g100
sg63
(lp107
S'application'
p108
asbag56
(g77
g58
NtRp109
(dp110
g61
(dp111
g88
g89
ssg70
g100
sg63
(lp112
S':'
asbag56
(g77
g58
NtRp113
(dp114
g61
(dp115
sg70
g100
sg63
(lp116
g56
(g57
g58
NtRp117
(dp118
g61
(dp119
g69
I5
ssg70
g113
sg63
(lp120
S'ACES'
p121
asbasbasbag56
(g72
g58
NtRp122
(dp123
g61
(dp124
sg70
g66
sg63
(lp125
g56
(g77
g58
NtRp126
(dp127
g61
(dp128
g81
g82
ssg70
g122
sg63
(lp129
g41
asbag56
(g77
g58
NtRp130
(dp131
g61
(dp132
g88
g89
ssg70
g122
sg63
(lp133
S':'
asbag56
(g77
g58
NtRp134
(dp135
g61
(dp136
sg70
g122
sg63
(lp137
g56
(g57
g58
NtRp138
(dp139
g61
(dp140
g69
I5
ssg70
g134
sg63
(lp141
g56
(g65
g58
NtRp142
(dp143
g61
(dp144
g69
I4
ssg70
Nsg63
(lp145
sbasbasbasbag56
(g72
g58
NtRp146
(dp147
g61
(dp148
sg70
g66
sg63
(lp149
g56
(g77
g58
NtRp150
(dp151
g61
(dp152
g81
g82
ssg70
g146
sg63
(lp153
S'body'
p154
asbag56
(g77
g58
NtRp155
(dp156
g61
(dp157
g88
g89
ssg70
g146
sg63
(lp158
S':'
asbag56
(g77
g58
NtRp159
(dp160
g61
(dp161
sg70
g146
sg63
(lp162
g56
(g57
g58
NtRp163
(dp164
g61
(dp165
g69
I5
ssg70
g159
sg63
(lp166
S"<open file '<fdopen>', mode 'w+b' at 0xa8cfe90>"
p167
asbasbasbag56
(g72
g58
NtRp168
(dp169
g61
(dp170
sg70
g66
sg63
(lp171
g56
(g77
g58
NtRp172
(dp173
g61
(dp174
g81
g82
ssg70
g168
sg63
(lp175
S'client'
p176
asbag56
(g77
g58
NtRp177
(dp178
g61
(dp179
g88
g89
ssg70
g168
sg63
(lp180
S':'
asbag56
(g77
g58
NtRp181
(dp182
g61
(dp183
sg70
g168
sg63
(lp184
g56
(g57
g58
NtRp185
(dp186
g61
(dp187
g69
I5
ssg70
g181
sg63
(lp188
S'127.0.0.1'
p189
asbasbasbag56
(g72
g58
NtRp190
(dp191
g61
(dp192
sg70
g66
sg63
(lp193
g56
(g77
g58
NtRp194
(dp195
g61
(dp196
g81
g82
ssg70
g190
sg63
(lp197
S'controller'
p198
asbag56
(g77
g58
NtRp199
(dp200
g61
(dp201
g88
g89
ssg70
g190
sg63
(lp202
S':'
asbag56
(g77
g58
NtRp203
(dp204
g61
(dp205
sg70
g190
sg63
(lp206
g56
(g57
g58
NtRp207
(dp208
g61
(dp209
g69
I5
ssg70
g203
sg63
(lp210
S'default'
p211
asbasbasbag56
(g72
g58
NtRp212
(dp213
g61
(dp214
sg70
g66
sg63
(lp215
g56
(g77
g58
NtRp216
(dp217
g61
(dp218
g81
g82
ssg70
g212
sg63
(lp219
S'cookies'
p220
asbag56
(g77
g58
NtRp221
(dp222
g61
(dp223
g88
g89
ssg70
g212
sg63
(lp224
S':'
asbag56
(g77
g58
NtRp225
(dp226
g61
(dp227
sg70
g212
sg63
(lp228
g56
(g57
g58
NtRp229
(dp230
g61
(dp231
g69
I5
ssg70
g225
sg63
(lp232
g56
(g65
g58
NtRp233
(dp234
g61
(dp235
g69
I4
ssg70
Nsg63
(lp236
g56
(g72
g58
NtRp237
(dp238
g61
(dp239
sg70
g233
sg63
(lp240
g56
(g77
g58
NtRp241
(dp242
g61
(dp243
g81
g82
ssg70
g237
sg63
(lp244
S'session_id_aces'
p245
asbag56
(g77
g58
NtRp246
(dp247
g61
(dp248
g88
g89
ssg70
g237
sg63
(lp249
S':'
asbag56
(g77
g58
NtRp250
(dp251
g61
(dp252
sg70
g237
sg63
(lp253
g56
(g57
g58
NtRp254
(dp255
g61
(dp256
g69
I4
ssg70
g250
sg63
(lp257
g56
(g65
g58
NtRp258
(dp259
g61
(dp260
g69
I3
ssg70
Nsg63
(lp261
g56
(g72
g58
NtRp262
(dp263
g61
(dp264
sg70
g258
sg63
(lp265
g56
(g77
g58
NtRp266
(dp267
g61
(dp268
g81
g82
ssg70
g262
sg63
(lp269
S'comment'
p270
asbag56
(g77
g58
NtRp271
(dp272
g61
(dp273
g88
g89
ssg70
g262
sg63
(lp274
S':'
asbag56
(g77
g58
NtRp275
(dp276
g61
(dp277
sg70
g262
sg63
(lp278
g56
(g57
g58
NtRp279
(dp280
g61
(dp281
g69
I3
ssg70
g275
sg63
(lp282
S''
asbasbasbag56
(g72
g58
NtRp283
(dp284
g61
(dp285
sg70
g258
sg63
(lp286
g56
(g77
g58
NtRp287
(dp288
g61
(dp289
g81
g82
ssg70
g283
sg63
(lp290
S'domain'
p291
asbag56
(g77
g58
NtRp292
(dp293
g61
(dp294
g88
g89
ssg70
g283
sg63
(lp295
S':'
asbag56
(g77
g58
NtRp296
(dp297
g61
(dp298
sg70
g283
sg63
(lp299
g56
(g57
g58
NtRp300
(dp301
g61
(dp302
g69
I3
ssg70
g296
sg63
(lp303
S''
asbasbasbag56
(g72
g58
NtRp304
(dp305
g61
(dp306
sg70
g258
sg63
(lp307
g56
(g77
g58
NtRp308
(dp309
g61
(dp310
g81
g82
ssg70
g304
sg63
(lp311
S'expires'
p312
asbag56
(g77
g58
NtRp313
(dp314
g61
(dp315
g88
g89
ssg70
g304
sg63
(lp316
S':'
asbag56
(g77
g58
NtRp317
(dp318
g61
(dp319
sg70
g304
sg63
(lp320
g56
(g57
g58
NtRp321
(dp322
g61
(dp323
g69
I3
ssg70
g317
sg63
(lp324
S''
asbasbasbag56
(g72
g58
NtRp325
(dp326
g61
(dp327
sg70
g258
sg63
(lp328
g56
(g77
g58
NtRp329
(dp330
g61
(dp331
g81
g82
ssg70
g325
sg63
(lp332
S'httponly'
p333
asbag56
(g77
g58
NtRp334
(dp335
g61
(dp336
g88
g89
ssg70
g325
sg63
(lp337
S':'
asbag56
(g77
g58
NtRp338
(dp339
g61
(dp340
sg70
g325
sg63
(lp341
g56
(g57
g58
NtRp342
(dp343
g61
(dp344
g69
I3
ssg70
g338
sg63
(lp345
S''
asbasbasbag56
(g72
g58
NtRp346
(dp347
g61
(dp348
sg70
g258
sg63
(lp349
g56
(g77
g58
NtRp350
(dp351
g61
(dp352
g81
g82
ssg70
g346
sg63
(lp353
S'max-age'
p354
asbag56
(g77
g58
NtRp355
(dp356
g61
(dp357
g88
g89
ssg70
g346
sg63
(lp358
S':'
asbag56
(g77
g58
NtRp359
(dp360
g61
(dp361
sg70
g346
sg63
(lp362
g56
(g57
g58
NtRp363
(dp364
g61
(dp365
g69
I3
ssg70
g359
sg63
(lp366
S''
asbasbasbag56
(g72
g58
NtRp367
(dp368
g61
(dp369
sg70
g258
sg63
(lp370
g56
(g77
g58
NtRp371
(dp372
g61
(dp373
g81
g82
ssg70
g367
sg63
(lp374
S'path'
p375
asbag56
(g77
g58
NtRp376
(dp377
g61
(dp378
g88
g89
ssg70
g367
sg63
(lp379
S':'
asbag56
(g77
g58
NtRp380
(dp381
g61
(dp382
sg70
g367
sg63
(lp383
g56
(g57
g58
NtRp384
(dp385
g61
(dp386
g69
I3
ssg70
g380
sg63
(lp387
S''
asbasbasbag56
(g72
g58
NtRp388
(dp389
g61
(dp390
sg70
g258
sg63
(lp391
g56
(g77
g58
NtRp392
(dp393
g61
(dp394
g81
g82
ssg70
g388
sg63
(lp395
S'secure'
p396
asbag56
(g77
g58
NtRp397
(dp398
g61
(dp399
g88
g89
ssg70
g388
sg63
(lp400
S':'
asbag56
(g77
g58
NtRp401
(dp402
g61
(dp403
sg70
g388
sg63
(lp404
g56
(g57
g58
NtRp405
(dp406
g61
(dp407
g69
I3
ssg70
g401
sg63
(lp408
S''
asbasbasbag56
(g72
g58
NtRp409
(dp410
g61
(dp411
sg70
g258
sg63
(lp412
g56
(g77
g58
NtRp413
(dp414
g61
(dp415
g81
g82
ssg70
g409
sg63
(lp416
S'version'
p417
asbag56
(g77
g58
NtRp418
(dp419
g61
(dp420
g88
g89
ssg70
g409
sg63
(lp421
S':'
asbag56
(g77
g58
NtRp422
(dp423
g61
(dp424
sg70
g409
sg63
(lp425
g56
(g57
g58
NtRp426
(dp427
g61
(dp428
g69
I3
ssg70
g422
sg63
(lp429
S''
asbasbasbasbasbasbasbag56
(g72
g58
NtRp430
(dp431
g61
(dp432
sg70
g233
sg63
(lp433
g56
(g77
g58
NtRp434
(dp435
g61
(dp436
g81
g82
ssg70
g430
sg63
(lp437
S'session_id_admin'
p438
asbag56
(g77
g58
NtRp439
(dp440
g61
(dp441
g88
g89
ssg70
g430
sg63
(lp442
S':'
asbag56
(g77
g58
NtRp443
(dp444
g61
(dp445
sg70
g430
sg63
(lp446
g56
(g57
g58
NtRp447
(dp448
g61
(dp449
g69
I4
ssg70
g443
sg63
(lp450
g56
(g65
g58
NtRp451
(dp452
g61
(dp453
g69
I3
ssg70
Nsg63
(lp454
g56
(g72
g58
NtRp455
(dp456
g61
(dp457
sg70
g451
sg63
(lp458
g56
(g77
g58
NtRp459
(dp460
g61
(dp461
g81
g82
ssg70
g455
sg63
(lp462
g270
asbag56
(g77
g58
NtRp463
(dp464
g61
(dp465
g88
g89
ssg70
g455
sg63
(lp466
S':'
asbag56
(g77
g58
NtRp467
(dp468
g61
(dp469
sg70
g455
sg63
(lp470
g56
(g57
g58
NtRp471
(dp472
g61
(dp473
g69
I3
ssg70
g467
sg63
(lp474
S''
asbasbasbag56
(g72
g58
NtRp475
(dp476
g61
(dp477
sg70
g451
sg63
(lp478
g56
(g77
g58
NtRp479
(dp480
g61
(dp481
g81
g82
ssg70
g475
sg63
(lp482
g291
asbag56
(g77
g58
NtRp483
(dp484
g61
(dp485
g88
g89
ssg70
g475
sg63
(lp486
S':'
asbag56
(g77
g58
NtRp487
(dp488
g61
(dp489
sg70
g475
sg63
(lp490
g56
(g57
g58
NtRp491
(dp492
g61
(dp493
g69
I3
ssg70
g487
sg63
(lp494
S''
asbasbasbag56
(g72
g58
NtRp495
(dp496
g61
(dp497
sg70
g451
sg63
(lp498
g56
(g77
g58
NtRp499
(dp500
g61
(dp501
g81
g82
ssg70
g495
sg63
(lp502
g312
asbag56
(g77
g58
NtRp503
(dp504
g61
(dp505
g88
g89
ssg70
g495
sg63
(lp506
S':'
asbag56
(g77
g58
NtRp507
(dp508
g61
(dp509
sg70
g495
sg63
(lp510
g56
(g57
g58
NtRp511
(dp512
g61
(dp513
g69
I3
ssg70
g507
sg63
(lp514
S''
asbasbasbag56
(g72
g58
NtRp515
(dp516
g61
(dp517
sg70
g451
sg63
(lp518
g56
(g77
g58
NtRp519
(dp520
g61
(dp521
g81
g82
ssg70
g515
sg63
(lp522
g333
asbag56
(g77
g58
NtRp523
(dp524
g61
(dp525
g88
g89
ssg70
g515
sg63
(lp526
S':'
asbag56
(g77
g58
NtRp527
(dp528
g61
(dp529
sg70
g515
sg63
(lp530
g56
(g57
g58
NtRp531
(dp532
g61
(dp533
g69
I3
ssg70
g527
sg63
(lp534
S''
asbasbasbag56
(g72
g58
NtRp535
(dp536
g61
(dp537
sg70
g451
sg63
(lp538
g56
(g77
g58
NtRp539
(dp540
g61
(dp541
g81
g82
ssg70
g535
sg63
(lp542
g354
asbag56
(g77
g58
NtRp543
(dp544
g61
(dp545
g88
g89
ssg70
g535
sg63
(lp546
S':'
asbag56
(g77
g58
NtRp547
(dp548
g61
(dp549
sg70
g535
sg63
(lp550
g56
(g57
g58
NtRp551
(dp552
g61
(dp553
g69
I3
ssg70
g547
sg63
(lp554
S''
asbasbasbag56
(g72
g58
NtRp555
(dp556
g61
(dp557
sg70
g451
sg63
(lp558
g56
(g77
g58
NtRp559
(dp560
g61
(dp561
g81
g82
ssg70
g555
sg63
(lp562
g375
asbag56
(g77
g58
NtRp563
(dp564
g61
(dp565
g88
g89
ssg70
g555
sg63
(lp566
S':'
asbag56
(g77
g58
NtRp567
(dp568
g61
(dp569
sg70
g555
sg63
(lp570
g56
(g57
g58
NtRp571
(dp572
g61
(dp573
g69
I3
ssg70
g567
sg63
(lp574
S''
asbasbasbag56
(g72
g58
NtRp575
(dp576
g61
(dp577
sg70
g451
sg63
(lp578
g56
(g77
g58
NtRp579
(dp580
g61
(dp581
g81
g82
ssg70
g575
sg63
(lp582
g396
asbag56
(g77
g58
NtRp583
(dp584
g61
(dp585
g88
g89
ssg70
g575
sg63
(lp586
S':'
asbag56
(g77
g58
NtRp587
(dp588
g61
(dp589
sg70
g575
sg63
(lp590
g56
(g57
g58
NtRp591
(dp592
g61
(dp593
g69
I3
ssg70
g587
sg63
(lp594
S''
asbasbasbag56
(g72
g58
NtRp595
(dp596
g61
(dp597
sg70
g451
sg63
(lp598
g56
(g77
g58
NtRp599
(dp600
g61
(dp601
g81
g82
ssg70
g595
sg63
(lp602
g417
asbag56
(g77
g58
NtRp603
(dp604
g61
(dp605
g88
g89
ssg70
g595
sg63
(lp606
S':'
asbag56
(g77
g58
NtRp607
(dp608
g61
(dp609
sg70
g595
sg63
(lp610
g56
(g57
g58
NtRp611
(dp612
g61
(dp613
g69
I3
ssg70
g607
sg63
(lp614
S''
asbasbasbasbasbasbasbag56
(g72
g58
NtRp615
(dp616
g61
(dp617
sg70
g233
sg63
(lp618
g56
(g77
g58
NtRp619
(dp620
g61
(dp621
g81
g82
ssg70
g615
sg63
(lp622
S'session_id_dalex1'
p623
asbag56
(g77
g58
NtRp624
(dp625
g61
(dp626
g88
g89
ssg70
g615
sg63
(lp627
S':'
asbag56
(g77
g58
NtRp628
(dp629
g61
(dp630
sg70
g615
sg63
(lp631
g56
(g57
g58
NtRp632
(dp633
g61
(dp634
g69
I4
ssg70
g628
sg63
(lp635
g56
(g65
g58
NtRp636
(dp637
g61
(dp638
g69
I3
ssg70
Nsg63
(lp639
g56
(g72
g58
NtRp640
(dp641
g61
(dp642
sg70
g636
sg63
(lp643
g56
(g77
g58
NtRp644
(dp645
g61
(dp646
g81
g82
ssg70
g640
sg63
(lp647
g270
asbag56
(g77
g58
NtRp648
(dp649
g61
(dp650
g88
g89
ssg70
g640
sg63
(lp651
S':'
asbag56
(g77
g58
NtRp652
(dp653
g61
(dp654
sg70
g640
sg63
(lp655
g56
(g57
g58
NtRp656
(dp657
g61
(dp658
g69
I3
ssg70
g652
sg63
(lp659
S''
asbasbasbag56
(g72
g58
NtRp660
(dp661
g61
(dp662
sg70
g636
sg63
(lp663
g56
(g77
g58
NtRp664
(dp665
g61
(dp666
g81
g82
ssg70
g660
sg63
(lp667
g291
asbag56
(g77
g58
NtRp668
(dp669
g61
(dp670
g88
g89
ssg70
g660
sg63
(lp671
S':'
asbag56
(g77
g58
NtRp672
(dp673
g61
(dp674
sg70
g660
sg63
(lp675
g56
(g57
g58
NtRp676
(dp677
g61
(dp678
g69
I3
ssg70
g672
sg63
(lp679
S''
asbasbasbag56
(g72
g58
NtRp680
(dp681
g61
(dp682
sg70
g636
sg63
(lp683
g56
(g77
g58
NtRp684
(dp685
g61
(dp686
g81
g82
ssg70
g680
sg63
(lp687
g312
asbag56
(g77
g58
NtRp688
(dp689
g61
(dp690
g88
g89
ssg70
g680
sg63
(lp691
S':'
asbag56
(g77
g58
NtRp692
(dp693
g61
(dp694
sg70
g680
sg63
(lp695
g56
(g57
g58
NtRp696
(dp697
g61
(dp698
g69
I3
ssg70
g692
sg63
(lp699
S''
asbasbasbag56
(g72
g58
NtRp700
(dp701
g61
(dp702
sg70
g636
sg63
(lp703
g56
(g77
g58
NtRp704
(dp705
g61
(dp706
g81
g82
ssg70
g700
sg63
(lp707
g333
asbag56
(g77
g58
NtRp708
(dp709
g61
(dp710
g88
g89
ssg70
g700
sg63
(lp711
S':'
asbag56
(g77
g58
NtRp712
(dp713
g61
(dp714
sg70
g700
sg63
(lp715
g56
(g57
g58
NtRp716
(dp717
g61
(dp718
g69
I3
ssg70
g712
sg63
(lp719
S''
asbasbasbag56
(g72
g58
NtRp720
(dp721
g61
(dp722
sg70
g636
sg63
(lp723
g56
(g77
g58
NtRp724
(dp725
g61
(dp726
g81
g82
ssg70
g720
sg63
(lp727
g354
asbag56
(g77
g58
NtRp728
(dp729
g61
(dp730
g88
g89
ssg70
g720
sg63
(lp731
S':'
asbag56
(g77
g58
NtRp732
(dp733
g61
(dp734
sg70
g720
sg63
(lp735
g56
(g57
g58
NtRp736
(dp737
g61
(dp738
g69
I3
ssg70
g732
sg63
(lp739
S''
asbasbasbag56
(g72
g58
NtRp740
(dp741
g61
(dp742
sg70
g636
sg63
(lp743
g56
(g77
g58
NtRp744
(dp745
g61
(dp746
g81
g82
ssg70
g740
sg63
(lp747
g375
asbag56
(g77
g58
NtRp748
(dp749
g61
(dp750
g88
g89
ssg70
g740
sg63
(lp751
S':'
asbag56
(g77
g58
NtRp752
(dp753
g61
(dp754
sg70
g740
sg63
(lp755
g56
(g57
g58
NtRp756
(dp757
g61
(dp758
g69
I3
ssg70
g752
sg63
(lp759
S''
asbasbasbag56
(g72
g58
NtRp760
(dp761
g61
(dp762
sg70
g636
sg63
(lp763
g56
(g77
g58
NtRp764
(dp765
g61
(dp766
g81
g82
ssg70
g760
sg63
(lp767
g396
asbag56
(g77
g58
NtRp768
(dp769
g61
(dp770
g88
g89
ssg70
g760
sg63
(lp771
S':'
asbag56
(g77
g58
NtRp772
(dp773
g61
(dp774
sg70
g760
sg63
(lp775
g56
(g57
g58
NtRp776
(dp777
g61
(dp778
g69
I3
ssg70
g772
sg63
(lp779
S''
asbasbasbag56
(g72
g58
NtRp780
(dp781
g61
(dp782
sg70
g636
sg63
(lp783
g56
(g77
g58
NtRp784
(dp785
g61
(dp786
g81
g82
ssg70
g780
sg63
(lp787
g417
asbag56
(g77
g58
NtRp788
(dp789
g61
(dp790
g88
g89
ssg70
g780
sg63
(lp791
S':'
asbag56
(g77
g58
NtRp792
(dp793
g61
(dp794
sg70
g780
sg63
(lp795
g56
(g57
g58
NtRp796
(dp797
g61
(dp798
g69
I3
ssg70
g792
sg63
(lp799
S''
asbasbasbasbasbasbasbag56
(g72
g58
NtRp800
(dp801
g61
(dp802
sg70
g233
sg63
(lp803
g56
(g77
g58
NtRp804
(dp805
g61
(dp806
g81
g82
ssg70
g800
sg63
(lp807
S'session_id_payperiod'
p808
asbag56
(g77
g58
NtRp809
(dp810
g61
(dp811
g88
g89
ssg70
g800
sg63
(lp812
S':'
asbag56
(g77
g58
NtRp813
(dp814
g61
(dp815
sg70
g800
sg63
(lp816
g56
(g57
g58
NtRp817
(dp818
g61
(dp819
g69
I4
ssg70
g813
sg63
(lp820
g56
(g65
g58
NtRp821
(dp822
g61
(dp823
g69
I3
ssg70
Nsg63
(lp824
g56
(g72
g58
NtRp825
(dp826
g61
(dp827
sg70
g821
sg63
(lp828
g56
(g77
g58
NtRp829
(dp830
g61
(dp831
g81
g82
ssg70
g825
sg63
(lp832
g270
asbag56
(g77
g58
NtRp833
(dp834
g61
(dp835
g88
g89
ssg70
g825
sg63
(lp836
S':'
asbag56
(g77
g58
NtRp837
(dp838
g61
(dp839
sg70
g825
sg63
(lp840
g56
(g57
g58
NtRp841
(dp842
g61
(dp843
g69
I3
ssg70
g837
sg63
(lp844
S''
asbasbasbag56
(g72
g58
NtRp845
(dp846
g61
(dp847
sg70
g821
sg63
(lp848
g56
(g77
g58
NtRp849
(dp850
g61
(dp851
g81
g82
ssg70
g845
sg63
(lp852
g291
asbag56
(g77
g58
NtRp853
(dp854
g61
(dp855
g88
g89
ssg70
g845
sg63
(lp856
S':'
asbag56
(g77
g58
NtRp857
(dp858
g61
(dp859
sg70
g845
sg63
(lp860
g56
(g57
g58
NtRp861
(dp862
g61
(dp863
g69
I3
ssg70
g857
sg63
(lp864
S''
asbasbasbag56
(g72
g58
NtRp865
(dp866
g61
(dp867
sg70
g821
sg63
(lp868
g56
(g77
g58
NtRp869
(dp870
g61
(dp871
g81
g82
ssg70
g865
sg63
(lp872
g312
asbag56
(g77
g58
NtRp873
(dp874
g61
(dp875
g88
g89
ssg70
g865
sg63
(lp876
S':'
asbag56
(g77
g58
NtRp877
(dp878
g61
(dp879
sg70
g865
sg63
(lp880
g56
(g57
g58
NtRp881
(dp882
g61
(dp883
g69
I3
ssg70
g877
sg63
(lp884
S''
asbasbasbag56
(g72
g58
NtRp885
(dp886
g61
(dp887
sg70
g821
sg63
(lp888
g56
(g77
g58
NtRp889
(dp890
g61
(dp891
g81
g82
ssg70
g885
sg63
(lp892
g333
asbag56
(g77
g58
NtRp893
(dp894
g61
(dp895
g88
g89
ssg70
g885
sg63
(lp896
S':'
asbag56
(g77
g58
NtRp897
(dp898
g61
(dp899
sg70
g885
sg63
(lp900
g56
(g57
g58
NtRp901
(dp902
g61
(dp903
g69
I3
ssg70
g897
sg63
(lp904
S''
asbasbasbag56
(g72
g58
NtRp905
(dp906
g61
(dp907
sg70
g821
sg63
(lp908
g56
(g77
g58
NtRp909
(dp910
g61
(dp911
g81
g82
ssg70
g905
sg63
(lp912
g354
asbag56
(g77
g58
NtRp913
(dp914
g61
(dp915
g88
g89
ssg70
g905
sg63
(lp916
S':'
asbag56
(g77
g58
NtRp917
(dp918
g61
(dp919
sg70
g905
sg63
(lp920
g56
(g57
g58
NtRp921
(dp922
g61
(dp923
g69
I3
ssg70
g917
sg63
(lp924
S''
asbasbasbag56
(g72
g58
NtRp925
(dp926
g61
(dp927
sg70
g821
sg63
(lp928
g56
(g77
g58
NtRp929
(dp930
g61
(dp931
g81
g82
ssg70
g925
sg63
(lp932
g375
asbag56
(g77
g58
NtRp933
(dp934
g61
(dp935
g88
g89
ssg70
g925
sg63
(lp936
S':'
asbag56
(g77
g58
NtRp937
(dp938
g61
(dp939
sg70
g925
sg63
(lp940
g56
(g57
g58
NtRp941
(dp942
g61
(dp943
g69
I3
ssg70
g937
sg63
(lp944
S''
asbasbasbag56
(g72
g58
NtRp945
(dp946
g61
(dp947
sg70
g821
sg63
(lp948
g56
(g77
g58
NtRp949
(dp950
g61
(dp951
g81
g82
ssg70
g945
sg63
(lp952
g396
asbag56
(g77
g58
NtRp953
(dp954
g61
(dp955
g88
g89
ssg70
g945
sg63
(lp956
S':'
asbag56
(g77
g58
NtRp957
(dp958
g61
(dp959
sg70
g945
sg63
(lp960
g56
(g57
g58
NtRp961
(dp962
g61
(dp963
g69
I3
ssg70
g957
sg63
(lp964
S''
asbasbasbag56
(g72
g58
NtRp965
(dp966
g61
(dp967
sg70
g821
sg63
(lp968
g56
(g77
g58
NtRp969
(dp970
g61
(dp971
g81
g82
ssg70
g965
sg63
(lp972
g417
asbag56
(g77
g58
NtRp973
(dp974
g61
(dp975
g88
g89
ssg70
g965
sg63
(lp976
S':'
asbag56
(g77
g58
NtRp977
(dp978
g61
(dp979
sg70
g965
sg63
(lp980
g56
(g57
g58
NtRp981
(dp982
g61
(dp983
g69
I3
ssg70
g977
sg63
(lp984
S''
asbasbasbasbasbasbasbag56
(g72
g58
NtRp985
(dp986
g61
(dp987
sg70
g233
sg63
(lp988
g56
(g77
g58
NtRp989
(dp990
g61
(dp991
g81
g82
ssg70
g985
sg63
(lp992
S'session_id_welcome'
p993
asbag56
(g77
g58
NtRp994
(dp995
g61
(dp996
g88
g89
ssg70
g985
sg63
(lp997
S':'
asbag56
(g77
g58
NtRp998
(dp999
g61
(dp1000
sg70
g985
sg63
(lp1001
g56
(g57
g58
NtRp1002
(dp1003
g61
(dp1004
g69
I4
ssg70
g998
sg63
(lp1005
g56
(g65
g58
NtRp1006
(dp1007
g61
(dp1008
g69
I3
ssg70
Nsg63
(lp1009
g56
(g72
g58
NtRp1010
(dp1011
g61
(dp1012
sg70
g1006
sg63
(lp1013
g56
(g77
g58
NtRp1014
(dp1015
g61
(dp1016
g81
g82
ssg70
g1010
sg63
(lp1017
g270
asbag56
(g77
g58
NtRp1018
(dp1019
g61
(dp1020
g88
g89
ssg70
g1010
sg63
(lp1021
S':'
asbag56
(g77
g58
NtRp1022
(dp1023
g61
(dp1024
sg70
g1010
sg63
(lp1025
g56
(g57
g58
NtRp1026
(dp1027
g61
(dp1028
g69
I3
ssg70
g1022
sg63
(lp1029
S''
asbasbasbag56
(g72
g58
NtRp1030
(dp1031
g61
(dp1032
sg70
g1006
sg63
(lp1033
g56
(g77
g58
NtRp1034
(dp1035
g61
(dp1036
g81
g82
ssg70
g1030
sg63
(lp1037
g291
asbag56
(g77
g58
NtRp1038
(dp1039
g61
(dp1040
g88
g89
ssg70
g1030
sg63
(lp1041
S':'
asbag56
(g77
g58
NtRp1042
(dp1043
g61
(dp1044
sg70
g1030
sg63
(lp1045
g56
(g57
g58
NtRp1046
(dp1047
g61
(dp1048
g69
I3
ssg70
g1042
sg63
(lp1049
S''
asbasbasbag56
(g72
g58
NtRp1050
(dp1051
g61
(dp1052
sg70
g1006
sg63
(lp1053
g56
(g77
g58
NtRp1054
(dp1055
g61
(dp1056
g81
g82
ssg70
g1050
sg63
(lp1057
g312
asbag56
(g77
g58
NtRp1058
(dp1059
g61
(dp1060
g88
g89
ssg70
g1050
sg63
(lp1061
S':'
asbag56
(g77
g58
NtRp1062
(dp1063
g61
(dp1064
sg70
g1050
sg63
(lp1065
g56
(g57
g58
NtRp1066
(dp1067
g61
(dp1068
g69
I3
ssg70
g1062
sg63
(lp1069
S''
asbasbasbag56
(g72
g58
NtRp1070
(dp1071
g61
(dp1072
sg70
g1006
sg63
(lp1073
g56
(g77
g58
NtRp1074
(dp1075
g61
(dp1076
g81
g82
ssg70
g1070
sg63
(lp1077
g333
asbag56
(g77
g58
NtRp1078
(dp1079
g61
(dp1080
g88
g89
ssg70
g1070
sg63
(lp1081
S':'
asbag56
(g77
g58
NtRp1082
(dp1083
g61
(dp1084
sg70
g1070
sg63
(lp1085
g56
(g57
g58
NtRp1086
(dp1087
g61
(dp1088
g69
I3
ssg70
g1082
sg63
(lp1089
S''
asbasbasbag56
(g72
g58
NtRp1090
(dp1091
g61
(dp1092
sg70
g1006
sg63
(lp1093
g56
(g77
g58
NtRp1094
(dp1095
g61
(dp1096
g81
g82
ssg70
g1090
sg63
(lp1097
g354
asbag56
(g77
g58
NtRp1098
(dp1099
g61
(dp1100
g88
g89
ssg70
g1090
sg63
(lp1101
S':'
asbag56
(g77
g58
NtRp1102
(dp1103
g61
(dp1104
sg70
g1090
sg63
(lp1105
g56
(g57
g58
NtRp1106
(dp1107
g61
(dp1108
g69
I3
ssg70
g1102
sg63
(lp1109
S''
asbasbasbag56
(g72
g58
NtRp1110
(dp1111
g61
(dp1112
sg70
g1006
sg63
(lp1113
g56
(g77
g58
NtRp1114
(dp1115
g61
(dp1116
g81
g82
ssg70
g1110
sg63
(lp1117
g375
asbag56
(g77
g58
NtRp1118
(dp1119
g61
(dp1120
g88
g89
ssg70
g1110
sg63
(lp1121
S':'
asbag56
(g77
g58
NtRp1122
(dp1123
g61
(dp1124
sg70
g1110
sg63
(lp1125
g56
(g57
g58
NtRp1126
(dp1127
g61
(dp1128
g69
I3
ssg70
g1122
sg63
(lp1129
S''
asbasbasbag56
(g72
g58
NtRp1130
(dp1131
g61
(dp1132
sg70
g1006
sg63
(lp1133
g56
(g77
g58
NtRp1134
(dp1135
g61
(dp1136
g81
g82
ssg70
g1130
sg63
(lp1137
g396
asbag56
(g77
g58
NtRp1138
(dp1139
g61
(dp1140
g88
g89
ssg70
g1130
sg63
(lp1141
S':'
asbag56
(g77
g58
NtRp1142
(dp1143
g61
(dp1144
sg70
g1130
sg63
(lp1145
g56
(g57
g58
NtRp1146
(dp1147
g61
(dp1148
g69
I3
ssg70
g1142
sg63
(lp1149
S''
asbasbasbag56
(g72
g58
NtRp1150
(dp1151
g61
(dp1152
sg70
g1006
sg63
(lp1153
g56
(g77
g58
NtRp1154
(dp1155
g61
(dp1156
g81
g82
ssg70
g1150
sg63
(lp1157
g417
asbag56
(g77
g58
NtRp1158
(dp1159
g61
(dp1160
g88
g89
ssg70
g1150
sg63
(lp1161
S':'
asbag56
(g77
g58
NtRp1162
(dp1163
g61
(dp1164
sg70
g1150
sg63
(lp1165
g56
(g57
g58
NtRp1166
(dp1167
g61
(dp1168
g69
I3
ssg70
g1162
sg63
(lp1169
S''
asbasbasbasbasbasbasbasbasbasbasbag56
(g72
g58
NtRp1170
(dp1171
g61
(dp1172
sg70
g66
sg63
(lp1173
g56
(g77
g58
NtRp1174
(dp1175
g61
(dp1176
g81
g82
ssg70
g1170
sg63
(lp1177
S'env'
p1178
asbag56
(g77
g58
NtRp1179
(dp1180
g61
(dp1181
g88
g89
ssg70
g1170
sg63
(lp1182
S':'
asbag56
(g77
g58
NtRp1183
(dp1184
g61
(dp1185
sg70
g1170
sg63
(lp1186
g56
(g57
g58
NtRp1187
(dp1188
g61
(dp1189
g69
I5
ssg70
g1183
sg63
(lp1190
g56
(g65
g58
NtRp1191
(dp1192
g61
(dp1193
g69
I4
ssg70
Nsg63
(lp1194
g56
(g72
g58
NtRp1195
(dp1196
g61
(dp1197
sg70
g1191
sg63
(lp1198
g56
(g77
g58
NtRp1199
(dp1200
g61
(dp1201
g81
g82
ssg70
g1195
sg63
(lp1202
S'app_folders'
p1203
asbag56
(g77
g58
NtRp1204
(dp1205
g61
(dp1206
g88
g89
ssg70
g1195
sg63
(lp1207
S':'
asbag56
(g77
g58
NtRp1208
(dp1209
g61
(dp1210
sg70
g1195
sg63
(lp1211
g56
(g57
g58
NtRp1212
(dp1213
g61
(dp1214
g69
I4
ssg70
g1208
sg63
(lp1215
S"set(['/home/u4hcsdaw/Python/web2py/applications/ACES/', '/home/u4hcsdaw/Python/web2py/applications/PayPeriod/', '/home/u4hcsdaw/Python/web2py/applications/admin/', '/home/u4hcsdaw/Python/web2py/applications/welcome/', '/home/u4hcsdaw/Python/web2py/applications/DALEX1/'])"
p1216
asbasbasbag56
(g72
g58
NtRp1217
(dp1218
g61
(dp1219
sg70
g1191
sg63
(lp1220
g56
(g77
g58
NtRp1221
(dp1222
g61
(dp1223
g81
g82
ssg70
g1217
sg63
(lp1224
S'applications_parent'
p1225
asbag56
(g77
g58
NtRp1226
(dp1227
g61
(dp1228
g88
g89
ssg70
g1217
sg63
(lp1229
S':'
asbag56
(g77
g58
NtRp1230
(dp1231
g61
(dp1232
sg70
g1217
sg63
(lp1233
g56
(g57
g58
NtRp1234
(dp1235
g61
(dp1236
g69
I4
ssg70
g1230
sg63
(lp1237
S'/home/u4hcsdaw/Python/web2py'
p1238
asbasbasbag56
(g72
g58
NtRp1239
(dp1240
g61
(dp1241
sg70
g1191
sg63
(lp1242
g56
(g77
g58
NtRp1243
(dp1244
g61
(dp1245
g81
g82
ssg70
g1239
sg63
(lp1246
S'cmd_args'
p1247
asbag56
(g77
g58
NtRp1248
(dp1249
g61
(dp1250
g88
g89
ssg70
g1239
sg63
(lp1251
S':'
asbag56
(g77
g58
NtRp1252
(dp1253
g61
(dp1254
sg70
g1239
sg63
(lp1255
g56
(g57
g58
NtRp1256
(dp1257
g61
(dp1258
g69
I4
ssg70
g1252
sg63
(lp1259
g56
(g65
g58
NtRp1260
(dp1261
g61
(dp1262
g69
I3
ssg70
Nsg63
(lp1263
sbasbasbasbag56
(g72
g58
NtRp1264
(dp1265
g61
(dp1266
sg70
g1191
sg63
(lp1267
g56
(g77
g58
NtRp1268
(dp1269
g61
(dp1270
g81
g82
ssg70
g1264
sg63
(lp1271
S'cmd_options'
p1272
asbag56
(g77
g58
NtRp1273
(dp1274
g61
(dp1275
g88
g89
ssg70
g1264
sg63
(lp1276
S':'
asbag56
(g77
g58
NtRp1277
(dp1278
g61
(dp1279
sg70
g1264
sg63
(lp1280
g56
(g57
g58
NtRp1281
(dp1282
g61
(dp1283
g69
I4
ssg70
g1277
sg63
(lp1284
S"<Values at 0xa59ca2c: {'verbose': False, 'ip': '127.0.0.1', 'shutdown_timeout': 5, 'taskbar': False, 'nocron': False, 'pid_filename': 'httpserver.pid', 'maxthreads': None, 'softcron': False, 'server_name': 'CHL-5833E', 'bpython': False, 'nogui': False, 'port': 8000, 'extcron': False, 'debuglevel': 30, 'test': None, 'folder': '/home/u4hcsdaw/Python/web2py', 'config': '', 'import_models': False, 'winservice': '', 'shell': None, 'run': '', 'log_filename': 'httpserver.log', 'args': [''], 'ssl_ca_certificate': None, 'scheduler': None, 'profiler_filename': None, 'ssl_private_key': '', 'password': '<ask>', 'request_queue_size': 5, 'ssl_certificate': '', 'cronjob': False, 'plain': False, 'quiet': False, 'interfaces': None, 'minthreads': None, 'timeout': 10, 'numthreads': None, 'nobanner': False}>"
p1285
asbasbasbag56
(g72
g58
NtRp1286
(dp1287
g61
(dp1288
sg70
g1191
sg63
(lp1289
g56
(g77
g58
NtRp1290
(dp1291
g61
(dp1292
g81
g82
ssg70
g1286
sg63
(lp1293
S'content_length'
p1294
asbag56
(g77
g58
NtRp1295
(dp1296
g61
(dp1297
g88
g89
ssg70
g1286
sg63
(lp1298
S':'
asbag56
(g77
g58
NtRp1299
(dp1300
g61
(dp1301
sg70
g1286
sg63
(lp1302
g56
(g57
g58
NtRp1303
(dp1304
g61
(dp1305
g69
I4
ssg70
g1299
sg63
(lp1306
S'577'
p1307
asbasbasbag56
(g72
g58
NtRp1308
(dp1309
g61
(dp1310
sg70
g1191
sg63
(lp1311
g56
(g77
g58
NtRp1312
(dp1313
g61
(dp1314
g81
g82
ssg70
g1308
sg63
(lp1315
S'content_type'
p1316
asbag56
(g77
g58
NtRp1317
(dp1318
g61
(dp1319
g88
g89
ssg70
g1308
sg63
(lp1320
S':'
asbag56
(g77
g58
NtRp1321
(dp1322
g61
(dp1323
sg70
g1308
sg63
(lp1324
g56
(g57
g58
NtRp1325
(dp1326
g61
(dp1327
g69
I4
ssg70
g1321
sg63
(lp1328
S'multipart/form-data; boundary=---------------------------10222631772266250151806615818'
p1329
asbasbasbag56
(g72
g58
NtRp1330
(dp1331
g61
(dp1332
sg70
g1191
sg63
(lp1333
g56
(g77
g58
NtRp1334
(dp1335
g61
(dp1336
g81
g82
ssg70
g1330
sg63
(lp1337
S'db_sessions'
p1338
asbag56
(g77
g58
NtRp1339
(dp1340
g61
(dp1341
g88
g89
ssg70
g1330
sg63
(lp1342
S':'
asbag56
(g77
g58
NtRp1343
(dp1344
g61
(dp1345
sg70
g1330
sg63
(lp1346
g56
(g57
g58
NtRp1347
(dp1348
g61
(dp1349
g69
I4
ssg70
g1343
sg63
(lp1350
S'set([])'
p1351
asbasbasbag56
(g72
g58
NtRp1352
(dp1353
g61
(dp1354
sg70
g1191
sg63
(lp1355
g56
(g77
g58
NtRp1356
(dp1357
g61
(dp1358
g81
g82
ssg70
g1352
sg63
(lp1359
S'debugging'
p1360
asbag56
(g77
g58
NtRp1361
(dp1362
g61
(dp1363
g88
g89
ssg70
g1352
sg63
(lp1364
S':'
asbag56
(g77
g58
NtRp1365
(dp1366
g61
(dp1367
sg70
g1352
sg63
(lp1368
g56
(g57
g58
NtRp1369
(dp1370
g61
(dp1371
g69
I4
ssg70
g1365
sg63
(lp1372
g99
asbasbasbag56
(g72
g58
NtRp1373
(dp1374
g61
(dp1375
sg70
g1191
sg63
(lp1376
g56
(g77
g58
NtRp1377
(dp1378
g61
(dp1379
g81
g82
ssg70
g1373
sg63
(lp1380
S'gluon_parent'
p1381
asbag56
(g77
g58
NtRp1382
(dp1383
g61
(dp1384
g88
g89
ssg70
g1373
sg63
(lp1385
S':'
asbag56
(g77
g58
NtRp1386
(dp1387
g61
(dp1388
sg70
g1373
sg63
(lp1389
g56
(g57
g58
NtRp1390
(dp1391
g61
(dp1392
g69
I4
ssg70
g1386
sg63
(lp1393
S'/home/u4hcsdaw/Python/web2py'
p1394
asbasbasbag56
(g72
g58
NtRp1395
(dp1396
g61
(dp1397
sg70
g1191
sg63
(lp1398
g56
(g77
g58
NtRp1399
(dp1400
g61
(dp1401
g81
g82
ssg70
g1395
sg63
(lp1402
S'http_accept'
p1403
asbag56
(g77
g58
NtRp1404
(dp1405
g61
(dp1406
g88
g89
ssg70
g1395
sg63
(lp1407
S':'
asbag56
(g77
g58
NtRp1408
(dp1409
g61
(dp1410
sg70
g1395
sg63
(lp1411
g56
(g57
g58
NtRp1412
(dp1413
g61
(dp1414
g69
I4
ssg70
g1408
sg63
(lp1415
S'text/html,application/xhtml+xml,application/xml;q=0.9,*/*;q=0.8'
p1416
asbasbasbag56
(g72
g58
NtRp1417
(dp1418
g61
(dp1419
sg70
g1191
sg63
(lp1420
g56
(g77
g58
NtRp1421
(dp1422
g61
(dp1423
g81
g82
ssg70
g1417
sg63
(lp1424
S'http_accept_encoding'
p1425
asbag56
(g77
g58
NtRp1426
(dp1427
g61
(dp1428
g88
g89
ssg70
g1417
sg63
(lp1429
S':'
asbag56
(g77
g58
NtRp1430
(dp1431
g61
(dp1432
sg70
g1417
sg63
(lp1433
g56
(g57
g58
NtRp1434
(dp1435
g61
(dp1436
g69
I4
ssg70
g1430
sg63
(lp1437
S'gzip, deflate'
p1438
asbasbasbag56
(g72
g58
NtRp1439
(dp1440
g61
(dp1441
sg70
g1191
sg63
(lp1442
g56
(g77
g58
NtRp1443
(dp1444
g61
(dp1445
g81
g82
ssg70
g1439
sg63
(lp1446
S'http_accept_language'
p1447
asbag56
(g77
g58
NtRp1448
(dp1449
g61
(dp1450
g88
g89
ssg70
g1439
sg63
(lp1451
S':'
asbag56
(g77
g58
NtRp1452
(dp1453
g61
(dp1454
sg70
g1439
sg63
(lp1455
g56
(g57
g58
NtRp1456
(dp1457
g61
(dp1458
g69
I4
ssg70
g1452
sg63
(lp1459
S'en-us,en;q=0.5'
p1460
asbasbasbag56
(g72
g58
NtRp1461
(dp1462
g61
(dp1463
sg70
g1191
sg63
(lp1464
g56
(g77
g58
NtRp1465
(dp1466
g61
(dp1467
g81
g82
ssg70
g1461
sg63
(lp1468
S'http_connection'
p1469
asbag56
(g77
g58
NtRp1470
(dp1471
g61
(dp1472
g88
g89
ssg70
g1461
sg63
(lp1473
S':'
asbag56
(g77
g58
NtRp1474
(dp1475
g61
(dp1476
sg70
g1461
sg63
(lp1477
g56
(g57
g58
NtRp1478
(dp1479
g61
(dp1480
g69
I4
ssg70
g1474
sg63
(lp1481
S'keep-alive'
p1482
asbasbasbag56
(g72
g58
NtRp1483
(dp1484
g61
(dp1485
sg70
g1191
sg63
(lp1486
g56
(g77
g58
NtRp1487
(dp1488
g61
(dp1489
g81
g82
ssg70
g1483
sg63
(lp1490
S'http_content_length'
p1491
asbag56
(g77
g58
NtRp1492
(dp1493
g61
(dp1494
g88
g89
ssg70
g1483
sg63
(lp1495
S':'
asbag56
(g77
g58
NtRp1496
(dp1497
g61
(dp1498
sg70
g1483
sg63
(lp1499
g56
(g57
g58
NtRp1500
(dp1501
g61
(dp1502
g69
I4
ssg70
g1496
sg63
(lp1503
g1307
asbasbasbag56
(g72
g58
NtRp1504
(dp1505
g61
(dp1506
sg70
g1191
sg63
(lp1507
g56
(g77
g58
NtRp1508
(dp1509
g61
(dp1510
g81
g82
ssg70
g1504
sg63
(lp1511
S'http_content_type'
p1512
asbag56
(g77
g58
NtRp1513
(dp1514
g61
(dp1515
g88
g89
ssg70
g1504
sg63
(lp1516
S':'
asbag56
(g77
g58
NtRp1517
(dp1518
g61
(dp1519
sg70
g1504
sg63
(lp1520
g56
(g57
g58
NtRp1521
(dp1522
g61
(dp1523
g69
I4
ssg70
g1517
sg63
(lp1524
g1329
asbasbasbag56
(g72
g58
NtRp1525
(dp1526
g61
(dp1527
sg70
g1191
sg63
(lp1528
g56
(g77
g58
NtRp1529
(dp1530
g61
(dp1531
g81
g82
ssg70
g1525
sg63
(lp1532
S'http_cookie'
p1533
asbag56
(g77
g58
NtRp1534
(dp1535
g61
(dp1536
g88
g89
ssg70
g1525
sg63
(lp1537
S':'
asbag56
(g77
g58
NtRp1538
(dp1539
g61
(dp1540
sg70
g1525
sg63
(lp1541
g56
(g57
g58
NtRp1542
(dp1543
g61
(dp1544
g69
I4
ssg70
g1538
sg63
(lp1545
S'session_id_welcome=127.0.0.1-12b98747-1fd8-478d-9049-d46630d93557; session_id_dalex1=127.0.0.1-7e0fdc70-88f0-470f-b29d-66b8055bd8b0; session_id_admin=127.0.0.1-b6612ac5-4ad8-4c3c-a00a-ff553923cd64; session_id_aces=127.0.0.1-41cac65c-3668-453b-9ecc-c26f12d379cc; session_id_payperiod=127.0.0.1-9708cb9c-54bb-4c0f-8cf3-5e7899aff001'
p1546
asbasbasbag56
(g72
g58
NtRp1547
(dp1548
g61
(dp1549
sg70
g1191
sg63
(lp1550
g56
(g77
g58
NtRp1551
(dp1552
g61
(dp1553
g81
g82
ssg70
g1547
sg63
(lp1554
S'http_host'
p1555
asbag56
(g77
g58
NtRp1556
(dp1557
g61
(dp1558
g88
g89
ssg70
g1547
sg63
(lp1559
S':'
asbag56
(g77
g58
NtRp1560
(dp1561
g61
(dp1562
sg70
g1547
sg63
(lp1563
g56
(g57
g58
NtRp1564
(dp1565
g61
(dp1566
g69
I4
ssg70
g1560
sg63
(lp1567
S'127.0.0.1:8000'
p1568
asbasbasbag56
(g72
g58
NtRp1569
(dp1570
g61
(dp1571
sg70
g1191
sg63
(lp1572
g56
(g77
g58
NtRp1573
(dp1574
g61
(dp1575
g81
g82
ssg70
g1569
sg63
(lp1576
S'http_referer'
p1577
asbag56
(g77
g58
NtRp1578
(dp1579
g61
(dp1580
g88
g89
ssg70
g1569
sg63
(lp1581
S':'
asbag56
(g77
g58
NtRp1582
(dp1583
g61
(dp1584
sg70
g1569
sg63
(lp1585
g56
(g57
g58
NtRp1586
(dp1587
g61
(dp1588
g69
I4
ssg70
g1582
sg63
(lp1589
S'http://127.0.0.1:8000/ACES/default/index'
p1590
asbasbasbag56
(g72
g58
NtRp1591
(dp1592
g61
(dp1593
sg70
g1191
sg63
(lp1594
g56
(g77
g58
NtRp1595
(dp1596
g61
(dp1597
g81
g82
ssg70
g1591
sg63
(lp1598
S'http_user_agent'
p1599
asbag56
(g77
g58
NtRp1600
(dp1601
g61
(dp1602
g88
g89
ssg70
g1591
sg63
(lp1603
S':'
asbag56
(g77
g58
NtRp1604
(dp1605
g61
(dp1606
sg70
g1591
sg63
(lp1607
g56
(g57
g58
NtRp1608
(dp1609
g61
(dp1610
g69
I4
ssg70
g1604
sg63
(lp1611
S'Mozilla/5.0 (X11; Ubuntu; Linux i686; rv:11.0) Gecko/20100101 Firefox/11.0'
p1612
asbasbasbag56
(g72
g58
NtRp1613
(dp1614
g61
(dp1615
sg70
g1191
sg63
(lp1616
g56
(g77
g58
NtRp1617
(dp1618
g61
(dp1619
g81
g82
ssg70
g1613
sg63
(lp1620
S'is_jython'
p1621
asbag56
(g77
g58
NtRp1622
(dp1623
g61
(dp1624
g88
g89
ssg70
g1613
sg63
(lp1625
S':'
asbag56
(g77
g58
NtRp1626
(dp1627
g61
(dp1628
sg70
g1613
sg63
(lp1629
g56
(g57
g58
NtRp1630
(dp1631
g61
(dp1632
g69
I4
ssg70
g1626
sg63
(lp1633
g99
asbasbasbag56
(g72
g58
NtRp1634
(dp1635
g61
(dp1636
sg70
g1191
sg63
(lp1637
g56
(g77
g58
NtRp1638
(dp1639
g61
(dp1640
g81
g82
ssg70
g1634
sg63
(lp1641
S'path_info'
p1642
asbag56
(g77
g58
NtRp1643
(dp1644
g61
(dp1645
g88
g89
ssg70
g1634
sg63
(lp1646
S':'
asbag56
(g77
g58
NtRp1647
(dp1648
g61
(dp1649
sg70
g1634
sg63
(lp1650
g56
(g57
g58
NtRp1651
(dp1652
g61
(dp1653
g69
I4
ssg70
g1647
sg63
(lp1654
S'/ACES/default/index'
p1655
asbasbasbag56
(g72
g58
NtRp1656
(dp1657
g61
(dp1658
sg70
g1191
sg63
(lp1659
g56
(g77
g58
NtRp1660
(dp1661
g61
(dp1662
g81
g82
ssg70
g1656
sg63
(lp1663
S'query_string'
p1664
asbag56
(g77
g58
NtRp1665
(dp1666
g61
(dp1667
g88
g89
ssg70
g1656
sg63
(lp1668
S':'
asbag56
(g77
g58
NtRp1669
(dp1670
g61
(dp1671
sg70
g1656
sg63
(lp1672
g56
(g57
g58
NtRp1673
(dp1674
g61
(dp1675
g69
I4
ssg70
g1669
sg63
(lp1676
S''
asbasbasbag56
(g72
g58
NtRp1677
(dp1678
g61
(dp1679
sg70
g1191
sg63
(lp1680
g56
(g77
g58
NtRp1681
(dp1682
g61
(dp1683
g81
g82
ssg70
g1677
sg63
(lp1684
S'remote_addr'
p1685
asbag56
(g77
g58
NtRp1686
(dp1687
g61
(dp1688
g88
g89
ssg70
g1677
sg63
(lp1689
S':'
asbag56
(g77
g58
NtRp1690
(dp1691
g61
(dp1692
sg70
g1677
sg63
(lp1693
g56
(g57
g58
NtRp1694
(dp1695
g61
(dp1696
g69
I4
ssg70
g1690
sg63
(lp1697
g189
asbasbasbag56
(g72
g58
NtRp1698
(dp1699
g61
(dp1700
sg70
g1191
sg63
(lp1701
g56
(g77
g58
NtRp1702
(dp1703
g61
(dp1704
g81
g82
ssg70
g1698
sg63
(lp1705
S'remote_port'
p1706
asbag56
(g77
g58
NtRp1707
(dp1708
g61
(dp1709
g88
g89
ssg70
g1698
sg63
(lp1710
S':'
asbag56
(g77
g58
NtRp1711
(dp1712
g61
(dp1713
sg70
g1698
sg63
(lp1714
g56
(g57
g58
NtRp1715
(dp1716
g61
(dp1717
g69
I4
ssg70
g1711
sg63
(lp1718
S'58050'
p1719
asbasbasbag56
(g72
g58
NtRp1720
(dp1721
g61
(dp1722
sg70
g1191
sg63
(lp1723
g56
(g77
g58
NtRp1724
(dp1725
g61
(dp1726
g81
g82
ssg70
g1720
sg63
(lp1727
S'request_method'
p1728
asbag56
(g77
g58
NtRp1729
(dp1730
g61
(dp1731
g88
g89
ssg70
g1720
sg63
(lp1732
S':'
asbag56
(g77
g58
NtRp1733
(dp1734
g61
(dp1735
sg70
g1720
sg63
(lp1736
g56
(g57
g58
NtRp1737
(dp1738
g61
(dp1739
g69
I4
ssg70
g1733
sg63
(lp1740
S'POST'
p1741
asbasbasbag56
(g72
g58
NtRp1742
(dp1743
g61
(dp1744
sg70
g1191
sg63
(lp1745
g56
(g77
g58
NtRp1746
(dp1747
g61
(dp1748
g81
g82
ssg70
g1742
sg63
(lp1749
S'script_name'
p1750
asbag56
(g77
g58
NtRp1751
(dp1752
g61
(dp1753
g88
g89
ssg70
g1742
sg63
(lp1754
S':'
asbag56
(g77
g58
NtRp1755
(dp1756
g61
(dp1757
sg70
g1742
sg63
(lp1758
g56
(g57
g58
NtRp1759
(dp1760
g61
(dp1761
g69
I4
ssg70
g1755
sg63
(lp1762
S''
asbasbasbag56
(g72
g58
NtRp1763
(dp1764
g61
(dp1765
sg70
g1191
sg63
(lp1766
g56
(g77
g58
NtRp1767
(dp1768
g61
(dp1769
g81
g82
ssg70
g1763
sg63
(lp1770
S'server_name'
p1771
asbag56
(g77
g58
NtRp1772
(dp1773
g61
(dp1774
g88
g89
ssg70
g1763
sg63
(lp1775
S':'
asbag56
(g77
g58
NtRp1776
(dp1777
g61
(dp1778
sg70
g1763
sg63
(lp1779
g56
(g57
g58
NtRp1780
(dp1781
g61
(dp1782
g69
I4
ssg70
g1776
sg63
(lp1783
S'CHL-5833E'
p1784
asbasbasbag56
(g72
g58
NtRp1785
(dp1786
g61
(dp1787
sg70
g1191
sg63
(lp1788
g56
(g77
g58
NtRp1789
(dp1790
g61
(dp1791
g81
g82
ssg70
g1785
sg63
(lp1792
S'server_port'
p1793
asbag56
(g77
g58
NtRp1794
(dp1795
g61
(dp1796
g88
g89
ssg70
g1785
sg63
(lp1797
S':'
asbag56
(g77
g58
NtRp1798
(dp1799
g61
(dp1800
sg70
g1785
sg63
(lp1801
g56
(g57
g58
NtRp1802
(dp1803
g61
(dp1804
g69
I4
ssg70
g1798
sg63
(lp1805
S'8000'
p1806
asbasbasbag56
(g72
g58
NtRp1807
(dp1808
g61
(dp1809
sg70
g1191
sg63
(lp1810
g56
(g77
g58
NtRp1811
(dp1812
g61
(dp1813
g81
g82
ssg70
g1807
sg63
(lp1814
S'server_protocol'
p1815
asbag56
(g77
g58
NtRp1816
(dp1817
g61
(dp1818
g88
g89
ssg70
g1807
sg63
(lp1819
S':'
asbag56
(g77
g58
NtRp1820
(dp1821
g61
(dp1822
sg70
g1807
sg63
(lp1823
g56
(g57
g58
NtRp1824
(dp1825
g61
(dp1826
g69
I4
ssg70
g1820
sg63
(lp1827
S'HTTP/1.1'
p1828
asbasbasbag56
(g72
g58
NtRp1829
(dp1830
g61
(dp1831
sg70
g1191
sg63
(lp1832
g56
(g77
g58
NtRp1833
(dp1834
g61
(dp1835
g81
g82
ssg70
g1829
sg63
(lp1836
S'server_software'
p1837
asbag56
(g77
g58
NtRp1838
(dp1839
g61
(dp1840
g88
g89
ssg70
g1829
sg63
(lp1841
S':'
asbag56
(g77
g58
NtRp1842
(dp1843
g61
(dp1844
sg70
g1829
sg63
(lp1845
g56
(g57
g58
NtRp1846
(dp1847
g61
(dp1848
g69
I4
ssg70
g1842
sg63
(lp1849
S'Rocket 1.2.4'
p1850
asbasbasbag56
(g72
g58
NtRp1851
(dp1852
g61
(dp1853
sg70
g1191
sg63
(lp1854
g56
(g77
g58
NtRp1855
(dp1856
g61
(dp1857
g81
g82
ssg70
g1851
sg63
(lp1858
S'web2py_crontype'
p1859
asbag56
(g77
g58
NtRp1860
(dp1861
g61
(dp1862
g88
g89
ssg70
g1851
sg63
(lp1863
S':'
asbag56
(g77
g58
NtRp1864
(dp1865
g61
(dp1866
sg70
g1851
sg63
(lp1867
g56
(g57
g58
NtRp1868
(dp1869
g61
(dp1870
g69
I4
ssg70
g1864
sg63
(lp1871
S'hard'
p1872
asbasbasbag56
(g72
g58
NtRp1873
(dp1874
g61
(dp1875
sg70
g1191
sg63
(lp1876
g56
(g77
g58
NtRp1877
(dp1878
g61
(dp1879
g81
g82
ssg70
g1873
sg63
(lp1880
S'web2py_path'
p1881
asbag56
(g77
g58
NtRp1882
(dp1883
g61
(dp1884
g88
g89
ssg70
g1873
sg63
(lp1885
S':'
asbag56
(g77
g58
NtRp1886
(dp1887
g61
(dp1888
sg70
g1873
sg63
(lp1889
g56
(g57
g58
NtRp1890
(dp1891
g61
(dp1892
g69
I4
ssg70
g1886
sg63
(lp1893
g1238
asbasbasbag56
(g72
g58
NtRp1894
(dp1895
g61
(dp1896
sg70
g1191
sg63
(lp1897
g56
(g77
g58
NtRp1898
(dp1899
g61
(dp1900
g81
g82
ssg70
g1894
sg63
(lp1901
S'web2py_version'
p1902
asbag56
(g77
g58
NtRp1903
(dp1904
g61
(dp1905
g88
g89
ssg70
g1894
sg63
(lp1906
S':'
asbag56
(g77
g58
NtRp1907
(dp1908
g61
(dp1909
sg70
g1894
sg63
(lp1910
g56
(g57
g58
NtRp1911
(dp1912
g61
(dp1913
g69
I4
ssg70
g1907
sg63
(lp1914
g56
(g65
g58
NtRp1915
(dp1916
g61
(dp1917
g69
I3
ssg70
Nsg63
(lp1918
g56
(g72
g58
NtRp1919
(dp1920
g61
(dp1921
sg70
g1915
sg63
(lp1922
g56
(g77
g58
NtRp1923
(dp1924
g61
(dp1925
sg70
g1919
sg63
(lp1926
g56
(g57
g58
NtRp1927
(dp1928
g61
(dp1929
g69
I3
ssg70
g1923
sg63
(lp1930
S'1'
asbasbasbag56
(g72
g58
NtRp1931
(dp1932
g61
(dp1933
sg70
g1915
sg63
(lp1934
g56
(g77
g58
NtRp1935
(dp1936
g61
(dp1937
sg70
g1931
sg63
(lp1938
g56
(g57
g58
NtRp1939
(dp1940
g61
(dp1941
g69
I3
ssg70
g1935
sg63
(lp1942
S'99'
p1943
asbasbasbag56
(g72
g58
NtRp1944
(dp1945
g61
(dp1946
sg70
g1915
sg63
(lp1947
g56
(g77
g58
NtRp1948
(dp1949
g61
(dp1950
sg70
g1944
sg63
(lp1951
g56
(g57
g58
NtRp1952
(dp1953
g61
(dp1954
g69
I3
ssg70
g1948
sg63
(lp1955
S'2'
asbasbasbag56
(g72
g58
NtRp1956
(dp1957
g61
(dp1958
sg70
g1915
sg63
(lp1959
g56
(g77
g58
NtRp1960
(dp1961
g61
(dp1962
sg70
g1956
sg63
(lp1963
g56
(g57
g58
NtRp1964
(dp1965
g61
(dp1966
g69
I3
ssg70
g1960
sg63
(lp1967
S'datetime.datetime(2011, 9, 26, 6, 55, 33)'
p1968
asbasbasbag56
(g72
g58
NtRp1969
(dp1970
g61
(dp1971
sg70
g1915
sg63
(lp1972
g56
(g77
g58
NtRp1973
(dp1974
g61
(dp1975
sg70
g1969
sg63
(lp1976
g56
(g57
g58
NtRp1977
(dp1978
g61
(dp1979
g69
I3
ssg70
g1973
sg63
(lp1980
S'stable'
p1981
asbasbasbasbasbasbasbag56
(g72
g58
NtRp1982
(dp1983
g61
(dp1984
sg70
g1191
sg63
(lp1985
g56
(g77
g58
NtRp1986
(dp1987
g61
(dp1988
g81
g82
ssg70
g1982
sg63
(lp1989
S'wsgi_errors'
p1990
asbag56
(g77
g58
NtRp1991
(dp1992
g61
(dp1993
g88
g89
ssg70
g1982
sg63
(lp1994
S':'
asbag56
(g77
g58
NtRp1995
(dp1996
g61
(dp1997
sg70
g1982
sg63
(lp1998
g56
(g57
g58
NtRp1999
(dp2000
g61
(dp2001
g69
I4
ssg70
g1995
sg63
(lp2002
S"<open file '<stderr>', mode 'w' at 0xb738b0d0>"
p2003
asbasbasbag56
(g72
g58
NtRp2004
(dp2005
g61
(dp2006
sg70
g1191
sg63
(lp2007
g56
(g77
g58
NtRp2008
(dp2009
g61
(dp2010
g81
g82
ssg70
g2004
sg63
(lp2011
S'wsgi_file_wrapper'
p2012
asbag56
(g77
g58
NtRp2013
(dp2014
g61
(dp2015
g88
g89
ssg70
g2004
sg63
(lp2016
S':'
asbag56
(g77
g58
NtRp2017
(dp2018
g61
(dp2019
sg70
g2004
sg63
(lp2020
g56
(g57
g58
NtRp2021
(dp2022
g61
(dp2023
g69
I4
ssg70
g2017
sg63
(lp2024
S'<class wsgiref.util.FileWrapper at 0xa4ce92c>'
p2025
asbasbasbag56
(g72
g58
NtRp2026
(dp2027
g61
(dp2028
sg70
g1191
sg63
(lp2029
g56
(g77
g58
NtRp2030
(dp2031
g61
(dp2032
g81
g82
ssg70
g2026
sg63
(lp2033
S'wsgi_input'
p2034
asbag56
(g77
g58
NtRp2035
(dp2036
g61
(dp2037
g88
g89
ssg70
g2026
sg63
(lp2038
S':'
asbag56
(g77
g58
NtRp2039
(dp2040
g61
(dp2041
sg70
g2026
sg63
(lp2042
g56
(g57
g58
NtRp2043
(dp2044
g61
(dp2045
g69
I4
ssg70
g2039
sg63
(lp2046
S'<socket._fileobject object at 0xa8c6c2c>'
p2047
asbasbasbag56
(g72
g58
NtRp2048
(dp2049
g61
(dp2050
sg70
g1191
sg63
(lp2051
g56
(g77
g58
NtRp2052
(dp2053
g61
(dp2054
g81
g82
ssg70
g2048
sg63
(lp2055
S'wsgi_multiprocess'
p2056
asbag56
(g77
g58
NtRp2057
(dp2058
g61
(dp2059
g88
g89
ssg70
g2048
sg63
(lp2060
S':'
asbag56
(g77
g58
NtRp2061
(dp2062
g61
(dp2063
sg70
g2048
sg63
(lp2064
g56
(g57
g58
NtRp2065
(dp2066
g61
(dp2067
g69
I4
ssg70
g2061
sg63
(lp2068
g99
asbasbasbag56
(g72
g58
NtRp2069
(dp2070
g61
(dp2071
sg70
g1191
sg63
(lp2072
g56
(g77
g58
NtRp2073
(dp2074
g61
(dp2075
g81
g82
ssg70
g2069
sg63
(lp2076
S'wsgi_multithread'
p2077
asbag56
(g77
g58
NtRp2078
(dp2079
g61
(dp2080
g88
g89
ssg70
g2069
sg63
(lp2081
S':'
asbag56
(g77
g58
NtRp2082
(dp2083
g61
(dp2084
sg70
g2069
sg63
(lp2085
g56
(g57
g58
NtRp2086
(dp2087
g61
(dp2088
g69
I4
ssg70
g2082
sg63
(lp2089
S'True'
p2090
asbasbasbag56
(g72
g58
NtRp2091
(dp2092
g61
(dp2093
sg70
g1191
sg63
(lp2094
g56
(g77
g58
NtRp2095
(dp2096
g61
(dp2097
g81
g82
ssg70
g2091
sg63
(lp2098
S'wsgi_run_once'
p2099
asbag56
(g77
g58
NtRp2100
(dp2101
g61
(dp2102
g88
g89
ssg70
g2091
sg63
(lp2103
S':'
asbag56
(g77
g58
NtRp2104
(dp2105
g61
(dp2106
sg70
g2091
sg63
(lp2107
g56
(g57
g58
NtRp2108
(dp2109
g61
(dp2110
g69
I4
ssg70
g2104
sg63
(lp2111
g99
asbasbasbag56
(g72
g58
NtRp2112
(dp2113
g61
(dp2114
sg70
g1191
sg63
(lp2115
g56
(g77
g58
NtRp2116
(dp2117
g61
(dp2118
g81
g82
ssg70
g2112
sg63
(lp2119
S'wsgi_url_scheme'
p2120
asbag56
(g77
g58
NtRp2121
(dp2122
g61
(dp2123
g88
g89
ssg70
g2112
sg63
(lp2124
S':'
asbag56
(g77
g58
NtRp2125
(dp2126
g61
(dp2127
sg70
g2112
sg63
(lp2128
g56
(g57
g58
NtRp2129
(dp2130
g61
(dp2131
g69
I4
ssg70
g2125
sg63
(lp2132
S'http'
p2133
asbasbasbag56
(g72
g58
NtRp2134
(dp2135
g61
(dp2136
sg70
g1191
sg63
(lp2137
g56
(g77
g58
NtRp2138
(dp2139
g61
(dp2140
g81
g82
ssg70
g2134
sg63
(lp2141
S'wsgi_version'
p2142
asbag56
(g77
g58
NtRp2143
(dp2144
g61
(dp2145
g88
g89
ssg70
g2134
sg63
(lp2146
S':'
asbag56
(g77
g58
NtRp2147
(dp2148
g61
(dp2149
sg70
g2134
sg63
(lp2150
g56
(g57
g58
NtRp2151
(dp2152
g61
(dp2153
g69
I4
ssg70
g2147
sg63
(lp2154
g56
(g65
g58
NtRp2155
(dp2156
g61
(dp2157
g69
I3
ssg70
Nsg63
(lp2158
g56
(g72
g58
NtRp2159
(dp2160
g61
(dp2161
sg70
g2155
sg63
(lp2162
g56
(g77
g58
NtRp2163
(dp2164
g61
(dp2165
sg70
g2159
sg63
(lp2166
g56
(g57
g58
NtRp2167
(dp2168
g61
(dp2169
g69
I3
ssg70
g2163
sg63
(lp2170
S'1'
asbasbasbag56
(g72
g58
NtRp2171
(dp2172
g61
(dp2173
sg70
g2155
sg63
(lp2174
g56
(g77
g58
NtRp2175
(dp2176
g61
(dp2177
sg70
g2171
sg63
(lp2178
g56
(g57
g58
NtRp2179
(dp2180
g61
(dp2181
g69
I3
ssg70
g2175
sg63
(lp2182
S'0'
asbasbasbasbasbasbasbasbasbasbasbag56
(g72
g58
NtRp2183
(dp2184
g61
(dp2185
sg70
g66
sg63
(lp2186
g56
(g77
g58
NtRp2187
(dp2188
g61
(dp2189
g81
g82
ssg70
g2183
sg63
(lp2190
S'extension'
p2191
asbag56
(g77
g58
NtRp2192
(dp2193
g61
(dp2194
g88
g89
ssg70
g2183
sg63
(lp2195
S':'
asbag56
(g77
g58
NtRp2196
(dp2197
g61
(dp2198
sg70
g2183
sg63
(lp2199
g56
(g57
g58
NtRp2200
(dp2201
g61
(dp2202
g69
I5
ssg70
g2196
sg63
(lp2203
S'html'
p2204
asbasbasbag56
(g72
g58
NtRp2205
(dp2206
g61
(dp2207
sg70
g66
sg63
(lp2208
g56
(g77
g58
NtRp2209
(dp2210
g61
(dp2211
g81
g82
ssg70
g2205
sg63
(lp2212
S'folder'
p2213
asbag56
(g77
g58
NtRp2214
(dp2215
g61
(dp2216
g88
g89
ssg70
g2205
sg63
(lp2217
S':'
asbag56
(g77
g58
NtRp2218
(dp2219
g61
(dp2220
sg70
g2205
sg63
(lp2221
g56
(g57
g58
NtRp2222
(dp2223
g61
(dp2224
g69
I5
ssg70
g2218
sg63
(lp2225
S'/home/u4hcsdaw/Python/web2py/applications/ACES/'
p2226
asbasbasbag56
(g72
g58
NtRp2227
(dp2228
g61
(dp2229
sg70
g66
sg63
(lp2230
g56
(g77
g58
NtRp2231
(dp2232
g61
(dp2233
g81
g82
ssg70
g2227
sg63
(lp2234
S'function'
p2235
asbag56
(g77
g58
NtRp2236
(dp2237
g61
(dp2238
g88
g89
ssg70
g2227
sg63
(lp2239
S':'
asbag56
(g77
g58
NtRp2240
(dp2241
g61
(dp2242
sg70
g2227
sg63
(lp2243
g56
(g57
g58
NtRp2244
(dp2245
g61
(dp2246
g69
I5
ssg70
g2240
sg63
(lp2247
S'index'
p2248
asbasbasbag56
(g72
g58
NtRp2249
(dp2250
g61
(dp2251
sg70
g66
sg63
(lp2252
g56
(g77
g58
NtRp2253
(dp2254
g61
(dp2255
g81
g82
ssg70
g2249
sg63
(lp2256
S'get_vars'
p2257
asbag56
(g77
g58
NtRp2258
(dp2259
g61
(dp2260
g88
g89
ssg70
g2249
sg63
(lp2261
S':'
asbag56
(g77
g58
NtRp2262
(dp2263
g61
(dp2264
sg70
g2249
sg63
(lp2265
g56
(g57
g58
NtRp2266
(dp2267
g61
(dp2268
g69
I5
ssg70
g2262
sg63
(lp2269
g56
(g65
g58
NtRp2270
(dp2271
g61
(dp2272
g69
I4
ssg70
Nsg63
(lp2273
sbasbasbasbag56
(g72
g58
NtRp2274
(dp2275
g61
(dp2276
sg70
g66
sg63
(lp2277
g56
(g77
g58
NtRp2278
(dp2279
g61
(dp2280
g81
g82
ssg70
g2274
sg63
(lp2281
S'global_settings'
p2282
asbag56
(g77
g58
NtRp2283
(dp2284
g61
(dp2285
g88
g89
ssg70
g2274
sg63
(lp2286
S':'
asbag56
(g77
g58
NtRp2287
(dp2288
g61
(dp2289
sg70
g2274
sg63
(lp2290
g56
(g57
g58
NtRp2291
(dp2292
g61
(dp2293
g69
I5
ssg70
g2287
sg63
(lp2294
g56
(g65
g58
NtRp2295
(dp2296
g61
(dp2297
g69
I4
ssg70
Nsg63
(lp2298
g56
(g72
g58
NtRp2299
(dp2300
g61
(dp2301
sg70
g2295
sg63
(lp2302
g56
(g77
g58
NtRp2303
(dp2304
g61
(dp2305
g81
g82
ssg70
g2299
sg63
(lp2306
g1203
asbag56
(g77
g58
NtRp2307
(dp2308
g61
(dp2309
g88
g89
ssg70
g2299
sg63
(lp2310
S':'
asbag56
(g77
g58
NtRp2311
(dp2312
g61
(dp2313
sg70
g2299
sg63
(lp2314
g56
(g57
g58
NtRp2315
(dp2316
g61
(dp2317
g69
I4
ssg70
g2311
sg63
(lp2318
S"set(['/home/u4hcsdaw/Python/web2py/applications/ACES/', '/home/u4hcsdaw/Python/web2py/applications/PayPeriod/', '/home/u4hcsdaw/Python/web2py/applications/admin/', '/home/u4hcsdaw/Python/web2py/applications/welcome/', '/home/u4hcsdaw/Python/web2py/applications/DALEX1/'])"
p2319
asbasbasbag56
(g72
g58
NtRp2320
(dp2321
g61
(dp2322
sg70
g2295
sg63
(lp2323
g56
(g77
g58
NtRp2324
(dp2325
g61
(dp2326
g81
g82
ssg70
g2320
sg63
(lp2327
g1225
asbag56
(g77
g58
NtRp2328
(dp2329
g61
(dp2330
g88
g89
ssg70
g2320
sg63
(lp2331
S':'
asbag56
(g77
g58
NtRp2332
(dp2333
g61
(dp2334
sg70
g2320
sg63
(lp2335
g56
(g57
g58
NtRp2336
(dp2337
g61
(dp2338
g69
I4
ssg70
g2332
sg63
(lp2339
g1238
asbasbasbag56
(g72
g58
NtRp2340
(dp2341
g61
(dp2342
sg70
g2295
sg63
(lp2343
g56
(g77
g58
NtRp2344
(dp2345
g61
(dp2346
g81
g82
ssg70
g2340
sg63
(lp2347
g1247
asbag56
(g77
g58
NtRp2348
(dp2349
g61
(dp2350
g88
g89
ssg70
g2340
sg63
(lp2351
S':'
asbag56
(g77
g58
NtRp2352
(dp2353
g61
(dp2354
sg70
g2340
sg63
(lp2355
g56
(g57
g58
NtRp2356
(dp2357
g61
(dp2358
g69
I4
ssg70
g2352
sg63
(lp2359
g56
(g65
g58
NtRp2360
(dp2361
g61
(dp2362
g69
I3
ssg70
Nsg63
(lp2363
sbasbasbasbag56
(g72
g58
NtRp2364
(dp2365
g61
(dp2366
sg70
g2295
sg63
(lp2367
g56
(g77
g58
NtRp2368
(dp2369
g61
(dp2370
g81
g82
ssg70
g2364
sg63
(lp2371
g1272
asbag56
(g77
g58
NtRp2372
(dp2373
g61
(dp2374
g88
g89
ssg70
g2364
sg63
(lp2375
S':'
asbag56
(g77
g58
NtRp2376
(dp2377
g61
(dp2378
sg70
g2364
sg63
(lp2379
g56
(g57
g58
NtRp2380
(dp2381
g61
(dp2382
g69
I4
ssg70
g2376
sg63
(lp2383
S"<Values at 0xa59ca2c: {'verbose': False, 'ip': '127.0.0.1', 'shutdown_timeout': 5, 'taskbar': False, 'nocron': False, 'pid_filename': 'httpserver.pid', 'maxthreads': None, 'softcron': False, 'server_name': 'CHL-5833E', 'bpython': False, 'nogui': False, 'port': 8000, 'extcron': False, 'debuglevel': 30, 'test': None, 'folder': '/home/u4hcsdaw/Python/web2py', 'config': '', 'import_models': False, 'winservice': '', 'shell': None, 'run': '', 'log_filename': 'httpserver.log', 'args': [''], 'ssl_ca_certificate': None, 'scheduler': None, 'profiler_filename': None, 'ssl_private_key': '', 'password': '<ask>', 'request_queue_size': 5, 'ssl_certificate': '', 'cronjob': False, 'plain': False, 'quiet': False, 'interfaces': None, 'minthreads': None, 'timeout': 10, 'numthreads': None, 'nobanner': False}>"
p2384
asbasbasbag56
(g72
g58
NtRp2385
(dp2386
g61
(dp2387
sg70
g2295
sg63
(lp2388
g56
(g77
g58
NtRp2389
(dp2390
g61
(dp2391
g81
g82
ssg70
g2385
sg63
(lp2392
g1338
asbag56
(g77
g58
NtRp2393
(dp2394
g61
(dp2395
g88
g89
ssg70
g2385
sg63
(lp2396
S':'
asbag56
(g77
g58
NtRp2397
(dp2398
g61
(dp2399
sg70
g2385
sg63
(lp2400
g56
(g57
g58
NtRp2401
(dp2402
g61
(dp2403
g69
I4
ssg70
g2397
sg63
(lp2404
S'set([])'
p2405
asbasbasbag56
(g72
g58
NtRp2406
(dp2407
g61
(dp2408
sg70
g2295
sg63
(lp2409
g56
(g77
g58
NtRp2410
(dp2411
g61
(dp2412
g81
g82
ssg70
g2406
sg63
(lp2413
g1360
asbag56
(g77
g58
NtRp2414
(dp2415
g61
(dp2416
g88
g89
ssg70
g2406
sg63
(lp2417
S':'
asbag56
(g77
g58
NtRp2418
(dp2419
g61
(dp2420
sg70
g2406
sg63
(lp2421
g56
(g57
g58
NtRp2422
(dp2423
g61
(dp2424
g69
I4
ssg70
g2418
sg63
(lp2425
g99
asbasbasbag56
(g72
g58
NtRp2426
(dp2427
g61
(dp2428
sg70
g2295
sg63
(lp2429
g56
(g77
g58
NtRp2430
(dp2431
g61
(dp2432
g81
g82
ssg70
g2426
sg63
(lp2433
g1381
asbag56
(g77
g58
NtRp2434
(dp2435
g61
(dp2436
g88
g89
ssg70
g2426
sg63
(lp2437
S':'
asbag56
(g77
g58
NtRp2438
(dp2439
g61
(dp2440
sg70
g2426
sg63
(lp2441
g56
(g57
g58
NtRp2442
(dp2443
g61
(dp2444
g69
I4
ssg70
g2438
sg63
(lp2445
g1394
asbasbasbag56
(g72
g58
NtRp2446
(dp2447
g61
(dp2448
sg70
g2295
sg63
(lp2449
g56
(g77
g58
NtRp2450
(dp2451
g61
(dp2452
g81
g82
ssg70
g2446
sg63
(lp2453
g1621
asbag56
(g77
g58
NtRp2454
(dp2455
g61
(dp2456
g88
g89
ssg70
g2446
sg63
(lp2457
S':'
asbag56
(g77
g58
NtRp2458
(dp2459
g61
(dp2460
sg70
g2446
sg63
(lp2461
g56
(g57
g58
NtRp2462
(dp2463
g61
(dp2464
g69
I4
ssg70
g2458
sg63
(lp2465
g99
asbasbasbag56
(g72
g58
NtRp2466
(dp2467
g61
(dp2468
sg70
g2295
sg63
(lp2469
g56
(g77
g58
NtRp2470
(dp2471
g61
(dp2472
g81
g82
ssg70
g2466
sg63
(lp2473
g1859
asbag56
(g77
g58
NtRp2474
(dp2475
g61
(dp2476
g88
g89
ssg70
g2466
sg63
(lp2477
S':'
asbag56
(g77
g58
NtRp2478
(dp2479
g61
(dp2480
sg70
g2466
sg63
(lp2481
g56
(g57
g58
NtRp2482
(dp2483
g61
(dp2484
g69
I4
ssg70
g2478
sg63
(lp2485
g1872
asbasbasbag56
(g72
g58
NtRp2486
(dp2487
g61
(dp2488
sg70
g2295
sg63
(lp2489
g56
(g77
g58
NtRp2490
(dp2491
g61
(dp2492
g81
g82
ssg70
g2486
sg63
(lp2493
g1902
asbag56
(g77
g58
NtRp2494
(dp2495
g61
(dp2496
g88
g89
ssg70
g2486
sg63
(lp2497
S':'
asbag56
(g77
g58
NtRp2498
(dp2499
g61
(dp2500
sg70
g2486
sg63
(lp2501
g56
(g57
g58
NtRp2502
(dp2503
g61
(dp2504
g69
I4
ssg70
g2498
sg63
(lp2505
g56
(g65
g58
NtRp2506
(dp2507
g61
(dp2508
g69
I3
ssg70
Nsg63
(lp2509
g56
(g72
g58
NtRp2510
(dp2511
g61
(dp2512
sg70
g2506
sg63
(lp2513
g56
(g77
g58
NtRp2514
(dp2515
g61
(dp2516
sg70
g2510
sg63
(lp2517
g56
(g57
g58
NtRp2518
(dp2519
g61
(dp2520
g69
I3
ssg70
g2514
sg63
(lp2521
S'1'
asbasbasbag56
(g72
g58
NtRp2522
(dp2523
g61
(dp2524
sg70
g2506
sg63
(lp2525
g56
(g77
g58
NtRp2526
(dp2527
g61
(dp2528
sg70
g2522
sg63
(lp2529
g56
(g57
g58
NtRp2530
(dp2531
g61
(dp2532
g69
I3
ssg70
g2526
sg63
(lp2533
S'99'
p2534
asbasbasbag56
(g72
g58
NtRp2535
(dp2536
g61
(dp2537
sg70
g2506
sg63
(lp2538
g56
(g77
g58
NtRp2539
(dp2540
g61
(dp2541
sg70
g2535
sg63
(lp2542
g56
(g57
g58
NtRp2543
(dp2544
g61
(dp2545
g69
I3
ssg70
g2539
sg63
(lp2546
S'2'
asbasbasbag56
(g72
g58
NtRp2547
(dp2548
g61
(dp2549
sg70
g2506
sg63
(lp2550
g56
(g77
g58
NtRp2551
(dp2552
g61
(dp2553
sg70
g2547
sg63
(lp2554
g56
(g57
g58
NtRp2555
(dp2556
g61
(dp2557
g69
I3
ssg70
g2551
sg63
(lp2558
S'datetime.datetime(2011, 9, 26, 6, 55, 33)'
p2559
asbasbasbag56
(g72
g58
NtRp2560
(dp2561
g61
(dp2562
sg70
g2506
sg63
(lp2563
g56
(g77
g58
NtRp2564
(dp2565
g61
(dp2566
sg70
g2560
sg63
(lp2567
g56
(g57
g58
NtRp2568
(dp2569
g61
(dp2570
g69
I3
ssg70
g2564
sg63
(lp2571
g1981
asbasbasbasbasbasbasbasbasbasbasbag56
(g72
g58
NtRp2572
(dp2573
g61
(dp2574
sg70
g66
sg63
(lp2575
g56
(g77
g58
NtRp2576
(dp2577
g61
(dp2578
g81
g82
ssg70
g2572
sg63
(lp2579
S'is_https'
p2580
asbag56
(g77
g58
NtRp2581
(dp2582
g61
(dp2583
g88
g89
ssg70
g2572
sg63
(lp2584
S':'
asbag56
(g77
g58
NtRp2585
(dp2586
g61
(dp2587
sg70
g2572
sg63
(lp2588
g56
(g57
g58
NtRp2589
(dp2590
g61
(dp2591
g69
I5
ssg70
g2585
sg63
(lp2592
g99
asbasbasbag56
(g72
g58
NtRp2593
(dp2594
g61
(dp2595
sg70
g66
sg63
(lp2596
g56
(g77
g58
NtRp2597
(dp2598
g61
(dp2599
g81
g82
ssg70
g2593
sg63
(lp2600
S'is_local'
p2601
asbag56
(g77
g58
NtRp2602
(dp2603
g61
(dp2604
g88
g89
ssg70
g2593
sg63
(lp2605
S':'
asbag56
(g77
g58
NtRp2606
(dp2607
g61
(dp2608
sg70
g2593
sg63
(lp2609
g56
(g57
g58
NtRp2610
(dp2611
g61
(dp2612
g69
I5
ssg70
g2606
sg63
(lp2613
g2090
asbasbasbag56
(g72
g58
NtRp2614
(dp2615
g61
(dp2616
sg70
g66
sg63
(lp2617
g56
(g77
g58
NtRp2618
(dp2619
g61
(dp2620
g81
g82
ssg70
g2614
sg63
(lp2621
S'is_restful'
p2622
asbag56
(g77
g58
NtRp2623
(dp2624
g61
(dp2625
g88
g89
ssg70
g2614
sg63
(lp2626
S':'
asbag56
(g77
g58
NtRp2627
(dp2628
g61
(dp2629
sg70
g2614
sg63
(lp2630
g56
(g57
g58
NtRp2631
(dp2632
g61
(dp2633
g69
I5
ssg70
g2627
sg63
(lp2634
g99
asbasbasbag56
(g72
g58
NtRp2635
(dp2636
g61
(dp2637
sg70
g66
sg63
(lp2638
g56
(g77
g58
NtRp2639
(dp2640
g61
(dp2641
g81
g82
ssg70
g2635
sg63
(lp2642
S'now'
p2643
asbag56
(g77
g58
NtRp2644
(dp2645
g61
(dp2646
g88
g89
ssg70
g2635
sg63
(lp2647
S':'
asbag56
(g77
g58
NtRp2648
(dp2649
g61
(dp2650
sg70
g2635
sg63
(lp2651
g56
(g57
g58
NtRp2652
(dp2653
g61
(dp2654
g69
I5
ssg70
g2648
sg63
(lp2655
S'datetime.datetime(2012, 6, 5, 16, 16, 10, 952835)'
p2656
asbasbasbag56
(g72
g58
NtRp2657
(dp2658
g61
(dp2659
sg70
g66
sg63
(lp2660
g56
(g77
g58
NtRp2661
(dp2662
g61
(dp2663
g81
g82
ssg70
g2657
sg63
(lp2664
S'post_vars'
p2665
asbag56
(g77
g58
NtRp2666
(dp2667
g61
(dp2668
g88
g89
ssg70
g2657
sg63
(lp2669
S':'
asbag56
(g77
g58
NtRp2670
(dp2671
g61
(dp2672
sg70
g2657
sg63
(lp2673
g56
(g57
g58
NtRp2674
(dp2675
g61
(dp2676
g69
I5
ssg70
g2670
sg63
(lp2677
g56
(g65
g58
NtRp2678
(dp2679
g61
(dp2680
g69
I4
ssg70
Nsg63
(lp2681
g56
(g72
g58
NtRp2682
(dp2683
g61
(dp2684
sg70
g2678
sg63
(lp2685
g56
(g77
g58
NtRp2686
(dp2687
g61
(dp2688
g81
g82
ssg70
g2682
sg63
(lp2689
S'subButton'
p2690
asbag56
(g77
g58
NtRp2691
(dp2692
g61
(dp2693
g88
g89
ssg70
g2682
sg63
(lp2694
S':'
asbag56
(g77
g58
NtRp2695
(dp2696
g61
(dp2697
sg70
g2682
sg63
(lp2698
g56
(g57
g58
NtRp2699
(dp2700
g61
(dp2701
g69
I4
ssg70
g2695
sg63
(lp2702
S'Submit Query'
p2703
asbasbasbag56
(g72
g58
NtRp2704
(dp2705
g61
(dp2706
sg70
g2678
sg63
(lp2707
g56
(g77
g58
NtRp2708
(dp2709
g61
(dp2710
g81
g82
ssg70
g2704
sg63
(lp2711
S'waveHeight'
p2712
asbag56
(g77
g58
NtRp2713
(dp2714
g61
(dp2715
g88
g89
ssg70
g2704
sg63
(lp2716
S':'
asbag56
(g77
g58
NtRp2717
(dp2718
g61
(dp2719
sg70
g2704
sg63
(lp2720
g56
(g57
g58
NtRp2721
(dp2722
g61
(dp2723
g69
I4
ssg70
g2717
sg63
(lp2724
S'0.85'
p2725
asbasbasbasbasbasbasbag56
(g72
g58
NtRp2726
(dp2727
g61
(dp2728
sg70
g66
sg63
(lp2729
g56
(g77
g58
NtRp2730
(dp2731
g61
(dp2732
g81
g82
ssg70
g2726
sg63
(lp2733
S'url'
p2734
asbag56
(g77
g58
NtRp2735
(dp2736
g61
(dp2737
g88
g89
ssg70
g2726
sg63
(lp2738
S':'
asbag56
(g77
g58
NtRp2739
(dp2740
g61
(dp2741
sg70
g2726
sg63
(lp2742
g56
(g57
g58
NtRp2743
(dp2744
g61
(dp2745
g69
I5
ssg70
g2739
sg63
(lp2746
S'/ACES/default/index'
p2747
asbasbasbag56
(g72
g58
NtRp2748
(dp2749
g61
(dp2750
sg70
g66
sg63
(lp2751
g56
(g77
g58
NtRp2752
(dp2753
g61
(dp2754
g81
g82
ssg70
g2748
sg63
(lp2755
S'utcnow'
p2756
asbag56
(g77
g58
NtRp2757
(dp2758
g61
(dp2759
g88
g89
ssg70
g2748
sg63
(lp2760
S':'
asbag56
(g77
g58
NtRp2761
(dp2762
g61
(dp2763
sg70
g2748
sg63
(lp2764
g56
(g57
g58
NtRp2765
(dp2766
g61
(dp2767
g69
I5
ssg70
g2761
sg63
(lp2768
S'datetime.datetime(2012, 6, 5, 21, 16, 10, 952865)'
p2769
asbasbasbag56
(g72
g58
NtRp2770
(dp2771
g61
(dp2772
sg70
g66
sg63
(lp2773
g56
(g77
g58
NtRp2774
(dp2775
g61
(dp2776
g81
g82
ssg70
g2770
sg63
(lp2777
S'uuid'
p2778
asbag56
(g77
g58
NtRp2779
(dp2780
g61
(dp2781
g88
g89
ssg70
g2770
sg63
(lp2782
S':'
asbag56
(g77
g58
NtRp2783
(dp2784
g61
(dp2785
sg70
g2770
sg63
(lp2786
g56
(g57
g58
NtRp2787
(dp2788
g61
(dp2789
g69
I5
ssg70
g2783
sg63
(lp2790
S'ACES/127.0.0.1.2012-06-05.16-16-10.df75030d-70d8-493a-b66f-c4096f219762'
p2791
asbasbasbag56
(g72
g58
NtRp2792
(dp2793
g61
(dp2794
sg70
g66
sg63
(lp2795
g56
(g77
g58
NtRp2796
(dp2797
g61
(dp2798
g81
g82
ssg70
g2792
sg63
(lp2799
S'vars'
p2800
asbag56
(g77
g58
NtRp2801
(dp2802
g61
(dp2803
g88
g89
ssg70
g2792
sg63
(lp2804
S':'
asbag56
(g77
g58
NtRp2805
(dp2806
g61
(dp2807
sg70
g2792
sg63
(lp2808
g56
(g57
g58
NtRp2809
(dp2810
g61
(dp2811
g69
I5
ssg70
g2805
sg63
(lp2812
g56
(g65
g58
NtRp2813
(dp2814
g61
(dp2815
g69
I4
ssg70
Nsg63
(lp2816
g56
(g72
g58
NtRp2817
(dp2818
g61
(dp2819
sg70
g2813
sg63
(lp2820
g56
(g77
g58
NtRp2821
(dp2822
g61
(dp2823
g81
g82
ssg70
g2817
sg63
(lp2824
g2690
asbag56
(g77
g58
NtRp2825
(dp2826
g61
(dp2827
g88
g89
ssg70
g2817
sg63
(lp2828
S':'
asbag56
(g77
g58
NtRp2829
(dp2830
g61
(dp2831
sg70
g2817
sg63
(lp2832
g56
(g57
g58
NtRp2833
(dp2834
g61
(dp2835
g69
I4
ssg70
g2829
sg63
(lp2836
g2703
asbasbasbag56
(g72
g58
NtRp2837
(dp2838
g61
(dp2839
sg70
g2813
sg63
(lp2840
g56
(g77
g58
NtRp2841
(dp2842
g61
(dp2843
g81
g82
ssg70
g2837
sg63
(lp2844
g2712
asbag56
(g77
g58
NtRp2845
(dp2846
g61
(dp2847
g88
g89
ssg70
g2837
sg63
(lp2848
S':'
asbag56
(g77
g58
NtRp2849
(dp2850
g61
(dp2851
sg70
g2837
sg63
(lp2852
g56
(g57
g58
NtRp2853
(dp2854
g61
(dp2855
g69
I4
ssg70
g2849
sg63
(lp2856
g2725
asbasbasbasbasbasbasbag56
(g72
g58
NtRp2857
(dp2858
g61
(dp2859
sg70
g66
sg63
(lp2860
g56
(g77
g58
NtRp2861
(dp2862
g61
(dp2863
g81
g82
ssg70
g2857
sg63
(lp2864
S'wsgi'
p2865
asbag56
(g77
g58
NtRp2866
(dp2867
g61
(dp2868
g88
g89
ssg70
g2857
sg63
(lp2869
S':'
asbag56
(g77
g58
NtRp2870
(dp2871
g61
(dp2872
sg70
g2857
sg63
(lp2873
g56
(g57
g58
NtRp2874
(dp2875
g61
(dp2876
g69
I5
ssg70
g2870
sg63
(lp2877
g56
(g65
g58
NtRp2878
(dp2879
g61
(dp2880
g69
I4
ssg70
Nsg63
(lp2881
g56
(g72
g58
NtRp2882
(dp2883
g61
(dp2884
sg70
g2878
sg63
(lp2885
g56
(g77
g58
NtRp2886
(dp2887
g61
(dp2888
g81
g82
ssg70
g2882
sg63
(lp2889
S'environ'
p2890
asbag56
(g77
g58
NtRp2891
(dp2892
g61
(dp2893
g88
g89
ssg70
g2882
sg63
(lp2894
S':'
asbag56
(g77
g58
NtRp2895
(dp2896
g61
(dp2897
sg70
g2882
sg63
(lp2898
g56
(g57
g58
NtRp2899
(dp2900
g61
(dp2901
g69
I4
ssg70
g2895
sg63
(lp2902
g56
(g65
g58
NtRp2903
(dp2904
g61
(dp2905
g69
I3
ssg70
Nsg63
(lp2906
g56
(g72
g58
NtRp2907
(dp2908
g61
(dp2909
sg70
g2903
sg63
(lp2910
g56
(g77
g58
NtRp2911
(dp2912
g61
(dp2913
g81
g82
ssg70
g2907
sg63
(lp2914
S'CONTENT_LENGTH'
p2915
asbag56
(g77
g58
NtRp2916
(dp2917
g61
(dp2918
g88
g89
ssg70
g2907
sg63
(lp2919
S':'
asbag56
(g77
g58
NtRp2920
(dp2921
g61
(dp2922
sg70
g2907
sg63
(lp2923
g56
(g57
g58
NtRp2924
(dp2925
g61
(dp2926
g69
I3
ssg70
g2920
sg63
(lp2927
g1307
asbasbasbag56
(g72
g58
NtRp2928
(dp2929
g61
(dp2930
sg70
g2903
sg63
(lp2931
g56
(g77
g58
NtRp2932
(dp2933
g61
(dp2934
g81
g82
ssg70
g2928
sg63
(lp2935
S'CONTENT_TYPE'
p2936
asbag56
(g77
g58
NtRp2937
(dp2938
g61
(dp2939
g88
g89
ssg70
g2928
sg63
(lp2940
S':'
asbag56
(g77
g58
NtRp2941
(dp2942
g61
(dp2943
sg70
g2928
sg63
(lp2944
g56
(g57
g58
NtRp2945
(dp2946
g61
(dp2947
g69
I3
ssg70
g2941
sg63
(lp2948
g1329
asbasbasbag56
(g72
g58
NtRp2949
(dp2950
g61
(dp2951
sg70
g2903
sg63
(lp2952
g56
(g77
g58
NtRp2953
(dp2954
g61
(dp2955
g81
g82
ssg70
g2949
sg63
(lp2956
S'HTTP_ACCEPT'
p2957
asbag56
(g77
g58
NtRp2958
(dp2959
g61
(dp2960
g88
g89
ssg70
g2949
sg63
(lp2961
S':'
asbag56
(g77
g58
NtRp2962
(dp2963
g61
(dp2964
sg70
g2949
sg63
(lp2965
g56
(g57
g58
NtRp2966
(dp2967
g61
(dp2968
g69
I3
ssg70
g2962
sg63
(lp2969
g1416
asbasbasbag56
(g72
g58
NtRp2970
(dp2971
g61
(dp2972
sg70
g2903
sg63
(lp2973
g56
(g77
g58
NtRp2974
(dp2975
g61
(dp2976
g81
g82
ssg70
g2970
sg63
(lp2977
S'HTTP_ACCEPT_ENCODING'
p2978
asbag56
(g77
g58
NtRp2979
(dp2980
g61
(dp2981
g88
g89
ssg70
g2970
sg63
(lp2982
S':'
asbag56
(g77
g58
NtRp2983
(dp2984
g61
(dp2985
sg70
g2970
sg63
(lp2986
g56
(g57
g58
NtRp2987
(dp2988
g61
(dp2989
g69
I3
ssg70
g2983
sg63
(lp2990
g1438
asbasbasbag56
(g72
g58
NtRp2991
(dp2992
g61
(dp2993
sg70
g2903
sg63
(lp2994
g56
(g77
g58
NtRp2995
(dp2996
g61
(dp2997
g81
g82
ssg70
g2991
sg63
(lp2998
S'HTTP_ACCEPT_LANGUAGE'
p2999
asbag56
(g77
g58
NtRp3000
(dp3001
g61
(dp3002
g88
g89
ssg70
g2991
sg63
(lp3003
S':'
asbag56
(g77
g58
NtRp3004
(dp3005
g61
(dp3006
sg70
g2991
sg63
(lp3007
g56
(g57
g58
NtRp3008
(dp3009
g61
(dp3010
g69
I3
ssg70
g3004
sg63
(lp3011
g1460
asbasbasbag56
(g72
g58
NtRp3012
(dp3013
g61
(dp3014
sg70
g2903
sg63
(lp3015
g56
(g77
g58
NtRp3016
(dp3017
g61
(dp3018
g81
g82
ssg70
g3012
sg63
(lp3019
S'HTTP_CONNECTION'
p3020
asbag56
(g77
g58
NtRp3021
(dp3022
g61
(dp3023
g88
g89
ssg70
g3012
sg63
(lp3024
S':'
asbag56
(g77
g58
NtRp3025
(dp3026
g61
(dp3027
sg70
g3012
sg63
(lp3028
g56
(g57
g58
NtRp3029
(dp3030
g61
(dp3031
g69
I3
ssg70
g3025
sg63
(lp3032
g1482
asbasbasbag56
(g72
g58
NtRp3033
(dp3034
g61
(dp3035
sg70
g2903
sg63
(lp3036
g56
(g77
g58
NtRp3037
(dp3038
g61
(dp3039
g81
g82
ssg70
g3033
sg63
(lp3040
S'HTTP_CONTENT_LENGTH'
p3041
asbag56
(g77
g58
NtRp3042
(dp3043
g61
(dp3044
g88
g89
ssg70
g3033
sg63
(lp3045
S':'
asbag56
(g77
g58
NtRp3046
(dp3047
g61
(dp3048
sg70
g3033
sg63
(lp3049
g56
(g57
g58
NtRp3050
(dp3051
g61
(dp3052
g69
I3
ssg70
g3046
sg63
(lp3053
g1307
asbasbasbag56
(g72
g58
NtRp3054
(dp3055
g61
(dp3056
sg70
g2903
sg63
(lp3057
g56
(g77
g58
NtRp3058
(dp3059
g61
(dp3060
g81
g82
ssg70
g3054
sg63
(lp3061
S'HTTP_CONTENT_TYPE'
p3062
asbag56
(g77
g58
NtRp3063
(dp3064
g61
(dp3065
g88
g89
ssg70
g3054
sg63
(lp3066
S':'
asbag56
(g77
g58
NtRp3067
(dp3068
g61
(dp3069
sg70
g3054
sg63
(lp3070
g56
(g57
g58
NtRp3071
(dp3072
g61
(dp3073
g69
I3
ssg70
g3067
sg63
(lp3074
g1329
asbasbasbag56
(g72
g58
NtRp3075
(dp3076
g61
(dp3077
sg70
g2903
sg63
(lp3078
g56
(g77
g58
NtRp3079
(dp3080
g61
(dp3081
g81
g82
ssg70
g3075
sg63
(lp3082
S'HTTP_COOKIE'
p3083
asbag56
(g77
g58
NtRp3084
(dp3085
g61
(dp3086
g88
g89
ssg70
g3075
sg63
(lp3087
S':'
asbag56
(g77
g58
NtRp3088
(dp3089
g61
(dp3090
sg70
g3075
sg63
(lp3091
g56
(g57
g58
NtRp3092
(dp3093
g61
(dp3094
g69
I3
ssg70
g3088
sg63
(lp3095
g1546
asbasbasbag56
(g72
g58
NtRp3096
(dp3097
g61
(dp3098
sg70
g2903
sg63
(lp3099
g56
(g77
g58
NtRp3100
(dp3101
g61
(dp3102
g81
g82
ssg70
g3096
sg63
(lp3103
S'HTTP_HOST'
p3104
asbag56
(g77
g58
NtRp3105
(dp3106
g61
(dp3107
g88
g89
ssg70
g3096
sg63
(lp3108
S':'
asbag56
(g77
g58
NtRp3109
(dp3110
g61
(dp3111
sg70
g3096
sg63
(lp3112
g56
(g57
g58
NtRp3113
(dp3114
g61
(dp3115
g69
I3
ssg70
g3109
sg63
(lp3116
g1568
asbasbasbag56
(g72
g58
NtRp3117
(dp3118
g61
(dp3119
sg70
g2903
sg63
(lp3120
g56
(g77
g58
NtRp3121
(dp3122
g61
(dp3123
g81
g82
ssg70
g3117
sg63
(lp3124
S'HTTP_REFERER'
p3125
asbag56
(g77
g58
NtRp3126
(dp3127
g61
(dp3128
g88
g89
ssg70
g3117
sg63
(lp3129
S':'
asbag56
(g77
g58
NtRp3130
(dp3131
g61
(dp3132
sg70
g3117
sg63
(lp3133
g56
(g57
g58
NtRp3134
(dp3135
g61
(dp3136
g69
I3
ssg70
g3130
sg63
(lp3137
g1590
asbasbasbag56
(g72
g58
NtRp3138
(dp3139
g61
(dp3140
sg70
g2903
sg63
(lp3141
g56
(g77
g58
NtRp3142
(dp3143
g61
(dp3144
g81
g82
ssg70
g3138
sg63
(lp3145
S'HTTP_USER_AGENT'
p3146
asbag56
(g77
g58
NtRp3147
(dp3148
g61
(dp3149
g88
g89
ssg70
g3138
sg63
(lp3150
S':'
asbag56
(g77
g58
NtRp3151
(dp3152
g61
(dp3153
sg70
g3138
sg63
(lp3154
g56
(g57
g58
NtRp3155
(dp3156
g61
(dp3157
g69
I3
ssg70
g3151
sg63
(lp3158
g1612
asbasbasbag56
(g72
g58
NtRp3159
(dp3160
g61
(dp3161
sg70
g2903
sg63
(lp3162
g56
(g77
g58
NtRp3163
(dp3164
g61
(dp3165
g81
g82
ssg70
g3159
sg63
(lp3166
S'PATH_INFO'
p3167
asbag56
(g77
g58
NtRp3168
(dp3169
g61
(dp3170
g88
g89
ssg70
g3159
sg63
(lp3171
S':'
asbag56
(g77
g58
NtRp3172
(dp3173
g61
(dp3174
sg70
g3159
sg63
(lp3175
g56
(g57
g58
NtRp3176
(dp3177
g61
(dp3178
g69
I3
ssg70
g3172
sg63
(lp3179
g1655
asbasbasbag56
(g72
g58
NtRp3180
(dp3181
g61
(dp3182
sg70
g2903
sg63
(lp3183
g56
(g77
g58
NtRp3184
(dp3185
g61
(dp3186
g81
g82
ssg70
g3180
sg63
(lp3187
S'QUERY_STRING'
p3188
asbag56
(g77
g58
NtRp3189
(dp3190
g61
(dp3191
g88
g89
ssg70
g3180
sg63
(lp3192
S':'
asbag56
(g77
g58
NtRp3193
(dp3194
g61
(dp3195
sg70
g3180
sg63
(lp3196
g56
(g57
g58
NtRp3197
(dp3198
g61
(dp3199
g69
I3
ssg70
g3193
sg63
(lp3200
S''
asbasbasbag56
(g72
g58
NtRp3201
(dp3202
g61
(dp3203
sg70
g2903
sg63
(lp3204
g56
(g77
g58
NtRp3205
(dp3206
g61
(dp3207
g81
g82
ssg70
g3201
sg63
(lp3208
S'REMOTE_ADDR'
p3209
asbag56
(g77
g58
NtRp3210
(dp3211
g61
(dp3212
g88
g89
ssg70
g3201
sg63
(lp3213
S':'
asbag56
(g77
g58
NtRp3214
(dp3215
g61
(dp3216
sg70
g3201
sg63
(lp3217
g56
(g57
g58
NtRp3218
(dp3219
g61
(dp3220
g69
I3
ssg70
g3214
sg63
(lp3221
g189
asbasbasbag56
(g72
g58
NtRp3222
(dp3223
g61
(dp3224
sg70
g2903
sg63
(lp3225
g56
(g77
g58
NtRp3226
(dp3227
g61
(dp3228
g81
g82
ssg70
g3222
sg63
(lp3229
S'REMOTE_PORT'
p3230
asbag56
(g77
g58
NtRp3231
(dp3232
g61
(dp3233
g88
g89
ssg70
g3222
sg63
(lp3234
S':'
asbag56
(g77
g58
NtRp3235
(dp3236
g61
(dp3237
sg70
g3222
sg63
(lp3238
g56
(g57
g58
NtRp3239
(dp3240
g61
(dp3241
g69
I3
ssg70
g3235
sg63
(lp3242
g1719
asbasbasbag56
(g72
g58
NtRp3243
(dp3244
g61
(dp3245
sg70
g2903
sg63
(lp3246
g56
(g77
g58
NtRp3247
(dp3248
g61
(dp3249
g81
g82
ssg70
g3243
sg63
(lp3250
S'REQUEST_METHOD'
p3251
asbag56
(g77
g58
NtRp3252
(dp3253
g61
(dp3254
g88
g89
ssg70
g3243
sg63
(lp3255
S':'
asbag56
(g77
g58
NtRp3256
(dp3257
g61
(dp3258
sg70
g3243
sg63
(lp3259
g56
(g57
g58
NtRp3260
(dp3261
g61
(dp3262
g69
I3
ssg70
g3256
sg63
(lp3263
g1741
asbasbasbag56
(g72
g58
NtRp3264
(dp3265
g61
(dp3266
sg70
g2903
sg63
(lp3267
g56
(g77
g58
NtRp3268
(dp3269
g61
(dp3270
g81
g82
ssg70
g3264
sg63
(lp3271
S'SCRIPT_NAME'
p3272
asbag56
(g77
g58
NtRp3273
(dp3274
g61
(dp3275
g88
g89
ssg70
g3264
sg63
(lp3276
S':'
asbag56
(g77
g58
NtRp3277
(dp3278
g61
(dp3279
sg70
g3264
sg63
(lp3280
g56
(g57
g58
NtRp3281
(dp3282
g61
(dp3283
g69
I3
ssg70
g3277
sg63
(lp3284
S''
asbasbasbag56
(g72
g58
NtRp3285
(dp3286
g61
(dp3287
sg70
g2903
sg63
(lp3288
g56
(g77
g58
NtRp3289
(dp3290
g61
(dp3291
g81
g82
ssg70
g3285
sg63
(lp3292
S'SERVER_NAME'
p3293
asbag56
(g77
g58
NtRp3294
(dp3295
g61
(dp3296
g88
g89
ssg70
g3285
sg63
(lp3297
S':'
asbag56
(g77
g58
NtRp3298
(dp3299
g61
(dp3300
sg70
g3285
sg63
(lp3301
g56
(g57
g58
NtRp3302
(dp3303
g61
(dp3304
g69
I3
ssg70
g3298
sg63
(lp3305
g1784
asbasbasbag56
(g72
g58
NtRp3306
(dp3307
g61
(dp3308
sg70
g2903
sg63
(lp3309
g56
(g77
g58
NtRp3310
(dp3311
g61
(dp3312
g81
g82
ssg70
g3306
sg63
(lp3313
S'SERVER_PORT'
p3314
asbag56
(g77
g58
NtRp3315
(dp3316
g61
(dp3317
g88
g89
ssg70
g3306
sg63
(lp3318
S':'
asbag56
(g77
g58
NtRp3319
(dp3320
g61
(dp3321
sg70
g3306
sg63
(lp3322
g56
(g57
g58
NtRp3323
(dp3324
g61
(dp3325
g69
I3
ssg70
g3319
sg63
(lp3326
g1806
asbasbasbag56
(g72
g58
NtRp3327
(dp3328
g61
(dp3329
sg70
g2903
sg63
(lp3330
g56
(g77
g58
NtRp3331
(dp3332
g61
(dp3333
g81
g82
ssg70
g3327
sg63
(lp3334
S'SERVER_PROTOCOL'
p3335
asbag56
(g77
g58
NtRp3336
(dp3337
g61
(dp3338
g88
g89
ssg70
g3327
sg63
(lp3339
S':'
asbag56
(g77
g58
NtRp3340
(dp3341
g61
(dp3342
sg70
g3327
sg63
(lp3343
g56
(g57
g58
NtRp3344
(dp3345
g61
(dp3346
g69
I3
ssg70
g3340
sg63
(lp3347
g1828
asbasbasbag56
(g72
g58
NtRp3348
(dp3349
g61
(dp3350
sg70
g2903
sg63
(lp3351
g56
(g77
g58
NtRp3352
(dp3353
g61
(dp3354
g81
g82
ssg70
g3348
sg63
(lp3355
S'SERVER_SOFTWARE'
p3356
asbag56
(g77
g58
NtRp3357
(dp3358
g61
(dp3359
g88
g89
ssg70
g3348
sg63
(lp3360
S':'
asbag56
(g77
g58
NtRp3361
(dp3362
g61
(dp3363
sg70
g3348
sg63
(lp3364
g56
(g57
g58
NtRp3365
(dp3366
g61
(dp3367
g69
I3
ssg70
g3361
sg63
(lp3368
g1850
asbasbasbag56
(g72
g58
NtRp3369
(dp3370
g61
(dp3371
sg70
g2903
sg63
(lp3372
g56
(g77
g58
NtRp3373
(dp3374
g61
(dp3375
g81
g82
ssg70
g3369
sg63
(lp3376
S'wsgi.errors'
p3377
asbag56
(g77
g58
NtRp3378
(dp3379
g61
(dp3380
g88
g89
ssg70
g3369
sg63
(lp3381
S':'
asbag56
(g77
g58
NtRp3382
(dp3383
g61
(dp3384
sg70
g3369
sg63
(lp3385
g56
(g57
g58
NtRp3386
(dp3387
g61
(dp3388
g69
I3
ssg70
g3382
sg63
(lp3389
S"<open file '<stderr>', mode 'w' at 0xb738b0d0>"
p3390
asbasbasbag56
(g72
g58
NtRp3391
(dp3392
g61
(dp3393
sg70
g2903
sg63
(lp3394
g56
(g77
g58
NtRp3395
(dp3396
g61
(dp3397
g81
g82
ssg70
g3391
sg63
(lp3398
S'wsgi.file_wrapper'
p3399
asbag56
(g77
g58
NtRp3400
(dp3401
g61
(dp3402
g88
g89
ssg70
g3391
sg63
(lp3403
S':'
asbag56
(g77
g58
NtRp3404
(dp3405
g61
(dp3406
sg70
g3391
sg63
(lp3407
g56
(g57
g58
NtRp3408
(dp3409
g61
(dp3410
g69
I3
ssg70
g3404
sg63
(lp3411
S'<class wsgiref.util.FileWrapper at 0xa4ce92c>'
p3412
asbasbasbag56
(g72
g58
NtRp3413
(dp3414
g61
(dp3415
sg70
g2903
sg63
(lp3416
g56
(g77
g58
NtRp3417
(dp3418
g61
(dp3419
g81
g82
ssg70
g3413
sg63
(lp3420
S'wsgi.input'
p3421
asbag56
(g77
g58
NtRp3422
(dp3423
g61
(dp3424
g88
g89
ssg70
g3413
sg63
(lp3425
S':'
asbag56
(g77
g58
NtRp3426
(dp3427
g61
(dp3428
sg70
g3413
sg63
(lp3429
g56
(g57
g58
NtRp3430
(dp3431
g61
(dp3432
g69
I3
ssg70
g3426
sg63
(lp3433
S"<open file '<fdopen>', mode 'w+b' at 0xa8cfe90>"
p3434
asbasbasbag56
(g72
g58
NtRp3435
(dp3436
g61
(dp3437
sg70
g2903
sg63
(lp3438
g56
(g77
g58
NtRp3439
(dp3440
g61
(dp3441
g81
g82
ssg70
g3435
sg63
(lp3442
S'wsgi.multiprocess'
p3443
asbag56
(g77
g58
NtRp3444
(dp3445
g61
(dp3446
g88
g89
ssg70
g3435
sg63
(lp3447
S':'
asbag56
(g77
g58
NtRp3448
(dp3449
g61
(dp3450
sg70
g3435
sg63
(lp3451
g56
(g57
g58
NtRp3452
(dp3453
g61
(dp3454
g69
I3
ssg70
g3448
sg63
(lp3455
g99
asbasbasbag56
(g72
g58
NtRp3456
(dp3457
g61
(dp3458
sg70
g2903
sg63
(lp3459
g56
(g77
g58
NtRp3460
(dp3461
g61
(dp3462
g81
g82
ssg70
g3456
sg63
(lp3463
S'wsgi.multithread'
p3464
asbag56
(g77
g58
NtRp3465
(dp3466
g61
(dp3467
g88
g89
ssg70
g3456
sg63
(lp3468
S':'
asbag56
(g77
g58
NtRp3469
(dp3470
g61
(dp3471
sg70
g3456
sg63
(lp3472
g56
(g57
g58
NtRp3473
(dp3474
g61
(dp3475
g69
I3
ssg70
g3469
sg63
(lp3476
g2090
asbasbasbag56
(g72
g58
NtRp3477
(dp3478
g61
(dp3479
sg70
g2903
sg63
(lp3480
g56
(g77
g58
NtRp3481
(dp3482
g61
(dp3483
g81
g82
ssg70
g3477
sg63
(lp3484
S'wsgi.run_once'
p3485
asbag56
(g77
g58
NtRp3486
(dp3487
g61
(dp3488
g88
g89
ssg70
g3477
sg63
(lp3489
S':'
asbag56
(g77
g58
NtRp3490
(dp3491
g61
(dp3492
sg70
g3477
sg63
(lp3493
g56
(g57
g58
NtRp3494
(dp3495
g61
(dp3496
g69
I3
ssg70
g3490
sg63
(lp3497
g99
asbasbasbag56
(g72
g58
NtRp3498
(dp3499
g61
(dp3500
sg70
g2903
sg63
(lp3501
g56
(g77
g58
NtRp3502
(dp3503
g61
(dp3504
g81
g82
ssg70
g3498
sg63
(lp3505
S'wsgi.url_scheme'
p3506
asbag56
(g77
g58
NtRp3507
(dp3508
g61
(dp3509
g88
g89
ssg70
g3498
sg63
(lp3510
S':'
asbag56
(g77
g58
NtRp3511
(dp3512
g61
(dp3513
sg70
g3498
sg63
(lp3514
g56
(g57
g58
NtRp3515
(dp3516
g61
(dp3517
g69
I3
ssg70
g3511
sg63
(lp3518
g2133
asbasbasbag56
(g72
g58
NtRp3519
(dp3520
g61
(dp3521
sg70
g2903
sg63
(lp3522
g56
(g77
g58
NtRp3523
(dp3524
g61
(dp3525
g81
g82
ssg70
g3519
sg63
(lp3526
S'wsgi.version'
p3527
asbag56
(g77
g58
NtRp3528
(dp3529
g61
(dp3530
g88
g89
ssg70
g3519
sg63
(lp3531
S':'
asbag56
(g77
g58
NtRp3532
(dp3533
g61
(dp3534
sg70
g3519
sg63
(lp3535
g56
(g57
g58
NtRp3536
(dp3537
g61
(dp3538
g69
I3
ssg70
g3532
sg63
(lp3539
S'1'
asbasbasbasbasbasbasbasbasbasbasbasbasbsS'frames'
p3540
(lp3541
(dp3542
S'file'
p3543
S'/home/u4hcsdaw/Python/web2py/gluon/restricted.py'
p3544
sS'dump'
p3545
(dp3546
S'environment'
p3547
S"{'A': <class 'gluon.html.A'>, 'AcesCall': <function AcesCall>, 'Auth': <class 'gluon.tools.Auth'>, 'B': <class 'gluon.html.B'>, 'BEAUTIFY': <class 'gluon.html.BEAUTIFY'>, 'BODY': <class 'gluon.html.BODY'>, 'BR': <class 'gluon.html.BR'>, 'BUTTON': <class 'gluon.html.BUTTON'>, 'CAT': <class 'gluon.html.CAT'>, 'CENTER': <class 'gluon.html.CENTER'>, ...}"
p3548
sS'ccode'
p3549
S'<code object <module> at 0xa8b3a40, file "/home/...plications/ACES/controllers/default.py", line 12>'
p3550
ssS'lnum'
p3551
I194
sS'lines'
p3552
(dp3553
I192
S'        else:'
p3554
sI193
S'            ccode = compile2(code,layer)'
p3555
sI194
S'        exec ccode in environment'
p3556
sI195
S'    except HTTP:'
p3557
sI196
S'        raise'
p3558
sI197
S'    except Exception, error:'
p3559
sI198
S'        # XXX Show exception in Wing IDE if running in debugger'
p3560
sI189
S'    try:'
p3561
sI190
S'        if type(code) == types.CodeType:'
p3562
sI191
S'            ccode = code'
p3563
ssS'call'
p3564
S"(code='# -*- coding: utf-8 -*-\\n# this file is released ...=crud())\\n\\nresponse._vars=response._caller(index)\\n', environment={'A': <class 'gluon.html.A'>, 'AcesCall': <function AcesCall>, 'Auth': <class 'gluon.tools.Auth'>, 'B': <class 'gluon.html.B'>, 'BEAUTIFY': <class 'gluon.html.BEAUTIFY'>, 'BODY': <class 'gluon.html.BODY'>, 'BR': <class 'gluon.html.BR'>, 'BUTTON': <class 'gluon.html.BUTTON'>, 'CAT': <class 'gluon.html.CAT'>, 'CENTER': <class 'gluon.html.CENTER'>, ...}, layer='/home/u4hcsdaw/Python/web2py/applications/ACES/controllers/default.py')"
p3565
sS'func'
p3566
S'restricted'
p3567
sa(dp3568
g3543
S'/home/u4hcsdaw/Python/web2py/applications/ACES/controllers/default.py'
p3569
sg3545
(dp3570
sg3551
I78
sg3552
(dp3571
I67
S'    http://..../[app]/default/data/update/[table]/[id]'
p3572
sI68
S'    http://..../[app]/default/data/delete/[table]/[id]'
p3573
sI69
S'    http://..../[app]/default/data/select/[table]'
p3574
sI70
S'    http://..../[app]/default/data/search/[table]'
p3575
sI71
S'    but URLs bust be signed, i.e. linked with'
p3576
sI72
S"      A('table',_href=URL('data/tables',user_signature=True))"
p3577
sI73
S'    or with the signed load operator'
p3578
sI74
S"      LOAD('default','data.load',args='tables',ajax=True,user_signature=True)"
p3579
sI75
S'    """'
p3580
sI76
S'    return dict(form=crud())'
p3581
ssg3564
S'()'
p3582
sg3566
S'<module>'
p3583
sa(dp3584
g3543
S'/home/u4hcsdaw/Python/web2py/gluon/globals.py'
p3585
sg3545
(dp3586
S'self'
p3587
S'undefined'
p3588
sS'f'
S'<function index>'
p3589
ssg3551
I149
sg3552
(dp3590
I144
S'        self.meta = Storage()      # used by web2py_ajax.html'
p3591
sI145
S'        self.menu = []             # used by the default view layout'
p3592
sI146
S'        self.files = []            # used by web2py_ajax.html'
p3593
sI147
S'        self.generic_patterns = [] # patterns to allow generic views'
p3594
sI148
S'        self._vars = None'
p3595
sI149
S'        self._caller = lambda f: f()'
p3596
sI150
S'        self._view_environment = None'
p3597
sI151
S'        self._custom_commit = None'
p3598
sI152
S'        self._custom_rollback = None'
p3599
sI153
S''
ssg3564
S'(f=<function index>)'
p3600
sg3566
S'<lambda>'
p3601
sa(dp3602
g3543
S'/home/u4hcsdaw/Python/web2py/applications/ACES/controllers/default.py'
p3603
sg3545
(dp3604
S'global AcesCall'
p3605
S'<function AcesCall>'
p3606
sS'f1'
p3607
S'<gluon.html.FORM object>'
p3608
sS'f1.vars'
p3609
S"<Storage {'waveHeight': '0.85', 'subButton': 'Submit Query'}>"
p3610
sS't0'
p3611
S"''"
p3612
ssg3551
I23
sg3552
(dp3613
I18
S"    ip1=INPUT(_type='text', _name='waveHeight', _value='0.85')"
p3614
sI19
S"    sub1=INPUT(_type='submit',_name='subButton')"
p3615
sI20
S"    f1=FORM('wave',ip1,sub1,_name='Form1',_action='')"
p3616
sI21
S'    if f1.accepts(request.vars,session):'
p3617
sI22
S'        session.formVars=f1.vars'
p3618
sI23
S'        t0=AcesCall(f1.vars)'
p3619
sI24
S'    return dict(form=f1,t0=t0)'
p3620
sI25
S''
sI26
S'def user():'
p3621
sI27
S'    """'
p3622
ssg3564
S'()'
p3623
sg3566
S'index'
p3624
sa(dp3625
g3543
S'/home/u4hcsdaw/Python/web2py/applications/ACES/models/functionsAces.py'
p3626
sg3545
(dp3627
S'formVars'
p3628
S"<Storage {'waveHeight': '0.85', 'subButton': 'Submit Query'}>"
p3629
sS'WavePeriod'
p3630
g3588
ssg3551
I4
sg3552
(dp3631
I1
S''
sI2
S'def AcesCall(formVars):'
p3632
sI3
S"    WaveHeight=formVars['waveHeight']"
p3633
sI4
S"    WavePeriod=formVars['wavePeriod'] or 9.0"
p3634
sI5
S"    retString='%s %s' %(WaveHeight,WavePeriod)"
p3635
sI6
S'    return WaveHeight'
p3636
ssg3564
S"(formVars=<Storage {'waveHeight': '0.85', 'subButton': 'Submit Query'}>)"
p3637
sg3566
S'AcesCall'
p3638
sasS'pyver'
p3639
S'Python 2.7.3: /home/u4hcsdaw/Python/epd/bin/python2.7'
p3640
sS'session'
p3641
g56
(g57
g58
NtRp3642
(dp3643
g61
(dp3644
sg63
(lp3645
g56
(g65
g58
NtRp3646
(dp3647
g61
(dp3648
g69
I5
ssg70
Nsg63
(lp3649
g56
(g72
g58
NtRp3650
(dp3651
g61
(dp3652
sg70
g3646
sg63
(lp3653
g56
(g77
g58
NtRp3654
(dp3655
g61
(dp3656
g81
g82
ssg70
g3650
sg63
(lp3657
S'formVars'
p3658
asbag56
(g77
g58
NtRp3659
(dp3660
g61
(dp3661
g88
g89
ssg70
g3650
sg63
(lp3662
S':'
asbag56
(g77
g58
NtRp3663
(dp3664
g61
(dp3665
sg70
g3650
sg63
(lp3666
g56
(g57
g58
NtRp3667
(dp3668
g61
(dp3669
g69
I5
ssg70
g3663
sg63
(lp3670
g56
(g65
g58
NtRp3671
(dp3672
g61
(dp3673
g69
I4
ssg70
Nsg63
(lp3674
g56
(g72
g58
NtRp3675
(dp3676
g61
(dp3677
sg70
g3671
sg63
(lp3678
g56
(g77
g58
NtRp3679
(dp3680
g61
(dp3681
g81
g82
ssg70
g3675
sg63
(lp3682
S'subButton'
p3683
asbag56
(g77
g58
NtRp3684
(dp3685
g61
(dp3686
g88
g89
ssg70
g3675
sg63
(lp3687
S':'
asbag56
(g77
g58
NtRp3688
(dp3689
g61
(dp3690
sg70
g3675
sg63
(lp3691
g56
(g57
g58
NtRp3692
(dp3693
g61
(dp3694
g69
I4
ssg70
g3688
sg63
(lp3695
g2703
asbasbasbag56
(g72
g58
NtRp3696
(dp3697
g61
(dp3698
sg70
g3671
sg63
(lp3699
g56
(g77
g58
NtRp3700
(dp3701
g61
(dp3702
g81
g82
ssg70
g3696
sg63
(lp3703
S'waveHeight'
p3704
asbag56
(g77
g58
NtRp3705
(dp3706
g61
(dp3707
g88
g89
ssg70
g3696
sg63
(lp3708
S':'
asbag56
(g77
g58
NtRp3709
(dp3710
g61
(dp3711
sg70
g3696
sg63
(lp3712
g56
(g57
g58
NtRp3713
(dp3714
g61
(dp3715
g69
I4
ssg70
g3709
sg63
(lp3716
g2725
asbasbasbasbasbasbasbasbasbsS'etype'
p3717
S"<type 'exceptions.KeyError'>"
p3718
sS'date'
p3719
S'Tue Jun  5 16:16:10 2012'
p3720
sS'response'
p3721
g56
(g57
g58
NtRp3722
(dp3723
g61
(dp3724
sg63
(lp3725
g56
(g65
g58
NtRp3726
(dp3727
g61
(dp3728
g69
I5
ssg70
Nsg63
(lp3729
g56
(g72
g58
NtRp3730
(dp3731
g61
(dp3732
sg70
g3726
sg63
(lp3733
g56
(g77
g58
NtRp3734
(dp3735
g61
(dp3736
g81
g82
ssg70
g3730
sg63
(lp3737
g154
asbag56
(g77
g58
NtRp3738
(dp3739
g61
(dp3740
g88
g89
ssg70
g3730
sg63
(lp3741
S':'
asbag56
(g77
g58
NtRp3742
(dp3743
g61
(dp3744
sg70
g3730
sg63
(lp3745
g56
(g57
g58
NtRp3746
(dp3747
g61
(dp3748
g69
I5
ssg70
g3742
sg63
(lp3749
S'<cStringIO.StringO object at 0xafac5c0>'
p3750
asbasbasbag56
(g72
g58
NtRp3751
(dp3752
g61
(dp3753
sg70
g3726
sg63
(lp3754
g56
(g77
g58
NtRp3755
(dp3756
g61
(dp3757
g81
g82
ssg70
g3751
sg63
(lp3758
g220
asbag56
(g77
g58
NtRp3759
(dp3760
g61
(dp3761
g88
g89
ssg70
g3751
sg63
(lp3762
S':'
asbag56
(g77
g58
NtRp3763
(dp3764
g61
(dp3765
sg70
g3751
sg63
(lp3766
g56
(g57
g58
NtRp3767
(dp3768
g61
(dp3769
g69
I5
ssg70
g3763
sg63
(lp3770
g56
(g65
g58
NtRp3771
(dp3772
g61
(dp3773
g69
I4
ssg70
Nsg63
(lp3774
g56
(g72
g58
NtRp3775
(dp3776
g61
(dp3777
sg70
g3771
sg63
(lp3778
g56
(g77
g58
NtRp3779
(dp3780
g61
(dp3781
g81
g82
ssg70
g3775
sg63
(lp3782
S'session_id_aces'
p3783
asbag56
(g77
g58
NtRp3784
(dp3785
g61
(dp3786
g88
g89
ssg70
g3775
sg63
(lp3787
S':'
asbag56
(g77
g58
NtRp3788
(dp3789
g61
(dp3790
sg70
g3775
sg63
(lp3791
g56
(g57
g58
NtRp3792
(dp3793
g61
(dp3794
g69
I4
ssg70
g3788
sg63
(lp3795
g56
(g65
g58
NtRp3796
(dp3797
g61
(dp3798
g69
I3
ssg70
Nsg63
(lp3799
g56
(g72
g58
NtRp3800
(dp3801
g61
(dp3802
sg70
g3796
sg63
(lp3803
g56
(g77
g58
NtRp3804
(dp3805
g61
(dp3806
g81
g82
ssg70
g3800
sg63
(lp3807
g270
asbag56
(g77
g58
NtRp3808
(dp3809
g61
(dp3810
g88
g89
ssg70
g3800
sg63
(lp3811
S':'
asbag56
(g77
g58
NtRp3812
(dp3813
g61
(dp3814
sg70
g3800
sg63
(lp3815
g56
(g57
g58
NtRp3816
(dp3817
g61
(dp3818
g69
I3
ssg70
g3812
sg63
(lp3819
S''
asbasbasbag56
(g72
g58
NtRp3820
(dp3821
g61
(dp3822
sg70
g3796
sg63
(lp3823
g56
(g77
g58
NtRp3824
(dp3825
g61
(dp3826
g81
g82
ssg70
g3820
sg63
(lp3827
g291
asbag56
(g77
g58
NtRp3828
(dp3829
g61
(dp3830
g88
g89
ssg70
g3820
sg63
(lp3831
S':'
asbag56
(g77
g58
NtRp3832
(dp3833
g61
(dp3834
sg70
g3820
sg63
(lp3835
g56
(g57
g58
NtRp3836
(dp3837
g61
(dp3838
g69
I3
ssg70
g3832
sg63
(lp3839
S''
asbasbasbag56
(g72
g58
NtRp3840
(dp3841
g61
(dp3842
sg70
g3796
sg63
(lp3843
g56
(g77
g58
NtRp3844
(dp3845
g61
(dp3846
g81
g82
ssg70
g3840
sg63
(lp3847
g312
asbag56
(g77
g58
NtRp3848
(dp3849
g61
(dp3850
g88
g89
ssg70
g3840
sg63
(lp3851
S':'
asbag56
(g77
g58
NtRp3852
(dp3853
g61
(dp3854
sg70
g3840
sg63
(lp3855
g56
(g57
g58
NtRp3856
(dp3857
g61
(dp3858
g69
I3
ssg70
g3852
sg63
(lp3859
S''
asbasbasbag56
(g72
g58
NtRp3860
(dp3861
g61
(dp3862
sg70
g3796
sg63
(lp3863
g56
(g77
g58
NtRp3864
(dp3865
g61
(dp3866
g81
g82
ssg70
g3860
sg63
(lp3867
g333
asbag56
(g77
g58
NtRp3868
(dp3869
g61
(dp3870
g88
g89
ssg70
g3860
sg63
(lp3871
S':'
asbag56
(g77
g58
NtRp3872
(dp3873
g61
(dp3874
sg70
g3860
sg63
(lp3875
g56
(g57
g58
NtRp3876
(dp3877
g61
(dp3878
g69
I3
ssg70
g3872
sg63
(lp3879
S''
asbasbasbag56
(g72
g58
NtRp3880
(dp3881
g61
(dp3882
sg70
g3796
sg63
(lp3883
g56
(g77
g58
NtRp3884
(dp3885
g61
(dp3886
g81
g82
ssg70
g3880
sg63
(lp3887
g354
asbag56
(g77
g58
NtRp3888
(dp3889
g61
(dp3890
g88
g89
ssg70
g3880
sg63
(lp3891
S':'
asbag56
(g77
g58
NtRp3892
(dp3893
g61
(dp3894
sg70
g3880
sg63
(lp3895
g56
(g57
g58
NtRp3896
(dp3897
g61
(dp3898
g69
I3
ssg70
g3892
sg63
(lp3899
S''
asbasbasbag56
(g72
g58
NtRp3900
(dp3901
g61
(dp3902
sg70
g3796
sg63
(lp3903
g56
(g77
g58
NtRp3904
(dp3905
g61
(dp3906
g81
g82
ssg70
g3900
sg63
(lp3907
g375
asbag56
(g77
g58
NtRp3908
(dp3909
g61
(dp3910
g88
g89
ssg70
g3900
sg63
(lp3911
S':'
asbag56
(g77
g58
NtRp3912
(dp3913
g61
(dp3914
sg70
g3900
sg63
(lp3915
g56
(g57
g58
NtRp3916
(dp3917
g61
(dp3918
g69
I3
ssg70
g3912
sg63
(lp3919
S'/'
asbasbasbag56
(g72
g58
NtRp3920
(dp3921
g61
(dp3922
sg70
g3796
sg63
(lp3923
g56
(g77
g58
NtRp3924
(dp3925
g61
(dp3926
g81
g82
ssg70
g3920
sg63
(lp3927
g396
asbag56
(g77
g58
NtRp3928
(dp3929
g61
(dp3930
g88
g89
ssg70
g3920
sg63
(lp3931
S':'
asbag56
(g77
g58
NtRp3932
(dp3933
g61
(dp3934
sg70
g3920
sg63
(lp3935
g56
(g57
g58
NtRp3936
(dp3937
g61
(dp3938
g69
I3
ssg70
g3932
sg63
(lp3939
S''
asbasbasbag56
(g72
g58
NtRp3940
(dp3941
g61
(dp3942
sg70
g3796
sg63
(lp3943
g56
(g77
g58
NtRp3944
(dp3945
g61
(dp3946
g81
g82
ssg70
g3940
sg63
(lp3947
g417
asbag56
(g77
g58
NtRp3948
(dp3949
g61
(dp3950
g88
g89
ssg70
g3940
sg63
(lp3951
S':'
asbag56
(g77
g58
NtRp3952
(dp3953
g61
(dp3954
sg70
g3940
sg63
(lp3955
g56
(g57
g58
NtRp3956
(dp3957
g61
(dp3958
g69
I3
ssg70
g3952
sg63
(lp3959
S''
asbasbasbasbasbasbasbasbasbasbasbag56
(g72
g58
NtRp3960
(dp3961
g61
(dp3962
sg70
g3726
sg63
(lp3963
g56
(g77
g58
NtRp3964
(dp3965
g61
(dp3966
g81
g82
ssg70
g3960
sg63
(lp3967
S'files'
p3968
asbag56
(g77
g58
NtRp3969
(dp3970
g61
(dp3971
g88
g89
ssg70
g3960
sg63
(lp3972
S':'
asbag56
(g77
g58
NtRp3973
(dp3974
g61
(dp3975
sg70
g3960
sg63
(lp3976
g56
(g57
g58
NtRp3977
(dp3978
g61
(dp3979
g69
I5
ssg70
g3973
sg63
(lp3980
g56
(g65
g58
NtRp3981
(dp3982
g61
(dp3983
g69
I4
ssg70
Nsg63
(lp3984
sbasbasbasbag56
(g72
g58
NtRp3985
(dp3986
g61
(dp3987
sg70
g3726
sg63
(lp3988
g56
(g77
g58
NtRp3989
(dp3990
g61
(dp3991
g81
g82
ssg70
g3985
sg63
(lp3992
S'flash'
p3993
asbag56
(g77
g58
NtRp3994
(dp3995
g61
(dp3996
g88
g89
ssg70
g3985
sg63
(lp3997
S':'
asbag56
(g77
g58
NtRp3998
(dp3999
g61
(dp4000
sg70
g3985
sg63
(lp4001
g56
(g57
g58
NtRp4002
(dp4003
g61
(dp4004
g69
I5
ssg70
g3998
sg63
(lp4005
S''
asbasbasbag56
(g72
g58
NtRp4006
(dp4007
g61
(dp4008
sg70
g3726
sg63
(lp4009
g56
(g77
g58
NtRp4010
(dp4011
g61
(dp4012
g81
g82
ssg70
g4006
sg63
(lp4013
S'generic_patterns'
p4014
asbag56
(g77
g58
NtRp4015
(dp4016
g61
(dp4017
g88
g89
ssg70
g4006
sg63
(lp4018
S':'
asbag56
(g77
g58
NtRp4019
(dp4020
g61
(dp4021
sg70
g4006
sg63
(lp4022
g56
(g57
g58
NtRp4023
(dp4024
g61
(dp4025
g69
I5
ssg70
g4019
sg63
(lp4026
g56
(g65
g58
NtRp4027
(dp4028
g61
(dp4029
g69
I4
ssg70
Nsg63
(lp4030
g56
(g72
g58
NtRp4031
(dp4032
g61
(dp4033
sg70
g4027
sg63
(lp4034
g56
(g77
g58
NtRp4035
(dp4036
g61
(dp4037
sg70
g4031
sg63
(lp4038
g56
(g57
g58
NtRp4039
(dp4040
g61
(dp4041
g69
I4
ssg70
g4035
sg63
(lp4042
S'*'
asbasbasbasbasbasbasbag56
(g72
g58
NtRp4043
(dp4044
g61
(dp4045
sg70
g3726
sg63
(lp4046
g56
(g77
g58
NtRp4047
(dp4048
g61
(dp4049
g81
g82
ssg70
g4043
sg63
(lp4050
S'headers'
p4051
asbag56
(g77
g58
NtRp4052
(dp4053
g61
(dp4054
g88
g89
ssg70
g4043
sg63
(lp4055
S':'
asbag56
(g77
g58
NtRp4056
(dp4057
g61
(dp4058
sg70
g4043
sg63
(lp4059
g56
(g57
g58
NtRp4060
(dp4061
g61
(dp4062
g69
I5
ssg70
g4056
sg63
(lp4063
g56
(g65
g58
NtRp4064
(dp4065
g61
(dp4066
g69
I4
ssg70
Nsg63
(lp4067
g56
(g72
g58
NtRp4068
(dp4069
g61
(dp4070
sg70
g4064
sg63
(lp4071
g56
(g77
g58
NtRp4072
(dp4073
g61
(dp4074
g81
g82
ssg70
g4068
sg63
(lp4075
S'Cache-Control'
p4076
asbag56
(g77
g58
NtRp4077
(dp4078
g61
(dp4079
g88
g89
ssg70
g4068
sg63
(lp4080
S':'
asbag56
(g77
g58
NtRp4081
(dp4082
g61
(dp4083
sg70
g4068
sg63
(lp4084
g56
(g57
g58
NtRp4085
(dp4086
g61
(dp4087
g69
I4
ssg70
g4081
sg63
(lp4088
S'no-store, no-cache, must-revalidate, post-check=0, pre-check=0'
p4089
asbasbasbag56
(g72
g58
NtRp4090
(dp4091
g61
(dp4092
sg70
g4064
sg63
(lp4093
g56
(g77
g58
NtRp4094
(dp4095
g61
(dp4096
g81
g82
ssg70
g4090
sg63
(lp4097
S'Content-Type'
p4098
asbag56
(g77
g58
NtRp4099
(dp4100
g61
(dp4101
g88
g89
ssg70
g4090
sg63
(lp4102
S':'
asbag56
(g77
g58
NtRp4103
(dp4104
g61
(dp4105
sg70
g4090
sg63
(lp4106
g56
(g57
g58
NtRp4107
(dp4108
g61
(dp4109
g69
I4
ssg70
g4103
sg63
(lp4110
S'text/html; charset=utf-8'
p4111
asbasbasbag56
(g72
g58
NtRp4112
(dp4113
g61
(dp4114
sg70
g4064
sg63
(lp4115
g56
(g77
g58
NtRp4116
(dp4117
g61
(dp4118
g81
g82
ssg70
g4112
sg63
(lp4119
S'Expires'
p4120
asbag56
(g77
g58
NtRp4121
(dp4122
g61
(dp4123
g88
g89
ssg70
g4112
sg63
(lp4124
S':'
asbag56
(g77
g58
NtRp4125
(dp4126
g61
(dp4127
sg70
g4112
sg63
(lp4128
g56
(g57
g58
NtRp4129
(dp4130
g61
(dp4131
g69
I4
ssg70
g4125
sg63
(lp4132
S'Tue, 05 Jun 2012 21:16:10 GMT'
p4133
asbasbasbag56
(g72
g58
NtRp4134
(dp4135
g61
(dp4136
sg70
g4064
sg63
(lp4137
g56
(g77
g58
NtRp4138
(dp4139
g61
(dp4140
g81
g82
ssg70
g4134
sg63
(lp4141
S'Pragma'
p4142
asbag56
(g77
g58
NtRp4143
(dp4144
g61
(dp4145
g88
g89
ssg70
g4134
sg63
(lp4146
S':'
asbag56
(g77
g58
NtRp4147
(dp4148
g61
(dp4149
sg70
g4134
sg63
(lp4150
g56
(g57
g58
NtRp4151
(dp4152
g61
(dp4153
g69
I4
ssg70
g4147
sg63
(lp4154
S'no-cache'
p4155
asbasbasbag56
(g72
g58
NtRp4156
(dp4157
g61
(dp4158
sg70
g4064
sg63
(lp4159
g56
(g77
g58
NtRp4160
(dp4161
g61
(dp4162
g81
g82
ssg70
g4156
sg63
(lp4163
S'X-Powered-By'
p4164
asbag56
(g77
g58
NtRp4165
(dp4166
g61
(dp4167
g88
g89
ssg70
g4156
sg63
(lp4168
S':'
asbag56
(g77
g58
NtRp4169
(dp4170
g61
(dp4171
sg70
g4156
sg63
(lp4172
g56
(g57
g58
NtRp4173
(dp4174
g61
(dp4175
g69
I4
ssg70
g4169
sg63
(lp4176
S'web2py'
p4177
asbasbasbasbasbasbasbag56
(g72
g58
NtRp4178
(dp4179
g61
(dp4180
sg70
g3726
sg63
(lp4181
g56
(g77
g58
NtRp4182
(dp4183
g61
(dp4184
g81
g82
ssg70
g4178
sg63
(lp4185
S'menu'
p4186
asbag56
(g77
g58
NtRp4187
(dp4188
g61
(dp4189
g88
g89
ssg70
g4178
sg63
(lp4190
S':'
asbag56
(g77
g58
NtRp4191
(dp4192
g61
(dp4193
sg70
g4178
sg63
(lp4194
g56
(g57
g58
NtRp4195
(dp4196
g61
(dp4197
g69
I5
ssg70
g4191
sg63
(lp4198
g56
(g65
g58
NtRp4199
(dp4200
g61
(dp4201
g69
I4
ssg70
Nsg63
(lp4202
g56
(g72
g58
NtRp4203
(dp4204
g61
(dp4205
sg70
g4199
sg63
(lp4206
g56
(g77
g58
NtRp4207
(dp4208
g61
(dp4209
sg70
g4203
sg63
(lp4210
g56
(g57
g58
NtRp4211
(dp4212
g61
(dp4213
g69
I4
ssg70
g4207
sg63
(lp4214
g56
(g65
g58
NtRp4215
(dp4216
g61
(dp4217
g69
I3
ssg70
Nsg63
(lp4218
g56
(g72
g58
NtRp4219
(dp4220
g61
(dp4221
sg70
g4215
sg63
(lp4222
g56
(g77
g58
NtRp4223
(dp4224
g61
(dp4225
sg70
g4219
sg63
(lp4226
g56
(g57
g58
NtRp4227
(dp4228
g61
(dp4229
g69
I3
ssg70
g4223
sg63
(lp4230
cgluon.languages
lazyT_unpickle
p4231
(S't\x04\x00\x00\x00Home'
tRp4232
asbasbasbag56
(g72
g58
NtRp4233
(dp4234
g61
(dp4235
sg70
g4215
sg63
(lp4236
g56
(g77
g58
NtRp4237
(dp4238
g61
(dp4239
sg70
g4233
sg63
(lp4240
g56
(g57
g58
NtRp4241
(dp4242
g61
(dp4243
g69
I3
ssg70
g4237
sg63
(lp4244
g99
asbasbasbag56
(g72
g58
NtRp4245
(dp4246
g61
(dp4247
sg70
g4215
sg63
(lp4248
g56
(g77
g58
NtRp4249
(dp4250
g61
(dp4251
sg70
g4245
sg63
(lp4252
g56
(g57
g58
NtRp4253
(dp4254
g61
(dp4255
g69
I3
ssg70
g4249
sg63
(lp4256
S'/ACES/default/index'
p4257
asbasbasbag56
(g72
g58
NtRp4258
(dp4259
g61
(dp4260
sg70
g4215
sg63
(lp4261
g56
(g77
g58
NtRp4262
(dp4263
g61
(dp4264
sg70
g4258
sg63
(lp4265
g56
(g57
g58
NtRp4266
(dp4267
g61
(dp4268
g69
I3
ssg70
g4262
sg63
(lp4269
g56
(g65
g58
NtRp4270
(dp4271
g61
(dp4272
g69
I2
ssg70
Nsg63
(lp4273
sbasbasbasbasbasbasbasbag56
(g72
g58
NtRp4274
(dp4275
g61
(dp4276
sg70
g4199
sg63
(lp4277
g56
(g77
g58
NtRp4278
(dp4279
g61
(dp4280
sg70
g4274
sg63
(lp4281
g56
(g57
g58
NtRp4282
(dp4283
g61
(dp4284
g69
I4
ssg70
g4278
sg63
(lp4285
g56
(g65
g58
NtRp4286
(dp4287
g61
(dp4288
g69
I3
ssg70
Nsg63
(lp4289
g56
(g72
g58
NtRp4290
(dp4291
g61
(dp4292
sg70
g4286
sg63
(lp4293
g56
(g77
g58
NtRp4294
(dp4295
g61
(dp4296
sg70
g4290
sg63
(lp4297
g56
(g57
g58
NtRp4298
(dp4299
g61
(dp4300
g69
I3
ssg70
g4294
sg63
(lp4301
g4231
(S's\x08\x00\x00\x00This App'
tRp4302
asbasbasbag56
(g72
g58
NtRp4303
(dp4304
g61
(dp4305
sg70
g4286
sg63
(lp4306
g56
(g77
g58
NtRp4307
(dp4308
g61
(dp4309
sg70
g4303
sg63
(lp4310
g56
(g57
g58
NtRp4311
(dp4312
g61
(dp4313
g69
I3
ssg70
g4307
sg63
(lp4314
g99
asbasbasbag56
(g72
g58
NtRp4315
(dp4316
g61
(dp4317
sg70
g4286
sg63
(lp4318
g56
(g77
g58
NtRp4319
(dp4320
g61
(dp4321
sg70
g4315
sg63
(lp4322
g56
(g57
g58
NtRp4323
(dp4324
g61
(dp4325
g69
I3
ssg70
g4319
sg63
(lp4326
S'/admin/default/design/ACES'
p4327
asbasbasbag56
(g72
g58
NtRp4328
(dp4329
g61
(dp4330
sg70
g4286
sg63
(lp4331
g56
(g77
g58
NtRp4332
(dp4333
g61
(dp4334
sg70
g4328
sg63
(lp4335
g56
(g57
g58
NtRp4336
(dp4337
g61
(dp4338
g69
I3
ssg70
g4332
sg63
(lp4339
g56
(g65
g58
NtRp4340
(dp4341
g61
(dp4342
g69
I2
ssg70
Nsg63
(lp4343
g56
(g72
g58
NtRp4344
(dp4345
g61
(dp4346
sg70
g4340
sg63
(lp4347
g56
(g77
g58
NtRp4348
(dp4349
g61
(dp4350
sg70
g4344
sg63
(lp4351
g56
(g57
g58
NtRp4352
(dp4353
g61
(dp4354
g69
I2
ssg70
g4348
sg63
(lp4355
g56
(g65
g58
NtRp4356
(dp4357
g61
(dp4358
g69
I1
ssg70
Nsg63
(lp4359
g56
(g72
g58
NtRp4360
(dp4361
g61
(dp4362
sg70
g4356
sg63
(lp4363
g56
(g77
g58
NtRp4364
(dp4365
g61
(dp4366
sg70
g4360
sg63
(lp4367
g56
(g57
g58
NtRp4368
(dp4369
g61
(dp4370
g69
I1
ssg70
g4364
sg63
(lp4371
g4231
(S't\n\x00\x00\x00Controller'
tRp4372
asbasbasbag56
(g72
g58
NtRp4373
(dp4374
g61
(dp4375
sg70
g4356
sg63
(lp4376
g56
(g77
g58
NtRp4377
(dp4378
g61
(dp4379
sg70
g4373
sg63
(lp4380
g56
(g57
g58
NtRp4381
(dp4382
g61
(dp4383
g69
I1
ssg70
g4377
sg63
(lp4384
I00
asbasbasbag56
(g72
g58
NtRp4385
(dp4386
g61
(dp4387
sg70
g4356
sg63
(lp4388
g56
(g77
g58
NtRp4389
(dp4390
g61
(dp4391
sg70
g4385
sg63
(lp4392
g56
(g57
g58
NtRp4393
(dp4394
g61
(dp4395
g69
I1
ssg70
g4389
sg63
(lp4396
S'/admin/default/edit/ACES/controllers/default.py'
p4397
asbasbasbasbasbasbasbag56
(g72
g58
NtRp4398
(dp4399
g61
(dp4400
sg70
g4340
sg63
(lp4401
g56
(g77
g58
NtRp4402
(dp4403
g61
(dp4404
sg70
g4398
sg63
(lp4405
g56
(g57
g58
NtRp4406
(dp4407
g61
(dp4408
g69
I2
ssg70
g4402
sg63
(lp4409
g56
(g65
g58
NtRp4410
(dp4411
g61
(dp4412
g69
I1
ssg70
Nsg63
(lp4413
g56
(g72
g58
NtRp4414
(dp4415
g61
(dp4416
sg70
g4410
sg63
(lp4417
g56
(g77
g58
NtRp4418
(dp4419
g61
(dp4420
sg70
g4414
sg63
(lp4421
g56
(g57
g58
NtRp4422
(dp4423
g61
(dp4424
g69
I1
ssg70
g4418
sg63
(lp4425
g4231
(S't\x04\x00\x00\x00View'
tRp4426
asbasbasbag56
(g72
g58
NtRp4427
(dp4428
g61
(dp4429
sg70
g4410
sg63
(lp4430
g56
(g77
g58
NtRp4431
(dp4432
g61
(dp4433
sg70
g4427
sg63
(lp4434
g56
(g57
g58
NtRp4435
(dp4436
g61
(dp4437
g69
I1
ssg70
g4431
sg63
(lp4438
I00
asbasbasbag56
(g72
g58
NtRp4439
(dp4440
g61
(dp4441
sg70
g4410
sg63
(lp4442
g56
(g77
g58
NtRp4443
(dp4444
g61
(dp4445
sg70
g4439
sg63
(lp4446
g56
(g57
g58
NtRp4447
(dp4448
g61
(dp4449
g69
I1
ssg70
g4443
sg63
(lp4450
S'/admin/default/edit/ACES/views/default/index.html'
p4451
asbasbasbasbasbasbasbag56
(g72
g58
NtRp4452
(dp4453
g61
(dp4454
sg70
g4340
sg63
(lp4455
g56
(g77
g58
NtRp4456
(dp4457
g61
(dp4458
sg70
g4452
sg63
(lp4459
g56
(g57
g58
NtRp4460
(dp4461
g61
(dp4462
g69
I2
ssg70
g4456
sg63
(lp4463
g56
(g65
g58
NtRp4464
(dp4465
g61
(dp4466
g69
I1
ssg70
Nsg63
(lp4467
g56
(g72
g58
NtRp4468
(dp4469
g61
(dp4470
sg70
g4464
sg63
(lp4471
g56
(g77
g58
NtRp4472
(dp4473
g61
(dp4474
sg70
g4468
sg63
(lp4475
g56
(g57
g58
NtRp4476
(dp4477
g61
(dp4478
g69
I1
ssg70
g4472
sg63
(lp4479
g4231
(S't\x06\x00\x00\x00Layout'
tRp4480
asbasbasbag56
(g72
g58
NtRp4481
(dp4482
g61
(dp4483
sg70
g4464
sg63
(lp4484
g56
(g77
g58
NtRp4485
(dp4486
g61
(dp4487
sg70
g4481
sg63
(lp4488
g56
(g57
g58
NtRp4489
(dp4490
g61
(dp4491
g69
I1
ssg70
g4485
sg63
(lp4492
I00
asbasbasbag56
(g72
g58
NtRp4493
(dp4494
g61
(dp4495
sg70
g4464
sg63
(lp4496
g56
(g77
g58
NtRp4497
(dp4498
g61
(dp4499
sg70
g4493
sg63
(lp4500
g56
(g57
g58
NtRp4501
(dp4502
g61
(dp4503
g69
I1
ssg70
g4497
sg63
(lp4504
S'/admin/default/edit/ACES/views/layout.html'
p4505
asbasbasbasbasbasbasbag56
(g72
g58
NtRp4506
(dp4507
g61
(dp4508
sg70
g4340
sg63
(lp4509
g56
(g77
g58
NtRp4510
(dp4511
g61
(dp4512
sg70
g4506
sg63
(lp4513
g56
(g57
g58
NtRp4514
(dp4515
g61
(dp4516
g69
I2
ssg70
g4510
sg63
(lp4517
g56
(g65
g58
NtRp4518
(dp4519
g61
(dp4520
g69
I1
ssg70
Nsg63
(lp4521
g56
(g72
g58
NtRp4522
(dp4523
g61
(dp4524
sg70
g4518
sg63
(lp4525
g56
(g77
g58
NtRp4526
(dp4527
g61
(dp4528
sg70
g4522
sg63
(lp4529
g56
(g57
g58
NtRp4530
(dp4531
g61
(dp4532
g69
I1
ssg70
g4526
sg63
(lp4533
g4231
(S't\n\x00\x00\x00Stylesheet'
tRp4534
asbasbasbag56
(g72
g58
NtRp4535
(dp4536
g61
(dp4537
sg70
g4518
sg63
(lp4538
g56
(g77
g58
NtRp4539
(dp4540
g61
(dp4541
sg70
g4535
sg63
(lp4542
g56
(g57
g58
NtRp4543
(dp4544
g61
(dp4545
g69
I1
ssg70
g4539
sg63
(lp4546
I00
asbasbasbag56
(g72
g58
NtRp4547
(dp4548
g61
(dp4549
sg70
g4518
sg63
(lp4550
g56
(g77
g58
NtRp4551
(dp4552
g61
(dp4553
sg70
g4547
sg63
(lp4554
g56
(g57
g58
NtRp4555
(dp4556
g61
(dp4557
g69
I1
ssg70
g4551
sg63
(lp4558
S'/admin/default/edit/ACES/static/base.css'
p4559
asbasbasbasbasbasbasbag56
(g72
g58
NtRp4560
(dp4561
g61
(dp4562
sg70
g4340
sg63
(lp4563
g56
(g77
g58
NtRp4564
(dp4565
g61
(dp4566
sg70
g4560
sg63
(lp4567
g56
(g57
g58
NtRp4568
(dp4569
g61
(dp4570
g69
I2
ssg70
g4564
sg63
(lp4571
g56
(g65
g58
NtRp4572
(dp4573
g61
(dp4574
g69
I1
ssg70
Nsg63
(lp4575
g56
(g72
g58
NtRp4576
(dp4577
g61
(dp4578
sg70
g4572
sg63
(lp4579
g56
(g77
g58
NtRp4580
(dp4581
g61
(dp4582
sg70
g4576
sg63
(lp4583
g56
(g57
g58
NtRp4584
(dp4585
g61
(dp4586
g69
I1
ssg70
g4580
sg63
(lp4587
g4231
(S's\x08\x00\x00\x00DB Model'
tRp4588
asbasbasbag56
(g72
g58
NtRp4589
(dp4590
g61
(dp4591
sg70
g4572
sg63
(lp4592
g56
(g77
g58
NtRp4593
(dp4594
g61
(dp4595
sg70
g4589
sg63
(lp4596
g56
(g57
g58
NtRp4597
(dp4598
g61
(dp4599
g69
I1
ssg70
g4593
sg63
(lp4600
I00
asbasbasbag56
(g72
g58
NtRp4601
(dp4602
g61
(dp4603
sg70
g4572
sg63
(lp4604
g56
(g77
g58
NtRp4605
(dp4606
g61
(dp4607
sg70
g4601
sg63
(lp4608
g56
(g57
g58
NtRp4609
(dp4610
g61
(dp4611
g69
I1
ssg70
g4605
sg63
(lp4612
S'/admin/default/edit/ACES/models/db.py'
p4613
asbasbasbasbasbasbasbag56
(g72
g58
NtRp4614
(dp4615
g61
(dp4616
sg70
g4340
sg63
(lp4617
g56
(g77
g58
NtRp4618
(dp4619
g61
(dp4620
sg70
g4614
sg63
(lp4621
g56
(g57
g58
NtRp4622
(dp4623
g61
(dp4624
g69
I2
ssg70
g4618
sg63
(lp4625
g56
(g65
g58
NtRp4626
(dp4627
g61
(dp4628
g69
I1
ssg70
Nsg63
(lp4629
g56
(g72
g58
NtRp4630
(dp4631
g61
(dp4632
sg70
g4626
sg63
(lp4633
g56
(g77
g58
NtRp4634
(dp4635
g61
(dp4636
sg70
g4630
sg63
(lp4637
g56
(g57
g58
NtRp4638
(dp4639
g61
(dp4640
g69
I1
ssg70
g4634
sg63
(lp4641
g4231
(S's\n\x00\x00\x00Menu Model'
tRp4642
asbasbasbag56
(g72
g58
NtRp4643
(dp4644
g61
(dp4645
sg70
g4626
sg63
(lp4646
g56
(g77
g58
NtRp4647
(dp4648
g61
(dp4649
sg70
g4643
sg63
(lp4650
g56
(g57
g58
NtRp4651
(dp4652
g61
(dp4653
g69
I1
ssg70
g4647
sg63
(lp4654
I00
asbasbasbag56
(g72
g58
NtRp4655
(dp4656
g61
(dp4657
sg70
g4626
sg63
(lp4658
g56
(g77
g58
NtRp4659
(dp4660
g61
(dp4661
sg70
g4655
sg63
(lp4662
g56
(g57
g58
NtRp4663
(dp4664
g61
(dp4665
g69
I1
ssg70
g4659
sg63
(lp4666
S'/admin/default/edit/ACES/models/menu.py'
p4667
asbasbasbasbasbasbasbag56
(g72
g58
NtRp4668
(dp4669
g61
(dp4670
sg70
g4340
sg63
(lp4671
g56
(g77
g58
NtRp4672
(dp4673
g61
(dp4674
sg70
g4668
sg63
(lp4675
g56
(g57
g58
NtRp4676
(dp4677
g61
(dp4678
g69
I2
ssg70
g4672
sg63
(lp4679
g56
(g65
g58
NtRp4680
(dp4681
g61
(dp4682
g69
I1
ssg70
Nsg63
(lp4683
g56
(g72
g58
NtRp4684
(dp4685
g61
(dp4686
sg70
g4680
sg63
(lp4687
g56
(g77
g58
NtRp4688
(dp4689
g61
(dp4690
sg70
g4684
sg63
(lp4691
g56
(g57
g58
NtRp4692
(dp4693
g61
(dp4694
g69
I1
ssg70
g4688
sg63
(lp4695
g4231
(S't\x08\x00\x00\x00Database'
tRp4696
asbasbasbag56
(g72
g58
NtRp4697
(dp4698
g61
(dp4699
sg70
g4680
sg63
(lp4700
g56
(g77
g58
NtRp4701
(dp4702
g61
(dp4703
sg70
g4697
sg63
(lp4704
g56
(g57
g58
NtRp4705
(dp4706
g61
(dp4707
g69
I1
ssg70
g4701
sg63
(lp4708
I00
asbasbasbag56
(g72
g58
NtRp4709
(dp4710
g61
(dp4711
sg70
g4680
sg63
(lp4712
g56
(g77
g58
NtRp4713
(dp4714
g61
(dp4715
sg70
g4709
sg63
(lp4716
g56
(g57
g58
NtRp4717
(dp4718
g61
(dp4719
g69
I1
ssg70
g4713
sg63
(lp4720
S'/ACES/appadmin/index'
p4721
asbasbasbasbasbasbasbag56
(g72
g58
NtRp4722
(dp4723
g61
(dp4724
sg70
g4340
sg63
(lp4725
g56
(g77
g58
NtRp4726
(dp4727
g61
(dp4728
sg70
g4722
sg63
(lp4729
g56
(g57
g58
NtRp4730
(dp4731
g61
(dp4732
g69
I2
ssg70
g4726
sg63
(lp4733
g56
(g65
g58
NtRp4734
(dp4735
g61
(dp4736
g69
I1
ssg70
Nsg63
(lp4737
g56
(g72
g58
NtRp4738
(dp4739
g61
(dp4740
sg70
g4734
sg63
(lp4741
g56
(g77
g58
NtRp4742
(dp4743
g61
(dp4744
sg70
g4738
sg63
(lp4745
g56
(g57
g58
NtRp4746
(dp4747
g61
(dp4748
g69
I1
ssg70
g4742
sg63
(lp4749
g4231
(S't\x06\x00\x00\x00Errors'
tRp4750
asbasbasbag56
(g72
g58
NtRp4751
(dp4752
g61
(dp4753
sg70
g4734
sg63
(lp4754
g56
(g77
g58
NtRp4755
(dp4756
g61
(dp4757
sg70
g4751
sg63
(lp4758
g56
(g57
g58
NtRp4759
(dp4760
g61
(dp4761
g69
I1
ssg70
g4755
sg63
(lp4762
I00
asbasbasbag56
(g72
g58
NtRp4763
(dp4764
g61
(dp4765
sg70
g4734
sg63
(lp4766
g56
(g77
g58
NtRp4767
(dp4768
g61
(dp4769
sg70
g4763
sg63
(lp4770
g56
(g57
g58
NtRp4771
(dp4772
g61
(dp4773
g69
I1
ssg70
g4767
sg63
(lp4774
S'/admin/default/errors/ACES'
p4775
asbasbasbasbasbasbasbag56
(g72
g58
NtRp4776
(dp4777
g61
(dp4778
sg70
g4340
sg63
(lp4779
g56
(g77
g58
NtRp4780
(dp4781
g61
(dp4782
sg70
g4776
sg63
(lp4783
g56
(g57
g58
NtRp4784
(dp4785
g61
(dp4786
g69
I2
ssg70
g4780
sg63
(lp4787
g56
(g65
g58
NtRp4788
(dp4789
g61
(dp4790
g69
I1
ssg70
Nsg63
(lp4791
g56
(g72
g58
NtRp4792
(dp4793
g61
(dp4794
sg70
g4788
sg63
(lp4795
g56
(g77
g58
NtRp4796
(dp4797
g61
(dp4798
sg70
g4792
sg63
(lp4799
g56
(g57
g58
NtRp4800
(dp4801
g61
(dp4802
g69
I1
ssg70
g4796
sg63
(lp4803
g4231
(S't\x05\x00\x00\x00About'
tRp4804
asbasbasbag56
(g72
g58
NtRp4805
(dp4806
g61
(dp4807
sg70
g4788
sg63
(lp4808
g56
(g77
g58
NtRp4809
(dp4810
g61
(dp4811
sg70
g4805
sg63
(lp4812
g56
(g57
g58
NtRp4813
(dp4814
g61
(dp4815
g69
I1
ssg70
g4809
sg63
(lp4816
I00
asbasbasbag56
(g72
g58
NtRp4817
(dp4818
g61
(dp4819
sg70
g4788
sg63
(lp4820
g56
(g77
g58
NtRp4821
(dp4822
g61
(dp4823
sg70
g4817
sg63
(lp4824
g56
(g57
g58
NtRp4825
(dp4826
g61
(dp4827
g69
I1
ssg70
g4821
sg63
(lp4828
S'/admin/default/about/ACES'
p4829
asbasbasbasbasbasbasbasbasbasbasbasbasbasbasbag56
(g72
g58
NtRp4830
(dp4831
g61
(dp4832
sg70
g4199
sg63
(lp4833
g56
(g77
g58
NtRp4834
(dp4835
g61
(dp4836
sg70
g4830
sg63
(lp4837
g56
(g57
g58
NtRp4838
(dp4839
g61
(dp4840
g69
I4
ssg70
g4834
sg63
(lp4841
g56
(g65
g58
NtRp4842
(dp4843
g61
(dp4844
g69
I3
ssg70
Nsg63
(lp4845
g56
(g72
g58
NtRp4846
(dp4847
g61
(dp4848
sg70
g4842
sg63
(lp4849
g56
(g77
g58
NtRp4850
(dp4851
g61
(dp4852
sg70
g4846
sg63
(lp4853
g56
(g57
g58
NtRp4854
(dp4855
g61
(dp4856
g69
I3
ssg70
g4850
sg63
(lp4857
g4231
(S't\t\x00\x00\x00Resources'
tRp4858
asbasbasbag56
(g72
g58
NtRp4859
(dp4860
g61
(dp4861
sg70
g4842
sg63
(lp4862
g56
(g77
g58
NtRp4863
(dp4864
g61
(dp4865
sg70
g4859
sg63
(lp4866
g56
(g57
g58
NtRp4867
(dp4868
g61
(dp4869
g69
I3
ssg70
g4863
sg63
(lp4870
g99
asbasbasbag56
(g72
g58
NtRp4871
(dp4872
g61
(dp4873
sg70
g4842
sg63
(lp4874
g56
(g77
g58
NtRp4875
(dp4876
g61
(dp4877
sg70
g4871
sg63
(lp4878
g56
(g57
g58
NtRp4879
(dp4880
g61
(dp4881
g69
I3
ssg70
g4875
sg63
(lp4882
S'None'
p4883
asbasbasbag56
(g72
g58
NtRp4884
(dp4885
g61
(dp4886
sg70
g4842
sg63
(lp4887
g56
(g77
g58
NtRp4888
(dp4889
g61
(dp4890
sg70
g4884
sg63
(lp4891
g56
(g57
g58
NtRp4892
(dp4893
g61
(dp4894
g69
I3
ssg70
g4888
sg63
(lp4895
g56
(g65
g58
NtRp4896
(dp4897
g61
(dp4898
g69
I2
ssg70
Nsg63
(lp4899
g56
(g72
g58
NtRp4900
(dp4901
g61
(dp4902
sg70
g4896
sg63
(lp4903
g56
(g77
g58
NtRp4904
(dp4905
g61
(dp4906
sg70
g4900
sg63
(lp4907
g56
(g57
g58
NtRp4908
(dp4909
g61
(dp4910
g69
I2
ssg70
g4904
sg63
(lp4911
g56
(g65
g58
NtRp4912
(dp4913
g61
(dp4914
g69
I1
ssg70
Nsg63
(lp4915
g56
(g72
g58
NtRp4916
(dp4917
g61
(dp4918
sg70
g4912
sg63
(lp4919
g56
(g77
g58
NtRp4920
(dp4921
g61
(dp4922
sg70
g4916
sg63
(lp4923
g56
(g57
g58
NtRp4924
(dp4925
g61
(dp4926
g69
I1
ssg70
g4920
sg63
(lp4927
g4231
(S't\r\x00\x00\x00Documentation'
tRp4928
asbasbasbag56
(g72
g58
NtRp4929
(dp4930
g61
(dp4931
sg70
g4912
sg63
(lp4932
g56
(g77
g58
NtRp4933
(dp4934
g61
(dp4935
sg70
g4929
sg63
(lp4936
g56
(g57
g58
NtRp4937
(dp4938
g61
(dp4939
g69
I1
ssg70
g4933
sg63
(lp4940
I00
asbasbasbag56
(g72
g58
NtRp4941
(dp4942
g61
(dp4943
sg70
g4912
sg63
(lp4944
g56
(g77
g58
NtRp4945
(dp4946
g61
(dp4947
sg70
g4941
sg63
(lp4948
g56
(g57
g58
NtRp4949
(dp4950
g61
(dp4951
g69
I1
ssg70
g4945
sg63
(lp4952
S'http://www.web2py.com/book'
p4953
asbasbasbag56
(g72
g58
NtRp4954
(dp4955
g61
(dp4956
sg70
g4912
sg63
(lp4957
g56
(g77
g58
NtRp4958
(dp4959
g61
(dp4960
sg70
g4954
sg63
(lp4961
g56
(g57
g58
NtRp4962
(dp4963
g61
(dp4964
g69
I1
ssg70
g4958
sg63
(lp4965
(lp4966
(g4231
(S't\x07\x00\x00\x00Preface'
tRp4967
I00
S'http://www.web2py.com/book/default/chapter/00'
p4968
tp4969
a(g4231
(S't\x0c\x00\x00\x00Introduction'
tRp4970
I00
S'http://www.web2py.com/book/default/chapter/01'
p4971
tp4972
a(g4231
(S't\x06\x00\x00\x00Python'
tRp4973
I00
S'http://www.web2py.com/book/default/chapter/02'
p4974
tp4975
a(g4231
(S't\x08\x00\x00\x00Overview'
tRp4976
I00
S'http://www.web2py.com/book/default/chapter/03'
p4977
tp4978
a(g4231
(S's\x08\x00\x00\x00The Core'
tRp4979
I00
S'http://www.web2py.com/book/default/chapter/04'
p4980
tp4981
a(g4231
(S's\t\x00\x00\x00The Views'
tRp4982
I00
S'http://www.web2py.com/book/default/chapter/05'
p4983
tp4984
a(g4231
(S't\x08\x00\x00\x00Database'
tRp4985
I00
S'http://www.web2py.com/book/default/chapter/06'
p4986
tp4987
a(g4231
(S's\x14\x00\x00\x00Forms and Validators'
tRp4988
I00
S'http://www.web2py.com/book/default/chapter/07'
p4989
tp4990
a(g4231
(S's\x0e\x00\x00\x00Access Control'
tRp4991
I00
S'http://www.web2py.com/book/default/chapter/08'
p4992
tp4993
a(g4231
(S't\x08\x00\x00\x00Services'
tRp4994
I00
S'http://www.web2py.com/book/default/chapter/09'
p4995
tp4996
a(g4231
(S's\x0c\x00\x00\x00Ajax Recipes'
tRp4997
I00
S'http://www.web2py.com/book/default/chapter/10'
p4998
tp4999
a(g4231
(S's\x12\x00\x00\x00Deployment Recipes'
tRp5000
I00
S'http://www.web2py.com/book/default/chapter/11'
p5001
tp5002
a(g4231
(S's\r\x00\x00\x00Other Recipes'
tRp5003
I00
S'http://www.web2py.com/book/default/chapter/12'
p5004
tp5005
a(g4231
(S's\r\x00\x00\x00Buy this book'
tRp5006
I00
S'http://stores.lulu.com/web2py'
p5007
tp5008
aasbasbasbasbasbasbasbag56
(g72
g58
NtRp5009
(dp5010
g61
(dp5011
sg70
g4896
sg63
(lp5012
g56
(g77
g58
NtRp5013
(dp5014
g61
(dp5015
sg70
g5009
sg63
(lp5016
g56
(g57
g58
NtRp5017
(dp5018
g61
(dp5019
g69
I2
ssg70
g5013
sg63
(lp5020
g56
(g65
g58
NtRp5021
(dp5022
g61
(dp5023
g69
I1
ssg70
Nsg63
(lp5024
g56
(g72
g58
NtRp5025
(dp5026
g61
(dp5027
sg70
g5021
sg63
(lp5028
g56
(g77
g58
NtRp5029
(dp5030
g61
(dp5031
sg70
g5025
sg63
(lp5032
g56
(g57
g58
NtRp5033
(dp5034
g61
(dp5035
g69
I1
ssg70
g5029
sg63
(lp5036
g4231
(S't\t\x00\x00\x00Community'
tRp5037
asbasbasbag56
(g72
g58
NtRp5038
(dp5039
g61
(dp5040
sg70
g5021
sg63
(lp5041
g56
(g77
g58
NtRp5042
(dp5043
g61
(dp5044
sg70
g5038
sg63
(lp5045
g56
(g57
g58
NtRp5046
(dp5047
g61
(dp5048
g69
I1
ssg70
g5042
sg63
(lp5049
I00
asbasbasbag56
(g72
g58
NtRp5050
(dp5051
g61
(dp5052
sg70
g5021
sg63
(lp5053
g56
(g77
g58
NtRp5054
(dp5055
g61
(dp5056
sg70
g5050
sg63
(lp5057
g56
(g57
g58
NtRp5058
(dp5059
g61
(dp5060
g69
I1
ssg70
g5054
sg63
(lp5061
Nasbasbasbag56
(g72
g58
NtRp5062
(dp5063
g61
(dp5064
sg70
g5021
sg63
(lp5065
g56
(g77
g58
NtRp5066
(dp5067
g61
(dp5068
sg70
g5062
sg63
(lp5069
g56
(g57
g58
NtRp5070
(dp5071
g61
(dp5072
g69
I1
ssg70
g5066
sg63
(lp5073
(lp5074
(g4231
(S't\x06\x00\x00\x00Groups'
tRp5075
I00
S'http://www.web2py.com/examples/default/usergroups'
p5076
tp5077
a(g4231
(S't\x07\x00\x00\x00Twitter'
tRp5078
I00
S'http://twitter.com/web2py'
p5079
tp5080
a(g4231
(S's\t\x00\x00\x00Live chat'
tRp5081
I00
S'http://mibbit.com/?channel=%23web2py&server=irc.mibbit.net'
p5082
tp5083
a(g4231
(S's\n\x00\x00\x00User Voice'
tRp5084
I00
S'http://web2py.uservoice.com/'
p5085
tp5086
aasbasbasbasbasbasbasbag56
(g72
g58
NtRp5087
(dp5088
g61
(dp5089
sg70
g4896
sg63
(lp5090
g56
(g77
g58
NtRp5091
(dp5092
g61
(dp5093
sg70
g5087
sg63
(lp5094
g56
(g57
g58
NtRp5095
(dp5096
g61
(dp5097
g69
I2
ssg70
g5091
sg63
(lp5098
g56
(g65
g58
NtRp5099
(dp5100
g61
(dp5101
g69
I1
ssg70
Nsg63
(lp5102
g56
(g72
g58
NtRp5103
(dp5104
g61
(dp5105
sg70
g5099
sg63
(lp5106
g56
(g77
g58
NtRp5107
(dp5108
g61
(dp5109
sg70
g5103
sg63
(lp5110
g56
(g57
g58
NtRp5111
(dp5112
g61
(dp5113
g69
I1
ssg70
g5107
sg63
(lp5114
g4231
(S't\x06\x00\x00\x00Web2py'
tRp5115
asbasbasbag56
(g72
g58
NtRp5116
(dp5117
g61
(dp5118
sg70
g5099
sg63
(lp5119
g56
(g77
g58
NtRp5120
(dp5121
g61
(dp5122
sg70
g5116
sg63
(lp5123
g56
(g57
g58
NtRp5124
(dp5125
g61
(dp5126
g69
I1
ssg70
g5120
sg63
(lp5127
I00
asbasbasbag56
(g72
g58
NtRp5128
(dp5129
g61
(dp5130
sg70
g5099
sg63
(lp5131
g56
(g77
g58
NtRp5132
(dp5133
g61
(dp5134
sg70
g5128
sg63
(lp5135
g56
(g57
g58
NtRp5136
(dp5137
g61
(dp5138
g69
I1
ssg70
g5132
sg63
(lp5139
S'http://www.web2py.com'
p5140
asbasbasbag56
(g72
g58
NtRp5141
(dp5142
g61
(dp5143
sg70
g5099
sg63
(lp5144
g56
(g77
g58
NtRp5145
(dp5146
g61
(dp5147
sg70
g5141
sg63
(lp5148
g56
(g57
g58
NtRp5149
(dp5150
g61
(dp5151
g69
I1
ssg70
g5145
sg63
(lp5152
(lp5153
(g4231
(S't\x08\x00\x00\x00Download'
tRp5154
I00
S'http://www.web2py.com/examples/default/download'
p5155
tp5156
a(g4231
(S't\x07\x00\x00\x00Support'
tRp5157
I00
S'http://www.web2py.com/examples/default/support'
p5158
tp5159
a(g4231
(S's\x0e\x00\x00\x00Quick Examples'
tRp5160
I00
S'http://web2py.com/examples/default/examples'
p5161
tp5162
a(g4231
(S't\x03\x00\x00\x00FAQ'
tRp5163
I00
S'http://web2py.com/AlterEgo'
p5164
tp5165
a(g4231
(S's\x11\x00\x00\x00Free Applications'
tRp5166
I00
S'http://web2py.com/appliances'
p5167
tp5168
a(g4231
(S't\x07\x00\x00\x00Plugins'
tRp5169
I00
S'http://web2py.com/plugins'
p5170
tp5171
a(g4231
(S't\x07\x00\x00\x00Recipes'
tRp5172
I00
S'http://web2pyslices.com/'
p5173
tp5174
a(g4231
(S't\x04\x00\x00\x00Demo'
tRp5175
I00
S'http://web2py.com/demo_admin'
p5176
tp5177
a(g4231
(S't\x08\x00\x00\x00Semantic'
tRp5178
I00
S'http://web2py.com/semantic'
p5179
tp5180
a(g4231
(S't\x07\x00\x00\x00Layouts'
tRp5181
I00
S'http://web2py.com/layouts'
p5182
tp5183
a(g4231
(S't\x06\x00\x00\x00Videos'
tRp5184
I00
S'http://www.web2py.com/examples/default/videos/'
p5185
tp5186
aasbasbasbasbasbasbasbasbasbasbasbasbasbasbasbasbasbasbasbag56
(g72
g58
NtRp5187
(dp5188
g61
(dp5189
sg70
g3726
sg63
(lp5190
g56
(g77
g58
NtRp5191
(dp5192
g61
(dp5193
g81
g82
ssg70
g5187
sg63
(lp5194
S'meta'
p5195
asbag56
(g77
g58
NtRp5196
(dp5197
g61
(dp5198
g88
g89
ssg70
g5187
sg63
(lp5199
S':'
asbag56
(g77
g58
NtRp5200
(dp5201
g61
(dp5202
sg70
g5187
sg63
(lp5203
g56
(g57
g58
NtRp5204
(dp5205
g61
(dp5206
g69
I5
ssg70
g5200
sg63
(lp5207
g56
(g65
g58
NtRp5208
(dp5209
g61
(dp5210
g69
I4
ssg70
Nsg63
(lp5211
g56
(g72
g58
NtRp5212
(dp5213
g61
(dp5214
sg70
g5208
sg63
(lp5215
g56
(g77
g58
NtRp5216
(dp5217
g61
(dp5218
g81
g82
ssg70
g5212
sg63
(lp5219
S'author'
p5220
asbag56
(g77
g58
NtRp5221
(dp5222
g61
(dp5223
g88
g89
ssg70
g5212
sg63
(lp5224
S':'
asbag56
(g77
g58
NtRp5225
(dp5226
g61
(dp5227
sg70
g5212
sg63
(lp5228
g56
(g57
g58
NtRp5229
(dp5230
g61
(dp5231
g69
I4
ssg70
g5225
sg63
(lp5232
S'Your Name <you@example.com>'
p5233
asbasbasbag56
(g72
g58
NtRp5234
(dp5235
g61
(dp5236
sg70
g5208
sg63
(lp5237
g56
(g77
g58
NtRp5238
(dp5239
g61
(dp5240
g81
g82
ssg70
g5234
sg63
(lp5241
S'copyright'
p5242
asbag56
(g77
g58
NtRp5243
(dp5244
g61
(dp5245
g88
g89
ssg70
g5234
sg63
(lp5246
S':'
asbag56
(g77
g58
NtRp5247
(dp5248
g61
(dp5249
sg70
g5234
sg63
(lp5250
g56
(g57
g58
NtRp5251
(dp5252
g61
(dp5253
g69
I4
ssg70
g5247
sg63
(lp5254
S'Copyright 2011'
p5255
asbasbasbag56
(g72
g58
NtRp5256
(dp5257
g61
(dp5258
sg70
g5208
sg63
(lp5259
g56
(g77
g58
NtRp5260
(dp5261
g61
(dp5262
g81
g82
ssg70
g5256
sg63
(lp5263
S'description'
p5264
asbag56
(g77
g58
NtRp5265
(dp5266
g61
(dp5267
g88
g89
ssg70
g5256
sg63
(lp5268
S':'
asbag56
(g77
g58
NtRp5269
(dp5270
g61
(dp5271
sg70
g5256
sg63
(lp5272
g56
(g57
g58
NtRp5273
(dp5274
g61
(dp5275
g69
I4
ssg70
g5269
sg63
(lp5276
S'a cool new app'
p5277
asbasbasbag56
(g72
g58
NtRp5278
(dp5279
g61
(dp5280
sg70
g5208
sg63
(lp5281
g56
(g77
g58
NtRp5282
(dp5283
g61
(dp5284
g81
g82
ssg70
g5278
sg63
(lp5285
S'generator'
p5286
asbag56
(g77
g58
NtRp5287
(dp5288
g61
(dp5289
g88
g89
ssg70
g5278
sg63
(lp5290
S':'
asbag56
(g77
g58
NtRp5291
(dp5292
g61
(dp5293
sg70
g5278
sg63
(lp5294
g56
(g57
g58
NtRp5295
(dp5296
g61
(dp5297
g69
I4
ssg70
g5291
sg63
(lp5298
S'Web2py Web Framework'
p5299
asbasbasbag56
(g72
g58
NtRp5300
(dp5301
g61
(dp5302
sg70
g5208
sg63
(lp5303
g56
(g77
g58
NtRp5304
(dp5305
g61
(dp5306
g81
g82
ssg70
g5300
sg63
(lp5307
S'keywords'
p5308
asbag56
(g77
g58
NtRp5309
(dp5310
g61
(dp5311
g88
g89
ssg70
g5300
sg63
(lp5312
S':'
asbag56
(g77
g58
NtRp5313
(dp5314
g61
(dp5315
sg70
g5300
sg63
(lp5316
g56
(g57
g58
NtRp5317
(dp5318
g61
(dp5319
g69
I4
ssg70
g5313
sg63
(lp5320
S'web2py, python, framework'
p5321
asbasbasbasbasbasbasbag56
(g72
g58
NtRp5322
(dp5323
g61
(dp5324
sg70
g3726
sg63
(lp5325
g56
(g77
g58
NtRp5326
(dp5327
g61
(dp5328
g81
g82
ssg70
g5322
sg63
(lp5329
S'postprocessing'
p5330
asbag56
(g77
g58
NtRp5331
(dp5332
g61
(dp5333
g88
g89
ssg70
g5322
sg63
(lp5334
S':'
asbag56
(g77
g58
NtRp5335
(dp5336
g61
(dp5337
sg70
g5322
sg63
(lp5338
g56
(g57
g58
NtRp5339
(dp5340
g61
(dp5341
g69
I5
ssg70
g5335
sg63
(lp5342
g56
(g65
g58
NtRp5343
(dp5344
g61
(dp5345
g69
I4
ssg70
Nsg63
(lp5346
sbasbasbasbag56
(g72
g58
NtRp5347
(dp5348
g61
(dp5349
sg70
g3726
sg63
(lp5350
g56
(g77
g58
NtRp5351
(dp5352
g61
(dp5353
g81
g82
ssg70
g5347
sg63
(lp5354
S'session_file'
p5355
asbag56
(g77
g58
NtRp5356
(dp5357
g61
(dp5358
g88
g89
ssg70
g5347
sg63
(lp5359
S':'
asbag56
(g77
g58
NtRp5360
(dp5361
g61
(dp5362
sg70
g5347
sg63
(lp5363
g56
(g57
g58
NtRp5364
(dp5365
g61
(dp5366
g69
I5
ssg70
g5360
sg63
(lp5367
S"<open file '/home/u4hcsdaw/Python/web2py/applications/ACES/sessions/127.0.0.1-41cac65c-3668-453b-9ecc-c26f12d379cc', mode 'rb+' at 0xa9502e0>"
p5368
asbasbasbag56
(g72
g58
NtRp5369
(dp5370
g61
(dp5371
sg70
g3726
sg63
(lp5372
g56
(g77
g58
NtRp5373
(dp5374
g61
(dp5375
g81
g82
ssg70
g5369
sg63
(lp5376
S'session_filename'
p5377
asbag56
(g77
g58
NtRp5378
(dp5379
g61
(dp5380
g88
g89
ssg70
g5369
sg63
(lp5381
S':'
asbag56
(g77
g58
NtRp5382
(dp5383
g61
(dp5384
sg70
g5369
sg63
(lp5385
g56
(g57
g58
NtRp5386
(dp5387
g61
(dp5388
g69
I5
ssg70
g5382
sg63
(lp5389
S'/home/u4hcsdaw/Python/web2py/applications/ACES/sessions/127.0.0.1-41cac65c-3668-453b-9ecc-c26f12d379cc'
p5390
asbasbasbag56
(g72
g58
NtRp5391
(dp5392
g61
(dp5393
sg70
g3726
sg63
(lp5394
g56
(g77
g58
NtRp5395
(dp5396
g61
(dp5397
g81
g82
ssg70
g5391
sg63
(lp5398
S'session_id'
p5399
asbag56
(g77
g58
NtRp5400
(dp5401
g61
(dp5402
g88
g89
ssg70
g5391
sg63
(lp5403
S':'
asbag56
(g77
g58
NtRp5404
(dp5405
g61
(dp5406
sg70
g5391
sg63
(lp5407
g56
(g57
g58
NtRp5408
(dp5409
g61
(dp5410
g69
I5
ssg70
g5404
sg63
(lp5411
S'127.0.0.1-41cac65c-3668-453b-9ecc-c26f12d379cc'
p5412
asbasbasbag56
(g72
g58
NtRp5413
(dp5414
g61
(dp5415
sg70
g3726
sg63
(lp5416
g56
(g77
g58
NtRp5417
(dp5418
g61
(dp5419
g81
g82
ssg70
g5413
sg63
(lp5420
S'session_id_name'
p5421
asbag56
(g77
g58
NtRp5422
(dp5423
g61
(dp5424
g88
g89
ssg70
g5413
sg63
(lp5425
S':'
asbag56
(g77
g58
NtRp5426
(dp5427
g61
(dp5428
sg70
g5413
sg63
(lp5429
g56
(g57
g58
NtRp5430
(dp5431
g61
(dp5432
g69
I5
ssg70
g5426
sg63
(lp5433
g3783
asbasbasbag56
(g72
g58
NtRp5434
(dp5435
g61
(dp5436
sg70
g3726
sg63
(lp5437
g56
(g77
g58
NtRp5438
(dp5439
g61
(dp5440
g81
g82
ssg70
g5434
sg63
(lp5441
S'session_locked'
p5442
asbag56
(g77
g58
NtRp5443
(dp5444
g61
(dp5445
g88
g89
ssg70
g5434
sg63
(lp5446
S':'
asbag56
(g77
g58
NtRp5447
(dp5448
g61
(dp5449
sg70
g5434
sg63
(lp5450
g56
(g57
g58
NtRp5451
(dp5452
g61
(dp5453
g69
I5
ssg70
g5447
sg63
(lp5454
g2090
asbasbasbag56
(g72
g58
NtRp5455
(dp5456
g61
(dp5457
sg70
g3726
sg63
(lp5458
g56
(g77
g58
NtRp5459
(dp5460
g61
(dp5461
g81
g82
ssg70
g5455
sg63
(lp5462
S'session_new'
p5463
asbag56
(g77
g58
NtRp5464
(dp5465
g61
(dp5466
g88
g89
ssg70
g5455
sg63
(lp5467
S':'
asbag56
(g77
g58
NtRp5468
(dp5469
g61
(dp5470
sg70
g5455
sg63
(lp5471
g56
(g57
g58
NtRp5472
(dp5473
g61
(dp5474
g69
I5
ssg70
g5468
sg63
(lp5475
g99
asbasbasbag56
(g72
g58
NtRp5476
(dp5477
g61
(dp5478
sg70
g3726
sg63
(lp5479
g56
(g77
g58
NtRp5480
(dp5481
g61
(dp5482
g81
g82
ssg70
g5476
sg63
(lp5483
S'status'
p5484
asbag56
(g77
g58
NtRp5485
(dp5486
g61
(dp5487
g88
g89
ssg70
g5476
sg63
(lp5488
S':'
asbag56
(g77
g58
NtRp5489
(dp5490
g61
(dp5491
sg70
g5476
sg63
(lp5492
g56
(g57
g58
NtRp5493
(dp5494
g61
(dp5495
g69
I5
ssg70
g5489
sg63
(lp5496
S'200'
p5497
asbasbasbag56
(g72
g58
NtRp5498
(dp5499
g61
(dp5500
sg70
g3726
sg63
(lp5501
g56
(g77
g58
NtRp5502
(dp5503
g61
(dp5504
g81
g82
ssg70
g5498
sg63
(lp5505
S'subtitle'
p5506
asbag56
(g77
g58
NtRp5507
(dp5508
g61
(dp5509
g88
g89
ssg70
g5498
sg63
(lp5510
S':'
asbag56
(g77
g58
NtRp5511
(dp5512
g61
(dp5513
sg70
g5498
sg63
(lp5514
g56
(g57
g58
NtRp5515
(dp5516
g61
(dp5517
g69
I5
ssg70
g5511
sg63
(lp5518
g4231
(S's\r\x00\x00\x00customize me!'
tRp5519
asbasbasbag56
(g72
g58
NtRp5520
(dp5521
g61
(dp5522
sg70
g3726
sg63
(lp5523
g56
(g77
g58
NtRp5524
(dp5525
g61
(dp5526
g81
g82
ssg70
g5520
sg63
(lp5527
S'title'
p5528
asbag56
(g77
g58
NtRp5529
(dp5530
g61
(dp5531
g88
g89
ssg70
g5520
sg63
(lp5532
S':'
asbag56
(g77
g58
NtRp5533
(dp5534
g61
(dp5535
sg70
g5520
sg63
(lp5536
g56
(g57
g58
NtRp5537
(dp5538
g61
(dp5539
g69
I5
ssg70
g5533
sg63
(lp5540
g121
asbasbasbag56
(g72
g58
NtRp5541
(dp5542
g61
(dp5543
sg70
g3726
sg63
(lp5544
g56
(g77
g58
NtRp5545
(dp5546
g61
(dp5547
g81
g82
ssg70
g5541
sg63
(lp5548
g2778
asbag56
(g77
g58
NtRp5549
(dp5550
g61
(dp5551
g88
g89
ssg70
g5541
sg63
(lp5552
S':'
asbag56
(g77
g58
NtRp5553
(dp5554
g61
(dp5555
sg70
g5541
sg63
(lp5556
g56
(g57
g58
NtRp5557
(dp5558
g61
(dp5559
g69
I5
ssg70
g5553
sg63
(lp5560
g2791
asbasbasbag56
(g72
g58
NtRp5561
(dp5562
g61
(dp5563
sg70
g3726
sg63
(lp5564
g56
(g77
g58
NtRp5565
(dp5566
g61
(dp5567
g81
g82
ssg70
g5561
sg63
(lp5568
S'view'
p5569
asbag56
(g77
g58
NtRp5570
(dp5571
g61
(dp5572
g88
g89
ssg70
g5561
sg63
(lp5573
S':'
asbag56
(g77
g58
NtRp5574
(dp5575
g61
(dp5576
sg70
g5561
sg63
(lp5577
g56
(g57
g58
NtRp5578
(dp5579
g61
(dp5580
g69
I5
ssg70
g5574
sg63
(lp5581
S'default/index.html'
p5582
asbasbasbasbasbsS'locals'
p5583
(dp5584
S'WaveHeight'
p5585
S"'0.85'"
p5586
sS'formVars'
p5587
S"<Storage {'waveHeight': '0.85', 'subButton': 'Submit Query'}>"
p5588
sssS'traceback'
p5589
S'Traceback (most recent call last):\n  File "/home/u4hcsdaw/Python/web2py/gluon/restricted.py", line 194, in restricted\n    exec ccode in environment\n  File "/home/u4hcsdaw/Python/web2py/applications/ACES/controllers/default.py", line 78, in <module>\n  File "/home/u4hcsdaw/Python/web2py/gluon/globals.py", line 149, in <lambda>\n    self._caller = lambda f: f()\n  File "/home/u4hcsdaw/Python/web2py/applications/ACES/controllers/default.py", line 23, in index\n    t0=AcesCall(f1.vars)\n  File "/home/u4hcsdaw/Python/web2py/applications/ACES/models/functionsAces.py", line 4, in AcesCall\n    WavePeriod=formVars[\'wavePeriod\'] or 9.0\nKeyError: \'wavePeriod\'\n'
p5590
s.