(dp1
S'output'
p2
S''
sS'layer'
p3
S'/home/u4hcsdaw/Python/web2py/applications/ACES/controllers/default.py'
p4
sS'code'
p5
S'# -*- coding: utf-8 -*-\n# this file is released under public domain and you can use without limitations\n\n#########################################################################\n## This is a samples controller\n## - index is the default action of any application\n## - user is required for authentication and authorization\n## - download is for downloading files uploaded in the db (does streaming)\n## - call exposes all registered services (none by default)\n#########################################################################\n\ndef index():\n    """\n    example action using the internationalization operator T and flash\n    rendered by views/default/index.html or views/generic.html\n    """\n    import datetime\n    now=datetime.datetime.now()\n    nowS=now.strftime(\'%s\')\n    pre1=\'\'\n    img1=\'\'\n    \n    \n    f1=linearWaveForm()\n    if session.formVars:\n        f1.vars=session.formVars\n    #f1[\'vars\']=dict(waveHeight=0.85,wavePeriod=8.00,waveBrk=0.78,waterDepth=4.1)\n    if f1.accepts(request.vars,session):\n        session.formVars=f1.vars\n        t0=AcesCall(f1.vars)\n        pre1=PRE(t0)\n        img1=IMG(_src=URL(\'static\',\'images/Waves.svg?\'+nowS))\n    return dict(form=f1,pre1=pre1,img1=img1)\n\ndef user():\n    """ \n    exposes:\n    http://..../[app]/default/user/login\n    http://..../[app]/default/user/logout\n    http://..../[app]/default/user/register\n    http://..../[app]/default/user/profile\n    http://..../[app]/default/user/retrieve_password\n    http://..../[app]/default/user/change_password\n    use @auth.requires_login()\n        @auth.requires_membership(\'group name\')\n        @auth.requires_permission(\'read\',\'table name\',record_id)\n    to decorate functions that need access control\n    """\n    return dict(form=auth())\n\n\ndef download():\n    """\n    allows downloading of uploaded files\n    http://..../[app]/default/download/[filename]\n    """\n    return response.download(request,db)\n\n\ndef call():\n    """\n    exposes services. for example:\n    http://..../[app]/default/call/jsonrpc\n    decorate with @services.jsonrpc the functions to expose\n    supports xml, json, xmlrpc, jsonrpc, amfrpc, rss, csv\n    """\n    return service()\n\n\n@auth.requires_signature()\ndef data():\n    """\n    http://..../[app]/default/data/tables\n    http://..../[app]/default/data/create/[table]\n    http://..../[app]/default/data/read/[table]/[id]\n    http://..../[app]/default/data/update/[table]/[id]\n    http://..../[app]/default/data/delete/[table]/[id]\n    http://..../[app]/default/data/select/[table]\n    http://..../[app]/default/data/search/[table]\n    but URLs bust be signed, i.e. linked with\n      A(\'table\',_href=URL(\'data/tables\',user_signature=True))\n    or with the signed load operator\n      LOAD(\'default\',\'data.load\',args=\'tables\',ajax=True,user_signature=True)\n    """\n    return dict(form=crud())\n\nresponse._vars=response._caller(index)\n'
p6
sS'snapshot'
p7
(dp8
S'exception'
p9
(dp10
S'__module__'
p11
S"'sqlite3'"
p12
sS'__getslice__'
p13
S"<method-wrapper '__getslice__' of IntegrityError object>"
p14
sS'__str__'
p15
S"<method-wrapper '__str__' of IntegrityError object>"
p16
sS'__reduce__'
p17
S'<built-in method __reduce__ of IntegrityError object>'
p18
sS'__dict__'
p19
S'{}'
p20
sS'__sizeof__'
p21
S'<built-in method __sizeof__ of IntegrityError object>'
p22
sS'__weakref__'
p23
S'None'
p24
sS'__init__'
p25
S"<method-wrapper '__init__' of IntegrityError object>"
p26
sS'__setattr__'
p27
S"<method-wrapper '__setattr__' of IntegrityError object>"
p28
sS'__reduce_ex__'
p29
S'<built-in method __reduce_ex__ of IntegrityError object>'
p30
sS'__new__'
p31
S'<built-in method __new__ of type object>'
p32
sS'__format__'
p33
S'<built-in method __format__ of IntegrityError object>'
p34
sS'__class__'
p35
S"<class 'sqlite3.IntegrityError'>"
p36
sS'__doc__'
p37
S'None'
p38
sS'__getitem__'
p39
S"<method-wrapper '__getitem__' of IntegrityError object>"
p40
sS'__setstate__'
p41
S'<built-in method __setstate__ of IntegrityError object>'
p42
sS'__getattribute__'
p43
S"<method-wrapper '__getattribute__' of IntegrityError object>"
p44
sS'args'
p45
S"('PRIMARY KEY must be unique',)"
p46
sS'__subclasshook__'
p47
S'<built-in method __subclasshook__ of type object>'
p48
sS'__unicode__'
p49
S'<built-in method __unicode__ of IntegrityError object>'
p50
sS'__delattr__'
p51
S"<method-wrapper '__delattr__' of IntegrityError object>"
p52
sS'__repr__'
p53
S"<method-wrapper '__repr__' of IntegrityError object>"
p54
sS'__hash__'
p55
S"<method-wrapper '__hash__' of IntegrityError object>"
p56
ssS'evalue'
p57
S'PRIMARY KEY must be unique'
p58
sS'request'
p59
ccopy_reg
_reconstructor
p60
(cgluon.html
BEAUTIFY
p61
c__builtin__
object
p62
NtRp63
(dp64
S'attributes'
p65
(dp66
sS'components'
p67
(lp68
g60
(cgluon.html
TABLE
p69
g62
NtRp70
(dp71
g65
(dp72
S'level'
p73
I5
ssS'parent'
p74
Nsg67
(lp75
g60
(cgluon.html
TR
p76
g62
NtRp77
(dp78
g65
(dp79
sg74
g70
sg67
(lp80
g60
(cgluon.html
TD
p81
g62
NtRp82
(dp83
g65
(dp84
S'_style'
p85
S'font-weight:bold;'
p86
ssg74
g77
sg67
(lp87
S'ajax'
p88
asbag60
(g81
g62
NtRp89
(dp90
g65
(dp91
S'_valign'
p92
S'top'
p93
ssg74
g77
sg67
(lp94
S':'
asbag60
(g81
g62
NtRp95
(dp96
g65
(dp97
sg74
g77
sg67
(lp98
g60
(g61
g62
NtRp99
(dp100
g65
(dp101
g73
I5
ssg74
g95
sg67
(lp102
S'False'
p103
asbasbasbag60
(g76
g62
NtRp104
(dp105
g65
(dp106
sg74
g70
sg67
(lp107
g60
(g81
g62
NtRp108
(dp109
g65
(dp110
g85
g86
ssg74
g104
sg67
(lp111
S'application'
p112
asbag60
(g81
g62
NtRp113
(dp114
g65
(dp115
g92
g93
ssg74
g104
sg67
(lp116
S':'
asbag60
(g81
g62
NtRp117
(dp118
g65
(dp119
sg74
g104
sg67
(lp120
g60
(g61
g62
NtRp121
(dp122
g65
(dp123
g73
I5
ssg74
g117
sg67
(lp124
S'ACES'
p125
asbasbasbag60
(g76
g62
NtRp126
(dp127
g65
(dp128
sg74
g70
sg67
(lp129
g60
(g81
g62
NtRp130
(dp131
g65
(dp132
g85
g86
ssg74
g126
sg67
(lp133
g45
asbag60
(g81
g62
NtRp134
(dp135
g65
(dp136
g92
g93
ssg74
g126
sg67
(lp137
S':'
asbag60
(g81
g62
NtRp138
(dp139
g65
(dp140
sg74
g126
sg67
(lp141
g60
(g61
g62
NtRp142
(dp143
g65
(dp144
g73
I5
ssg74
g138
sg67
(lp145
g60
(g69
g62
NtRp146
(dp147
g65
(dp148
g73
I4
ssg74
Nsg67
(lp149
sbasbasbasbag60
(g76
g62
NtRp150
(dp151
g65
(dp152
sg74
g70
sg67
(lp153
g60
(g81
g62
NtRp154
(dp155
g65
(dp156
g85
g86
ssg74
g150
sg67
(lp157
S'body'
p158
asbag60
(g81
g62
NtRp159
(dp160
g65
(dp161
g92
g93
ssg74
g150
sg67
(lp162
S':'
asbag60
(g81
g62
NtRp163
(dp164
g65
(dp165
sg74
g150
sg67
(lp166
g60
(g61
g62
NtRp167
(dp168
g65
(dp169
g73
I5
ssg74
g163
sg67
(lp170
S"<open file '<fdopen>', mode 'w+b' at 0xacab6128>"
p171
asbasbasbag60
(g76
g62
NtRp172
(dp173
g65
(dp174
sg74
g70
sg67
(lp175
g60
(g81
g62
NtRp176
(dp177
g65
(dp178
g85
g86
ssg74
g172
sg67
(lp179
S'client'
p180
asbag60
(g81
g62
NtRp181
(dp182
g65
(dp183
g92
g93
ssg74
g172
sg67
(lp184
S':'
asbag60
(g81
g62
NtRp185
(dp186
g65
(dp187
sg74
g172
sg67
(lp188
g60
(g61
g62
NtRp189
(dp190
g65
(dp191
g73
I5
ssg74
g185
sg67
(lp192
S'127.0.0.1'
p193
asbasbasbag60
(g76
g62
NtRp194
(dp195
g65
(dp196
sg74
g70
sg67
(lp197
g60
(g81
g62
NtRp198
(dp199
g65
(dp200
g85
g86
ssg74
g194
sg67
(lp201
S'controller'
p202
asbag60
(g81
g62
NtRp203
(dp204
g65
(dp205
g92
g93
ssg74
g194
sg67
(lp206
S':'
asbag60
(g81
g62
NtRp207
(dp208
g65
(dp209
sg74
g194
sg67
(lp210
g60
(g61
g62
NtRp211
(dp212
g65
(dp213
g73
I5
ssg74
g207
sg67
(lp214
S'default'
p215
asbasbasbag60
(g76
g62
NtRp216
(dp217
g65
(dp218
sg74
g70
sg67
(lp219
g60
(g81
g62
NtRp220
(dp221
g65
(dp222
g85
g86
ssg74
g216
sg67
(lp223
S'cookies'
p224
asbag60
(g81
g62
NtRp225
(dp226
g65
(dp227
g92
g93
ssg74
g216
sg67
(lp228
S':'
asbag60
(g81
g62
NtRp229
(dp230
g65
(dp231
sg74
g216
sg67
(lp232
g60
(g61
g62
NtRp233
(dp234
g65
(dp235
g73
I5
ssg74
g229
sg67
(lp236
g60
(g69
g62
NtRp237
(dp238
g65
(dp239
g73
I4
ssg74
Nsg67
(lp240
g60
(g76
g62
NtRp241
(dp242
g65
(dp243
sg74
g237
sg67
(lp244
g60
(g81
g62
NtRp245
(dp246
g65
(dp247
g85
g86
ssg74
g241
sg67
(lp248
S'session_id_aces'
p249
asbag60
(g81
g62
NtRp250
(dp251
g65
(dp252
g92
g93
ssg74
g241
sg67
(lp253
S':'
asbag60
(g81
g62
NtRp254
(dp255
g65
(dp256
sg74
g241
sg67
(lp257
g60
(g61
g62
NtRp258
(dp259
g65
(dp260
g73
I4
ssg74
g254
sg67
(lp261
g60
(g69
g62
NtRp262
(dp263
g65
(dp264
g73
I3
ssg74
Nsg67
(lp265
g60
(g76
g62
NtRp266
(dp267
g65
(dp268
sg74
g262
sg67
(lp269
g60
(g81
g62
NtRp270
(dp271
g65
(dp272
g85
g86
ssg74
g266
sg67
(lp273
S'comment'
p274
asbag60
(g81
g62
NtRp275
(dp276
g65
(dp277
g92
g93
ssg74
g266
sg67
(lp278
S':'
asbag60
(g81
g62
NtRp279
(dp280
g65
(dp281
sg74
g266
sg67
(lp282
g60
(g61
g62
NtRp283
(dp284
g65
(dp285
g73
I3
ssg74
g279
sg67
(lp286
S''
asbasbasbag60
(g76
g62
NtRp287
(dp288
g65
(dp289
sg74
g262
sg67
(lp290
g60
(g81
g62
NtRp291
(dp292
g65
(dp293
g85
g86
ssg74
g287
sg67
(lp294
S'domain'
p295
asbag60
(g81
g62
NtRp296
(dp297
g65
(dp298
g92
g93
ssg74
g287
sg67
(lp299
S':'
asbag60
(g81
g62
NtRp300
(dp301
g65
(dp302
sg74
g287
sg67
(lp303
g60
(g61
g62
NtRp304
(dp305
g65
(dp306
g73
I3
ssg74
g300
sg67
(lp307
S''
asbasbasbag60
(g76
g62
NtRp308
(dp309
g65
(dp310
sg74
g262
sg67
(lp311
g60
(g81
g62
NtRp312
(dp313
g65
(dp314
g85
g86
ssg74
g308
sg67
(lp315
S'expires'
p316
asbag60
(g81
g62
NtRp317
(dp318
g65
(dp319
g92
g93
ssg74
g308
sg67
(lp320
S':'
asbag60
(g81
g62
NtRp321
(dp322
g65
(dp323
sg74
g308
sg67
(lp324
g60
(g61
g62
NtRp325
(dp326
g65
(dp327
g73
I3
ssg74
g321
sg67
(lp328
S''
asbasbasbag60
(g76
g62
NtRp329
(dp330
g65
(dp331
sg74
g262
sg67
(lp332
g60
(g81
g62
NtRp333
(dp334
g65
(dp335
g85
g86
ssg74
g329
sg67
(lp336
S'httponly'
p337
asbag60
(g81
g62
NtRp338
(dp339
g65
(dp340
g92
g93
ssg74
g329
sg67
(lp341
S':'
asbag60
(g81
g62
NtRp342
(dp343
g65
(dp344
sg74
g329
sg67
(lp345
g60
(g61
g62
NtRp346
(dp347
g65
(dp348
g73
I3
ssg74
g342
sg67
(lp349
S''
asbasbasbag60
(g76
g62
NtRp350
(dp351
g65
(dp352
sg74
g262
sg67
(lp353
g60
(g81
g62
NtRp354
(dp355
g65
(dp356
g85
g86
ssg74
g350
sg67
(lp357
S'max-age'
p358
asbag60
(g81
g62
NtRp359
(dp360
g65
(dp361
g92
g93
ssg74
g350
sg67
(lp362
S':'
asbag60
(g81
g62
NtRp363
(dp364
g65
(dp365
sg74
g350
sg67
(lp366
g60
(g61
g62
NtRp367
(dp368
g65
(dp369
g73
I3
ssg74
g363
sg67
(lp370
S''
asbasbasbag60
(g76
g62
NtRp371
(dp372
g65
(dp373
sg74
g262
sg67
(lp374
g60
(g81
g62
NtRp375
(dp376
g65
(dp377
g85
g86
ssg74
g371
sg67
(lp378
S'path'
p379
asbag60
(g81
g62
NtRp380
(dp381
g65
(dp382
g92
g93
ssg74
g371
sg67
(lp383
S':'
asbag60
(g81
g62
NtRp384
(dp385
g65
(dp386
sg74
g371
sg67
(lp387
g60
(g61
g62
NtRp388
(dp389
g65
(dp390
g73
I3
ssg74
g384
sg67
(lp391
S''
asbasbasbag60
(g76
g62
NtRp392
(dp393
g65
(dp394
sg74
g262
sg67
(lp395
g60
(g81
g62
NtRp396
(dp397
g65
(dp398
g85
g86
ssg74
g392
sg67
(lp399
S'secure'
p400
asbag60
(g81
g62
NtRp401
(dp402
g65
(dp403
g92
g93
ssg74
g392
sg67
(lp404
S':'
asbag60
(g81
g62
NtRp405
(dp406
g65
(dp407
sg74
g392
sg67
(lp408
g60
(g61
g62
NtRp409
(dp410
g65
(dp411
g73
I3
ssg74
g405
sg67
(lp412
S''
asbasbasbag60
(g76
g62
NtRp413
(dp414
g65
(dp415
sg74
g262
sg67
(lp416
g60
(g81
g62
NtRp417
(dp418
g65
(dp419
g85
g86
ssg74
g413
sg67
(lp420
S'version'
p421
asbag60
(g81
g62
NtRp422
(dp423
g65
(dp424
g92
g93
ssg74
g413
sg67
(lp425
S':'
asbag60
(g81
g62
NtRp426
(dp427
g65
(dp428
sg74
g413
sg67
(lp429
g60
(g61
g62
NtRp430
(dp431
g65
(dp432
g73
I3
ssg74
g426
sg67
(lp433
S''
asbasbasbasbasbasbasbag60
(g76
g62
NtRp434
(dp435
g65
(dp436
sg74
g237
sg67
(lp437
g60
(g81
g62
NtRp438
(dp439
g65
(dp440
g85
g86
ssg74
g434
sg67
(lp441
S'session_id_admin'
p442
asbag60
(g81
g62
NtRp443
(dp444
g65
(dp445
g92
g93
ssg74
g434
sg67
(lp446
S':'
asbag60
(g81
g62
NtRp447
(dp448
g65
(dp449
sg74
g434
sg67
(lp450
g60
(g61
g62
NtRp451
(dp452
g65
(dp453
g73
I4
ssg74
g447
sg67
(lp454
g60
(g69
g62
NtRp455
(dp456
g65
(dp457
g73
I3
ssg74
Nsg67
(lp458
g60
(g76
g62
NtRp459
(dp460
g65
(dp461
sg74
g455
sg67
(lp462
g60
(g81
g62
NtRp463
(dp464
g65
(dp465
g85
g86
ssg74
g459
sg67
(lp466
g274
asbag60
(g81
g62
NtRp467
(dp468
g65
(dp469
g92
g93
ssg74
g459
sg67
(lp470
S':'
asbag60
(g81
g62
NtRp471
(dp472
g65
(dp473
sg74
g459
sg67
(lp474
g60
(g61
g62
NtRp475
(dp476
g65
(dp477
g73
I3
ssg74
g471
sg67
(lp478
S''
asbasbasbag60
(g76
g62
NtRp479
(dp480
g65
(dp481
sg74
g455
sg67
(lp482
g60
(g81
g62
NtRp483
(dp484
g65
(dp485
g85
g86
ssg74
g479
sg67
(lp486
g295
asbag60
(g81
g62
NtRp487
(dp488
g65
(dp489
g92
g93
ssg74
g479
sg67
(lp490
S':'
asbag60
(g81
g62
NtRp491
(dp492
g65
(dp493
sg74
g479
sg67
(lp494
g60
(g61
g62
NtRp495
(dp496
g65
(dp497
g73
I3
ssg74
g491
sg67
(lp498
S''
asbasbasbag60
(g76
g62
NtRp499
(dp500
g65
(dp501
sg74
g455
sg67
(lp502
g60
(g81
g62
NtRp503
(dp504
g65
(dp505
g85
g86
ssg74
g499
sg67
(lp506
g316
asbag60
(g81
g62
NtRp507
(dp508
g65
(dp509
g92
g93
ssg74
g499
sg67
(lp510
S':'
asbag60
(g81
g62
NtRp511
(dp512
g65
(dp513
sg74
g499
sg67
(lp514
g60
(g61
g62
NtRp515
(dp516
g65
(dp517
g73
I3
ssg74
g511
sg67
(lp518
S''
asbasbasbag60
(g76
g62
NtRp519
(dp520
g65
(dp521
sg74
g455
sg67
(lp522
g60
(g81
g62
NtRp523
(dp524
g65
(dp525
g85
g86
ssg74
g519
sg67
(lp526
g337
asbag60
(g81
g62
NtRp527
(dp528
g65
(dp529
g92
g93
ssg74
g519
sg67
(lp530
S':'
asbag60
(g81
g62
NtRp531
(dp532
g65
(dp533
sg74
g519
sg67
(lp534
g60
(g61
g62
NtRp535
(dp536
g65
(dp537
g73
I3
ssg74
g531
sg67
(lp538
S''
asbasbasbag60
(g76
g62
NtRp539
(dp540
g65
(dp541
sg74
g455
sg67
(lp542
g60
(g81
g62
NtRp543
(dp544
g65
(dp545
g85
g86
ssg74
g539
sg67
(lp546
g358
asbag60
(g81
g62
NtRp547
(dp548
g65
(dp549
g92
g93
ssg74
g539
sg67
(lp550
S':'
asbag60
(g81
g62
NtRp551
(dp552
g65
(dp553
sg74
g539
sg67
(lp554
g60
(g61
g62
NtRp555
(dp556
g65
(dp557
g73
I3
ssg74
g551
sg67
(lp558
S''
asbasbasbag60
(g76
g62
NtRp559
(dp560
g65
(dp561
sg74
g455
sg67
(lp562
g60
(g81
g62
NtRp563
(dp564
g65
(dp565
g85
g86
ssg74
g559
sg67
(lp566
g379
asbag60
(g81
g62
NtRp567
(dp568
g65
(dp569
g92
g93
ssg74
g559
sg67
(lp570
S':'
asbag60
(g81
g62
NtRp571
(dp572
g65
(dp573
sg74
g559
sg67
(lp574
g60
(g61
g62
NtRp575
(dp576
g65
(dp577
g73
I3
ssg74
g571
sg67
(lp578
S''
asbasbasbag60
(g76
g62
NtRp579
(dp580
g65
(dp581
sg74
g455
sg67
(lp582
g60
(g81
g62
NtRp583
(dp584
g65
(dp585
g85
g86
ssg74
g579
sg67
(lp586
g400
asbag60
(g81
g62
NtRp587
(dp588
g65
(dp589
g92
g93
ssg74
g579
sg67
(lp590
S':'
asbag60
(g81
g62
NtRp591
(dp592
g65
(dp593
sg74
g579
sg67
(lp594
g60
(g61
g62
NtRp595
(dp596
g65
(dp597
g73
I3
ssg74
g591
sg67
(lp598
S''
asbasbasbag60
(g76
g62
NtRp599
(dp600
g65
(dp601
sg74
g455
sg67
(lp602
g60
(g81
g62
NtRp603
(dp604
g65
(dp605
g85
g86
ssg74
g599
sg67
(lp606
g421
asbag60
(g81
g62
NtRp607
(dp608
g65
(dp609
g92
g93
ssg74
g599
sg67
(lp610
S':'
asbag60
(g81
g62
NtRp611
(dp612
g65
(dp613
sg74
g599
sg67
(lp614
g60
(g61
g62
NtRp615
(dp616
g65
(dp617
g73
I3
ssg74
g611
sg67
(lp618
S''
asbasbasbasbasbasbasbag60
(g76
g62
NtRp619
(dp620
g65
(dp621
sg74
g237
sg67
(lp622
g60
(g81
g62
NtRp623
(dp624
g65
(dp625
g85
g86
ssg74
g619
sg67
(lp626
S'session_id_dalex1'
p627
asbag60
(g81
g62
NtRp628
(dp629
g65
(dp630
g92
g93
ssg74
g619
sg67
(lp631
S':'
asbag60
(g81
g62
NtRp632
(dp633
g65
(dp634
sg74
g619
sg67
(lp635
g60
(g61
g62
NtRp636
(dp637
g65
(dp638
g73
I4
ssg74
g632
sg67
(lp639
g60
(g69
g62
NtRp640
(dp641
g65
(dp642
g73
I3
ssg74
Nsg67
(lp643
g60
(g76
g62
NtRp644
(dp645
g65
(dp646
sg74
g640
sg67
(lp647
g60
(g81
g62
NtRp648
(dp649
g65
(dp650
g85
g86
ssg74
g644
sg67
(lp651
g274
asbag60
(g81
g62
NtRp652
(dp653
g65
(dp654
g92
g93
ssg74
g644
sg67
(lp655
S':'
asbag60
(g81
g62
NtRp656
(dp657
g65
(dp658
sg74
g644
sg67
(lp659
g60
(g61
g62
NtRp660
(dp661
g65
(dp662
g73
I3
ssg74
g656
sg67
(lp663
S''
asbasbasbag60
(g76
g62
NtRp664
(dp665
g65
(dp666
sg74
g640
sg67
(lp667
g60
(g81
g62
NtRp668
(dp669
g65
(dp670
g85
g86
ssg74
g664
sg67
(lp671
g295
asbag60
(g81
g62
NtRp672
(dp673
g65
(dp674
g92
g93
ssg74
g664
sg67
(lp675
S':'
asbag60
(g81
g62
NtRp676
(dp677
g65
(dp678
sg74
g664
sg67
(lp679
g60
(g61
g62
NtRp680
(dp681
g65
(dp682
g73
I3
ssg74
g676
sg67
(lp683
S''
asbasbasbag60
(g76
g62
NtRp684
(dp685
g65
(dp686
sg74
g640
sg67
(lp687
g60
(g81
g62
NtRp688
(dp689
g65
(dp690
g85
g86
ssg74
g684
sg67
(lp691
g316
asbag60
(g81
g62
NtRp692
(dp693
g65
(dp694
g92
g93
ssg74
g684
sg67
(lp695
S':'
asbag60
(g81
g62
NtRp696
(dp697
g65
(dp698
sg74
g684
sg67
(lp699
g60
(g61
g62
NtRp700
(dp701
g65
(dp702
g73
I3
ssg74
g696
sg67
(lp703
S''
asbasbasbag60
(g76
g62
NtRp704
(dp705
g65
(dp706
sg74
g640
sg67
(lp707
g60
(g81
g62
NtRp708
(dp709
g65
(dp710
g85
g86
ssg74
g704
sg67
(lp711
g337
asbag60
(g81
g62
NtRp712
(dp713
g65
(dp714
g92
g93
ssg74
g704
sg67
(lp715
S':'
asbag60
(g81
g62
NtRp716
(dp717
g65
(dp718
sg74
g704
sg67
(lp719
g60
(g61
g62
NtRp720
(dp721
g65
(dp722
g73
I3
ssg74
g716
sg67
(lp723
S''
asbasbasbag60
(g76
g62
NtRp724
(dp725
g65
(dp726
sg74
g640
sg67
(lp727
g60
(g81
g62
NtRp728
(dp729
g65
(dp730
g85
g86
ssg74
g724
sg67
(lp731
g358
asbag60
(g81
g62
NtRp732
(dp733
g65
(dp734
g92
g93
ssg74
g724
sg67
(lp735
S':'
asbag60
(g81
g62
NtRp736
(dp737
g65
(dp738
sg74
g724
sg67
(lp739
g60
(g61
g62
NtRp740
(dp741
g65
(dp742
g73
I3
ssg74
g736
sg67
(lp743
S''
asbasbasbag60
(g76
g62
NtRp744
(dp745
g65
(dp746
sg74
g640
sg67
(lp747
g60
(g81
g62
NtRp748
(dp749
g65
(dp750
g85
g86
ssg74
g744
sg67
(lp751
g379
asbag60
(g81
g62
NtRp752
(dp753
g65
(dp754
g92
g93
ssg74
g744
sg67
(lp755
S':'
asbag60
(g81
g62
NtRp756
(dp757
g65
(dp758
sg74
g744
sg67
(lp759
g60
(g61
g62
NtRp760
(dp761
g65
(dp762
g73
I3
ssg74
g756
sg67
(lp763
S''
asbasbasbag60
(g76
g62
NtRp764
(dp765
g65
(dp766
sg74
g640
sg67
(lp767
g60
(g81
g62
NtRp768
(dp769
g65
(dp770
g85
g86
ssg74
g764
sg67
(lp771
g400
asbag60
(g81
g62
NtRp772
(dp773
g65
(dp774
g92
g93
ssg74
g764
sg67
(lp775
S':'
asbag60
(g81
g62
NtRp776
(dp777
g65
(dp778
sg74
g764
sg67
(lp779
g60
(g61
g62
NtRp780
(dp781
g65
(dp782
g73
I3
ssg74
g776
sg67
(lp783
S''
asbasbasbag60
(g76
g62
NtRp784
(dp785
g65
(dp786
sg74
g640
sg67
(lp787
g60
(g81
g62
NtRp788
(dp789
g65
(dp790
g85
g86
ssg74
g784
sg67
(lp791
g421
asbag60
(g81
g62
NtRp792
(dp793
g65
(dp794
g92
g93
ssg74
g784
sg67
(lp795
S':'
asbag60
(g81
g62
NtRp796
(dp797
g65
(dp798
sg74
g784
sg67
(lp799
g60
(g61
g62
NtRp800
(dp801
g65
(dp802
g73
I3
ssg74
g796
sg67
(lp803
S''
asbasbasbasbasbasbasbag60
(g76
g62
NtRp804
(dp805
g65
(dp806
sg74
g237
sg67
(lp807
g60
(g81
g62
NtRp808
(dp809
g65
(dp810
g85
g86
ssg74
g804
sg67
(lp811
S'session_id_welcome'
p812
asbag60
(g81
g62
NtRp813
(dp814
g65
(dp815
g92
g93
ssg74
g804
sg67
(lp816
S':'
asbag60
(g81
g62
NtRp817
(dp818
g65
(dp819
sg74
g804
sg67
(lp820
g60
(g61
g62
NtRp821
(dp822
g65
(dp823
g73
I4
ssg74
g817
sg67
(lp824
g60
(g69
g62
NtRp825
(dp826
g65
(dp827
g73
I3
ssg74
Nsg67
(lp828
g60
(g76
g62
NtRp829
(dp830
g65
(dp831
sg74
g825
sg67
(lp832
g60
(g81
g62
NtRp833
(dp834
g65
(dp835
g85
g86
ssg74
g829
sg67
(lp836
g274
asbag60
(g81
g62
NtRp837
(dp838
g65
(dp839
g92
g93
ssg74
g829
sg67
(lp840
S':'
asbag60
(g81
g62
NtRp841
(dp842
g65
(dp843
sg74
g829
sg67
(lp844
g60
(g61
g62
NtRp845
(dp846
g65
(dp847
g73
I3
ssg74
g841
sg67
(lp848
S''
asbasbasbag60
(g76
g62
NtRp849
(dp850
g65
(dp851
sg74
g825
sg67
(lp852
g60
(g81
g62
NtRp853
(dp854
g65
(dp855
g85
g86
ssg74
g849
sg67
(lp856
g295
asbag60
(g81
g62
NtRp857
(dp858
g65
(dp859
g92
g93
ssg74
g849
sg67
(lp860
S':'
asbag60
(g81
g62
NtRp861
(dp862
g65
(dp863
sg74
g849
sg67
(lp864
g60
(g61
g62
NtRp865
(dp866
g65
(dp867
g73
I3
ssg74
g861
sg67
(lp868
S''
asbasbasbag60
(g76
g62
NtRp869
(dp870
g65
(dp871
sg74
g825
sg67
(lp872
g60
(g81
g62
NtRp873
(dp874
g65
(dp875
g85
g86
ssg74
g869
sg67
(lp876
g316
asbag60
(g81
g62
NtRp877
(dp878
g65
(dp879
g92
g93
ssg74
g869
sg67
(lp880
S':'
asbag60
(g81
g62
NtRp881
(dp882
g65
(dp883
sg74
g869
sg67
(lp884
g60
(g61
g62
NtRp885
(dp886
g65
(dp887
g73
I3
ssg74
g881
sg67
(lp888
S''
asbasbasbag60
(g76
g62
NtRp889
(dp890
g65
(dp891
sg74
g825
sg67
(lp892
g60
(g81
g62
NtRp893
(dp894
g65
(dp895
g85
g86
ssg74
g889
sg67
(lp896
g337
asbag60
(g81
g62
NtRp897
(dp898
g65
(dp899
g92
g93
ssg74
g889
sg67
(lp900
S':'
asbag60
(g81
g62
NtRp901
(dp902
g65
(dp903
sg74
g889
sg67
(lp904
g60
(g61
g62
NtRp905
(dp906
g65
(dp907
g73
I3
ssg74
g901
sg67
(lp908
S''
asbasbasbag60
(g76
g62
NtRp909
(dp910
g65
(dp911
sg74
g825
sg67
(lp912
g60
(g81
g62
NtRp913
(dp914
g65
(dp915
g85
g86
ssg74
g909
sg67
(lp916
g358
asbag60
(g81
g62
NtRp917
(dp918
g65
(dp919
g92
g93
ssg74
g909
sg67
(lp920
S':'
asbag60
(g81
g62
NtRp921
(dp922
g65
(dp923
sg74
g909
sg67
(lp924
g60
(g61
g62
NtRp925
(dp926
g65
(dp927
g73
I3
ssg74
g921
sg67
(lp928
S''
asbasbasbag60
(g76
g62
NtRp929
(dp930
g65
(dp931
sg74
g825
sg67
(lp932
g60
(g81
g62
NtRp933
(dp934
g65
(dp935
g85
g86
ssg74
g929
sg67
(lp936
g379
asbag60
(g81
g62
NtRp937
(dp938
g65
(dp939
g92
g93
ssg74
g929
sg67
(lp940
S':'
asbag60
(g81
g62
NtRp941
(dp942
g65
(dp943
sg74
g929
sg67
(lp944
g60
(g61
g62
NtRp945
(dp946
g65
(dp947
g73
I3
ssg74
g941
sg67
(lp948
S''
asbasbasbag60
(g76
g62
NtRp949
(dp950
g65
(dp951
sg74
g825
sg67
(lp952
g60
(g81
g62
NtRp953
(dp954
g65
(dp955
g85
g86
ssg74
g949
sg67
(lp956
g400
asbag60
(g81
g62
NtRp957
(dp958
g65
(dp959
g92
g93
ssg74
g949
sg67
(lp960
S':'
asbag60
(g81
g62
NtRp961
(dp962
g65
(dp963
sg74
g949
sg67
(lp964
g60
(g61
g62
NtRp965
(dp966
g65
(dp967
g73
I3
ssg74
g961
sg67
(lp968
S''
asbasbasbag60
(g76
g62
NtRp969
(dp970
g65
(dp971
sg74
g825
sg67
(lp972
g60
(g81
g62
NtRp973
(dp974
g65
(dp975
g85
g86
ssg74
g969
sg67
(lp976
g421
asbag60
(g81
g62
NtRp977
(dp978
g65
(dp979
g92
g93
ssg74
g969
sg67
(lp980
S':'
asbag60
(g81
g62
NtRp981
(dp982
g65
(dp983
sg74
g969
sg67
(lp984
g60
(g61
g62
NtRp985
(dp986
g65
(dp987
g73
I3
ssg74
g981
sg67
(lp988
S''
asbasbasbasbasbasbasbasbasbasbasbag60
(g76
g62
NtRp989
(dp990
g65
(dp991
sg74
g70
sg67
(lp992
g60
(g81
g62
NtRp993
(dp994
g65
(dp995
g85
g86
ssg74
g989
sg67
(lp996
S'env'
p997
asbag60
(g81
g62
NtRp998
(dp999
g65
(dp1000
g92
g93
ssg74
g989
sg67
(lp1001
S':'
asbag60
(g81
g62
NtRp1002
(dp1003
g65
(dp1004
sg74
g989
sg67
(lp1005
g60
(g61
g62
NtRp1006
(dp1007
g65
(dp1008
g73
I5
ssg74
g1002
sg67
(lp1009
g60
(g69
g62
NtRp1010
(dp1011
g65
(dp1012
g73
I4
ssg74
Nsg67
(lp1013
g60
(g76
g62
NtRp1014
(dp1015
g65
(dp1016
sg74
g1010
sg67
(lp1017
g60
(g81
g62
NtRp1018
(dp1019
g65
(dp1020
g85
g86
ssg74
g1014
sg67
(lp1021
S'app_folders'
p1022
asbag60
(g81
g62
NtRp1023
(dp1024
g65
(dp1025
g92
g93
ssg74
g1014
sg67
(lp1026
S':'
asbag60
(g81
g62
NtRp1027
(dp1028
g65
(dp1029
sg74
g1014
sg67
(lp1030
g60
(g61
g62
NtRp1031
(dp1032
g65
(dp1033
g73
I4
ssg74
g1027
sg67
(lp1034
S"set(['/home/u4hcsdaw/Python/web2py/applications/ACES/', '/home/u4hcsdaw/Python/web2py/applications/admin/', '/home/u4hcsdaw/Python/web2py/applications/welcome/', '/home/u4hcsdaw/Python/web2py/applications/DALEX1/'])"
p1035
asbasbasbag60
(g76
g62
NtRp1036
(dp1037
g65
(dp1038
sg74
g1010
sg67
(lp1039
g60
(g81
g62
NtRp1040
(dp1041
g65
(dp1042
g85
g86
ssg74
g1036
sg67
(lp1043
S'applications_parent'
p1044
asbag60
(g81
g62
NtRp1045
(dp1046
g65
(dp1047
g92
g93
ssg74
g1036
sg67
(lp1048
S':'
asbag60
(g81
g62
NtRp1049
(dp1050
g65
(dp1051
sg74
g1036
sg67
(lp1052
g60
(g61
g62
NtRp1053
(dp1054
g65
(dp1055
g73
I4
ssg74
g1049
sg67
(lp1056
S'/home/u4hcsdaw/Python/web2py'
p1057
asbasbasbag60
(g76
g62
NtRp1058
(dp1059
g65
(dp1060
sg74
g1010
sg67
(lp1061
g60
(g81
g62
NtRp1062
(dp1063
g65
(dp1064
g85
g86
ssg74
g1058
sg67
(lp1065
S'cmd_args'
p1066
asbag60
(g81
g62
NtRp1067
(dp1068
g65
(dp1069
g92
g93
ssg74
g1058
sg67
(lp1070
S':'
asbag60
(g81
g62
NtRp1071
(dp1072
g65
(dp1073
sg74
g1058
sg67
(lp1074
g60
(g61
g62
NtRp1075
(dp1076
g65
(dp1077
g73
I4
ssg74
g1071
sg67
(lp1078
g60
(g69
g62
NtRp1079
(dp1080
g65
(dp1081
g73
I3
ssg74
Nsg67
(lp1082
sbasbasbasbag60
(g76
g62
NtRp1083
(dp1084
g65
(dp1085
sg74
g1010
sg67
(lp1086
g60
(g81
g62
NtRp1087
(dp1088
g65
(dp1089
g85
g86
ssg74
g1083
sg67
(lp1090
S'cmd_options'
p1091
asbag60
(g81
g62
NtRp1092
(dp1093
g65
(dp1094
g92
g93
ssg74
g1083
sg67
(lp1095
S':'
asbag60
(g81
g62
NtRp1096
(dp1097
g65
(dp1098
sg74
g1083
sg67
(lp1099
g60
(g61
g62
NtRp1100
(dp1101
g65
(dp1102
g73
I4
ssg74
g1096
sg67
(lp1103
S"<Values at 0xa7a4aec: {'verbose': False, 'ip': '127.0.0.1', 'shutdown_timeout': 5, 'taskbar': False, 'nocron': False, 'pid_filename': 'httpserver.pid', 'maxthreads': None, 'softcron': False, 'server_name': 'chl-5833E', 'bpython': False, 'nogui': False, 'port': 8000, 'extcron': False, 'debuglevel': 30, 'test': None, 'folder': '/home/u4hcsdaw/Python/web2py', 'config': '', 'import_models': False, 'winservice': '', 'shell': None, 'run': '', 'log_filename': 'httpserver.log', 'args': [''], 'ssl_ca_certificate': None, 'scheduler': None, 'profiler_filename': None, 'ssl_private_key': '', 'password': '<ask>', 'request_queue_size': 5, 'ssl_certificate': '', 'cronjob': False, 'plain': False, 'quiet': False, 'interfaces': None, 'minthreads': None, 'timeout': 10, 'numthreads': None, 'nobanner': False}>"
p1104
asbasbasbag60
(g76
g62
NtRp1105
(dp1106
g65
(dp1107
sg74
g1010
sg67
(lp1108
g60
(g81
g62
NtRp1109
(dp1110
g65
(dp1111
g85
g86
ssg74
g1105
sg67
(lp1112
S'content_length'
p1113
asbag60
(g81
g62
NtRp1114
(dp1115
g65
(dp1116
g92
g93
ssg74
g1105
sg67
(lp1117
S':'
asbag60
(g81
g62
NtRp1118
(dp1119
g65
(dp1120
sg74
g1105
sg67
(lp1121
g60
(g61
g62
NtRp1122
(dp1123
g65
(dp1124
g73
I4
ssg74
g1118
sg67
(lp1125
S'817'
p1126
asbasbasbag60
(g76
g62
NtRp1127
(dp1128
g65
(dp1129
sg74
g1010
sg67
(lp1130
g60
(g81
g62
NtRp1131
(dp1132
g65
(dp1133
g85
g86
ssg74
g1127
sg67
(lp1134
S'content_type'
p1135
asbag60
(g81
g62
NtRp1136
(dp1137
g65
(dp1138
g92
g93
ssg74
g1127
sg67
(lp1139
S':'
asbag60
(g81
g62
NtRp1140
(dp1141
g65
(dp1142
sg74
g1127
sg67
(lp1143
g60
(g61
g62
NtRp1144
(dp1145
g65
(dp1146
g73
I4
ssg74
g1140
sg67
(lp1147
S'multipart/form-data; boundary=---------------------------1321180293462798504504840915'
p1148
asbasbasbag60
(g76
g62
NtRp1149
(dp1150
g65
(dp1151
sg74
g1010
sg67
(lp1152
g60
(g81
g62
NtRp1153
(dp1154
g65
(dp1155
g85
g86
ssg74
g1149
sg67
(lp1156
S'db_sessions'
p1157
asbag60
(g81
g62
NtRp1158
(dp1159
g65
(dp1160
g92
g93
ssg74
g1149
sg67
(lp1161
S':'
asbag60
(g81
g62
NtRp1162
(dp1163
g65
(dp1164
sg74
g1149
sg67
(lp1165
g60
(g61
g62
NtRp1166
(dp1167
g65
(dp1168
g73
I4
ssg74
g1162
sg67
(lp1169
S'set([])'
p1170
asbasbasbag60
(g76
g62
NtRp1171
(dp1172
g65
(dp1173
sg74
g1010
sg67
(lp1174
g60
(g81
g62
NtRp1175
(dp1176
g65
(dp1177
g85
g86
ssg74
g1171
sg67
(lp1178
S'debugging'
p1179
asbag60
(g81
g62
NtRp1180
(dp1181
g65
(dp1182
g92
g93
ssg74
g1171
sg67
(lp1183
S':'
asbag60
(g81
g62
NtRp1184
(dp1185
g65
(dp1186
sg74
g1171
sg67
(lp1187
g60
(g61
g62
NtRp1188
(dp1189
g65
(dp1190
g73
I4
ssg74
g1184
sg67
(lp1191
g103
asbasbasbag60
(g76
g62
NtRp1192
(dp1193
g65
(dp1194
sg74
g1010
sg67
(lp1195
g60
(g81
g62
NtRp1196
(dp1197
g65
(dp1198
g85
g86
ssg74
g1192
sg67
(lp1199
S'gluon_parent'
p1200
asbag60
(g81
g62
NtRp1201
(dp1202
g65
(dp1203
g92
g93
ssg74
g1192
sg67
(lp1204
S':'
asbag60
(g81
g62
NtRp1205
(dp1206
g65
(dp1207
sg74
g1192
sg67
(lp1208
g60
(g61
g62
NtRp1209
(dp1210
g65
(dp1211
g73
I4
ssg74
g1205
sg67
(lp1212
S'/home/u4hcsdaw/Python/web2py'
p1213
asbasbasbag60
(g76
g62
NtRp1214
(dp1215
g65
(dp1216
sg74
g1010
sg67
(lp1217
g60
(g81
g62
NtRp1218
(dp1219
g65
(dp1220
g85
g86
ssg74
g1214
sg67
(lp1221
S'http_accept'
p1222
asbag60
(g81
g62
NtRp1223
(dp1224
g65
(dp1225
g92
g93
ssg74
g1214
sg67
(lp1226
S':'
asbag60
(g81
g62
NtRp1227
(dp1228
g65
(dp1229
sg74
g1214
sg67
(lp1230
g60
(g61
g62
NtRp1231
(dp1232
g65
(dp1233
g73
I4
ssg74
g1227
sg67
(lp1234
S'text/html,application/xhtml+xml,application/xml;q=0.9,*/*;q=0.8'
p1235
asbasbasbag60
(g76
g62
NtRp1236
(dp1237
g65
(dp1238
sg74
g1010
sg67
(lp1239
g60
(g81
g62
NtRp1240
(dp1241
g65
(dp1242
g85
g86
ssg74
g1236
sg67
(lp1243
S'http_accept_encoding'
p1244
asbag60
(g81
g62
NtRp1245
(dp1246
g65
(dp1247
g92
g93
ssg74
g1236
sg67
(lp1248
S':'
asbag60
(g81
g62
NtRp1249
(dp1250
g65
(dp1251
sg74
g1236
sg67
(lp1252
g60
(g61
g62
NtRp1253
(dp1254
g65
(dp1255
g73
I4
ssg74
g1249
sg67
(lp1256
S'gzip, deflate'
p1257
asbasbasbag60
(g76
g62
NtRp1258
(dp1259
g65
(dp1260
sg74
g1010
sg67
(lp1261
g60
(g81
g62
NtRp1262
(dp1263
g65
(dp1264
g85
g86
ssg74
g1258
sg67
(lp1265
S'http_accept_language'
p1266
asbag60
(g81
g62
NtRp1267
(dp1268
g65
(dp1269
g92
g93
ssg74
g1258
sg67
(lp1270
S':'
asbag60
(g81
g62
NtRp1271
(dp1272
g65
(dp1273
sg74
g1258
sg67
(lp1274
g60
(g61
g62
NtRp1275
(dp1276
g65
(dp1277
g73
I4
ssg74
g1271
sg67
(lp1278
S'en-us,en;q=0.5'
p1279
asbasbasbag60
(g76
g62
NtRp1280
(dp1281
g65
(dp1282
sg74
g1010
sg67
(lp1283
g60
(g81
g62
NtRp1284
(dp1285
g65
(dp1286
g85
g86
ssg74
g1280
sg67
(lp1287
S'http_connection'
p1288
asbag60
(g81
g62
NtRp1289
(dp1290
g65
(dp1291
g92
g93
ssg74
g1280
sg67
(lp1292
S':'
asbag60
(g81
g62
NtRp1293
(dp1294
g65
(dp1295
sg74
g1280
sg67
(lp1296
g60
(g61
g62
NtRp1297
(dp1298
g65
(dp1299
g73
I4
ssg74
g1293
sg67
(lp1300
S'keep-alive'
p1301
asbasbasbag60
(g76
g62
NtRp1302
(dp1303
g65
(dp1304
sg74
g1010
sg67
(lp1305
g60
(g81
g62
NtRp1306
(dp1307
g65
(dp1308
g85
g86
ssg74
g1302
sg67
(lp1309
S'http_content_length'
p1310
asbag60
(g81
g62
NtRp1311
(dp1312
g65
(dp1313
g92
g93
ssg74
g1302
sg67
(lp1314
S':'
asbag60
(g81
g62
NtRp1315
(dp1316
g65
(dp1317
sg74
g1302
sg67
(lp1318
g60
(g61
g62
NtRp1319
(dp1320
g65
(dp1321
g73
I4
ssg74
g1315
sg67
(lp1322
g1126
asbasbasbag60
(g76
g62
NtRp1323
(dp1324
g65
(dp1325
sg74
g1010
sg67
(lp1326
g60
(g81
g62
NtRp1327
(dp1328
g65
(dp1329
g85
g86
ssg74
g1323
sg67
(lp1330
S'http_content_type'
p1331
asbag60
(g81
g62
NtRp1332
(dp1333
g65
(dp1334
g92
g93
ssg74
g1323
sg67
(lp1335
S':'
asbag60
(g81
g62
NtRp1336
(dp1337
g65
(dp1338
sg74
g1323
sg67
(lp1339
g60
(g61
g62
NtRp1340
(dp1341
g65
(dp1342
g73
I4
ssg74
g1336
sg67
(lp1343
g1148
asbasbasbag60
(g76
g62
NtRp1344
(dp1345
g65
(dp1346
sg74
g1010
sg67
(lp1347
g60
(g81
g62
NtRp1348
(dp1349
g65
(dp1350
g85
g86
ssg74
g1344
sg67
(lp1351
S'http_cookie'
p1352
asbag60
(g81
g62
NtRp1353
(dp1354
g65
(dp1355
g92
g93
ssg74
g1344
sg67
(lp1356
S':'
asbag60
(g81
g62
NtRp1357
(dp1358
g65
(dp1359
sg74
g1344
sg67
(lp1360
g60
(g61
g62
NtRp1361
(dp1362
g65
(dp1363
g73
I4
ssg74
g1357
sg67
(lp1364
S'session_id_welcome=127.0.0.1-78623fe9-ce00-476c-927f-eafcf49cd1de; session_id_admin=127.0.0.1-3a2cfaf5-caac-46cf-9bb6-feec5e929e91; session_id_dalex1=127.0.0.1-9de07f4f-e749-4ea4-acf8-21d98c9698ae; session_id_aces=127.0.0.1-fa323a39-b4f7-4824-aae1-5c3174579522'
p1365
asbasbasbag60
(g76
g62
NtRp1366
(dp1367
g65
(dp1368
sg74
g1010
sg67
(lp1369
g60
(g81
g62
NtRp1370
(dp1371
g65
(dp1372
g85
g86
ssg74
g1366
sg67
(lp1373
S'http_host'
p1374
asbag60
(g81
g62
NtRp1375
(dp1376
g65
(dp1377
g92
g93
ssg74
g1366
sg67
(lp1378
S':'
asbag60
(g81
g62
NtRp1379
(dp1380
g65
(dp1381
sg74
g1366
sg67
(lp1382
g60
(g61
g62
NtRp1383
(dp1384
g65
(dp1385
g73
I4
ssg74
g1379
sg67
(lp1386
S'127.0.0.1:8000'
p1387
asbasbasbag60
(g76
g62
NtRp1388
(dp1389
g65
(dp1390
sg74
g1010
sg67
(lp1391
g60
(g81
g62
NtRp1392
(dp1393
g65
(dp1394
g85
g86
ssg74
g1388
sg67
(lp1395
S'http_referer'
p1396
asbag60
(g81
g62
NtRp1397
(dp1398
g65
(dp1399
g92
g93
ssg74
g1388
sg67
(lp1400
S':'
asbag60
(g81
g62
NtRp1401
(dp1402
g65
(dp1403
sg74
g1388
sg67
(lp1404
g60
(g61
g62
NtRp1405
(dp1406
g65
(dp1407
g73
I4
ssg74
g1401
sg67
(lp1408
S'http://127.0.0.1:8000/ACES/default/index'
p1409
asbasbasbag60
(g76
g62
NtRp1410
(dp1411
g65
(dp1412
sg74
g1010
sg67
(lp1413
g60
(g81
g62
NtRp1414
(dp1415
g65
(dp1416
g85
g86
ssg74
g1410
sg67
(lp1417
S'http_user_agent'
p1418
asbag60
(g81
g62
NtRp1419
(dp1420
g65
(dp1421
g92
g93
ssg74
g1410
sg67
(lp1422
S':'
asbag60
(g81
g62
NtRp1423
(dp1424
g65
(dp1425
sg74
g1410
sg67
(lp1426
g60
(g61
g62
NtRp1427
(dp1428
g65
(dp1429
g73
I4
ssg74
g1423
sg67
(lp1430
S'Mozilla/5.0 (X11; Ubuntu; Linux i686; rv:13.0) Gecko/20100101 Firefox/13.0.1'
p1431
asbasbasbag60
(g76
g62
NtRp1432
(dp1433
g65
(dp1434
sg74
g1010
sg67
(lp1435
g60
(g81
g62
NtRp1436
(dp1437
g65
(dp1438
g85
g86
ssg74
g1432
sg67
(lp1439
S'is_jython'
p1440
asbag60
(g81
g62
NtRp1441
(dp1442
g65
(dp1443
g92
g93
ssg74
g1432
sg67
(lp1444
S':'
asbag60
(g81
g62
NtRp1445
(dp1446
g65
(dp1447
sg74
g1432
sg67
(lp1448
g60
(g61
g62
NtRp1449
(dp1450
g65
(dp1451
g73
I4
ssg74
g1445
sg67
(lp1452
g103
asbasbasbag60
(g76
g62
NtRp1453
(dp1454
g65
(dp1455
sg74
g1010
sg67
(lp1456
g60
(g81
g62
NtRp1457
(dp1458
g65
(dp1459
g85
g86
ssg74
g1453
sg67
(lp1460
S'path_info'
p1461
asbag60
(g81
g62
NtRp1462
(dp1463
g65
(dp1464
g92
g93
ssg74
g1453
sg67
(lp1465
S':'
asbag60
(g81
g62
NtRp1466
(dp1467
g65
(dp1468
sg74
g1453
sg67
(lp1469
g60
(g61
g62
NtRp1470
(dp1471
g65
(dp1472
g73
I4
ssg74
g1466
sg67
(lp1473
S'/ACES/default/index'
p1474
asbasbasbag60
(g76
g62
NtRp1475
(dp1476
g65
(dp1477
sg74
g1010
sg67
(lp1478
g60
(g81
g62
NtRp1479
(dp1480
g65
(dp1481
g85
g86
ssg74
g1475
sg67
(lp1482
S'query_string'
p1483
asbag60
(g81
g62
NtRp1484
(dp1485
g65
(dp1486
g92
g93
ssg74
g1475
sg67
(lp1487
S':'
asbag60
(g81
g62
NtRp1488
(dp1489
g65
(dp1490
sg74
g1475
sg67
(lp1491
g60
(g61
g62
NtRp1492
(dp1493
g65
(dp1494
g73
I4
ssg74
g1488
sg67
(lp1495
S''
asbasbasbag60
(g76
g62
NtRp1496
(dp1497
g65
(dp1498
sg74
g1010
sg67
(lp1499
g60
(g81
g62
NtRp1500
(dp1501
g65
(dp1502
g85
g86
ssg74
g1496
sg67
(lp1503
S'remote_addr'
p1504
asbag60
(g81
g62
NtRp1505
(dp1506
g65
(dp1507
g92
g93
ssg74
g1496
sg67
(lp1508
S':'
asbag60
(g81
g62
NtRp1509
(dp1510
g65
(dp1511
sg74
g1496
sg67
(lp1512
g60
(g61
g62
NtRp1513
(dp1514
g65
(dp1515
g73
I4
ssg74
g1509
sg67
(lp1516
g193
asbasbasbag60
(g76
g62
NtRp1517
(dp1518
g65
(dp1519
sg74
g1010
sg67
(lp1520
g60
(g81
g62
NtRp1521
(dp1522
g65
(dp1523
g85
g86
ssg74
g1517
sg67
(lp1524
S'remote_port'
p1525
asbag60
(g81
g62
NtRp1526
(dp1527
g65
(dp1528
g92
g93
ssg74
g1517
sg67
(lp1529
S':'
asbag60
(g81
g62
NtRp1530
(dp1531
g65
(dp1532
sg74
g1517
sg67
(lp1533
g60
(g61
g62
NtRp1534
(dp1535
g65
(dp1536
g73
I4
ssg74
g1530
sg67
(lp1537
S'56230'
p1538
asbasbasbag60
(g76
g62
NtRp1539
(dp1540
g65
(dp1541
sg74
g1010
sg67
(lp1542
g60
(g81
g62
NtRp1543
(dp1544
g65
(dp1545
g85
g86
ssg74
g1539
sg67
(lp1546
S'request_method'
p1547
asbag60
(g81
g62
NtRp1548
(dp1549
g65
(dp1550
g92
g93
ssg74
g1539
sg67
(lp1551
S':'
asbag60
(g81
g62
NtRp1552
(dp1553
g65
(dp1554
sg74
g1539
sg67
(lp1555
g60
(g61
g62
NtRp1556
(dp1557
g65
(dp1558
g73
I4
ssg74
g1552
sg67
(lp1559
S'POST'
p1560
asbasbasbag60
(g76
g62
NtRp1561
(dp1562
g65
(dp1563
sg74
g1010
sg67
(lp1564
g60
(g81
g62
NtRp1565
(dp1566
g65
(dp1567
g85
g86
ssg74
g1561
sg67
(lp1568
S'script_name'
p1569
asbag60
(g81
g62
NtRp1570
(dp1571
g65
(dp1572
g92
g93
ssg74
g1561
sg67
(lp1573
S':'
asbag60
(g81
g62
NtRp1574
(dp1575
g65
(dp1576
sg74
g1561
sg67
(lp1577
g60
(g61
g62
NtRp1578
(dp1579
g65
(dp1580
g73
I4
ssg74
g1574
sg67
(lp1581
S''
asbasbasbag60
(g76
g62
NtRp1582
(dp1583
g65
(dp1584
sg74
g1010
sg67
(lp1585
g60
(g81
g62
NtRp1586
(dp1587
g65
(dp1588
g85
g86
ssg74
g1582
sg67
(lp1589
S'server_name'
p1590
asbag60
(g81
g62
NtRp1591
(dp1592
g65
(dp1593
g92
g93
ssg74
g1582
sg67
(lp1594
S':'
asbag60
(g81
g62
NtRp1595
(dp1596
g65
(dp1597
sg74
g1582
sg67
(lp1598
g60
(g61
g62
NtRp1599
(dp1600
g65
(dp1601
g73
I4
ssg74
g1595
sg67
(lp1602
S'chl-5833E'
p1603
asbasbasbag60
(g76
g62
NtRp1604
(dp1605
g65
(dp1606
sg74
g1010
sg67
(lp1607
g60
(g81
g62
NtRp1608
(dp1609
g65
(dp1610
g85
g86
ssg74
g1604
sg67
(lp1611
S'server_port'
p1612
asbag60
(g81
g62
NtRp1613
(dp1614
g65
(dp1615
g92
g93
ssg74
g1604
sg67
(lp1616
S':'
asbag60
(g81
g62
NtRp1617
(dp1618
g65
(dp1619
sg74
g1604
sg67
(lp1620
g60
(g61
g62
NtRp1621
(dp1622
g65
(dp1623
g73
I4
ssg74
g1617
sg67
(lp1624
S'8000'
p1625
asbasbasbag60
(g76
g62
NtRp1626
(dp1627
g65
(dp1628
sg74
g1010
sg67
(lp1629
g60
(g81
g62
NtRp1630
(dp1631
g65
(dp1632
g85
g86
ssg74
g1626
sg67
(lp1633
S'server_protocol'
p1634
asbag60
(g81
g62
NtRp1635
(dp1636
g65
(dp1637
g92
g93
ssg74
g1626
sg67
(lp1638
S':'
asbag60
(g81
g62
NtRp1639
(dp1640
g65
(dp1641
sg74
g1626
sg67
(lp1642
g60
(g61
g62
NtRp1643
(dp1644
g65
(dp1645
g73
I4
ssg74
g1639
sg67
(lp1646
S'HTTP/1.1'
p1647
asbasbasbag60
(g76
g62
NtRp1648
(dp1649
g65
(dp1650
sg74
g1010
sg67
(lp1651
g60
(g81
g62
NtRp1652
(dp1653
g65
(dp1654
g85
g86
ssg74
g1648
sg67
(lp1655
S'server_software'
p1656
asbag60
(g81
g62
NtRp1657
(dp1658
g65
(dp1659
g92
g93
ssg74
g1648
sg67
(lp1660
S':'
asbag60
(g81
g62
NtRp1661
(dp1662
g65
(dp1663
sg74
g1648
sg67
(lp1664
g60
(g61
g62
NtRp1665
(dp1666
g65
(dp1667
g73
I4
ssg74
g1661
sg67
(lp1668
S'Rocket 1.2.4'
p1669
asbasbasbag60
(g76
g62
NtRp1670
(dp1671
g65
(dp1672
sg74
g1010
sg67
(lp1673
g60
(g81
g62
NtRp1674
(dp1675
g65
(dp1676
g85
g86
ssg74
g1670
sg67
(lp1677
S'web2py_crontype'
p1678
asbag60
(g81
g62
NtRp1679
(dp1680
g65
(dp1681
g92
g93
ssg74
g1670
sg67
(lp1682
S':'
asbag60
(g81
g62
NtRp1683
(dp1684
g65
(dp1685
sg74
g1670
sg67
(lp1686
g60
(g61
g62
NtRp1687
(dp1688
g65
(dp1689
g73
I4
ssg74
g1683
sg67
(lp1690
S'hard'
p1691
asbasbasbag60
(g76
g62
NtRp1692
(dp1693
g65
(dp1694
sg74
g1010
sg67
(lp1695
g60
(g81
g62
NtRp1696
(dp1697
g65
(dp1698
g85
g86
ssg74
g1692
sg67
(lp1699
S'web2py_path'
p1700
asbag60
(g81
g62
NtRp1701
(dp1702
g65
(dp1703
g92
g93
ssg74
g1692
sg67
(lp1704
S':'
asbag60
(g81
g62
NtRp1705
(dp1706
g65
(dp1707
sg74
g1692
sg67
(lp1708
g60
(g61
g62
NtRp1709
(dp1710
g65
(dp1711
g73
I4
ssg74
g1705
sg67
(lp1712
g1057
asbasbasbag60
(g76
g62
NtRp1713
(dp1714
g65
(dp1715
sg74
g1010
sg67
(lp1716
g60
(g81
g62
NtRp1717
(dp1718
g65
(dp1719
g85
g86
ssg74
g1713
sg67
(lp1720
S'web2py_version'
p1721
asbag60
(g81
g62
NtRp1722
(dp1723
g65
(dp1724
g92
g93
ssg74
g1713
sg67
(lp1725
S':'
asbag60
(g81
g62
NtRp1726
(dp1727
g65
(dp1728
sg74
g1713
sg67
(lp1729
g60
(g61
g62
NtRp1730
(dp1731
g65
(dp1732
g73
I4
ssg74
g1726
sg67
(lp1733
g60
(g69
g62
NtRp1734
(dp1735
g65
(dp1736
g73
I3
ssg74
Nsg67
(lp1737
g60
(g76
g62
NtRp1738
(dp1739
g65
(dp1740
sg74
g1734
sg67
(lp1741
g60
(g81
g62
NtRp1742
(dp1743
g65
(dp1744
sg74
g1738
sg67
(lp1745
g60
(g61
g62
NtRp1746
(dp1747
g65
(dp1748
g73
I3
ssg74
g1742
sg67
(lp1749
S'1'
asbasbasbag60
(g76
g62
NtRp1750
(dp1751
g65
(dp1752
sg74
g1734
sg67
(lp1753
g60
(g81
g62
NtRp1754
(dp1755
g65
(dp1756
sg74
g1750
sg67
(lp1757
g60
(g61
g62
NtRp1758
(dp1759
g65
(dp1760
g73
I3
ssg74
g1754
sg67
(lp1761
S'99'
p1762
asbasbasbag60
(g76
g62
NtRp1763
(dp1764
g65
(dp1765
sg74
g1734
sg67
(lp1766
g60
(g81
g62
NtRp1767
(dp1768
g65
(dp1769
sg74
g1763
sg67
(lp1770
g60
(g61
g62
NtRp1771
(dp1772
g65
(dp1773
g73
I3
ssg74
g1767
sg67
(lp1774
S'2'
asbasbasbag60
(g76
g62
NtRp1775
(dp1776
g65
(dp1777
sg74
g1734
sg67
(lp1778
g60
(g81
g62
NtRp1779
(dp1780
g65
(dp1781
sg74
g1775
sg67
(lp1782
g60
(g61
g62
NtRp1783
(dp1784
g65
(dp1785
g73
I3
ssg74
g1779
sg67
(lp1786
S'datetime.datetime(2011, 9, 26, 6, 55, 33)'
p1787
asbasbasbag60
(g76
g62
NtRp1788
(dp1789
g65
(dp1790
sg74
g1734
sg67
(lp1791
g60
(g81
g62
NtRp1792
(dp1793
g65
(dp1794
sg74
g1788
sg67
(lp1795
g60
(g61
g62
NtRp1796
(dp1797
g65
(dp1798
g73
I3
ssg74
g1792
sg67
(lp1799
S'stable'
p1800
asbasbasbasbasbasbasbag60
(g76
g62
NtRp1801
(dp1802
g65
(dp1803
sg74
g1010
sg67
(lp1804
g60
(g81
g62
NtRp1805
(dp1806
g65
(dp1807
g85
g86
ssg74
g1801
sg67
(lp1808
S'wsgi_errors'
p1809
asbag60
(g81
g62
NtRp1810
(dp1811
g65
(dp1812
g92
g93
ssg74
g1801
sg67
(lp1813
S':'
asbag60
(g81
g62
NtRp1814
(dp1815
g65
(dp1816
sg74
g1801
sg67
(lp1817
g60
(g61
g62
NtRp1818
(dp1819
g65
(dp1820
g73
I4
ssg74
g1814
sg67
(lp1821
S"<open file '<stderr>', mode 'w' at 0xb73360d0>"
p1822
asbasbasbag60
(g76
g62
NtRp1823
(dp1824
g65
(dp1825
sg74
g1010
sg67
(lp1826
g60
(g81
g62
NtRp1827
(dp1828
g65
(dp1829
g85
g86
ssg74
g1823
sg67
(lp1830
S'wsgi_file_wrapper'
p1831
asbag60
(g81
g62
NtRp1832
(dp1833
g65
(dp1834
g92
g93
ssg74
g1823
sg67
(lp1835
S':'
asbag60
(g81
g62
NtRp1836
(dp1837
g65
(dp1838
sg74
g1823
sg67
(lp1839
g60
(g61
g62
NtRp1840
(dp1841
g65
(dp1842
g73
I4
ssg74
g1836
sg67
(lp1843
S'<class wsgiref.util.FileWrapper at 0xa6e1b3c>'
p1844
asbasbasbag60
(g76
g62
NtRp1845
(dp1846
g65
(dp1847
sg74
g1010
sg67
(lp1848
g60
(g81
g62
NtRp1849
(dp1850
g65
(dp1851
g85
g86
ssg74
g1845
sg67
(lp1852
S'wsgi_input'
p1853
asbag60
(g81
g62
NtRp1854
(dp1855
g65
(dp1856
g92
g93
ssg74
g1845
sg67
(lp1857
S':'
asbag60
(g81
g62
NtRp1858
(dp1859
g65
(dp1860
sg74
g1845
sg67
(lp1861
g60
(g61
g62
NtRp1862
(dp1863
g65
(dp1864
g73
I4
ssg74
g1858
sg67
(lp1865
S'<socket._fileobject object at 0xacc5aeec>'
p1866
asbasbasbag60
(g76
g62
NtRp1867
(dp1868
g65
(dp1869
sg74
g1010
sg67
(lp1870
g60
(g81
g62
NtRp1871
(dp1872
g65
(dp1873
g85
g86
ssg74
g1867
sg67
(lp1874
S'wsgi_multiprocess'
p1875
asbag60
(g81
g62
NtRp1876
(dp1877
g65
(dp1878
g92
g93
ssg74
g1867
sg67
(lp1879
S':'
asbag60
(g81
g62
NtRp1880
(dp1881
g65
(dp1882
sg74
g1867
sg67
(lp1883
g60
(g61
g62
NtRp1884
(dp1885
g65
(dp1886
g73
I4
ssg74
g1880
sg67
(lp1887
g103
asbasbasbag60
(g76
g62
NtRp1888
(dp1889
g65
(dp1890
sg74
g1010
sg67
(lp1891
g60
(g81
g62
NtRp1892
(dp1893
g65
(dp1894
g85
g86
ssg74
g1888
sg67
(lp1895
S'wsgi_multithread'
p1896
asbag60
(g81
g62
NtRp1897
(dp1898
g65
(dp1899
g92
g93
ssg74
g1888
sg67
(lp1900
S':'
asbag60
(g81
g62
NtRp1901
(dp1902
g65
(dp1903
sg74
g1888
sg67
(lp1904
g60
(g61
g62
NtRp1905
(dp1906
g65
(dp1907
g73
I4
ssg74
g1901
sg67
(lp1908
S'True'
p1909
asbasbasbag60
(g76
g62
NtRp1910
(dp1911
g65
(dp1912
sg74
g1010
sg67
(lp1913
g60
(g81
g62
NtRp1914
(dp1915
g65
(dp1916
g85
g86
ssg74
g1910
sg67
(lp1917
S'wsgi_run_once'
p1918
asbag60
(g81
g62
NtRp1919
(dp1920
g65
(dp1921
g92
g93
ssg74
g1910
sg67
(lp1922
S':'
asbag60
(g81
g62
NtRp1923
(dp1924
g65
(dp1925
sg74
g1910
sg67
(lp1926
g60
(g61
g62
NtRp1927
(dp1928
g65
(dp1929
g73
I4
ssg74
g1923
sg67
(lp1930
g103
asbasbasbag60
(g76
g62
NtRp1931
(dp1932
g65
(dp1933
sg74
g1010
sg67
(lp1934
g60
(g81
g62
NtRp1935
(dp1936
g65
(dp1937
g85
g86
ssg74
g1931
sg67
(lp1938
S'wsgi_url_scheme'
p1939
asbag60
(g81
g62
NtRp1940
(dp1941
g65
(dp1942
g92
g93
ssg74
g1931
sg67
(lp1943
S':'
asbag60
(g81
g62
NtRp1944
(dp1945
g65
(dp1946
sg74
g1931
sg67
(lp1947
g60
(g61
g62
NtRp1948
(dp1949
g65
(dp1950
g73
I4
ssg74
g1944
sg67
(lp1951
S'http'
p1952
asbasbasbag60
(g76
g62
NtRp1953
(dp1954
g65
(dp1955
sg74
g1010
sg67
(lp1956
g60
(g81
g62
NtRp1957
(dp1958
g65
(dp1959
g85
g86
ssg74
g1953
sg67
(lp1960
S'wsgi_version'
p1961
asbag60
(g81
g62
NtRp1962
(dp1963
g65
(dp1964
g92
g93
ssg74
g1953
sg67
(lp1965
S':'
asbag60
(g81
g62
NtRp1966
(dp1967
g65
(dp1968
sg74
g1953
sg67
(lp1969
g60
(g61
g62
NtRp1970
(dp1971
g65
(dp1972
g73
I4
ssg74
g1966
sg67
(lp1973
g60
(g69
g62
NtRp1974
(dp1975
g65
(dp1976
g73
I3
ssg74
Nsg67
(lp1977
g60
(g76
g62
NtRp1978
(dp1979
g65
(dp1980
sg74
g1974
sg67
(lp1981
g60
(g81
g62
NtRp1982
(dp1983
g65
(dp1984
sg74
g1978
sg67
(lp1985
g60
(g61
g62
NtRp1986
(dp1987
g65
(dp1988
g73
I3
ssg74
g1982
sg67
(lp1989
S'1'
asbasbasbag60
(g76
g62
NtRp1990
(dp1991
g65
(dp1992
sg74
g1974
sg67
(lp1993
g60
(g81
g62
NtRp1994
(dp1995
g65
(dp1996
sg74
g1990
sg67
(lp1997
g60
(g61
g62
NtRp1998
(dp1999
g65
(dp2000
g73
I3
ssg74
g1994
sg67
(lp2001
S'0'
asbasbasbasbasbasbasbasbasbasbasbag60
(g76
g62
NtRp2002
(dp2003
g65
(dp2004
sg74
g70
sg67
(lp2005
g60
(g81
g62
NtRp2006
(dp2007
g65
(dp2008
g85
g86
ssg74
g2002
sg67
(lp2009
S'extension'
p2010
asbag60
(g81
g62
NtRp2011
(dp2012
g65
(dp2013
g92
g93
ssg74
g2002
sg67
(lp2014
S':'
asbag60
(g81
g62
NtRp2015
(dp2016
g65
(dp2017
sg74
g2002
sg67
(lp2018
g60
(g61
g62
NtRp2019
(dp2020
g65
(dp2021
g73
I5
ssg74
g2015
sg67
(lp2022
S'html'
p2023
asbasbasbag60
(g76
g62
NtRp2024
(dp2025
g65
(dp2026
sg74
g70
sg67
(lp2027
g60
(g81
g62
NtRp2028
(dp2029
g65
(dp2030
g85
g86
ssg74
g2024
sg67
(lp2031
S'folder'
p2032
asbag60
(g81
g62
NtRp2033
(dp2034
g65
(dp2035
g92
g93
ssg74
g2024
sg67
(lp2036
S':'
asbag60
(g81
g62
NtRp2037
(dp2038
g65
(dp2039
sg74
g2024
sg67
(lp2040
g60
(g61
g62
NtRp2041
(dp2042
g65
(dp2043
g73
I5
ssg74
g2037
sg67
(lp2044
S'/home/u4hcsdaw/Python/web2py/applications/ACES/'
p2045
asbasbasbag60
(g76
g62
NtRp2046
(dp2047
g65
(dp2048
sg74
g70
sg67
(lp2049
g60
(g81
g62
NtRp2050
(dp2051
g65
(dp2052
g85
g86
ssg74
g2046
sg67
(lp2053
S'function'
p2054
asbag60
(g81
g62
NtRp2055
(dp2056
g65
(dp2057
g92
g93
ssg74
g2046
sg67
(lp2058
S':'
asbag60
(g81
g62
NtRp2059
(dp2060
g65
(dp2061
sg74
g2046
sg67
(lp2062
g60
(g61
g62
NtRp2063
(dp2064
g65
(dp2065
g73
I5
ssg74
g2059
sg67
(lp2066
S'index'
p2067
asbasbasbag60
(g76
g62
NtRp2068
(dp2069
g65
(dp2070
sg74
g70
sg67
(lp2071
g60
(g81
g62
NtRp2072
(dp2073
g65
(dp2074
g85
g86
ssg74
g2068
sg67
(lp2075
S'get_vars'
p2076
asbag60
(g81
g62
NtRp2077
(dp2078
g65
(dp2079
g92
g93
ssg74
g2068
sg67
(lp2080
S':'
asbag60
(g81
g62
NtRp2081
(dp2082
g65
(dp2083
sg74
g2068
sg67
(lp2084
g60
(g61
g62
NtRp2085
(dp2086
g65
(dp2087
g73
I5
ssg74
g2081
sg67
(lp2088
g60
(g69
g62
NtRp2089
(dp2090
g65
(dp2091
g73
I4
ssg74
Nsg67
(lp2092
sbasbasbasbag60
(g76
g62
NtRp2093
(dp2094
g65
(dp2095
sg74
g70
sg67
(lp2096
g60
(g81
g62
NtRp2097
(dp2098
g65
(dp2099
g85
g86
ssg74
g2093
sg67
(lp2100
S'global_settings'
p2101
asbag60
(g81
g62
NtRp2102
(dp2103
g65
(dp2104
g92
g93
ssg74
g2093
sg67
(lp2105
S':'
asbag60
(g81
g62
NtRp2106
(dp2107
g65
(dp2108
sg74
g2093
sg67
(lp2109
g60
(g61
g62
NtRp2110
(dp2111
g65
(dp2112
g73
I5
ssg74
g2106
sg67
(lp2113
g60
(g69
g62
NtRp2114
(dp2115
g65
(dp2116
g73
I4
ssg74
Nsg67
(lp2117
g60
(g76
g62
NtRp2118
(dp2119
g65
(dp2120
sg74
g2114
sg67
(lp2121
g60
(g81
g62
NtRp2122
(dp2123
g65
(dp2124
g85
g86
ssg74
g2118
sg67
(lp2125
g1022
asbag60
(g81
g62
NtRp2126
(dp2127
g65
(dp2128
g92
g93
ssg74
g2118
sg67
(lp2129
S':'
asbag60
(g81
g62
NtRp2130
(dp2131
g65
(dp2132
sg74
g2118
sg67
(lp2133
g60
(g61
g62
NtRp2134
(dp2135
g65
(dp2136
g73
I4
ssg74
g2130
sg67
(lp2137
S"set(['/home/u4hcsdaw/Python/web2py/applications/ACES/', '/home/u4hcsdaw/Python/web2py/applications/admin/', '/home/u4hcsdaw/Python/web2py/applications/welcome/', '/home/u4hcsdaw/Python/web2py/applications/DALEX1/'])"
p2138
asbasbasbag60
(g76
g62
NtRp2139
(dp2140
g65
(dp2141
sg74
g2114
sg67
(lp2142
g60
(g81
g62
NtRp2143
(dp2144
g65
(dp2145
g85
g86
ssg74
g2139
sg67
(lp2146
g1044
asbag60
(g81
g62
NtRp2147
(dp2148
g65
(dp2149
g92
g93
ssg74
g2139
sg67
(lp2150
S':'
asbag60
(g81
g62
NtRp2151
(dp2152
g65
(dp2153
sg74
g2139
sg67
(lp2154
g60
(g61
g62
NtRp2155
(dp2156
g65
(dp2157
g73
I4
ssg74
g2151
sg67
(lp2158
g1057
asbasbasbag60
(g76
g62
NtRp2159
(dp2160
g65
(dp2161
sg74
g2114
sg67
(lp2162
g60
(g81
g62
NtRp2163
(dp2164
g65
(dp2165
g85
g86
ssg74
g2159
sg67
(lp2166
g1066
asbag60
(g81
g62
NtRp2167
(dp2168
g65
(dp2169
g92
g93
ssg74
g2159
sg67
(lp2170
S':'
asbag60
(g81
g62
NtRp2171
(dp2172
g65
(dp2173
sg74
g2159
sg67
(lp2174
g60
(g61
g62
NtRp2175
(dp2176
g65
(dp2177
g73
I4
ssg74
g2171
sg67
(lp2178
g60
(g69
g62
NtRp2179
(dp2180
g65
(dp2181
g73
I3
ssg74
Nsg67
(lp2182
sbasbasbasbag60
(g76
g62
NtRp2183
(dp2184
g65
(dp2185
sg74
g2114
sg67
(lp2186
g60
(g81
g62
NtRp2187
(dp2188
g65
(dp2189
g85
g86
ssg74
g2183
sg67
(lp2190
g1091
asbag60
(g81
g62
NtRp2191
(dp2192
g65
(dp2193
g92
g93
ssg74
g2183
sg67
(lp2194
S':'
asbag60
(g81
g62
NtRp2195
(dp2196
g65
(dp2197
sg74
g2183
sg67
(lp2198
g60
(g61
g62
NtRp2199
(dp2200
g65
(dp2201
g73
I4
ssg74
g2195
sg67
(lp2202
S"<Values at 0xa7a4aec: {'verbose': False, 'ip': '127.0.0.1', 'shutdown_timeout': 5, 'taskbar': False, 'nocron': False, 'pid_filename': 'httpserver.pid', 'maxthreads': None, 'softcron': False, 'server_name': 'chl-5833E', 'bpython': False, 'nogui': False, 'port': 8000, 'extcron': False, 'debuglevel': 30, 'test': None, 'folder': '/home/u4hcsdaw/Python/web2py', 'config': '', 'import_models': False, 'winservice': '', 'shell': None, 'run': '', 'log_filename': 'httpserver.log', 'args': [''], 'ssl_ca_certificate': None, 'scheduler': None, 'profiler_filename': None, 'ssl_private_key': '', 'password': '<ask>', 'request_queue_size': 5, 'ssl_certificate': '', 'cronjob': False, 'plain': False, 'quiet': False, 'interfaces': None, 'minthreads': None, 'timeout': 10, 'numthreads': None, 'nobanner': False}>"
p2203
asbasbasbag60
(g76
g62
NtRp2204
(dp2205
g65
(dp2206
sg74
g2114
sg67
(lp2207
g60
(g81
g62
NtRp2208
(dp2209
g65
(dp2210
g85
g86
ssg74
g2204
sg67
(lp2211
g1157
asbag60
(g81
g62
NtRp2212
(dp2213
g65
(dp2214
g92
g93
ssg74
g2204
sg67
(lp2215
S':'
asbag60
(g81
g62
NtRp2216
(dp2217
g65
(dp2218
sg74
g2204
sg67
(lp2219
g60
(g61
g62
NtRp2220
(dp2221
g65
(dp2222
g73
I4
ssg74
g2216
sg67
(lp2223
S'set([])'
p2224
asbasbasbag60
(g76
g62
NtRp2225
(dp2226
g65
(dp2227
sg74
g2114
sg67
(lp2228
g60
(g81
g62
NtRp2229
(dp2230
g65
(dp2231
g85
g86
ssg74
g2225
sg67
(lp2232
g1179
asbag60
(g81
g62
NtRp2233
(dp2234
g65
(dp2235
g92
g93
ssg74
g2225
sg67
(lp2236
S':'
asbag60
(g81
g62
NtRp2237
(dp2238
g65
(dp2239
sg74
g2225
sg67
(lp2240
g60
(g61
g62
NtRp2241
(dp2242
g65
(dp2243
g73
I4
ssg74
g2237
sg67
(lp2244
g103
asbasbasbag60
(g76
g62
NtRp2245
(dp2246
g65
(dp2247
sg74
g2114
sg67
(lp2248
g60
(g81
g62
NtRp2249
(dp2250
g65
(dp2251
g85
g86
ssg74
g2245
sg67
(lp2252
g1200
asbag60
(g81
g62
NtRp2253
(dp2254
g65
(dp2255
g92
g93
ssg74
g2245
sg67
(lp2256
S':'
asbag60
(g81
g62
NtRp2257
(dp2258
g65
(dp2259
sg74
g2245
sg67
(lp2260
g60
(g61
g62
NtRp2261
(dp2262
g65
(dp2263
g73
I4
ssg74
g2257
sg67
(lp2264
g1213
asbasbasbag60
(g76
g62
NtRp2265
(dp2266
g65
(dp2267
sg74
g2114
sg67
(lp2268
g60
(g81
g62
NtRp2269
(dp2270
g65
(dp2271
g85
g86
ssg74
g2265
sg67
(lp2272
g1440
asbag60
(g81
g62
NtRp2273
(dp2274
g65
(dp2275
g92
g93
ssg74
g2265
sg67
(lp2276
S':'
asbag60
(g81
g62
NtRp2277
(dp2278
g65
(dp2279
sg74
g2265
sg67
(lp2280
g60
(g61
g62
NtRp2281
(dp2282
g65
(dp2283
g73
I4
ssg74
g2277
sg67
(lp2284
g103
asbasbasbag60
(g76
g62
NtRp2285
(dp2286
g65
(dp2287
sg74
g2114
sg67
(lp2288
g60
(g81
g62
NtRp2289
(dp2290
g65
(dp2291
g85
g86
ssg74
g2285
sg67
(lp2292
g1678
asbag60
(g81
g62
NtRp2293
(dp2294
g65
(dp2295
g92
g93
ssg74
g2285
sg67
(lp2296
S':'
asbag60
(g81
g62
NtRp2297
(dp2298
g65
(dp2299
sg74
g2285
sg67
(lp2300
g60
(g61
g62
NtRp2301
(dp2302
g65
(dp2303
g73
I4
ssg74
g2297
sg67
(lp2304
g1691
asbasbasbag60
(g76
g62
NtRp2305
(dp2306
g65
(dp2307
sg74
g2114
sg67
(lp2308
g60
(g81
g62
NtRp2309
(dp2310
g65
(dp2311
g85
g86
ssg74
g2305
sg67
(lp2312
g1721
asbag60
(g81
g62
NtRp2313
(dp2314
g65
(dp2315
g92
g93
ssg74
g2305
sg67
(lp2316
S':'
asbag60
(g81
g62
NtRp2317
(dp2318
g65
(dp2319
sg74
g2305
sg67
(lp2320
g60
(g61
g62
NtRp2321
(dp2322
g65
(dp2323
g73
I4
ssg74
g2317
sg67
(lp2324
g60
(g69
g62
NtRp2325
(dp2326
g65
(dp2327
g73
I3
ssg74
Nsg67
(lp2328
g60
(g76
g62
NtRp2329
(dp2330
g65
(dp2331
sg74
g2325
sg67
(lp2332
g60
(g81
g62
NtRp2333
(dp2334
g65
(dp2335
sg74
g2329
sg67
(lp2336
g60
(g61
g62
NtRp2337
(dp2338
g65
(dp2339
g73
I3
ssg74
g2333
sg67
(lp2340
S'1'
asbasbasbag60
(g76
g62
NtRp2341
(dp2342
g65
(dp2343
sg74
g2325
sg67
(lp2344
g60
(g81
g62
NtRp2345
(dp2346
g65
(dp2347
sg74
g2341
sg67
(lp2348
g60
(g61
g62
NtRp2349
(dp2350
g65
(dp2351
g73
I3
ssg74
g2345
sg67
(lp2352
S'99'
p2353
asbasbasbag60
(g76
g62
NtRp2354
(dp2355
g65
(dp2356
sg74
g2325
sg67
(lp2357
g60
(g81
g62
NtRp2358
(dp2359
g65
(dp2360
sg74
g2354
sg67
(lp2361
g60
(g61
g62
NtRp2362
(dp2363
g65
(dp2364
g73
I3
ssg74
g2358
sg67
(lp2365
S'2'
asbasbasbag60
(g76
g62
NtRp2366
(dp2367
g65
(dp2368
sg74
g2325
sg67
(lp2369
g60
(g81
g62
NtRp2370
(dp2371
g65
(dp2372
sg74
g2366
sg67
(lp2373
g60
(g61
g62
NtRp2374
(dp2375
g65
(dp2376
g73
I3
ssg74
g2370
sg67
(lp2377
S'datetime.datetime(2011, 9, 26, 6, 55, 33)'
p2378
asbasbasbag60
(g76
g62
NtRp2379
(dp2380
g65
(dp2381
sg74
g2325
sg67
(lp2382
g60
(g81
g62
NtRp2383
(dp2384
g65
(dp2385
sg74
g2379
sg67
(lp2386
g60
(g61
g62
NtRp2387
(dp2388
g65
(dp2389
g73
I3
ssg74
g2383
sg67
(lp2390
g1800
asbasbasbasbasbasbasbasbasbasbasbag60
(g76
g62
NtRp2391
(dp2392
g65
(dp2393
sg74
g70
sg67
(lp2394
g60
(g81
g62
NtRp2395
(dp2396
g65
(dp2397
g85
g86
ssg74
g2391
sg67
(lp2398
S'is_https'
p2399
asbag60
(g81
g62
NtRp2400
(dp2401
g65
(dp2402
g92
g93
ssg74
g2391
sg67
(lp2403
S':'
asbag60
(g81
g62
NtRp2404
(dp2405
g65
(dp2406
sg74
g2391
sg67
(lp2407
g60
(g61
g62
NtRp2408
(dp2409
g65
(dp2410
g73
I5
ssg74
g2404
sg67
(lp2411
g103
asbasbasbag60
(g76
g62
NtRp2412
(dp2413
g65
(dp2414
sg74
g70
sg67
(lp2415
g60
(g81
g62
NtRp2416
(dp2417
g65
(dp2418
g85
g86
ssg74
g2412
sg67
(lp2419
S'is_local'
p2420
asbag60
(g81
g62
NtRp2421
(dp2422
g65
(dp2423
g92
g93
ssg74
g2412
sg67
(lp2424
S':'
asbag60
(g81
g62
NtRp2425
(dp2426
g65
(dp2427
sg74
g2412
sg67
(lp2428
g60
(g61
g62
NtRp2429
(dp2430
g65
(dp2431
g73
I5
ssg74
g2425
sg67
(lp2432
g1909
asbasbasbag60
(g76
g62
NtRp2433
(dp2434
g65
(dp2435
sg74
g70
sg67
(lp2436
g60
(g81
g62
NtRp2437
(dp2438
g65
(dp2439
g85
g86
ssg74
g2433
sg67
(lp2440
S'is_restful'
p2441
asbag60
(g81
g62
NtRp2442
(dp2443
g65
(dp2444
g92
g93
ssg74
g2433
sg67
(lp2445
S':'
asbag60
(g81
g62
NtRp2446
(dp2447
g65
(dp2448
sg74
g2433
sg67
(lp2449
g60
(g61
g62
NtRp2450
(dp2451
g65
(dp2452
g73
I5
ssg74
g2446
sg67
(lp2453
g103
asbasbasbag60
(g76
g62
NtRp2454
(dp2455
g65
(dp2456
sg74
g70
sg67
(lp2457
g60
(g81
g62
NtRp2458
(dp2459
g65
(dp2460
g85
g86
ssg74
g2454
sg67
(lp2461
S'now'
p2462
asbag60
(g81
g62
NtRp2463
(dp2464
g65
(dp2465
g92
g93
ssg74
g2454
sg67
(lp2466
S':'
asbag60
(g81
g62
NtRp2467
(dp2468
g65
(dp2469
sg74
g2454
sg67
(lp2470
g60
(g61
g62
NtRp2471
(dp2472
g65
(dp2473
g73
I5
ssg74
g2467
sg67
(lp2474
S'datetime.datetime(2012, 9, 10, 18, 49, 31, 724291)'
p2475
asbasbasbag60
(g76
g62
NtRp2476
(dp2477
g65
(dp2478
sg74
g70
sg67
(lp2479
g60
(g81
g62
NtRp2480
(dp2481
g65
(dp2482
g85
g86
ssg74
g2476
sg67
(lp2483
S'post_vars'
p2484
asbag60
(g81
g62
NtRp2485
(dp2486
g65
(dp2487
g92
g93
ssg74
g2476
sg67
(lp2488
S':'
asbag60
(g81
g62
NtRp2489
(dp2490
g65
(dp2491
sg74
g2476
sg67
(lp2492
g60
(g61
g62
NtRp2493
(dp2494
g65
(dp2495
g73
I5
ssg74
g2489
sg67
(lp2496
g60
(g69
g62
NtRp2497
(dp2498
g65
(dp2499
g73
I4
ssg74
Nsg67
(lp2500
g60
(g76
g62
NtRp2501
(dp2502
g65
(dp2503
sg74
g2497
sg67
(lp2504
g60
(g81
g62
NtRp2505
(dp2506
g65
(dp2507
g85
g86
ssg74
g2501
sg67
(lp2508
S'waterDepth'
p2509
asbag60
(g81
g62
NtRp2510
(dp2511
g65
(dp2512
g92
g93
ssg74
g2501
sg67
(lp2513
S':'
asbag60
(g81
g62
NtRp2514
(dp2515
g65
(dp2516
sg74
g2501
sg67
(lp2517
g60
(g61
g62
NtRp2518
(dp2519
g65
(dp2520
g73
I4
ssg74
g2514
sg67
(lp2521
S'1.0'
p2522
asbasbasbag60
(g76
g62
NtRp2523
(dp2524
g65
(dp2525
sg74
g2497
sg67
(lp2526
g60
(g81
g62
NtRp2527
(dp2528
g65
(dp2529
g85
g86
ssg74
g2523
sg67
(lp2530
S'waveBreakRatio'
p2531
asbag60
(g81
g62
NtRp2532
(dp2533
g65
(dp2534
g92
g93
ssg74
g2523
sg67
(lp2535
S':'
asbag60
(g81
g62
NtRp2536
(dp2537
g65
(dp2538
sg74
g2523
sg67
(lp2539
g60
(g61
g62
NtRp2540
(dp2541
g65
(dp2542
g73
I4
ssg74
g2536
sg67
(lp2543
S'0.78'
p2544
asbasbasbag60
(g76
g62
NtRp2545
(dp2546
g65
(dp2547
sg74
g2497
sg67
(lp2548
g60
(g81
g62
NtRp2549
(dp2550
g65
(dp2551
g85
g86
ssg74
g2545
sg67
(lp2552
S'waveHeight'
p2553
asbag60
(g81
g62
NtRp2554
(dp2555
g65
(dp2556
g92
g93
ssg74
g2545
sg67
(lp2557
S':'
asbag60
(g81
g62
NtRp2558
(dp2559
g65
(dp2560
sg74
g2545
sg67
(lp2561
g60
(g61
g62
NtRp2562
(dp2563
g65
(dp2564
g73
I4
ssg74
g2558
sg67
(lp2565
S'0.85'
p2566
asbasbasbag60
(g76
g62
NtRp2567
(dp2568
g65
(dp2569
sg74
g2497
sg67
(lp2570
g60
(g81
g62
NtRp2571
(dp2572
g65
(dp2573
g85
g86
ssg74
g2567
sg67
(lp2574
S'wavePeriod'
p2575
asbag60
(g81
g62
NtRp2576
(dp2577
g65
(dp2578
g92
g93
ssg74
g2567
sg67
(lp2579
S':'
asbag60
(g81
g62
NtRp2580
(dp2581
g65
(dp2582
sg74
g2567
sg67
(lp2583
g60
(g61
g62
NtRp2584
(dp2585
g65
(dp2586
g73
I4
ssg74
g2580
sg67
(lp2587
S'3.0'
p2588
asbasbasbasbasbasbasbag60
(g76
g62
NtRp2589
(dp2590
g65
(dp2591
sg74
g70
sg67
(lp2592
g60
(g81
g62
NtRp2593
(dp2594
g65
(dp2595
g85
g86
ssg74
g2589
sg67
(lp2596
S'url'
p2597
asbag60
(g81
g62
NtRp2598
(dp2599
g65
(dp2600
g92
g93
ssg74
g2589
sg67
(lp2601
S':'
asbag60
(g81
g62
NtRp2602
(dp2603
g65
(dp2604
sg74
g2589
sg67
(lp2605
g60
(g61
g62
NtRp2606
(dp2607
g65
(dp2608
g73
I5
ssg74
g2602
sg67
(lp2609
S'/ACES/default/index'
p2610
asbasbasbag60
(g76
g62
NtRp2611
(dp2612
g65
(dp2613
sg74
g70
sg67
(lp2614
g60
(g81
g62
NtRp2615
(dp2616
g65
(dp2617
g85
g86
ssg74
g2611
sg67
(lp2618
S'utcnow'
p2619
asbag60
(g81
g62
NtRp2620
(dp2621
g65
(dp2622
g92
g93
ssg74
g2611
sg67
(lp2623
S':'
asbag60
(g81
g62
NtRp2624
(dp2625
g65
(dp2626
sg74
g2611
sg67
(lp2627
g60
(g61
g62
NtRp2628
(dp2629
g65
(dp2630
g73
I5
ssg74
g2624
sg67
(lp2631
S'datetime.datetime(2012, 9, 10, 23, 49, 31, 724314)'
p2632
asbasbasbag60
(g76
g62
NtRp2633
(dp2634
g65
(dp2635
sg74
g70
sg67
(lp2636
g60
(g81
g62
NtRp2637
(dp2638
g65
(dp2639
g85
g86
ssg74
g2633
sg67
(lp2640
S'uuid'
p2641
asbag60
(g81
g62
NtRp2642
(dp2643
g65
(dp2644
g92
g93
ssg74
g2633
sg67
(lp2645
S':'
asbag60
(g81
g62
NtRp2646
(dp2647
g65
(dp2648
sg74
g2633
sg67
(lp2649
g60
(g61
g62
NtRp2650
(dp2651
g65
(dp2652
g73
I5
ssg74
g2646
sg67
(lp2653
S'ACES/127.0.0.1.2012-09-10.18-49-31.061ce815-4a25-4b3d-afc7-e4e5c7be8b8c'
p2654
asbasbasbag60
(g76
g62
NtRp2655
(dp2656
g65
(dp2657
sg74
g70
sg67
(lp2658
g60
(g81
g62
NtRp2659
(dp2660
g65
(dp2661
g85
g86
ssg74
g2655
sg67
(lp2662
S'vars'
p2663
asbag60
(g81
g62
NtRp2664
(dp2665
g65
(dp2666
g92
g93
ssg74
g2655
sg67
(lp2667
S':'
asbag60
(g81
g62
NtRp2668
(dp2669
g65
(dp2670
sg74
g2655
sg67
(lp2671
g60
(g61
g62
NtRp2672
(dp2673
g65
(dp2674
g73
I5
ssg74
g2668
sg67
(lp2675
g60
(g69
g62
NtRp2676
(dp2677
g65
(dp2678
g73
I4
ssg74
Nsg67
(lp2679
g60
(g76
g62
NtRp2680
(dp2681
g65
(dp2682
sg74
g2676
sg67
(lp2683
g60
(g81
g62
NtRp2684
(dp2685
g65
(dp2686
g85
g86
ssg74
g2680
sg67
(lp2687
g2509
asbag60
(g81
g62
NtRp2688
(dp2689
g65
(dp2690
g92
g93
ssg74
g2680
sg67
(lp2691
S':'
asbag60
(g81
g62
NtRp2692
(dp2693
g65
(dp2694
sg74
g2680
sg67
(lp2695
g60
(g61
g62
NtRp2696
(dp2697
g65
(dp2698
g73
I4
ssg74
g2692
sg67
(lp2699
g2522
asbasbasbag60
(g76
g62
NtRp2700
(dp2701
g65
(dp2702
sg74
g2676
sg67
(lp2703
g60
(g81
g62
NtRp2704
(dp2705
g65
(dp2706
g85
g86
ssg74
g2700
sg67
(lp2707
g2531
asbag60
(g81
g62
NtRp2708
(dp2709
g65
(dp2710
g92
g93
ssg74
g2700
sg67
(lp2711
S':'
asbag60
(g81
g62
NtRp2712
(dp2713
g65
(dp2714
sg74
g2700
sg67
(lp2715
g60
(g61
g62
NtRp2716
(dp2717
g65
(dp2718
g73
I4
ssg74
g2712
sg67
(lp2719
g2544
asbasbasbag60
(g76
g62
NtRp2720
(dp2721
g65
(dp2722
sg74
g2676
sg67
(lp2723
g60
(g81
g62
NtRp2724
(dp2725
g65
(dp2726
g85
g86
ssg74
g2720
sg67
(lp2727
g2553
asbag60
(g81
g62
NtRp2728
(dp2729
g65
(dp2730
g92
g93
ssg74
g2720
sg67
(lp2731
S':'
asbag60
(g81
g62
NtRp2732
(dp2733
g65
(dp2734
sg74
g2720
sg67
(lp2735
g60
(g61
g62
NtRp2736
(dp2737
g65
(dp2738
g73
I4
ssg74
g2732
sg67
(lp2739
g2566
asbasbasbag60
(g76
g62
NtRp2740
(dp2741
g65
(dp2742
sg74
g2676
sg67
(lp2743
g60
(g81
g62
NtRp2744
(dp2745
g65
(dp2746
g85
g86
ssg74
g2740
sg67
(lp2747
g2575
asbag60
(g81
g62
NtRp2748
(dp2749
g65
(dp2750
g92
g93
ssg74
g2740
sg67
(lp2751
S':'
asbag60
(g81
g62
NtRp2752
(dp2753
g65
(dp2754
sg74
g2740
sg67
(lp2755
g60
(g61
g62
NtRp2756
(dp2757
g65
(dp2758
g73
I4
ssg74
g2752
sg67
(lp2759
g2588
asbasbasbasbasbasbasbag60
(g76
g62
NtRp2760
(dp2761
g65
(dp2762
sg74
g70
sg67
(lp2763
g60
(g81
g62
NtRp2764
(dp2765
g65
(dp2766
g85
g86
ssg74
g2760
sg67
(lp2767
S'wsgi'
p2768
asbag60
(g81
g62
NtRp2769
(dp2770
g65
(dp2771
g92
g93
ssg74
g2760
sg67
(lp2772
S':'
asbag60
(g81
g62
NtRp2773
(dp2774
g65
(dp2775
sg74
g2760
sg67
(lp2776
g60
(g61
g62
NtRp2777
(dp2778
g65
(dp2779
g73
I5
ssg74
g2773
sg67
(lp2780
g60
(g69
g62
NtRp2781
(dp2782
g65
(dp2783
g73
I4
ssg74
Nsg67
(lp2784
g60
(g76
g62
NtRp2785
(dp2786
g65
(dp2787
sg74
g2781
sg67
(lp2788
g60
(g81
g62
NtRp2789
(dp2790
g65
(dp2791
g85
g86
ssg74
g2785
sg67
(lp2792
S'environ'
p2793
asbag60
(g81
g62
NtRp2794
(dp2795
g65
(dp2796
g92
g93
ssg74
g2785
sg67
(lp2797
S':'
asbag60
(g81
g62
NtRp2798
(dp2799
g65
(dp2800
sg74
g2785
sg67
(lp2801
g60
(g61
g62
NtRp2802
(dp2803
g65
(dp2804
g73
I4
ssg74
g2798
sg67
(lp2805
g60
(g69
g62
NtRp2806
(dp2807
g65
(dp2808
g73
I3
ssg74
Nsg67
(lp2809
g60
(g76
g62
NtRp2810
(dp2811
g65
(dp2812
sg74
g2806
sg67
(lp2813
g60
(g81
g62
NtRp2814
(dp2815
g65
(dp2816
g85
g86
ssg74
g2810
sg67
(lp2817
S'CONTENT_LENGTH'
p2818
asbag60
(g81
g62
NtRp2819
(dp2820
g65
(dp2821
g92
g93
ssg74
g2810
sg67
(lp2822
S':'
asbag60
(g81
g62
NtRp2823
(dp2824
g65
(dp2825
sg74
g2810
sg67
(lp2826
g60
(g61
g62
NtRp2827
(dp2828
g65
(dp2829
g73
I3
ssg74
g2823
sg67
(lp2830
g1126
asbasbasbag60
(g76
g62
NtRp2831
(dp2832
g65
(dp2833
sg74
g2806
sg67
(lp2834
g60
(g81
g62
NtRp2835
(dp2836
g65
(dp2837
g85
g86
ssg74
g2831
sg67
(lp2838
S'CONTENT_TYPE'
p2839
asbag60
(g81
g62
NtRp2840
(dp2841
g65
(dp2842
g92
g93
ssg74
g2831
sg67
(lp2843
S':'
asbag60
(g81
g62
NtRp2844
(dp2845
g65
(dp2846
sg74
g2831
sg67
(lp2847
g60
(g61
g62
NtRp2848
(dp2849
g65
(dp2850
g73
I3
ssg74
g2844
sg67
(lp2851
g1148
asbasbasbag60
(g76
g62
NtRp2852
(dp2853
g65
(dp2854
sg74
g2806
sg67
(lp2855
g60
(g81
g62
NtRp2856
(dp2857
g65
(dp2858
g85
g86
ssg74
g2852
sg67
(lp2859
S'HTTP_ACCEPT'
p2860
asbag60
(g81
g62
NtRp2861
(dp2862
g65
(dp2863
g92
g93
ssg74
g2852
sg67
(lp2864
S':'
asbag60
(g81
g62
NtRp2865
(dp2866
g65
(dp2867
sg74
g2852
sg67
(lp2868
g60
(g61
g62
NtRp2869
(dp2870
g65
(dp2871
g73
I3
ssg74
g2865
sg67
(lp2872
g1235
asbasbasbag60
(g76
g62
NtRp2873
(dp2874
g65
(dp2875
sg74
g2806
sg67
(lp2876
g60
(g81
g62
NtRp2877
(dp2878
g65
(dp2879
g85
g86
ssg74
g2873
sg67
(lp2880
S'HTTP_ACCEPT_ENCODING'
p2881
asbag60
(g81
g62
NtRp2882
(dp2883
g65
(dp2884
g92
g93
ssg74
g2873
sg67
(lp2885
S':'
asbag60
(g81
g62
NtRp2886
(dp2887
g65
(dp2888
sg74
g2873
sg67
(lp2889
g60
(g61
g62
NtRp2890
(dp2891
g65
(dp2892
g73
I3
ssg74
g2886
sg67
(lp2893
g1257
asbasbasbag60
(g76
g62
NtRp2894
(dp2895
g65
(dp2896
sg74
g2806
sg67
(lp2897
g60
(g81
g62
NtRp2898
(dp2899
g65
(dp2900
g85
g86
ssg74
g2894
sg67
(lp2901
S'HTTP_ACCEPT_LANGUAGE'
p2902
asbag60
(g81
g62
NtRp2903
(dp2904
g65
(dp2905
g92
g93
ssg74
g2894
sg67
(lp2906
S':'
asbag60
(g81
g62
NtRp2907
(dp2908
g65
(dp2909
sg74
g2894
sg67
(lp2910
g60
(g61
g62
NtRp2911
(dp2912
g65
(dp2913
g73
I3
ssg74
g2907
sg67
(lp2914
g1279
asbasbasbag60
(g76
g62
NtRp2915
(dp2916
g65
(dp2917
sg74
g2806
sg67
(lp2918
g60
(g81
g62
NtRp2919
(dp2920
g65
(dp2921
g85
g86
ssg74
g2915
sg67
(lp2922
S'HTTP_CONNECTION'
p2923
asbag60
(g81
g62
NtRp2924
(dp2925
g65
(dp2926
g92
g93
ssg74
g2915
sg67
(lp2927
S':'
asbag60
(g81
g62
NtRp2928
(dp2929
g65
(dp2930
sg74
g2915
sg67
(lp2931
g60
(g61
g62
NtRp2932
(dp2933
g65
(dp2934
g73
I3
ssg74
g2928
sg67
(lp2935
g1301
asbasbasbag60
(g76
g62
NtRp2936
(dp2937
g65
(dp2938
sg74
g2806
sg67
(lp2939
g60
(g81
g62
NtRp2940
(dp2941
g65
(dp2942
g85
g86
ssg74
g2936
sg67
(lp2943
S'HTTP_CONTENT_LENGTH'
p2944
asbag60
(g81
g62
NtRp2945
(dp2946
g65
(dp2947
g92
g93
ssg74
g2936
sg67
(lp2948
S':'
asbag60
(g81
g62
NtRp2949
(dp2950
g65
(dp2951
sg74
g2936
sg67
(lp2952
g60
(g61
g62
NtRp2953
(dp2954
g65
(dp2955
g73
I3
ssg74
g2949
sg67
(lp2956
g1126
asbasbasbag60
(g76
g62
NtRp2957
(dp2958
g65
(dp2959
sg74
g2806
sg67
(lp2960
g60
(g81
g62
NtRp2961
(dp2962
g65
(dp2963
g85
g86
ssg74
g2957
sg67
(lp2964
S'HTTP_CONTENT_TYPE'
p2965
asbag60
(g81
g62
NtRp2966
(dp2967
g65
(dp2968
g92
g93
ssg74
g2957
sg67
(lp2969
S':'
asbag60
(g81
g62
NtRp2970
(dp2971
g65
(dp2972
sg74
g2957
sg67
(lp2973
g60
(g61
g62
NtRp2974
(dp2975
g65
(dp2976
g73
I3
ssg74
g2970
sg67
(lp2977
g1148
asbasbasbag60
(g76
g62
NtRp2978
(dp2979
g65
(dp2980
sg74
g2806
sg67
(lp2981
g60
(g81
g62
NtRp2982
(dp2983
g65
(dp2984
g85
g86
ssg74
g2978
sg67
(lp2985
S'HTTP_COOKIE'
p2986
asbag60
(g81
g62
NtRp2987
(dp2988
g65
(dp2989
g92
g93
ssg74
g2978
sg67
(lp2990
S':'
asbag60
(g81
g62
NtRp2991
(dp2992
g65
(dp2993
sg74
g2978
sg67
(lp2994
g60
(g61
g62
NtRp2995
(dp2996
g65
(dp2997
g73
I3
ssg74
g2991
sg67
(lp2998
g1365
asbasbasbag60
(g76
g62
NtRp2999
(dp3000
g65
(dp3001
sg74
g2806
sg67
(lp3002
g60
(g81
g62
NtRp3003
(dp3004
g65
(dp3005
g85
g86
ssg74
g2999
sg67
(lp3006
S'HTTP_HOST'
p3007
asbag60
(g81
g62
NtRp3008
(dp3009
g65
(dp3010
g92
g93
ssg74
g2999
sg67
(lp3011
S':'
asbag60
(g81
g62
NtRp3012
(dp3013
g65
(dp3014
sg74
g2999
sg67
(lp3015
g60
(g61
g62
NtRp3016
(dp3017
g65
(dp3018
g73
I3
ssg74
g3012
sg67
(lp3019
g1387
asbasbasbag60
(g76
g62
NtRp3020
(dp3021
g65
(dp3022
sg74
g2806
sg67
(lp3023
g60
(g81
g62
NtRp3024
(dp3025
g65
(dp3026
g85
g86
ssg74
g3020
sg67
(lp3027
S'HTTP_REFERER'
p3028
asbag60
(g81
g62
NtRp3029
(dp3030
g65
(dp3031
g92
g93
ssg74
g3020
sg67
(lp3032
S':'
asbag60
(g81
g62
NtRp3033
(dp3034
g65
(dp3035
sg74
g3020
sg67
(lp3036
g60
(g61
g62
NtRp3037
(dp3038
g65
(dp3039
g73
I3
ssg74
g3033
sg67
(lp3040
g1409
asbasbasbag60
(g76
g62
NtRp3041
(dp3042
g65
(dp3043
sg74
g2806
sg67
(lp3044
g60
(g81
g62
NtRp3045
(dp3046
g65
(dp3047
g85
g86
ssg74
g3041
sg67
(lp3048
S'HTTP_USER_AGENT'
p3049
asbag60
(g81
g62
NtRp3050
(dp3051
g65
(dp3052
g92
g93
ssg74
g3041
sg67
(lp3053
S':'
asbag60
(g81
g62
NtRp3054
(dp3055
g65
(dp3056
sg74
g3041
sg67
(lp3057
g60
(g61
g62
NtRp3058
(dp3059
g65
(dp3060
g73
I3
ssg74
g3054
sg67
(lp3061
g1431
asbasbasbag60
(g76
g62
NtRp3062
(dp3063
g65
(dp3064
sg74
g2806
sg67
(lp3065
g60
(g81
g62
NtRp3066
(dp3067
g65
(dp3068
g85
g86
ssg74
g3062
sg67
(lp3069
S'PATH_INFO'
p3070
asbag60
(g81
g62
NtRp3071
(dp3072
g65
(dp3073
g92
g93
ssg74
g3062
sg67
(lp3074
S':'
asbag60
(g81
g62
NtRp3075
(dp3076
g65
(dp3077
sg74
g3062
sg67
(lp3078
g60
(g61
g62
NtRp3079
(dp3080
g65
(dp3081
g73
I3
ssg74
g3075
sg67
(lp3082
g1474
asbasbasbag60
(g76
g62
NtRp3083
(dp3084
g65
(dp3085
sg74
g2806
sg67
(lp3086
g60
(g81
g62
NtRp3087
(dp3088
g65
(dp3089
g85
g86
ssg74
g3083
sg67
(lp3090
S'QUERY_STRING'
p3091
asbag60
(g81
g62
NtRp3092
(dp3093
g65
(dp3094
g92
g93
ssg74
g3083
sg67
(lp3095
S':'
asbag60
(g81
g62
NtRp3096
(dp3097
g65
(dp3098
sg74
g3083
sg67
(lp3099
g60
(g61
g62
NtRp3100
(dp3101
g65
(dp3102
g73
I3
ssg74
g3096
sg67
(lp3103
S''
asbasbasbag60
(g76
g62
NtRp3104
(dp3105
g65
(dp3106
sg74
g2806
sg67
(lp3107
g60
(g81
g62
NtRp3108
(dp3109
g65
(dp3110
g85
g86
ssg74
g3104
sg67
(lp3111
S'REMOTE_ADDR'
p3112
asbag60
(g81
g62
NtRp3113
(dp3114
g65
(dp3115
g92
g93
ssg74
g3104
sg67
(lp3116
S':'
asbag60
(g81
g62
NtRp3117
(dp3118
g65
(dp3119
sg74
g3104
sg67
(lp3120
g60
(g61
g62
NtRp3121
(dp3122
g65
(dp3123
g73
I3
ssg74
g3117
sg67
(lp3124
g193
asbasbasbag60
(g76
g62
NtRp3125
(dp3126
g65
(dp3127
sg74
g2806
sg67
(lp3128
g60
(g81
g62
NtRp3129
(dp3130
g65
(dp3131
g85
g86
ssg74
g3125
sg67
(lp3132
S'REMOTE_PORT'
p3133
asbag60
(g81
g62
NtRp3134
(dp3135
g65
(dp3136
g92
g93
ssg74
g3125
sg67
(lp3137
S':'
asbag60
(g81
g62
NtRp3138
(dp3139
g65
(dp3140
sg74
g3125
sg67
(lp3141
g60
(g61
g62
NtRp3142
(dp3143
g65
(dp3144
g73
I3
ssg74
g3138
sg67
(lp3145
g1538
asbasbasbag60
(g76
g62
NtRp3146
(dp3147
g65
(dp3148
sg74
g2806
sg67
(lp3149
g60
(g81
g62
NtRp3150
(dp3151
g65
(dp3152
g85
g86
ssg74
g3146
sg67
(lp3153
S'REQUEST_METHOD'
p3154
asbag60
(g81
g62
NtRp3155
(dp3156
g65
(dp3157
g92
g93
ssg74
g3146
sg67
(lp3158
S':'
asbag60
(g81
g62
NtRp3159
(dp3160
g65
(dp3161
sg74
g3146
sg67
(lp3162
g60
(g61
g62
NtRp3163
(dp3164
g65
(dp3165
g73
I3
ssg74
g3159
sg67
(lp3166
g1560
asbasbasbag60
(g76
g62
NtRp3167
(dp3168
g65
(dp3169
sg74
g2806
sg67
(lp3170
g60
(g81
g62
NtRp3171
(dp3172
g65
(dp3173
g85
g86
ssg74
g3167
sg67
(lp3174
S'SCRIPT_NAME'
p3175
asbag60
(g81
g62
NtRp3176
(dp3177
g65
(dp3178
g92
g93
ssg74
g3167
sg67
(lp3179
S':'
asbag60
(g81
g62
NtRp3180
(dp3181
g65
(dp3182
sg74
g3167
sg67
(lp3183
g60
(g61
g62
NtRp3184
(dp3185
g65
(dp3186
g73
I3
ssg74
g3180
sg67
(lp3187
S''
asbasbasbag60
(g76
g62
NtRp3188
(dp3189
g65
(dp3190
sg74
g2806
sg67
(lp3191
g60
(g81
g62
NtRp3192
(dp3193
g65
(dp3194
g85
g86
ssg74
g3188
sg67
(lp3195
S'SERVER_NAME'
p3196
asbag60
(g81
g62
NtRp3197
(dp3198
g65
(dp3199
g92
g93
ssg74
g3188
sg67
(lp3200
S':'
asbag60
(g81
g62
NtRp3201
(dp3202
g65
(dp3203
sg74
g3188
sg67
(lp3204
g60
(g61
g62
NtRp3205
(dp3206
g65
(dp3207
g73
I3
ssg74
g3201
sg67
(lp3208
g1603
asbasbasbag60
(g76
g62
NtRp3209
(dp3210
g65
(dp3211
sg74
g2806
sg67
(lp3212
g60
(g81
g62
NtRp3213
(dp3214
g65
(dp3215
g85
g86
ssg74
g3209
sg67
(lp3216
S'SERVER_PORT'
p3217
asbag60
(g81
g62
NtRp3218
(dp3219
g65
(dp3220
g92
g93
ssg74
g3209
sg67
(lp3221
S':'
asbag60
(g81
g62
NtRp3222
(dp3223
g65
(dp3224
sg74
g3209
sg67
(lp3225
g60
(g61
g62
NtRp3226
(dp3227
g65
(dp3228
g73
I3
ssg74
g3222
sg67
(lp3229
g1625
asbasbasbag60
(g76
g62
NtRp3230
(dp3231
g65
(dp3232
sg74
g2806
sg67
(lp3233
g60
(g81
g62
NtRp3234
(dp3235
g65
(dp3236
g85
g86
ssg74
g3230
sg67
(lp3237
S'SERVER_PROTOCOL'
p3238
asbag60
(g81
g62
NtRp3239
(dp3240
g65
(dp3241
g92
g93
ssg74
g3230
sg67
(lp3242
S':'
asbag60
(g81
g62
NtRp3243
(dp3244
g65
(dp3245
sg74
g3230
sg67
(lp3246
g60
(g61
g62
NtRp3247
(dp3248
g65
(dp3249
g73
I3
ssg74
g3243
sg67
(lp3250
g1647
asbasbasbag60
(g76
g62
NtRp3251
(dp3252
g65
(dp3253
sg74
g2806
sg67
(lp3254
g60
(g81
g62
NtRp3255
(dp3256
g65
(dp3257
g85
g86
ssg74
g3251
sg67
(lp3258
S'SERVER_SOFTWARE'
p3259
asbag60
(g81
g62
NtRp3260
(dp3261
g65
(dp3262
g92
g93
ssg74
g3251
sg67
(lp3263
S':'
asbag60
(g81
g62
NtRp3264
(dp3265
g65
(dp3266
sg74
g3251
sg67
(lp3267
g60
(g61
g62
NtRp3268
(dp3269
g65
(dp3270
g73
I3
ssg74
g3264
sg67
(lp3271
g1669
asbasbasbag60
(g76
g62
NtRp3272
(dp3273
g65
(dp3274
sg74
g2806
sg67
(lp3275
g60
(g81
g62
NtRp3276
(dp3277
g65
(dp3278
g85
g86
ssg74
g3272
sg67
(lp3279
S'wsgi.errors'
p3280
asbag60
(g81
g62
NtRp3281
(dp3282
g65
(dp3283
g92
g93
ssg74
g3272
sg67
(lp3284
S':'
asbag60
(g81
g62
NtRp3285
(dp3286
g65
(dp3287
sg74
g3272
sg67
(lp3288
g60
(g61
g62
NtRp3289
(dp3290
g65
(dp3291
g73
I3
ssg74
g3285
sg67
(lp3292
S"<open file '<stderr>', mode 'w' at 0xb73360d0>"
p3293
asbasbasbag60
(g76
g62
NtRp3294
(dp3295
g65
(dp3296
sg74
g2806
sg67
(lp3297
g60
(g81
g62
NtRp3298
(dp3299
g65
(dp3300
g85
g86
ssg74
g3294
sg67
(lp3301
S'wsgi.file_wrapper'
p3302
asbag60
(g81
g62
NtRp3303
(dp3304
g65
(dp3305
g92
g93
ssg74
g3294
sg67
(lp3306
S':'
asbag60
(g81
g62
NtRp3307
(dp3308
g65
(dp3309
sg74
g3294
sg67
(lp3310
g60
(g61
g62
NtRp3311
(dp3312
g65
(dp3313
g73
I3
ssg74
g3307
sg67
(lp3314
S'<class wsgiref.util.FileWrapper at 0xa6e1b3c>'
p3315
asbasbasbag60
(g76
g62
NtRp3316
(dp3317
g65
(dp3318
sg74
g2806
sg67
(lp3319
g60
(g81
g62
NtRp3320
(dp3321
g65
(dp3322
g85
g86
ssg74
g3316
sg67
(lp3323
S'wsgi.input'
p3324
asbag60
(g81
g62
NtRp3325
(dp3326
g65
(dp3327
g92
g93
ssg74
g3316
sg67
(lp3328
S':'
asbag60
(g81
g62
NtRp3329
(dp3330
g65
(dp3331
sg74
g3316
sg67
(lp3332
g60
(g61
g62
NtRp3333
(dp3334
g65
(dp3335
g73
I3
ssg74
g3329
sg67
(lp3336
S"<open file '<fdopen>', mode 'w+b' at 0xacab6128>"
p3337
asbasbasbag60
(g76
g62
NtRp3338
(dp3339
g65
(dp3340
sg74
g2806
sg67
(lp3341
g60
(g81
g62
NtRp3342
(dp3343
g65
(dp3344
g85
g86
ssg74
g3338
sg67
(lp3345
S'wsgi.multiprocess'
p3346
asbag60
(g81
g62
NtRp3347
(dp3348
g65
(dp3349
g92
g93
ssg74
g3338
sg67
(lp3350
S':'
asbag60
(g81
g62
NtRp3351
(dp3352
g65
(dp3353
sg74
g3338
sg67
(lp3354
g60
(g61
g62
NtRp3355
(dp3356
g65
(dp3357
g73
I3
ssg74
g3351
sg67
(lp3358
g103
asbasbasbag60
(g76
g62
NtRp3359
(dp3360
g65
(dp3361
sg74
g2806
sg67
(lp3362
g60
(g81
g62
NtRp3363
(dp3364
g65
(dp3365
g85
g86
ssg74
g3359
sg67
(lp3366
S'wsgi.multithread'
p3367
asbag60
(g81
g62
NtRp3368
(dp3369
g65
(dp3370
g92
g93
ssg74
g3359
sg67
(lp3371
S':'
asbag60
(g81
g62
NtRp3372
(dp3373
g65
(dp3374
sg74
g3359
sg67
(lp3375
g60
(g61
g62
NtRp3376
(dp3377
g65
(dp3378
g73
I3
ssg74
g3372
sg67
(lp3379
g1909
asbasbasbag60
(g76
g62
NtRp3380
(dp3381
g65
(dp3382
sg74
g2806
sg67
(lp3383
g60
(g81
g62
NtRp3384
(dp3385
g65
(dp3386
g85
g86
ssg74
g3380
sg67
(lp3387
S'wsgi.run_once'
p3388
asbag60
(g81
g62
NtRp3389
(dp3390
g65
(dp3391
g92
g93
ssg74
g3380
sg67
(lp3392
S':'
asbag60
(g81
g62
NtRp3393
(dp3394
g65
(dp3395
sg74
g3380
sg67
(lp3396
g60
(g61
g62
NtRp3397
(dp3398
g65
(dp3399
g73
I3
ssg74
g3393
sg67
(lp3400
g103
asbasbasbag60
(g76
g62
NtRp3401
(dp3402
g65
(dp3403
sg74
g2806
sg67
(lp3404
g60
(g81
g62
NtRp3405
(dp3406
g65
(dp3407
g85
g86
ssg74
g3401
sg67
(lp3408
S'wsgi.url_scheme'
p3409
asbag60
(g81
g62
NtRp3410
(dp3411
g65
(dp3412
g92
g93
ssg74
g3401
sg67
(lp3413
S':'
asbag60
(g81
g62
NtRp3414
(dp3415
g65
(dp3416
sg74
g3401
sg67
(lp3417
g60
(g61
g62
NtRp3418
(dp3419
g65
(dp3420
g73
I3
ssg74
g3414
sg67
(lp3421
g1952
asbasbasbag60
(g76
g62
NtRp3422
(dp3423
g65
(dp3424
sg74
g2806
sg67
(lp3425
g60
(g81
g62
NtRp3426
(dp3427
g65
(dp3428
g85
g86
ssg74
g3422
sg67
(lp3429
S'wsgi.version'
p3430
asbag60
(g81
g62
NtRp3431
(dp3432
g65
(dp3433
g92
g93
ssg74
g3422
sg67
(lp3434
S':'
asbag60
(g81
g62
NtRp3435
(dp3436
g65
(dp3437
sg74
g3422
sg67
(lp3438
g60
(g61
g62
NtRp3439
(dp3440
g65
(dp3441
g73
I3
ssg74
g3435
sg67
(lp3442
S'1'
asbasbasbasbasbasbasbasbasbasbasbasbasbsS'frames'
p3443
(lp3444
(dp3445
S'file'
p3446
S'/home/u4hcsdaw/Python/web2py/gluon/restricted.py'
p3447
sS'dump'
p3448
(dp3449
S'environment'
p3450
S"{'A': <class 'gluon.html.A'>, 'AcesCall': <function AcesCall>, 'Auth': <class 'gluon.tools.Auth'>, 'B': <class 'gluon.html.B'>, 'BEAUTIFY': <class 'gluon.html.BEAUTIFY'>, 'BODY': <class 'gluon.html.BODY'>, 'BR': <class 'gluon.html.BR'>, 'BUTTON': <class 'gluon.html.BUTTON'>, 'CAT': <class 'gluon.html.CAT'>, 'CENTER': <class 'gluon.html.CENTER'>, ...}"
p3451
sS'ccode'
p3452
S'<code object <module> at 0xacacf968, file "/home...plications/ACES/controllers/default.py", line 12>'
p3453
ssS'lnum'
p3454
I194
sS'lines'
p3455
(dp3456
I192
S'        else:'
p3457
sI193
S'            ccode = compile2(code,layer)'
p3458
sI194
S'        exec ccode in environment'
p3459
sI195
S'    except HTTP:'
p3460
sI196
S'        raise'
p3461
sI197
S'    except Exception, error:'
p3462
sI198
S'        # XXX Show exception in Wing IDE if running in debugger'
p3463
sI189
S'    try:'
p3464
sI190
S'        if type(code) == types.CodeType:'
p3465
sI191
S'            ccode = code'
p3466
ssS'call'
p3467
S"(code='# -*- coding: utf-8 -*-\\n# this file is released ...=crud())\\n\\nresponse._vars=response._caller(index)\\n', environment={'A': <class 'gluon.html.A'>, 'AcesCall': <function AcesCall>, 'Auth': <class 'gluon.tools.Auth'>, 'B': <class 'gluon.html.B'>, 'BEAUTIFY': <class 'gluon.html.BEAUTIFY'>, 'BODY': <class 'gluon.html.BODY'>, 'BR': <class 'gluon.html.BR'>, 'BUTTON': <class 'gluon.html.BUTTON'>, 'CAT': <class 'gluon.html.CAT'>, 'CENTER': <class 'gluon.html.CENTER'>, ...}, layer='/home/u4hcsdaw/Python/web2py/applications/ACES/controllers/default.py')"
p3468
sS'func'
p3469
S'restricted'
p3470
sa(dp3471
g3446
S'/home/u4hcsdaw/Python/web2py/applications/ACES/controllers/default.py'
p3472
sg3448
(dp3473
sg3454
I87
sg3455
(dp3474
I76
S'    http://..../[app]/default/data/update/[table]/[id]'
p3475
sI77
S'    http://..../[app]/default/data/delete/[table]/[id]'
p3476
sI78
S'    http://..../[app]/default/data/select/[table]'
p3477
sI79
S'    http://..../[app]/default/data/search/[table]'
p3478
sI80
S'    but URLs bust be signed, i.e. linked with'
p3479
sI81
S"      A('table',_href=URL('data/tables',user_signature=True))"
p3480
sI82
S'    or with the signed load operator'
p3481
sI83
S"      LOAD('default','data.load',args='tables',ajax=True,user_signature=True)"
p3482
sI84
S'    """'
p3483
sI85
S'    return dict(form=crud())'
p3484
ssg3467
S'()'
p3485
sg3469
S'<module>'
p3486
sa(dp3487
g3446
S'/home/u4hcsdaw/Python/web2py/gluon/globals.py'
p3488
sg3448
(dp3489
S'self'
p3490
S'undefined'
p3491
sS'f'
S'<function index>'
p3492
ssg3454
I149
sg3455
(dp3493
I144
S'        self.meta = Storage()      # used by web2py_ajax.html'
p3494
sI145
S'        self.menu = []             # used by the default view layout'
p3495
sI146
S'        self.files = []            # used by web2py_ajax.html'
p3496
sI147
S'        self.generic_patterns = [] # patterns to allow generic views'
p3497
sI148
S'        self._vars = None'
p3498
sI149
S'        self._caller = lambda f: f()'
p3499
sI150
S'        self._view_environment = None'
p3500
sI151
S'        self._custom_commit = None'
p3501
sI152
S'        self._custom_rollback = None'
p3502
sI153
S''
ssg3467
S'(f=<function index>)'
p3503
sg3469
S'<lambda>'
p3504
sa(dp3505
g3446
S'/home/u4hcsdaw/Python/web2py/applications/ACES/controllers/default.py'
p3506
sg3448
(dp3507
S'f1.accepts'
p3508
S'<bound method SQLFORM.accepts of <gluon.sqlhtml.SQLFORM object>>'
p3509
sS'f1'
p3510
S'<gluon.sqlhtml.SQLFORM object>'
p3511
sS'global request'
p3512
S"<Storage {'body': <open file '<fdopen>', mode 'w...d0b8fd', '_formname': 'linearWaveForm/create'}>}>"
p3513
sS'global session'
p3514
S"<Storage {'formVars': <Storage {'waveHeight': 0....1\\x1brT\\xa2\\xb7\\xbd\\xa4\\x0eO\\n\\x1c\\xd3\\x11\\xcb'}>"
p3515
sS'request.vars'
p3516
S"<Storage {'wavePeriod': '3.0', 'waveHeight': '0....99d0b8fd', '_formname': 'linearWaveForm/create'}>"
p3517
ssg3454
I28
sg3455
(dp3518
I32
S"        img1=IMG(_src=URL('static','images/Waves.svg?'+nowS))"
p3519
sI23
S''
sI24
S'    f1=linearWaveForm()'
p3520
sI25
S'    if session.formVars:'
p3521
sI26
S'        f1.vars=session.formVars'
p3522
sI27
S"    #f1['vars']=dict(waveHeight=0.85,wavePeriod=8.00,waveBrk=0.78,waterDepth=4.1)"
p3523
sI28
S'    if f1.accepts(request.vars,session):'
p3524
sI29
S'        session.formVars=f1.vars'
p3525
sI30
S'        t0=AcesCall(f1.vars)'
p3526
sI31
S'        pre1=PRE(t0)'
p3527
ssg3467
S'()'
p3528
sg3469
S'index'
p3529
sa(dp3530
g3446
S'/home/u4hcsdaw/Python/web2py/gluon/sqlhtml.py'
p3531
sg3448
(dp3532
S'self.vars.id'
p3533
S'6'
sS'fields'
p3534
S"{'id': 6, 'waterDepth': 1.0, 'waveBreakRatio': 0.78, 'waveHeight': 0.85, 'wavePeriod': 3.0}"
p3535
sS'self'
p3536
S'<gluon.sqlhtml.SQLFORM object>'
p3537
sS'self.vars'
p3538
S"<Storage {'waveHeight': 0.85, 'wavePeriod': 3.0,...veBreakRatio': 0.78, 'waterDepth': 1.0, 'id': 6}>"
p3539
sS'self.table.insert'
p3540
S"<bound method Table.insert of <Table {'wavePerio..., 'id': <gluon.dal.Field object at 0xad08b74c>}>>"
p3541
sS'self.table'
p3542
S"<Table {'wavePeriod': <gluon.dal.Field object at...>, 'id': <gluon.dal.Field object at 0xad08b74c>}>"
p3543
ssg3454
I1259
sg3455
(dp3544
I1254
S'                if record_id:'
p3545
sI1255
S'                    self.vars.id = self.record.id'
p3546
sI1256
S'                    if fields:'
p3547
sI1257
S'                        self.table._db(self.table._id == self.record.id).update(**fields)'
p3548
sI1258
S'                else:'
p3549
sI1259
S'                    self.vars.id = self.table.insert(**fields)'
p3550
sI1260
S'        self.accepted = ret'
p3551
sI1261
S'        return ret'
p3552
sI1262
S''
sI1263
S'    @staticmethod'
p3553
ssg3467
S"(self=<gluon.sqlhtml.SQLFORM object>, request_vars=<Storage {'wavePeriod': '3.0', 'waveHeight': '0....99d0b8fd', '_formname': 'linearWaveForm/create'}>, session=<Storage {'formVars': <Storage {'waveHeight': 0....1\\x1brT\\xa2\\xb7\\xbd\\xa4\\x0eO\\n\\x1c\\xd3\\x11\\xcb'}>, formname='linearWaveForm/create', keepvalues=False, onvalidation=None, dbio=True, hideerror=False, detect_record_change=False)"
p3554
sg3469
S'accepts'
p3555
sa(dp3556
g3446
S'/home/u4hcsdaw/Python/web2py/gluon/dal.py'
p3557
sg3448
(dp3558
S'self._listify'
p3559
S"<bound method Table._listify of <Table {'wavePer..., 'id': <gluon.dal.Field object at 0xad08b74c>}>>"
p3560
sS'fields'
p3561
S"{'id': 6, 'waterDepth': 1.0, 'waveBreakRatio': 0.78, 'waveHeight': 0.85, 'wavePeriod': 3.0}"
p3562
sS'self'
p3563
S"<Table {'wavePeriod': <gluon.dal.Field object at...>, 'id': <gluon.dal.Field object at 0xad08b74c>}>"
p3564
sS'self._db._adapter'
p3565
S'<gluon.dal.SQLiteAdapter object>'
p3566
sS'self._db._adapter.insert'
p3567
S'<bound method SQLiteAdapter.insert of <gluon.dal.SQLiteAdapter object>>'
p3568
sS'self._db'
p3569
S"<DAL {'auth_event': <Table {'origin': <gluon.dal... 'id': <gluon.dal.Field object at 0xac912aec>}>}>"
p3570
ssg3454
I5045
sg3455
(dp3571
I5040
S''
sI5041
S'    def _insert(self, **fields):'
p3572
sI5042
S'        return self._db._adapter._insert(self,self._listify(fields))'
p3573
sI5043
S''
sI5044
S'    def insert(self, **fields):'
p3574
sI5045
S'        return self._db._adapter.insert(self,self._listify(fields))'
p3575
sI5046
S''
sI5047
S'    def validate_and_insert(self,**fields):'
p3576
sI5048
S'        response = Row()'
p3577
sI5049
S'        response.errors = self._validate(**fields)'
p3578
ssg3467
S"(self=<Table {'wavePeriod': <gluon.dal.Field object at...>, 'id': <gluon.dal.Field object at 0xad08b74c>}>, **fields={'id': 6, 'waterDepth': 1.0, 'waveBreakRatio': 0.78, 'waveHeight': 0.85, 'wavePeriod': 3.0})"
p3579
sg3469
S'insert'
p3580
sa(dp3581
g3446
S'/home/u4hcsdaw/Python/web2py/gluon/dal.py'
p3582
sg3448
(dp3583
S'e'
S"IntegrityError('PRIMARY KEY must be unique',)"
p3584
ssg3454
I886
sg3455
(dp3585
I881
S'        try:'
p3586
sI882
S'            self.execute(query)'
p3587
sI883
S'        except Exception, e:'
p3588
sI884
S'            if isinstance(e,self.integrity_error_class()):'
p3589
sI885
S'                return None'
p3590
sI886
S'            raise e'
p3591
sI887
S"        if hasattr(table,'_primarykey'):"
p3592
sI888
S'            return dict([(k[0].name, k[1]) for k in fields \\'
p3593
sI889
S'                             if k[0].name in table._primarykey])'
p3594
sI890
S'        id = self.lastrowid(table)'
p3595
ssg3467
S"(self=<gluon.dal.SQLiteAdapter object>, table=<Table {'wavePeriod': <gluon.dal.Field object at...>, 'id': <gluon.dal.Field object at 0xad08b74c>}>, fields=[(<gluon.dal.Field object>, 0.85), (<gluon.dal.Field object>, 3.0), (<gluon.dal.Field object>, 0.78), (<gluon.dal.Field object>, 1.0), (<gluon.dal.Field object>, 6)])"
p3596
sg3469
g3580
sasS'pyver'
p3597
S'Python 2.7.3: /usr/bin/python2.7'
p3598
sS'session'
p3599
g60
(g61
g62
NtRp3600
(dp3601
g65
(dp3602
sg67
(lp3603
g60
(g69
g62
NtRp3604
(dp3605
g65
(dp3606
g73
I5
ssg74
Nsg67
(lp3607
g60
(g76
g62
NtRp3608
(dp3609
g65
(dp3610
sg74
g3604
sg67
(lp3611
g60
(g81
g62
NtRp3612
(dp3613
g65
(dp3614
g85
g86
ssg74
g3608
sg67
(lp3615
S'WaveHeight'
p3616
asbag60
(g81
g62
NtRp3617
(dp3618
g65
(dp3619
g92
g93
ssg74
g3608
sg67
(lp3620
S':'
asbag60
(g81
g62
NtRp3621
(dp3622
g65
(dp3623
sg74
g3608
sg67
(lp3624
g60
(g61
g62
NtRp3625
(dp3626
g65
(dp3627
g73
I5
ssg74
g3621
sg67
(lp3628
S'0.85'
p3629
asbasbasbag60
(g76
g62
NtRp3630
(dp3631
g65
(dp3632
sg74
g3604
sg67
(lp3633
g60
(g81
g62
NtRp3634
(dp3635
g65
(dp3636
g85
g86
ssg74
g3630
sg67
(lp3637
S'formVars'
p3638
asbag60
(g81
g62
NtRp3639
(dp3640
g65
(dp3641
g92
g93
ssg74
g3630
sg67
(lp3642
S':'
asbag60
(g81
g62
NtRp3643
(dp3644
g65
(dp3645
sg74
g3630
sg67
(lp3646
g60
(g61
g62
NtRp3647
(dp3648
g65
(dp3649
g73
I5
ssg74
g3643
sg67
(lp3650
g60
(g69
g62
NtRp3651
(dp3652
g65
(dp3653
g73
I4
ssg74
Nsg67
(lp3654
g60
(g76
g62
NtRp3655
(dp3656
g65
(dp3657
sg74
g3651
sg67
(lp3658
g60
(g81
g62
NtRp3659
(dp3660
g65
(dp3661
g85
g86
ssg74
g3655
sg67
(lp3662
S'id'
p3663
asbag60
(g81
g62
NtRp3664
(dp3665
g65
(dp3666
g92
g93
ssg74
g3655
sg67
(lp3667
S':'
asbag60
(g81
g62
NtRp3668
(dp3669
g65
(dp3670
sg74
g3655
sg67
(lp3671
g60
(g61
g62
NtRp3672
(dp3673
g65
(dp3674
g73
I4
ssg74
g3668
sg67
(lp3675
S'6'
asbasbasbag60
(g76
g62
NtRp3676
(dp3677
g65
(dp3678
sg74
g3651
sg67
(lp3679
g60
(g81
g62
NtRp3680
(dp3681
g65
(dp3682
g85
g86
ssg74
g3676
sg67
(lp3683
S'waterDepth'
p3684
asbag60
(g81
g62
NtRp3685
(dp3686
g65
(dp3687
g92
g93
ssg74
g3676
sg67
(lp3688
S':'
asbag60
(g81
g62
NtRp3689
(dp3690
g65
(dp3691
sg74
g3676
sg67
(lp3692
g60
(g61
g62
NtRp3693
(dp3694
g65
(dp3695
g73
I4
ssg74
g3689
sg67
(lp3696
S'1.0'
p3697
asbasbasbag60
(g76
g62
NtRp3698
(dp3699
g65
(dp3700
sg74
g3651
sg67
(lp3701
g60
(g81
g62
NtRp3702
(dp3703
g65
(dp3704
g85
g86
ssg74
g3698
sg67
(lp3705
S'waveBreakRatio'
p3706
asbag60
(g81
g62
NtRp3707
(dp3708
g65
(dp3709
g92
g93
ssg74
g3698
sg67
(lp3710
S':'
asbag60
(g81
g62
NtRp3711
(dp3712
g65
(dp3713
sg74
g3698
sg67
(lp3714
g60
(g61
g62
NtRp3715
(dp3716
g65
(dp3717
g73
I4
ssg74
g3711
sg67
(lp3718
S'0.78'
p3719
asbasbasbag60
(g76
g62
NtRp3720
(dp3721
g65
(dp3722
sg74
g3651
sg67
(lp3723
g60
(g81
g62
NtRp3724
(dp3725
g65
(dp3726
g85
g86
ssg74
g3720
sg67
(lp3727
S'waveHeight'
p3728
asbag60
(g81
g62
NtRp3729
(dp3730
g65
(dp3731
g92
g93
ssg74
g3720
sg67
(lp3732
S':'
asbag60
(g81
g62
NtRp3733
(dp3734
g65
(dp3735
sg74
g3720
sg67
(lp3736
g60
(g61
g62
NtRp3737
(dp3738
g65
(dp3739
g73
I4
ssg74
g3733
sg67
(lp3740
S'0.85'
p3741
asbasbasbag60
(g76
g62
NtRp3742
(dp3743
g65
(dp3744
sg74
g3651
sg67
(lp3745
g60
(g81
g62
NtRp3746
(dp3747
g65
(dp3748
g85
g86
ssg74
g3742
sg67
(lp3749
S'wavePeriod'
p3750
asbag60
(g81
g62
NtRp3751
(dp3752
g65
(dp3753
g92
g93
ssg74
g3742
sg67
(lp3754
S':'
asbag60
(g81
g62
NtRp3755
(dp3756
g65
(dp3757
sg74
g3742
sg67
(lp3758
g60
(g61
g62
NtRp3759
(dp3760
g65
(dp3761
g73
I4
ssg74
g3755
sg67
(lp3762
S'3.0'
p3763
asbasbasbasbasbasbasbasbasbsS'etype'
p3764
S"<class 'sqlite3.IntegrityError'>"
p3765
sS'date'
p3766
S'Mon Sep 10 18:49:31 2012'
p3767
sS'response'
p3768
g60
(g61
g62
NtRp3769
(dp3770
g65
(dp3771
sg67
(lp3772
g60
(g69
g62
NtRp3773
(dp3774
g65
(dp3775
g73
I5
ssg74
Nsg67
(lp3776
g60
(g76
g62
NtRp3777
(dp3778
g65
(dp3779
sg74
g3773
sg67
(lp3780
g60
(g81
g62
NtRp3781
(dp3782
g65
(dp3783
g85
g86
ssg74
g3777
sg67
(lp3784
g158
asbag60
(g81
g62
NtRp3785
(dp3786
g65
(dp3787
g92
g93
ssg74
g3777
sg67
(lp3788
S':'
asbag60
(g81
g62
NtRp3789
(dp3790
g65
(dp3791
sg74
g3777
sg67
(lp3792
g60
(g61
g62
NtRp3793
(dp3794
g65
(dp3795
g73
I5
ssg74
g3789
sg67
(lp3796
S'<cStringIO.StringO object at 0xab6c5e0>'
p3797
asbasbasbag60
(g76
g62
NtRp3798
(dp3799
g65
(dp3800
sg74
g3773
sg67
(lp3801
g60
(g81
g62
NtRp3802
(dp3803
g65
(dp3804
g85
g86
ssg74
g3798
sg67
(lp3805
g224
asbag60
(g81
g62
NtRp3806
(dp3807
g65
(dp3808
g92
g93
ssg74
g3798
sg67
(lp3809
S':'
asbag60
(g81
g62
NtRp3810
(dp3811
g65
(dp3812
sg74
g3798
sg67
(lp3813
g60
(g61
g62
NtRp3814
(dp3815
g65
(dp3816
g73
I5
ssg74
g3810
sg67
(lp3817
g60
(g69
g62
NtRp3818
(dp3819
g65
(dp3820
g73
I4
ssg74
Nsg67
(lp3821
g60
(g76
g62
NtRp3822
(dp3823
g65
(dp3824
sg74
g3818
sg67
(lp3825
g60
(g81
g62
NtRp3826
(dp3827
g65
(dp3828
g85
g86
ssg74
g3822
sg67
(lp3829
S'session_id_aces'
p3830
asbag60
(g81
g62
NtRp3831
(dp3832
g65
(dp3833
g92
g93
ssg74
g3822
sg67
(lp3834
S':'
asbag60
(g81
g62
NtRp3835
(dp3836
g65
(dp3837
sg74
g3822
sg67
(lp3838
g60
(g61
g62
NtRp3839
(dp3840
g65
(dp3841
g73
I4
ssg74
g3835
sg67
(lp3842
g60
(g69
g62
NtRp3843
(dp3844
g65
(dp3845
g73
I3
ssg74
Nsg67
(lp3846
g60
(g76
g62
NtRp3847
(dp3848
g65
(dp3849
sg74
g3843
sg67
(lp3850
g60
(g81
g62
NtRp3851
(dp3852
g65
(dp3853
g85
g86
ssg74
g3847
sg67
(lp3854
g274
asbag60
(g81
g62
NtRp3855
(dp3856
g65
(dp3857
g92
g93
ssg74
g3847
sg67
(lp3858
S':'
asbag60
(g81
g62
NtRp3859
(dp3860
g65
(dp3861
sg74
g3847
sg67
(lp3862
g60
(g61
g62
NtRp3863
(dp3864
g65
(dp3865
g73
I3
ssg74
g3859
sg67
(lp3866
S''
asbasbasbag60
(g76
g62
NtRp3867
(dp3868
g65
(dp3869
sg74
g3843
sg67
(lp3870
g60
(g81
g62
NtRp3871
(dp3872
g65
(dp3873
g85
g86
ssg74
g3867
sg67
(lp3874
g295
asbag60
(g81
g62
NtRp3875
(dp3876
g65
(dp3877
g92
g93
ssg74
g3867
sg67
(lp3878
S':'
asbag60
(g81
g62
NtRp3879
(dp3880
g65
(dp3881
sg74
g3867
sg67
(lp3882
g60
(g61
g62
NtRp3883
(dp3884
g65
(dp3885
g73
I3
ssg74
g3879
sg67
(lp3886
S''
asbasbasbag60
(g76
g62
NtRp3887
(dp3888
g65
(dp3889
sg74
g3843
sg67
(lp3890
g60
(g81
g62
NtRp3891
(dp3892
g65
(dp3893
g85
g86
ssg74
g3887
sg67
(lp3894
g316
asbag60
(g81
g62
NtRp3895
(dp3896
g65
(dp3897
g92
g93
ssg74
g3887
sg67
(lp3898
S':'
asbag60
(g81
g62
NtRp3899
(dp3900
g65
(dp3901
sg74
g3887
sg67
(lp3902
g60
(g61
g62
NtRp3903
(dp3904
g65
(dp3905
g73
I3
ssg74
g3899
sg67
(lp3906
S''
asbasbasbag60
(g76
g62
NtRp3907
(dp3908
g65
(dp3909
sg74
g3843
sg67
(lp3910
g60
(g81
g62
NtRp3911
(dp3912
g65
(dp3913
g85
g86
ssg74
g3907
sg67
(lp3914
g337
asbag60
(g81
g62
NtRp3915
(dp3916
g65
(dp3917
g92
g93
ssg74
g3907
sg67
(lp3918
S':'
asbag60
(g81
g62
NtRp3919
(dp3920
g65
(dp3921
sg74
g3907
sg67
(lp3922
g60
(g61
g62
NtRp3923
(dp3924
g65
(dp3925
g73
I3
ssg74
g3919
sg67
(lp3926
S''
asbasbasbag60
(g76
g62
NtRp3927
(dp3928
g65
(dp3929
sg74
g3843
sg67
(lp3930
g60
(g81
g62
NtRp3931
(dp3932
g65
(dp3933
g85
g86
ssg74
g3927
sg67
(lp3934
g358
asbag60
(g81
g62
NtRp3935
(dp3936
g65
(dp3937
g92
g93
ssg74
g3927
sg67
(lp3938
S':'
asbag60
(g81
g62
NtRp3939
(dp3940
g65
(dp3941
sg74
g3927
sg67
(lp3942
g60
(g61
g62
NtRp3943
(dp3944
g65
(dp3945
g73
I3
ssg74
g3939
sg67
(lp3946
S''
asbasbasbag60
(g76
g62
NtRp3947
(dp3948
g65
(dp3949
sg74
g3843
sg67
(lp3950
g60
(g81
g62
NtRp3951
(dp3952
g65
(dp3953
g85
g86
ssg74
g3947
sg67
(lp3954
g379
asbag60
(g81
g62
NtRp3955
(dp3956
g65
(dp3957
g92
g93
ssg74
g3947
sg67
(lp3958
S':'
asbag60
(g81
g62
NtRp3959
(dp3960
g65
(dp3961
sg74
g3947
sg67
(lp3962
g60
(g61
g62
NtRp3963
(dp3964
g65
(dp3965
g73
I3
ssg74
g3959
sg67
(lp3966
S'/'
asbasbasbag60
(g76
g62
NtRp3967
(dp3968
g65
(dp3969
sg74
g3843
sg67
(lp3970
g60
(g81
g62
NtRp3971
(dp3972
g65
(dp3973
g85
g86
ssg74
g3967
sg67
(lp3974
g400
asbag60
(g81
g62
NtRp3975
(dp3976
g65
(dp3977
g92
g93
ssg74
g3967
sg67
(lp3978
S':'
asbag60
(g81
g62
NtRp3979
(dp3980
g65
(dp3981
sg74
g3967
sg67
(lp3982
g60
(g61
g62
NtRp3983
(dp3984
g65
(dp3985
g73
I3
ssg74
g3979
sg67
(lp3986
S''
asbasbasbag60
(g76
g62
NtRp3987
(dp3988
g65
(dp3989
sg74
g3843
sg67
(lp3990
g60
(g81
g62
NtRp3991
(dp3992
g65
(dp3993
g85
g86
ssg74
g3987
sg67
(lp3994
g421
asbag60
(g81
g62
NtRp3995
(dp3996
g65
(dp3997
g92
g93
ssg74
g3987
sg67
(lp3998
S':'
asbag60
(g81
g62
NtRp3999
(dp4000
g65
(dp4001
sg74
g3987
sg67
(lp4002
g60
(g61
g62
NtRp4003
(dp4004
g65
(dp4005
g73
I3
ssg74
g3999
sg67
(lp4006
S''
asbasbasbasbasbasbasbasbasbasbasbag60
(g76
g62
NtRp4007
(dp4008
g65
(dp4009
sg74
g3773
sg67
(lp4010
g60
(g81
g62
NtRp4011
(dp4012
g65
(dp4013
g85
g86
ssg74
g4007
sg67
(lp4014
S'files'
p4015
asbag60
(g81
g62
NtRp4016
(dp4017
g65
(dp4018
g92
g93
ssg74
g4007
sg67
(lp4019
S':'
asbag60
(g81
g62
NtRp4020
(dp4021
g65
(dp4022
sg74
g4007
sg67
(lp4023
g60
(g61
g62
NtRp4024
(dp4025
g65
(dp4026
g73
I5
ssg74
g4020
sg67
(lp4027
g60
(g69
g62
NtRp4028
(dp4029
g65
(dp4030
g73
I4
ssg74
Nsg67
(lp4031
sbasbasbasbag60
(g76
g62
NtRp4032
(dp4033
g65
(dp4034
sg74
g3773
sg67
(lp4035
g60
(g81
g62
NtRp4036
(dp4037
g65
(dp4038
g85
g86
ssg74
g4032
sg67
(lp4039
S'flash'
p4040
asbag60
(g81
g62
NtRp4041
(dp4042
g65
(dp4043
g92
g93
ssg74
g4032
sg67
(lp4044
S':'
asbag60
(g81
g62
NtRp4045
(dp4046
g65
(dp4047
sg74
g4032
sg67
(lp4048
g60
(g61
g62
NtRp4049
(dp4050
g65
(dp4051
g73
I5
ssg74
g4045
sg67
(lp4052
S''
asbasbasbag60
(g76
g62
NtRp4053
(dp4054
g65
(dp4055
sg74
g3773
sg67
(lp4056
g60
(g81
g62
NtRp4057
(dp4058
g65
(dp4059
g85
g86
ssg74
g4053
sg67
(lp4060
S'generic_patterns'
p4061
asbag60
(g81
g62
NtRp4062
(dp4063
g65
(dp4064
g92
g93
ssg74
g4053
sg67
(lp4065
S':'
asbag60
(g81
g62
NtRp4066
(dp4067
g65
(dp4068
sg74
g4053
sg67
(lp4069
g60
(g61
g62
NtRp4070
(dp4071
g65
(dp4072
g73
I5
ssg74
g4066
sg67
(lp4073
g60
(g69
g62
NtRp4074
(dp4075
g65
(dp4076
g73
I4
ssg74
Nsg67
(lp4077
g60
(g76
g62
NtRp4078
(dp4079
g65
(dp4080
sg74
g4074
sg67
(lp4081
g60
(g81
g62
NtRp4082
(dp4083
g65
(dp4084
sg74
g4078
sg67
(lp4085
g60
(g61
g62
NtRp4086
(dp4087
g65
(dp4088
g73
I4
ssg74
g4082
sg67
(lp4089
S'*'
asbasbasbasbasbasbasbag60
(g76
g62
NtRp4090
(dp4091
g65
(dp4092
sg74
g3773
sg67
(lp4093
g60
(g81
g62
NtRp4094
(dp4095
g65
(dp4096
g85
g86
ssg74
g4090
sg67
(lp4097
S'headers'
p4098
asbag60
(g81
g62
NtRp4099
(dp4100
g65
(dp4101
g92
g93
ssg74
g4090
sg67
(lp4102
S':'
asbag60
(g81
g62
NtRp4103
(dp4104
g65
(dp4105
sg74
g4090
sg67
(lp4106
g60
(g61
g62
NtRp4107
(dp4108
g65
(dp4109
g73
I5
ssg74
g4103
sg67
(lp4110
g60
(g69
g62
NtRp4111
(dp4112
g65
(dp4113
g73
I4
ssg74
Nsg67
(lp4114
g60
(g76
g62
NtRp4115
(dp4116
g65
(dp4117
sg74
g4111
sg67
(lp4118
g60
(g81
g62
NtRp4119
(dp4120
g65
(dp4121
g85
g86
ssg74
g4115
sg67
(lp4122
S'Cache-Control'
p4123
asbag60
(g81
g62
NtRp4124
(dp4125
g65
(dp4126
g92
g93
ssg74
g4115
sg67
(lp4127
S':'
asbag60
(g81
g62
NtRp4128
(dp4129
g65
(dp4130
sg74
g4115
sg67
(lp4131
g60
(g61
g62
NtRp4132
(dp4133
g65
(dp4134
g73
I4
ssg74
g4128
sg67
(lp4135
S'no-store, no-cache, must-revalidate, post-check=0, pre-check=0'
p4136
asbasbasbag60
(g76
g62
NtRp4137
(dp4138
g65
(dp4139
sg74
g4111
sg67
(lp4140
g60
(g81
g62
NtRp4141
(dp4142
g65
(dp4143
g85
g86
ssg74
g4137
sg67
(lp4144
S'Content-Type'
p4145
asbag60
(g81
g62
NtRp4146
(dp4147
g65
(dp4148
g92
g93
ssg74
g4137
sg67
(lp4149
S':'
asbag60
(g81
g62
NtRp4150
(dp4151
g65
(dp4152
sg74
g4137
sg67
(lp4153
g60
(g61
g62
NtRp4154
(dp4155
g65
(dp4156
g73
I4
ssg74
g4150
sg67
(lp4157
S'text/html; charset=utf-8'
p4158
asbasbasbag60
(g76
g62
NtRp4159
(dp4160
g65
(dp4161
sg74
g4111
sg67
(lp4162
g60
(g81
g62
NtRp4163
(dp4164
g65
(dp4165
g85
g86
ssg74
g4159
sg67
(lp4166
S'Expires'
p4167
asbag60
(g81
g62
NtRp4168
(dp4169
g65
(dp4170
g92
g93
ssg74
g4159
sg67
(lp4171
S':'
asbag60
(g81
g62
NtRp4172
(dp4173
g65
(dp4174
sg74
g4159
sg67
(lp4175
g60
(g61
g62
NtRp4176
(dp4177
g65
(dp4178
g73
I4
ssg74
g4172
sg67
(lp4179
S'Mon, 10 Sep 2012 23:49:31 GMT'
p4180
asbasbasbag60
(g76
g62
NtRp4181
(dp4182
g65
(dp4183
sg74
g4111
sg67
(lp4184
g60
(g81
g62
NtRp4185
(dp4186
g65
(dp4187
g85
g86
ssg74
g4181
sg67
(lp4188
S'Pragma'
p4189
asbag60
(g81
g62
NtRp4190
(dp4191
g65
(dp4192
g92
g93
ssg74
g4181
sg67
(lp4193
S':'
asbag60
(g81
g62
NtRp4194
(dp4195
g65
(dp4196
sg74
g4181
sg67
(lp4197
g60
(g61
g62
NtRp4198
(dp4199
g65
(dp4200
g73
I4
ssg74
g4194
sg67
(lp4201
S'no-cache'
p4202
asbasbasbag60
(g76
g62
NtRp4203
(dp4204
g65
(dp4205
sg74
g4111
sg67
(lp4206
g60
(g81
g62
NtRp4207
(dp4208
g65
(dp4209
g85
g86
ssg74
g4203
sg67
(lp4210
S'X-Powered-By'
p4211
asbag60
(g81
g62
NtRp4212
(dp4213
g65
(dp4214
g92
g93
ssg74
g4203
sg67
(lp4215
S':'
asbag60
(g81
g62
NtRp4216
(dp4217
g65
(dp4218
sg74
g4203
sg67
(lp4219
g60
(g61
g62
NtRp4220
(dp4221
g65
(dp4222
g73
I4
ssg74
g4216
sg67
(lp4223
S'web2py'
p4224
asbasbasbasbasbasbasbag60
(g76
g62
NtRp4225
(dp4226
g65
(dp4227
sg74
g3773
sg67
(lp4228
g60
(g81
g62
NtRp4229
(dp4230
g65
(dp4231
g85
g86
ssg74
g4225
sg67
(lp4232
S'menu'
p4233
asbag60
(g81
g62
NtRp4234
(dp4235
g65
(dp4236
g92
g93
ssg74
g4225
sg67
(lp4237
S':'
asbag60
(g81
g62
NtRp4238
(dp4239
g65
(dp4240
sg74
g4225
sg67
(lp4241
g60
(g61
g62
NtRp4242
(dp4243
g65
(dp4244
g73
I5
ssg74
g4238
sg67
(lp4245
g60
(g69
g62
NtRp4246
(dp4247
g65
(dp4248
g73
I4
ssg74
Nsg67
(lp4249
g60
(g76
g62
NtRp4250
(dp4251
g65
(dp4252
sg74
g4246
sg67
(lp4253
g60
(g81
g62
NtRp4254
(dp4255
g65
(dp4256
sg74
g4250
sg67
(lp4257
g60
(g61
g62
NtRp4258
(dp4259
g65
(dp4260
g73
I4
ssg74
g4254
sg67
(lp4261
g60
(g69
g62
NtRp4262
(dp4263
g65
(dp4264
g73
I3
ssg74
Nsg67
(lp4265
g60
(g76
g62
NtRp4266
(dp4267
g65
(dp4268
sg74
g4262
sg67
(lp4269
g60
(g81
g62
NtRp4270
(dp4271
g65
(dp4272
sg74
g4266
sg67
(lp4273
g60
(g61
g62
NtRp4274
(dp4275
g65
(dp4276
g73
I3
ssg74
g4270
sg67
(lp4277
cgluon.languages
lazyT_unpickle
p4278
(S't\x04\x00\x00\x00Home'
tRp4279
asbasbasbag60
(g76
g62
NtRp4280
(dp4281
g65
(dp4282
sg74
g4262
sg67
(lp4283
g60
(g81
g62
NtRp4284
(dp4285
g65
(dp4286
sg74
g4280
sg67
(lp4287
g60
(g61
g62
NtRp4288
(dp4289
g65
(dp4290
g73
I3
ssg74
g4284
sg67
(lp4291
g103
asbasbasbag60
(g76
g62
NtRp4292
(dp4293
g65
(dp4294
sg74
g4262
sg67
(lp4295
g60
(g81
g62
NtRp4296
(dp4297
g65
(dp4298
sg74
g4292
sg67
(lp4299
g60
(g61
g62
NtRp4300
(dp4301
g65
(dp4302
g73
I3
ssg74
g4296
sg67
(lp4303
S'/ACES/default/index'
p4304
asbasbasbag60
(g76
g62
NtRp4305
(dp4306
g65
(dp4307
sg74
g4262
sg67
(lp4308
g60
(g81
g62
NtRp4309
(dp4310
g65
(dp4311
sg74
g4305
sg67
(lp4312
g60
(g61
g62
NtRp4313
(dp4314
g65
(dp4315
g73
I3
ssg74
g4309
sg67
(lp4316
g60
(g69
g62
NtRp4317
(dp4318
g65
(dp4319
g73
I2
ssg74
Nsg67
(lp4320
sbasbasbasbasbasbasbasbag60
(g76
g62
NtRp4321
(dp4322
g65
(dp4323
sg74
g4246
sg67
(lp4324
g60
(g81
g62
NtRp4325
(dp4326
g65
(dp4327
sg74
g4321
sg67
(lp4328
g60
(g61
g62
NtRp4329
(dp4330
g65
(dp4331
g73
I4
ssg74
g4325
sg67
(lp4332
g60
(g69
g62
NtRp4333
(dp4334
g65
(dp4335
g73
I3
ssg74
Nsg67
(lp4336
g60
(g76
g62
NtRp4337
(dp4338
g65
(dp4339
sg74
g4333
sg67
(lp4340
g60
(g81
g62
NtRp4341
(dp4342
g65
(dp4343
sg74
g4337
sg67
(lp4344
g60
(g61
g62
NtRp4345
(dp4346
g65
(dp4347
g73
I3
ssg74
g4341
sg67
(lp4348
g4278
(S's\x08\x00\x00\x00This App'
tRp4349
asbasbasbag60
(g76
g62
NtRp4350
(dp4351
g65
(dp4352
sg74
g4333
sg67
(lp4353
g60
(g81
g62
NtRp4354
(dp4355
g65
(dp4356
sg74
g4350
sg67
(lp4357
g60
(g61
g62
NtRp4358
(dp4359
g65
(dp4360
g73
I3
ssg74
g4354
sg67
(lp4361
g103
asbasbasbag60
(g76
g62
NtRp4362
(dp4363
g65
(dp4364
sg74
g4333
sg67
(lp4365
g60
(g81
g62
NtRp4366
(dp4367
g65
(dp4368
sg74
g4362
sg67
(lp4369
g60
(g61
g62
NtRp4370
(dp4371
g65
(dp4372
g73
I3
ssg74
g4366
sg67
(lp4373
S'/admin/default/design/ACES'
p4374
asbasbasbag60
(g76
g62
NtRp4375
(dp4376
g65
(dp4377
sg74
g4333
sg67
(lp4378
g60
(g81
g62
NtRp4379
(dp4380
g65
(dp4381
sg74
g4375
sg67
(lp4382
g60
(g61
g62
NtRp4383
(dp4384
g65
(dp4385
g73
I3
ssg74
g4379
sg67
(lp4386
g60
(g69
g62
NtRp4387
(dp4388
g65
(dp4389
g73
I2
ssg74
Nsg67
(lp4390
g60
(g76
g62
NtRp4391
(dp4392
g65
(dp4393
sg74
g4387
sg67
(lp4394
g60
(g81
g62
NtRp4395
(dp4396
g65
(dp4397
sg74
g4391
sg67
(lp4398
g60
(g61
g62
NtRp4399
(dp4400
g65
(dp4401
g73
I2
ssg74
g4395
sg67
(lp4402
g60
(g69
g62
NtRp4403
(dp4404
g65
(dp4405
g73
I1
ssg74
Nsg67
(lp4406
g60
(g76
g62
NtRp4407
(dp4408
g65
(dp4409
sg74
g4403
sg67
(lp4410
g60
(g81
g62
NtRp4411
(dp4412
g65
(dp4413
sg74
g4407
sg67
(lp4414
g60
(g61
g62
NtRp4415
(dp4416
g65
(dp4417
g73
I1
ssg74
g4411
sg67
(lp4418
g4278
(S't\n\x00\x00\x00Controller'
tRp4419
asbasbasbag60
(g76
g62
NtRp4420
(dp4421
g65
(dp4422
sg74
g4403
sg67
(lp4423
g60
(g81
g62
NtRp4424
(dp4425
g65
(dp4426
sg74
g4420
sg67
(lp4427
g60
(g61
g62
NtRp4428
(dp4429
g65
(dp4430
g73
I1
ssg74
g4424
sg67
(lp4431
I00
asbasbasbag60
(g76
g62
NtRp4432
(dp4433
g65
(dp4434
sg74
g4403
sg67
(lp4435
g60
(g81
g62
NtRp4436
(dp4437
g65
(dp4438
sg74
g4432
sg67
(lp4439
g60
(g61
g62
NtRp4440
(dp4441
g65
(dp4442
g73
I1
ssg74
g4436
sg67
(lp4443
S'/admin/default/edit/ACES/controllers/default.py'
p4444
asbasbasbasbasbasbasbag60
(g76
g62
NtRp4445
(dp4446
g65
(dp4447
sg74
g4387
sg67
(lp4448
g60
(g81
g62
NtRp4449
(dp4450
g65
(dp4451
sg74
g4445
sg67
(lp4452
g60
(g61
g62
NtRp4453
(dp4454
g65
(dp4455
g73
I2
ssg74
g4449
sg67
(lp4456
g60
(g69
g62
NtRp4457
(dp4458
g65
(dp4459
g73
I1
ssg74
Nsg67
(lp4460
g60
(g76
g62
NtRp4461
(dp4462
g65
(dp4463
sg74
g4457
sg67
(lp4464
g60
(g81
g62
NtRp4465
(dp4466
g65
(dp4467
sg74
g4461
sg67
(lp4468
g60
(g61
g62
NtRp4469
(dp4470
g65
(dp4471
g73
I1
ssg74
g4465
sg67
(lp4472
g4278
(S't\x04\x00\x00\x00View'
tRp4473
asbasbasbag60
(g76
g62
NtRp4474
(dp4475
g65
(dp4476
sg74
g4457
sg67
(lp4477
g60
(g81
g62
NtRp4478
(dp4479
g65
(dp4480
sg74
g4474
sg67
(lp4481
g60
(g61
g62
NtRp4482
(dp4483
g65
(dp4484
g73
I1
ssg74
g4478
sg67
(lp4485
I00
asbasbasbag60
(g76
g62
NtRp4486
(dp4487
g65
(dp4488
sg74
g4457
sg67
(lp4489
g60
(g81
g62
NtRp4490
(dp4491
g65
(dp4492
sg74
g4486
sg67
(lp4493
g60
(g61
g62
NtRp4494
(dp4495
g65
(dp4496
g73
I1
ssg74
g4490
sg67
(lp4497
S'/admin/default/edit/ACES/views/default/index.html'
p4498
asbasbasbasbasbasbasbag60
(g76
g62
NtRp4499
(dp4500
g65
(dp4501
sg74
g4387
sg67
(lp4502
g60
(g81
g62
NtRp4503
(dp4504
g65
(dp4505
sg74
g4499
sg67
(lp4506
g60
(g61
g62
NtRp4507
(dp4508
g65
(dp4509
g73
I2
ssg74
g4503
sg67
(lp4510
g60
(g69
g62
NtRp4511
(dp4512
g65
(dp4513
g73
I1
ssg74
Nsg67
(lp4514
g60
(g76
g62
NtRp4515
(dp4516
g65
(dp4517
sg74
g4511
sg67
(lp4518
g60
(g81
g62
NtRp4519
(dp4520
g65
(dp4521
sg74
g4515
sg67
(lp4522
g60
(g61
g62
NtRp4523
(dp4524
g65
(dp4525
g73
I1
ssg74
g4519
sg67
(lp4526
g4278
(S't\x06\x00\x00\x00Layout'
tRp4527
asbasbasbag60
(g76
g62
NtRp4528
(dp4529
g65
(dp4530
sg74
g4511
sg67
(lp4531
g60
(g81
g62
NtRp4532
(dp4533
g65
(dp4534
sg74
g4528
sg67
(lp4535
g60
(g61
g62
NtRp4536
(dp4537
g65
(dp4538
g73
I1
ssg74
g4532
sg67
(lp4539
I00
asbasbasbag60
(g76
g62
NtRp4540
(dp4541
g65
(dp4542
sg74
g4511
sg67
(lp4543
g60
(g81
g62
NtRp4544
(dp4545
g65
(dp4546
sg74
g4540
sg67
(lp4547
g60
(g61
g62
NtRp4548
(dp4549
g65
(dp4550
g73
I1
ssg74
g4544
sg67
(lp4551
S'/admin/default/edit/ACES/views/layout.html'
p4552
asbasbasbasbasbasbasbag60
(g76
g62
NtRp4553
(dp4554
g65
(dp4555
sg74
g4387
sg67
(lp4556
g60
(g81
g62
NtRp4557
(dp4558
g65
(dp4559
sg74
g4553
sg67
(lp4560
g60
(g61
g62
NtRp4561
(dp4562
g65
(dp4563
g73
I2
ssg74
g4557
sg67
(lp4564
g60
(g69
g62
NtRp4565
(dp4566
g65
(dp4567
g73
I1
ssg74
Nsg67
(lp4568
g60
(g76
g62
NtRp4569
(dp4570
g65
(dp4571
sg74
g4565
sg67
(lp4572
g60
(g81
g62
NtRp4573
(dp4574
g65
(dp4575
sg74
g4569
sg67
(lp4576
g60
(g61
g62
NtRp4577
(dp4578
g65
(dp4579
g73
I1
ssg74
g4573
sg67
(lp4580
g4278
(S't\n\x00\x00\x00Stylesheet'
tRp4581
asbasbasbag60
(g76
g62
NtRp4582
(dp4583
g65
(dp4584
sg74
g4565
sg67
(lp4585
g60
(g81
g62
NtRp4586
(dp4587
g65
(dp4588
sg74
g4582
sg67
(lp4589
g60
(g61
g62
NtRp4590
(dp4591
g65
(dp4592
g73
I1
ssg74
g4586
sg67
(lp4593
I00
asbasbasbag60
(g76
g62
NtRp4594
(dp4595
g65
(dp4596
sg74
g4565
sg67
(lp4597
g60
(g81
g62
NtRp4598
(dp4599
g65
(dp4600
sg74
g4594
sg67
(lp4601
g60
(g61
g62
NtRp4602
(dp4603
g65
(dp4604
g73
I1
ssg74
g4598
sg67
(lp4605
S'/admin/default/edit/ACES/static/base.css'
p4606
asbasbasbasbasbasbasbag60
(g76
g62
NtRp4607
(dp4608
g65
(dp4609
sg74
g4387
sg67
(lp4610
g60
(g81
g62
NtRp4611
(dp4612
g65
(dp4613
sg74
g4607
sg67
(lp4614
g60
(g61
g62
NtRp4615
(dp4616
g65
(dp4617
g73
I2
ssg74
g4611
sg67
(lp4618
g60
(g69
g62
NtRp4619
(dp4620
g65
(dp4621
g73
I1
ssg74
Nsg67
(lp4622
g60
(g76
g62
NtRp4623
(dp4624
g65
(dp4625
sg74
g4619
sg67
(lp4626
g60
(g81
g62
NtRp4627
(dp4628
g65
(dp4629
sg74
g4623
sg67
(lp4630
g60
(g61
g62
NtRp4631
(dp4632
g65
(dp4633
g73
I1
ssg74
g4627
sg67
(lp4634
g4278
(S's\x08\x00\x00\x00DB Model'
tRp4635
asbasbasbag60
(g76
g62
NtRp4636
(dp4637
g65
(dp4638
sg74
g4619
sg67
(lp4639
g60
(g81
g62
NtRp4640
(dp4641
g65
(dp4642
sg74
g4636
sg67
(lp4643
g60
(g61
g62
NtRp4644
(dp4645
g65
(dp4646
g73
I1
ssg74
g4640
sg67
(lp4647
I00
asbasbasbag60
(g76
g62
NtRp4648
(dp4649
g65
(dp4650
sg74
g4619
sg67
(lp4651
g60
(g81
g62
NtRp4652
(dp4653
g65
(dp4654
sg74
g4648
sg67
(lp4655
g60
(g61
g62
NtRp4656
(dp4657
g65
(dp4658
g73
I1
ssg74
g4652
sg67
(lp4659
S'/admin/default/edit/ACES/models/db.py'
p4660
asbasbasbasbasbasbasbag60
(g76
g62
NtRp4661
(dp4662
g65
(dp4663
sg74
g4387
sg67
(lp4664
g60
(g81
g62
NtRp4665
(dp4666
g65
(dp4667
sg74
g4661
sg67
(lp4668
g60
(g61
g62
NtRp4669
(dp4670
g65
(dp4671
g73
I2
ssg74
g4665
sg67
(lp4672
g60
(g69
g62
NtRp4673
(dp4674
g65
(dp4675
g73
I1
ssg74
Nsg67
(lp4676
g60
(g76
g62
NtRp4677
(dp4678
g65
(dp4679
sg74
g4673
sg67
(lp4680
g60
(g81
g62
NtRp4681
(dp4682
g65
(dp4683
sg74
g4677
sg67
(lp4684
g60
(g61
g62
NtRp4685
(dp4686
g65
(dp4687
g73
I1
ssg74
g4681
sg67
(lp4688
g4278
(S's\n\x00\x00\x00Menu Model'
tRp4689
asbasbasbag60
(g76
g62
NtRp4690
(dp4691
g65
(dp4692
sg74
g4673
sg67
(lp4693
g60
(g81
g62
NtRp4694
(dp4695
g65
(dp4696
sg74
g4690
sg67
(lp4697
g60
(g61
g62
NtRp4698
(dp4699
g65
(dp4700
g73
I1
ssg74
g4694
sg67
(lp4701
I00
asbasbasbag60
(g76
g62
NtRp4702
(dp4703
g65
(dp4704
sg74
g4673
sg67
(lp4705
g60
(g81
g62
NtRp4706
(dp4707
g65
(dp4708
sg74
g4702
sg67
(lp4709
g60
(g61
g62
NtRp4710
(dp4711
g65
(dp4712
g73
I1
ssg74
g4706
sg67
(lp4713
S'/admin/default/edit/ACES/models/menu.py'
p4714
asbasbasbasbasbasbasbag60
(g76
g62
NtRp4715
(dp4716
g65
(dp4717
sg74
g4387
sg67
(lp4718
g60
(g81
g62
NtRp4719
(dp4720
g65
(dp4721
sg74
g4715
sg67
(lp4722
g60
(g61
g62
NtRp4723
(dp4724
g65
(dp4725
g73
I2
ssg74
g4719
sg67
(lp4726
g60
(g69
g62
NtRp4727
(dp4728
g65
(dp4729
g73
I1
ssg74
Nsg67
(lp4730
g60
(g76
g62
NtRp4731
(dp4732
g65
(dp4733
sg74
g4727
sg67
(lp4734
g60
(g81
g62
NtRp4735
(dp4736
g65
(dp4737
sg74
g4731
sg67
(lp4738
g60
(g61
g62
NtRp4739
(dp4740
g65
(dp4741
g73
I1
ssg74
g4735
sg67
(lp4742
g4278
(S't\x08\x00\x00\x00Database'
tRp4743
asbasbasbag60
(g76
g62
NtRp4744
(dp4745
g65
(dp4746
sg74
g4727
sg67
(lp4747
g60
(g81
g62
NtRp4748
(dp4749
g65
(dp4750
sg74
g4744
sg67
(lp4751
g60
(g61
g62
NtRp4752
(dp4753
g65
(dp4754
g73
I1
ssg74
g4748
sg67
(lp4755
I00
asbasbasbag60
(g76
g62
NtRp4756
(dp4757
g65
(dp4758
sg74
g4727
sg67
(lp4759
g60
(g81
g62
NtRp4760
(dp4761
g65
(dp4762
sg74
g4756
sg67
(lp4763
g60
(g61
g62
NtRp4764
(dp4765
g65
(dp4766
g73
I1
ssg74
g4760
sg67
(lp4767
S'/ACES/appadmin/index'
p4768
asbasbasbasbasbasbasbag60
(g76
g62
NtRp4769
(dp4770
g65
(dp4771
sg74
g4387
sg67
(lp4772
g60
(g81
g62
NtRp4773
(dp4774
g65
(dp4775
sg74
g4769
sg67
(lp4776
g60
(g61
g62
NtRp4777
(dp4778
g65
(dp4779
g73
I2
ssg74
g4773
sg67
(lp4780
g60
(g69
g62
NtRp4781
(dp4782
g65
(dp4783
g73
I1
ssg74
Nsg67
(lp4784
g60
(g76
g62
NtRp4785
(dp4786
g65
(dp4787
sg74
g4781
sg67
(lp4788
g60
(g81
g62
NtRp4789
(dp4790
g65
(dp4791
sg74
g4785
sg67
(lp4792
g60
(g61
g62
NtRp4793
(dp4794
g65
(dp4795
g73
I1
ssg74
g4789
sg67
(lp4796
g4278
(S't\x06\x00\x00\x00Errors'
tRp4797
asbasbasbag60
(g76
g62
NtRp4798
(dp4799
g65
(dp4800
sg74
g4781
sg67
(lp4801
g60
(g81
g62
NtRp4802
(dp4803
g65
(dp4804
sg74
g4798
sg67
(lp4805
g60
(g61
g62
NtRp4806
(dp4807
g65
(dp4808
g73
I1
ssg74
g4802
sg67
(lp4809
I00
asbasbasbag60
(g76
g62
NtRp4810
(dp4811
g65
(dp4812
sg74
g4781
sg67
(lp4813
g60
(g81
g62
NtRp4814
(dp4815
g65
(dp4816
sg74
g4810
sg67
(lp4817
g60
(g61
g62
NtRp4818
(dp4819
g65
(dp4820
g73
I1
ssg74
g4814
sg67
(lp4821
S'/admin/default/errors/ACES'
p4822
asbasbasbasbasbasbasbag60
(g76
g62
NtRp4823
(dp4824
g65
(dp4825
sg74
g4387
sg67
(lp4826
g60
(g81
g62
NtRp4827
(dp4828
g65
(dp4829
sg74
g4823
sg67
(lp4830
g60
(g61
g62
NtRp4831
(dp4832
g65
(dp4833
g73
I2
ssg74
g4827
sg67
(lp4834
g60
(g69
g62
NtRp4835
(dp4836
g65
(dp4837
g73
I1
ssg74
Nsg67
(lp4838
g60
(g76
g62
NtRp4839
(dp4840
g65
(dp4841
sg74
g4835
sg67
(lp4842
g60
(g81
g62
NtRp4843
(dp4844
g65
(dp4845
sg74
g4839
sg67
(lp4846
g60
(g61
g62
NtRp4847
(dp4848
g65
(dp4849
g73
I1
ssg74
g4843
sg67
(lp4850
g4278
(S't\x05\x00\x00\x00About'
tRp4851
asbasbasbag60
(g76
g62
NtRp4852
(dp4853
g65
(dp4854
sg74
g4835
sg67
(lp4855
g60
(g81
g62
NtRp4856
(dp4857
g65
(dp4858
sg74
g4852
sg67
(lp4859
g60
(g61
g62
NtRp4860
(dp4861
g65
(dp4862
g73
I1
ssg74
g4856
sg67
(lp4863
I00
asbasbasbag60
(g76
g62
NtRp4864
(dp4865
g65
(dp4866
sg74
g4835
sg67
(lp4867
g60
(g81
g62
NtRp4868
(dp4869
g65
(dp4870
sg74
g4864
sg67
(lp4871
g60
(g61
g62
NtRp4872
(dp4873
g65
(dp4874
g73
I1
ssg74
g4868
sg67
(lp4875
S'/admin/default/about/ACES'
p4876
asbasbasbasbasbasbasbasbasbasbasbasbasbasbasbag60
(g76
g62
NtRp4877
(dp4878
g65
(dp4879
sg74
g4246
sg67
(lp4880
g60
(g81
g62
NtRp4881
(dp4882
g65
(dp4883
sg74
g4877
sg67
(lp4884
g60
(g61
g62
NtRp4885
(dp4886
g65
(dp4887
g73
I4
ssg74
g4881
sg67
(lp4888
g60
(g69
g62
NtRp4889
(dp4890
g65
(dp4891
g73
I3
ssg74
Nsg67
(lp4892
g60
(g76
g62
NtRp4893
(dp4894
g65
(dp4895
sg74
g4889
sg67
(lp4896
g60
(g81
g62
NtRp4897
(dp4898
g65
(dp4899
sg74
g4893
sg67
(lp4900
g60
(g61
g62
NtRp4901
(dp4902
g65
(dp4903
g73
I3
ssg74
g4897
sg67
(lp4904
g4278
(S't\t\x00\x00\x00Resources'
tRp4905
asbasbasbag60
(g76
g62
NtRp4906
(dp4907
g65
(dp4908
sg74
g4889
sg67
(lp4909
g60
(g81
g62
NtRp4910
(dp4911
g65
(dp4912
sg74
g4906
sg67
(lp4913
g60
(g61
g62
NtRp4914
(dp4915
g65
(dp4916
g73
I3
ssg74
g4910
sg67
(lp4917
g103
asbasbasbag60
(g76
g62
NtRp4918
(dp4919
g65
(dp4920
sg74
g4889
sg67
(lp4921
g60
(g81
g62
NtRp4922
(dp4923
g65
(dp4924
sg74
g4918
sg67
(lp4925
g60
(g61
g62
NtRp4926
(dp4927
g65
(dp4928
g73
I3
ssg74
g4922
sg67
(lp4929
S'None'
p4930
asbasbasbag60
(g76
g62
NtRp4931
(dp4932
g65
(dp4933
sg74
g4889
sg67
(lp4934
g60
(g81
g62
NtRp4935
(dp4936
g65
(dp4937
sg74
g4931
sg67
(lp4938
g60
(g61
g62
NtRp4939
(dp4940
g65
(dp4941
g73
I3
ssg74
g4935
sg67
(lp4942
g60
(g69
g62
NtRp4943
(dp4944
g65
(dp4945
g73
I2
ssg74
Nsg67
(lp4946
g60
(g76
g62
NtRp4947
(dp4948
g65
(dp4949
sg74
g4943
sg67
(lp4950
g60
(g81
g62
NtRp4951
(dp4952
g65
(dp4953
sg74
g4947
sg67
(lp4954
g60
(g61
g62
NtRp4955
(dp4956
g65
(dp4957
g73
I2
ssg74
g4951
sg67
(lp4958
g60
(g69
g62
NtRp4959
(dp4960
g65
(dp4961
g73
I1
ssg74
Nsg67
(lp4962
g60
(g76
g62
NtRp4963
(dp4964
g65
(dp4965
sg74
g4959
sg67
(lp4966
g60
(g81
g62
NtRp4967
(dp4968
g65
(dp4969
sg74
g4963
sg67
(lp4970
g60
(g61
g62
NtRp4971
(dp4972
g65
(dp4973
g73
I1
ssg74
g4967
sg67
(lp4974
g4278
(S't\r\x00\x00\x00Documentation'
tRp4975
asbasbasbag60
(g76
g62
NtRp4976
(dp4977
g65
(dp4978
sg74
g4959
sg67
(lp4979
g60
(g81
g62
NtRp4980
(dp4981
g65
(dp4982
sg74
g4976
sg67
(lp4983
g60
(g61
g62
NtRp4984
(dp4985
g65
(dp4986
g73
I1
ssg74
g4980
sg67
(lp4987
I00
asbasbasbag60
(g76
g62
NtRp4988
(dp4989
g65
(dp4990
sg74
g4959
sg67
(lp4991
g60
(g81
g62
NtRp4992
(dp4993
g65
(dp4994
sg74
g4988
sg67
(lp4995
g60
(g61
g62
NtRp4996
(dp4997
g65
(dp4998
g73
I1
ssg74
g4992
sg67
(lp4999
S'http://www.web2py.com/book'
p5000
asbasbasbag60
(g76
g62
NtRp5001
(dp5002
g65
(dp5003
sg74
g4959
sg67
(lp5004
g60
(g81
g62
NtRp5005
(dp5006
g65
(dp5007
sg74
g5001
sg67
(lp5008
g60
(g61
g62
NtRp5009
(dp5010
g65
(dp5011
g73
I1
ssg74
g5005
sg67
(lp5012
(lp5013
(g4278
(S't\x07\x00\x00\x00Preface'
tRp5014
I00
S'http://www.web2py.com/book/default/chapter/00'
p5015
tp5016
a(g4278
(S't\x0c\x00\x00\x00Introduction'
tRp5017
I00
S'http://www.web2py.com/book/default/chapter/01'
p5018
tp5019
a(g4278
(S't\x06\x00\x00\x00Python'
tRp5020
I00
S'http://www.web2py.com/book/default/chapter/02'
p5021
tp5022
a(g4278
(S't\x08\x00\x00\x00Overview'
tRp5023
I00
S'http://www.web2py.com/book/default/chapter/03'
p5024
tp5025
a(g4278
(S's\x08\x00\x00\x00The Core'
tRp5026
I00
S'http://www.web2py.com/book/default/chapter/04'
p5027
tp5028
a(g4278
(S's\t\x00\x00\x00The Views'
tRp5029
I00
S'http://www.web2py.com/book/default/chapter/05'
p5030
tp5031
a(g4278
(S't\x08\x00\x00\x00Database'
tRp5032
I00
S'http://www.web2py.com/book/default/chapter/06'
p5033
tp5034
a(g4278
(S's\x14\x00\x00\x00Forms and Validators'
tRp5035
I00
S'http://www.web2py.com/book/default/chapter/07'
p5036
tp5037
a(g4278
(S's\x0e\x00\x00\x00Access Control'
tRp5038
I00
S'http://www.web2py.com/book/default/chapter/08'
p5039
tp5040
a(g4278
(S't\x08\x00\x00\x00Services'
tRp5041
I00
S'http://www.web2py.com/book/default/chapter/09'
p5042
tp5043
a(g4278
(S's\x0c\x00\x00\x00Ajax Recipes'
tRp5044
I00
S'http://www.web2py.com/book/default/chapter/10'
p5045
tp5046
a(g4278
(S's\x12\x00\x00\x00Deployment Recipes'
tRp5047
I00
S'http://www.web2py.com/book/default/chapter/11'
p5048
tp5049
a(g4278
(S's\r\x00\x00\x00Other Recipes'
tRp5050
I00
S'http://www.web2py.com/book/default/chapter/12'
p5051
tp5052
a(g4278
(S's\r\x00\x00\x00Buy this book'
tRp5053
I00
S'http://stores.lulu.com/web2py'
p5054
tp5055
aasbasbasbasbasbasbasbag60
(g76
g62
NtRp5056
(dp5057
g65
(dp5058
sg74
g4943
sg67
(lp5059
g60
(g81
g62
NtRp5060
(dp5061
g65
(dp5062
sg74
g5056
sg67
(lp5063
g60
(g61
g62
NtRp5064
(dp5065
g65
(dp5066
g73
I2
ssg74
g5060
sg67
(lp5067
g60
(g69
g62
NtRp5068
(dp5069
g65
(dp5070
g73
I1
ssg74
Nsg67
(lp5071
g60
(g76
g62
NtRp5072
(dp5073
g65
(dp5074
sg74
g5068
sg67
(lp5075
g60
(g81
g62
NtRp5076
(dp5077
g65
(dp5078
sg74
g5072
sg67
(lp5079
g60
(g61
g62
NtRp5080
(dp5081
g65
(dp5082
g73
I1
ssg74
g5076
sg67
(lp5083
g4278
(S't\t\x00\x00\x00Community'
tRp5084
asbasbasbag60
(g76
g62
NtRp5085
(dp5086
g65
(dp5087
sg74
g5068
sg67
(lp5088
g60
(g81
g62
NtRp5089
(dp5090
g65
(dp5091
sg74
g5085
sg67
(lp5092
g60
(g61
g62
NtRp5093
(dp5094
g65
(dp5095
g73
I1
ssg74
g5089
sg67
(lp5096
I00
asbasbasbag60
(g76
g62
NtRp5097
(dp5098
g65
(dp5099
sg74
g5068
sg67
(lp5100
g60
(g81
g62
NtRp5101
(dp5102
g65
(dp5103
sg74
g5097
sg67
(lp5104
g60
(g61
g62
NtRp5105
(dp5106
g65
(dp5107
g73
I1
ssg74
g5101
sg67
(lp5108
Nasbasbasbag60
(g76
g62
NtRp5109
(dp5110
g65
(dp5111
sg74
g5068
sg67
(lp5112
g60
(g81
g62
NtRp5113
(dp5114
g65
(dp5115
sg74
g5109
sg67
(lp5116
g60
(g61
g62
NtRp5117
(dp5118
g65
(dp5119
g73
I1
ssg74
g5113
sg67
(lp5120
(lp5121
(g4278
(S't\x06\x00\x00\x00Groups'
tRp5122
I00
S'http://www.web2py.com/examples/default/usergroups'
p5123
tp5124
a(g4278
(S't\x07\x00\x00\x00Twitter'
tRp5125
I00
S'http://twitter.com/web2py'
p5126
tp5127
a(g4278
(S's\t\x00\x00\x00Live chat'
tRp5128
I00
S'http://mibbit.com/?channel=%23web2py&server=irc.mibbit.net'
p5129
tp5130
a(g4278
(S's\n\x00\x00\x00User Voice'
tRp5131
I00
S'http://web2py.uservoice.com/'
p5132
tp5133
aasbasbasbasbasbasbasbag60
(g76
g62
NtRp5134
(dp5135
g65
(dp5136
sg74
g4943
sg67
(lp5137
g60
(g81
g62
NtRp5138
(dp5139
g65
(dp5140
sg74
g5134
sg67
(lp5141
g60
(g61
g62
NtRp5142
(dp5143
g65
(dp5144
g73
I2
ssg74
g5138
sg67
(lp5145
g60
(g69
g62
NtRp5146
(dp5147
g65
(dp5148
g73
I1
ssg74
Nsg67
(lp5149
g60
(g76
g62
NtRp5150
(dp5151
g65
(dp5152
sg74
g5146
sg67
(lp5153
g60
(g81
g62
NtRp5154
(dp5155
g65
(dp5156
sg74
g5150
sg67
(lp5157
g60
(g61
g62
NtRp5158
(dp5159
g65
(dp5160
g73
I1
ssg74
g5154
sg67
(lp5161
g4278
(S't\x06\x00\x00\x00Web2py'
tRp5162
asbasbasbag60
(g76
g62
NtRp5163
(dp5164
g65
(dp5165
sg74
g5146
sg67
(lp5166
g60
(g81
g62
NtRp5167
(dp5168
g65
(dp5169
sg74
g5163
sg67
(lp5170
g60
(g61
g62
NtRp5171
(dp5172
g65
(dp5173
g73
I1
ssg74
g5167
sg67
(lp5174
I00
asbasbasbag60
(g76
g62
NtRp5175
(dp5176
g65
(dp5177
sg74
g5146
sg67
(lp5178
g60
(g81
g62
NtRp5179
(dp5180
g65
(dp5181
sg74
g5175
sg67
(lp5182
g60
(g61
g62
NtRp5183
(dp5184
g65
(dp5185
g73
I1
ssg74
g5179
sg67
(lp5186
S'http://www.web2py.com'
p5187
asbasbasbag60
(g76
g62
NtRp5188
(dp5189
g65
(dp5190
sg74
g5146
sg67
(lp5191
g60
(g81
g62
NtRp5192
(dp5193
g65
(dp5194
sg74
g5188
sg67
(lp5195
g60
(g61
g62
NtRp5196
(dp5197
g65
(dp5198
g73
I1
ssg74
g5192
sg67
(lp5199
(lp5200
(g4278
(S't\x08\x00\x00\x00Download'
tRp5201
I00
S'http://www.web2py.com/examples/default/download'
p5202
tp5203
a(g4278
(S't\x07\x00\x00\x00Support'
tRp5204
I00
S'http://www.web2py.com/examples/default/support'
p5205
tp5206
a(g4278
(S's\x0e\x00\x00\x00Quick Examples'
tRp5207
I00
S'http://web2py.com/examples/default/examples'
p5208
tp5209
a(g4278
(S't\x03\x00\x00\x00FAQ'
tRp5210
I00
S'http://web2py.com/AlterEgo'
p5211
tp5212
a(g4278
(S's\x11\x00\x00\x00Free Applications'
tRp5213
I00
S'http://web2py.com/appliances'
p5214
tp5215
a(g4278
(S't\x07\x00\x00\x00Plugins'
tRp5216
I00
S'http://web2py.com/plugins'
p5217
tp5218
a(g4278
(S't\x07\x00\x00\x00Recipes'
tRp5219
I00
S'http://web2pyslices.com/'
p5220
tp5221
a(g4278
(S't\x04\x00\x00\x00Demo'
tRp5222
I00
S'http://web2py.com/demo_admin'
p5223
tp5224
a(g4278
(S't\x08\x00\x00\x00Semantic'
tRp5225
I00
S'http://web2py.com/semantic'
p5226
tp5227
a(g4278
(S't\x07\x00\x00\x00Layouts'
tRp5228
I00
S'http://web2py.com/layouts'
p5229
tp5230
a(g4278
(S't\x06\x00\x00\x00Videos'
tRp5231
I00
S'http://www.web2py.com/examples/default/videos/'
p5232
tp5233
aasbasbasbasbasbasbasbasbasbasbasbasbasbasbasbasbasbasbasbag60
(g76
g62
NtRp5234
(dp5235
g65
(dp5236
sg74
g3773
sg67
(lp5237
g60
(g81
g62
NtRp5238
(dp5239
g65
(dp5240
g85
g86
ssg74
g5234
sg67
(lp5241
S'meta'
p5242
asbag60
(g81
g62
NtRp5243
(dp5244
g65
(dp5245
g92
g93
ssg74
g5234
sg67
(lp5246
S':'
asbag60
(g81
g62
NtRp5247
(dp5248
g65
(dp5249
sg74
g5234
sg67
(lp5250
g60
(g61
g62
NtRp5251
(dp5252
g65
(dp5253
g73
I5
ssg74
g5247
sg67
(lp5254
g60
(g69
g62
NtRp5255
(dp5256
g65
(dp5257
g73
I4
ssg74
Nsg67
(lp5258
g60
(g76
g62
NtRp5259
(dp5260
g65
(dp5261
sg74
g5255
sg67
(lp5262
g60
(g81
g62
NtRp5263
(dp5264
g65
(dp5265
g85
g86
ssg74
g5259
sg67
(lp5266
S'author'
p5267
asbag60
(g81
g62
NtRp5268
(dp5269
g65
(dp5270
g92
g93
ssg74
g5259
sg67
(lp5271
S':'
asbag60
(g81
g62
NtRp5272
(dp5273
g65
(dp5274
sg74
g5259
sg67
(lp5275
g60
(g61
g62
NtRp5276
(dp5277
g65
(dp5278
g73
I4
ssg74
g5272
sg67
(lp5279
S'Your Name <you@example.com>'
p5280
asbasbasbag60
(g76
g62
NtRp5281
(dp5282
g65
(dp5283
sg74
g5255
sg67
(lp5284
g60
(g81
g62
NtRp5285
(dp5286
g65
(dp5287
g85
g86
ssg74
g5281
sg67
(lp5288
S'copyright'
p5289
asbag60
(g81
g62
NtRp5290
(dp5291
g65
(dp5292
g92
g93
ssg74
g5281
sg67
(lp5293
S':'
asbag60
(g81
g62
NtRp5294
(dp5295
g65
(dp5296
sg74
g5281
sg67
(lp5297
g60
(g61
g62
NtRp5298
(dp5299
g65
(dp5300
g73
I4
ssg74
g5294
sg67
(lp5301
S'Copyright 2011'
p5302
asbasbasbag60
(g76
g62
NtRp5303
(dp5304
g65
(dp5305
sg74
g5255
sg67
(lp5306
g60
(g81
g62
NtRp5307
(dp5308
g65
(dp5309
g85
g86
ssg74
g5303
sg67
(lp5310
S'description'
p5311
asbag60
(g81
g62
NtRp5312
(dp5313
g65
(dp5314
g92
g93
ssg74
g5303
sg67
(lp5315
S':'
asbag60
(g81
g62
NtRp5316
(dp5317
g65
(dp5318
sg74
g5303
sg67
(lp5319
g60
(g61
g62
NtRp5320
(dp5321
g65
(dp5322
g73
I4
ssg74
g5316
sg67
(lp5323
S'a cool new app'
p5324
asbasbasbag60
(g76
g62
NtRp5325
(dp5326
g65
(dp5327
sg74
g5255
sg67
(lp5328
g60
(g81
g62
NtRp5329
(dp5330
g65
(dp5331
g85
g86
ssg74
g5325
sg67
(lp5332
S'generator'
p5333
asbag60
(g81
g62
NtRp5334
(dp5335
g65
(dp5336
g92
g93
ssg74
g5325
sg67
(lp5337
S':'
asbag60
(g81
g62
NtRp5338
(dp5339
g65
(dp5340
sg74
g5325
sg67
(lp5341
g60
(g61
g62
NtRp5342
(dp5343
g65
(dp5344
g73
I4
ssg74
g5338
sg67
(lp5345
S'Web2py Web Framework'
p5346
asbasbasbag60
(g76
g62
NtRp5347
(dp5348
g65
(dp5349
sg74
g5255
sg67
(lp5350
g60
(g81
g62
NtRp5351
(dp5352
g65
(dp5353
g85
g86
ssg74
g5347
sg67
(lp5354
S'keywords'
p5355
asbag60
(g81
g62
NtRp5356
(dp5357
g65
(dp5358
g92
g93
ssg74
g5347
sg67
(lp5359
S':'
asbag60
(g81
g62
NtRp5360
(dp5361
g65
(dp5362
sg74
g5347
sg67
(lp5363
g60
(g61
g62
NtRp5364
(dp5365
g65
(dp5366
g73
I4
ssg74
g5360
sg67
(lp5367
S'web2py, python, framework'
p5368
asbasbasbasbasbasbasbag60
(g76
g62
NtRp5369
(dp5370
g65
(dp5371
sg74
g3773
sg67
(lp5372
g60
(g81
g62
NtRp5373
(dp5374
g65
(dp5375
g85
g86
ssg74
g5369
sg67
(lp5376
S'postprocessing'
p5377
asbag60
(g81
g62
NtRp5378
(dp5379
g65
(dp5380
g92
g93
ssg74
g5369
sg67
(lp5381
S':'
asbag60
(g81
g62
NtRp5382
(dp5383
g65
(dp5384
sg74
g5369
sg67
(lp5385
g60
(g61
g62
NtRp5386
(dp5387
g65
(dp5388
g73
I5
ssg74
g5382
sg67
(lp5389
g60
(g69
g62
NtRp5390
(dp5391
g65
(dp5392
g73
I4
ssg74
Nsg67
(lp5393
sbasbasbasbag60
(g76
g62
NtRp5394
(dp5395
g65
(dp5396
sg74
g3773
sg67
(lp5397
g60
(g81
g62
NtRp5398
(dp5399
g65
(dp5400
g85
g86
ssg74
g5394
sg67
(lp5401
S'session_file'
p5402
asbag60
(g81
g62
NtRp5403
(dp5404
g65
(dp5405
g92
g93
ssg74
g5394
sg67
(lp5406
S':'
asbag60
(g81
g62
NtRp5407
(dp5408
g65
(dp5409
sg74
g5394
sg67
(lp5410
g60
(g61
g62
NtRp5411
(dp5412
g65
(dp5413
g73
I5
ssg74
g5407
sg67
(lp5414
S"<open file '/home/u4hcsdaw/Python/web2py/applications/ACES/sessions/127.0.0.1-fa323a39-b4f7-4824-aae1-5c3174579522', mode 'rb+' at 0xacab6b78>"
p5415
asbasbasbag60
(g76
g62
NtRp5416
(dp5417
g65
(dp5418
sg74
g3773
sg67
(lp5419
g60
(g81
g62
NtRp5420
(dp5421
g65
(dp5422
g85
g86
ssg74
g5416
sg67
(lp5423
S'session_filename'
p5424
asbag60
(g81
g62
NtRp5425
(dp5426
g65
(dp5427
g92
g93
ssg74
g5416
sg67
(lp5428
S':'
asbag60
(g81
g62
NtRp5429
(dp5430
g65
(dp5431
sg74
g5416
sg67
(lp5432
g60
(g61
g62
NtRp5433
(dp5434
g65
(dp5435
g73
I5
ssg74
g5429
sg67
(lp5436
S'/home/u4hcsdaw/Python/web2py/applications/ACES/sessions/127.0.0.1-fa323a39-b4f7-4824-aae1-5c3174579522'
p5437
asbasbasbag60
(g76
g62
NtRp5438
(dp5439
g65
(dp5440
sg74
g3773
sg67
(lp5441
g60
(g81
g62
NtRp5442
(dp5443
g65
(dp5444
g85
g86
ssg74
g5438
sg67
(lp5445
S'session_id'
p5446
asbag60
(g81
g62
NtRp5447
(dp5448
g65
(dp5449
g92
g93
ssg74
g5438
sg67
(lp5450
S':'
asbag60
(g81
g62
NtRp5451
(dp5452
g65
(dp5453
sg74
g5438
sg67
(lp5454
g60
(g61
g62
NtRp5455
(dp5456
g65
(dp5457
g73
I5
ssg74
g5451
sg67
(lp5458
S'127.0.0.1-fa323a39-b4f7-4824-aae1-5c3174579522'
p5459
asbasbasbag60
(g76
g62
NtRp5460
(dp5461
g65
(dp5462
sg74
g3773
sg67
(lp5463
g60
(g81
g62
NtRp5464
(dp5465
g65
(dp5466
g85
g86
ssg74
g5460
sg67
(lp5467
S'session_id_name'
p5468
asbag60
(g81
g62
NtRp5469
(dp5470
g65
(dp5471
g92
g93
ssg74
g5460
sg67
(lp5472
S':'
asbag60
(g81
g62
NtRp5473
(dp5474
g65
(dp5475
sg74
g5460
sg67
(lp5476
g60
(g61
g62
NtRp5477
(dp5478
g65
(dp5479
g73
I5
ssg74
g5473
sg67
(lp5480
g3830
asbasbasbag60
(g76
g62
NtRp5481
(dp5482
g65
(dp5483
sg74
g3773
sg67
(lp5484
g60
(g81
g62
NtRp5485
(dp5486
g65
(dp5487
g85
g86
ssg74
g5481
sg67
(lp5488
S'session_locked'
p5489
asbag60
(g81
g62
NtRp5490
(dp5491
g65
(dp5492
g92
g93
ssg74
g5481
sg67
(lp5493
S':'
asbag60
(g81
g62
NtRp5494
(dp5495
g65
(dp5496
sg74
g5481
sg67
(lp5497
g60
(g61
g62
NtRp5498
(dp5499
g65
(dp5500
g73
I5
ssg74
g5494
sg67
(lp5501
g1909
asbasbasbag60
(g76
g62
NtRp5502
(dp5503
g65
(dp5504
sg74
g3773
sg67
(lp5505
g60
(g81
g62
NtRp5506
(dp5507
g65
(dp5508
g85
g86
ssg74
g5502
sg67
(lp5509
S'session_new'
p5510
asbag60
(g81
g62
NtRp5511
(dp5512
g65
(dp5513
g92
g93
ssg74
g5502
sg67
(lp5514
S':'
asbag60
(g81
g62
NtRp5515
(dp5516
g65
(dp5517
sg74
g5502
sg67
(lp5518
g60
(g61
g62
NtRp5519
(dp5520
g65
(dp5521
g73
I5
ssg74
g5515
sg67
(lp5522
g103
asbasbasbag60
(g76
g62
NtRp5523
(dp5524
g65
(dp5525
sg74
g3773
sg67
(lp5526
g60
(g81
g62
NtRp5527
(dp5528
g65
(dp5529
g85
g86
ssg74
g5523
sg67
(lp5530
S'status'
p5531
asbag60
(g81
g62
NtRp5532
(dp5533
g65
(dp5534
g92
g93
ssg74
g5523
sg67
(lp5535
S':'
asbag60
(g81
g62
NtRp5536
(dp5537
g65
(dp5538
sg74
g5523
sg67
(lp5539
g60
(g61
g62
NtRp5540
(dp5541
g65
(dp5542
g73
I5
ssg74
g5536
sg67
(lp5543
S'200'
p5544
asbasbasbag60
(g76
g62
NtRp5545
(dp5546
g65
(dp5547
sg74
g3773
sg67
(lp5548
g60
(g81
g62
NtRp5549
(dp5550
g65
(dp5551
g85
g86
ssg74
g5545
sg67
(lp5552
S'subtitle'
p5553
asbag60
(g81
g62
NtRp5554
(dp5555
g65
(dp5556
g92
g93
ssg74
g5545
sg67
(lp5557
S':'
asbag60
(g81
g62
NtRp5558
(dp5559
g65
(dp5560
sg74
g5545
sg67
(lp5561
g60
(g61
g62
NtRp5562
(dp5563
g65
(dp5564
g73
I5
ssg74
g5558
sg67
(lp5565
g4278
(S's\r\x00\x00\x00customize me!'
tRp5566
asbasbasbag60
(g76
g62
NtRp5567
(dp5568
g65
(dp5569
sg74
g3773
sg67
(lp5570
g60
(g81
g62
NtRp5571
(dp5572
g65
(dp5573
g85
g86
ssg74
g5567
sg67
(lp5574
S'title'
p5575
asbag60
(g81
g62
NtRp5576
(dp5577
g65
(dp5578
g92
g93
ssg74
g5567
sg67
(lp5579
S':'
asbag60
(g81
g62
NtRp5580
(dp5581
g65
(dp5582
sg74
g5567
sg67
(lp5583
g60
(g61
g62
NtRp5584
(dp5585
g65
(dp5586
g73
I5
ssg74
g5580
sg67
(lp5587
g125
asbasbasbag60
(g76
g62
NtRp5588
(dp5589
g65
(dp5590
sg74
g3773
sg67
(lp5591
g60
(g81
g62
NtRp5592
(dp5593
g65
(dp5594
g85
g86
ssg74
g5588
sg67
(lp5595
g2641
asbag60
(g81
g62
NtRp5596
(dp5597
g65
(dp5598
g92
g93
ssg74
g5588
sg67
(lp5599
S':'
asbag60
(g81
g62
NtRp5600
(dp5601
g65
(dp5602
sg74
g5588
sg67
(lp5603
g60
(g61
g62
NtRp5604
(dp5605
g65
(dp5606
g73
I5
ssg74
g5600
sg67
(lp5607
g2654
asbasbasbag60
(g76
g62
NtRp5608
(dp5609
g65
(dp5610
sg74
g3773
sg67
(lp5611
g60
(g81
g62
NtRp5612
(dp5613
g65
(dp5614
g85
g86
ssg74
g5608
sg67
(lp5615
S'view'
p5616
asbag60
(g81
g62
NtRp5617
(dp5618
g65
(dp5619
g92
g93
ssg74
g5608
sg67
(lp5620
S':'
asbag60
(g81
g62
NtRp5621
(dp5622
g65
(dp5623
sg74
g5608
sg67
(lp5624
g60
(g61
g62
NtRp5625
(dp5626
g65
(dp5627
g73
I5
ssg74
g5621
sg67
(lp5628
S'default/index.html'
p5629
asbasbasbasbasbsS'locals'
p5630
(dp5631
S'query'
p5632
S"'INSERT INTO linearWaveForm(waveHeight,wavePeriod...atio,waterDepth,id) VALUES (0.85,3.0,0.78,1.0,6);'"
p5633
sS'self'
p5634
S'<gluon.dal.SQLiteAdapter object>'
p5635
sS'e'
S"IntegrityError('PRIMARY KEY must be unique',)"
p5636
sS'fields'
p5637
S'[(<gluon.dal.Field object>, 0.85), (<gluon.dal.Field object>, 3.0), (<gluon.dal.Field object>, 0.78), (<gluon.dal.Field object>, 1.0), (<gluon.dal.Field object>, 6)]'
p5638
sS'table'
p5639
S"<Table {'wavePeriod': <gluon.dal.Field object at...>, 'id': <gluon.dal.Field object at 0xad08b74c>}>"
p5640
sssS'traceback'
p5641
S'Traceback (most recent call last):\n  File "/home/u4hcsdaw/Python/web2py/gluon/restricted.py", line 194, in restricted\n    exec ccode in environment\n  File "/home/u4hcsdaw/Python/web2py/applications/ACES/controllers/default.py", line 87, in <module>\n  File "/home/u4hcsdaw/Python/web2py/gluon/globals.py", line 149, in <lambda>\n    self._caller = lambda f: f()\n  File "/home/u4hcsdaw/Python/web2py/applications/ACES/controllers/default.py", line 28, in index\n    if f1.accepts(request.vars,session):\n  File "/home/u4hcsdaw/Python/web2py/gluon/sqlhtml.py", line 1259, in accepts\n    self.vars.id = self.table.insert(**fields)\n  File "/home/u4hcsdaw/Python/web2py/gluon/dal.py", line 5045, in insert\n    return self._db._adapter.insert(self,self._listify(fields))\n  File "/home/u4hcsdaw/Python/web2py/gluon/dal.py", line 886, in insert\n    raise e\nIntegrityError: PRIMARY KEY must be unique\n'
p5642
s.