(dp1
S'output'
p2
S''
sS'layer'
p3
S'/home/u4hcsdaw/Python/web2py/applications/ACES/controllers/default.py'
p4
sS'code'
p5
S'# -*- coding: utf-8 -*-\n# this file is released under public domain and you can use without limitations\n\n#########################################################################\n## This is a samples controller\n## - index is the default action of any application\n## - user is required for authentication and authorization\n## - download is for downloading files uploaded in the db (does streaming)\n## - call exposes all registered services (none by default)\n#########################################################################\n\ndef index():\n    """\n    example action using the internationalization operator T and flash\n    rendered by views/default/index.html or views/generic.html\n    """\n    t0=\'\'\n    img1=\'\'\n    ip1=INPUT(_type=\'text\', _name=\'waveHeight\', _value=\'0.85\')\n    sub1=INPUT(_type=\'submit\',_name=\'subButton\')\n    f1=FORM(\'wave\',ip1,sub1,_name=\'Form1\',_action=\'\')\n    if f1.accepts(request.vars,session):\n        session.formVars=f1.vars\n        t0=AcesCall(f1.vars)\n        img1=IMG(URL(\'static\',\'images/Waves.svg\'))\n    return dict(form=f1,t0=t0,img1=img1)\n\ndef user():\n    """\n    exposes:\n    http://..../[app]/default/user/login\n    http://..../[app]/default/user/logout\n    http://..../[app]/default/user/register\n    http://..../[app]/default/user/profile\n    http://..../[app]/default/user/retrieve_password\n    http://..../[app]/default/user/change_password\n    use @auth.requires_login()\n        @auth.requires_membership(\'group name\')\n        @auth.requires_permission(\'read\',\'table name\',record_id)\n    to decorate functions that need access control\n    """\n    return dict(form=auth())\n\n\ndef download():\n    """\n    allows downloading of uploaded files\n    http://..../[app]/default/download/[filename]\n    """\n    return response.download(request,db)\n\n\ndef call():\n    """\n    exposes services. for example:\n    http://..../[app]/default/call/jsonrpc\n    decorate with @services.jsonrpc the functions to expose\n    supports xml, json, xmlrpc, jsonrpc, amfrpc, rss, csv\n    """\n    return service()\n\n\n@auth.requires_signature()\ndef data():\n    """\n    http://..../[app]/default/data/tables\n    http://..../[app]/default/data/create/[table]\n    http://..../[app]/default/data/read/[table]/[id]\n    http://..../[app]/default/data/update/[table]/[id]\n    http://..../[app]/default/data/delete/[table]/[id]\n    http://..../[app]/default/data/select/[table]\n    http://..../[app]/default/data/search/[table]\n    but URLs bust be signed, i.e. linked with\n      A(\'table\',_href=URL(\'data/tables\',user_signature=True))\n    or with the signed load operator\n      LOAD(\'default\',\'data.load\',args=\'tables\',ajax=True,user_signature=True)\n    """\n    return dict(form=crud())\n\nresponse._vars=response._caller(index)\n'
p6
sS'snapshot'
p7
(dp8
S'exception'
p9
(dp10
S'__getslice__'
p11
S"<method-wrapper '__getslice__' of exceptions.SyntaxError object>"
p12
sS'text'
p13
S'None'
p14
sS'__str__'
p15
S"<method-wrapper '__str__' of exceptions.SyntaxError object>"
p16
sS'__reduce__'
p17
S'<built-in method __reduce__ of exceptions.SyntaxError object>'
p18
sS'__dict__'
p19
S'{}'
p20
sS'__sizeof__'
p21
S'<built-in method __sizeof__ of exceptions.SyntaxError object>'
p22
sS'__init__'
p23
S"<method-wrapper '__init__' of exceptions.SyntaxError object>"
p24
sS'__setattr__'
p25
S"<method-wrapper '__setattr__' of exceptions.SyntaxError object>"
p26
sS'__reduce_ex__'
p27
S'<built-in method __reduce_ex__ of exceptions.SyntaxError object>'
p28
sS'__new__'
p29
S'<built-in method __new__ of type object>'
p30
sS'__format__'
p31
S'<built-in method __format__ of exceptions.SyntaxError object>'
p32
sS'__class__'
p33
S"<type 'exceptions.SyntaxError'>"
p34
sS'filename'
p35
S'None'
p36
sS'lineno'
p37
S'None'
p38
sS'msg'
p39
S"'<img/> tags cannot have components'"
p40
sS'__doc__'
p41
S"'Invalid syntax.'"
p42
sS'__getitem__'
p43
S"<method-wrapper '__getitem__' of exceptions.SyntaxError object>"
p44
sS'__setstate__'
p45
S'<built-in method __setstate__ of exceptions.SyntaxError object>'
p46
sS'__getattribute__'
p47
S"<method-wrapper '__getattribute__' of exceptions.SyntaxError object>"
p48
sS'print_file_and_line'
p49
S'None'
p50
sS'args'
p51
S"('<img/> tags cannot have components',)"
p52
sS'__subclasshook__'
p53
S'<built-in method __subclasshook__ of type object>'
p54
sS'offset'
p55
S'None'
p56
sS'__unicode__'
p57
S'<built-in method __unicode__ of exceptions.SyntaxError object>'
p58
sS'__delattr__'
p59
S"<method-wrapper '__delattr__' of exceptions.SyntaxError object>"
p60
sS'__repr__'
p61
S"<method-wrapper '__repr__' of exceptions.SyntaxError object>"
p62
sS'__hash__'
p63
S"<method-wrapper '__hash__' of exceptions.SyntaxError object>"
p64
ssS'evalue'
p65
S'<img/> tags cannot have components'
p66
sS'request'
p67
ccopy_reg
_reconstructor
p68
(cgluon.html
BEAUTIFY
p69
c__builtin__
object
p70
NtRp71
(dp72
S'attributes'
p73
(dp74
sS'components'
p75
(lp76
g68
(cgluon.html
TABLE
p77
g70
NtRp78
(dp79
g73
(dp80
S'level'
p81
I5
ssS'parent'
p82
Nsg75
(lp83
g68
(cgluon.html
TR
p84
g70
NtRp85
(dp86
g73
(dp87
sg82
g78
sg75
(lp88
g68
(cgluon.html
TD
p89
g70
NtRp90
(dp91
g73
(dp92
S'_style'
p93
S'font-weight:bold;'
p94
ssg82
g85
sg75
(lp95
S'ajax'
p96
asbag68
(g89
g70
NtRp97
(dp98
g73
(dp99
S'_valign'
p100
S'top'
p101
ssg82
g85
sg75
(lp102
S':'
asbag68
(g89
g70
NtRp103
(dp104
g73
(dp105
sg82
g85
sg75
(lp106
g68
(g69
g70
NtRp107
(dp108
g73
(dp109
g81
I5
ssg82
g103
sg75
(lp110
S'False'
p111
asbasbasbag68
(g84
g70
NtRp112
(dp113
g73
(dp114
sg82
g78
sg75
(lp115
g68
(g89
g70
NtRp116
(dp117
g73
(dp118
g93
g94
ssg82
g112
sg75
(lp119
S'application'
p120
asbag68
(g89
g70
NtRp121
(dp122
g73
(dp123
g100
g101
ssg82
g112
sg75
(lp124
S':'
asbag68
(g89
g70
NtRp125
(dp126
g73
(dp127
sg82
g112
sg75
(lp128
g68
(g69
g70
NtRp129
(dp130
g73
(dp131
g81
I5
ssg82
g125
sg75
(lp132
S'ACES'
p133
asbasbasbag68
(g84
g70
NtRp134
(dp135
g73
(dp136
sg82
g78
sg75
(lp137
g68
(g89
g70
NtRp138
(dp139
g73
(dp140
g93
g94
ssg82
g134
sg75
(lp141
g51
asbag68
(g89
g70
NtRp142
(dp143
g73
(dp144
g100
g101
ssg82
g134
sg75
(lp145
S':'
asbag68
(g89
g70
NtRp146
(dp147
g73
(dp148
sg82
g134
sg75
(lp149
g68
(g69
g70
NtRp150
(dp151
g73
(dp152
g81
I5
ssg82
g146
sg75
(lp153
g68
(g77
g70
NtRp154
(dp155
g73
(dp156
g81
I4
ssg82
Nsg75
(lp157
sbasbasbasbag68
(g84
g70
NtRp158
(dp159
g73
(dp160
sg82
g78
sg75
(lp161
g68
(g89
g70
NtRp162
(dp163
g73
(dp164
g93
g94
ssg82
g158
sg75
(lp165
S'body'
p166
asbag68
(g89
g70
NtRp167
(dp168
g73
(dp169
g100
g101
ssg82
g158
sg75
(lp170
S':'
asbag68
(g89
g70
NtRp171
(dp172
g73
(dp173
sg82
g158
sg75
(lp174
g68
(g69
g70
NtRp175
(dp176
g73
(dp177
g81
I5
ssg82
g171
sg75
(lp178
S"<open file '<fdopen>', mode 'w+b' at 0xa8729c0>"
p179
asbasbasbag68
(g84
g70
NtRp180
(dp181
g73
(dp182
sg82
g78
sg75
(lp183
g68
(g89
g70
NtRp184
(dp185
g73
(dp186
g93
g94
ssg82
g180
sg75
(lp187
S'client'
p188
asbag68
(g89
g70
NtRp189
(dp190
g73
(dp191
g100
g101
ssg82
g180
sg75
(lp192
S':'
asbag68
(g89
g70
NtRp193
(dp194
g73
(dp195
sg82
g180
sg75
(lp196
g68
(g69
g70
NtRp197
(dp198
g73
(dp199
g81
I5
ssg82
g193
sg75
(lp200
S'127.0.0.1'
p201
asbasbasbag68
(g84
g70
NtRp202
(dp203
g73
(dp204
sg82
g78
sg75
(lp205
g68
(g89
g70
NtRp206
(dp207
g73
(dp208
g93
g94
ssg82
g202
sg75
(lp209
S'controller'
p210
asbag68
(g89
g70
NtRp211
(dp212
g73
(dp213
g100
g101
ssg82
g202
sg75
(lp214
S':'
asbag68
(g89
g70
NtRp215
(dp216
g73
(dp217
sg82
g202
sg75
(lp218
g68
(g69
g70
NtRp219
(dp220
g73
(dp221
g81
I5
ssg82
g215
sg75
(lp222
S'default'
p223
asbasbasbag68
(g84
g70
NtRp224
(dp225
g73
(dp226
sg82
g78
sg75
(lp227
g68
(g89
g70
NtRp228
(dp229
g73
(dp230
g93
g94
ssg82
g224
sg75
(lp231
S'cookies'
p232
asbag68
(g89
g70
NtRp233
(dp234
g73
(dp235
g100
g101
ssg82
g224
sg75
(lp236
S':'
asbag68
(g89
g70
NtRp237
(dp238
g73
(dp239
sg82
g224
sg75
(lp240
g68
(g69
g70
NtRp241
(dp242
g73
(dp243
g81
I5
ssg82
g237
sg75
(lp244
g68
(g77
g70
NtRp245
(dp246
g73
(dp247
g81
I4
ssg82
Nsg75
(lp248
g68
(g84
g70
NtRp249
(dp250
g73
(dp251
sg82
g245
sg75
(lp252
g68
(g89
g70
NtRp253
(dp254
g73
(dp255
g93
g94
ssg82
g249
sg75
(lp256
S'session_id_aces'
p257
asbag68
(g89
g70
NtRp258
(dp259
g73
(dp260
g100
g101
ssg82
g249
sg75
(lp261
S':'
asbag68
(g89
g70
NtRp262
(dp263
g73
(dp264
sg82
g249
sg75
(lp265
g68
(g69
g70
NtRp266
(dp267
g73
(dp268
g81
I4
ssg82
g262
sg75
(lp269
g68
(g77
g70
NtRp270
(dp271
g73
(dp272
g81
I3
ssg82
Nsg75
(lp273
g68
(g84
g70
NtRp274
(dp275
g73
(dp276
sg82
g270
sg75
(lp277
g68
(g89
g70
NtRp278
(dp279
g73
(dp280
g93
g94
ssg82
g274
sg75
(lp281
S'comment'
p282
asbag68
(g89
g70
NtRp283
(dp284
g73
(dp285
g100
g101
ssg82
g274
sg75
(lp286
S':'
asbag68
(g89
g70
NtRp287
(dp288
g73
(dp289
sg82
g274
sg75
(lp290
g68
(g69
g70
NtRp291
(dp292
g73
(dp293
g81
I3
ssg82
g287
sg75
(lp294
S''
asbasbasbag68
(g84
g70
NtRp295
(dp296
g73
(dp297
sg82
g270
sg75
(lp298
g68
(g89
g70
NtRp299
(dp300
g73
(dp301
g93
g94
ssg82
g295
sg75
(lp302
S'domain'
p303
asbag68
(g89
g70
NtRp304
(dp305
g73
(dp306
g100
g101
ssg82
g295
sg75
(lp307
S':'
asbag68
(g89
g70
NtRp308
(dp309
g73
(dp310
sg82
g295
sg75
(lp311
g68
(g69
g70
NtRp312
(dp313
g73
(dp314
g81
I3
ssg82
g308
sg75
(lp315
S''
asbasbasbag68
(g84
g70
NtRp316
(dp317
g73
(dp318
sg82
g270
sg75
(lp319
g68
(g89
g70
NtRp320
(dp321
g73
(dp322
g93
g94
ssg82
g316
sg75
(lp323
S'expires'
p324
asbag68
(g89
g70
NtRp325
(dp326
g73
(dp327
g100
g101
ssg82
g316
sg75
(lp328
S':'
asbag68
(g89
g70
NtRp329
(dp330
g73
(dp331
sg82
g316
sg75
(lp332
g68
(g69
g70
NtRp333
(dp334
g73
(dp335
g81
I3
ssg82
g329
sg75
(lp336
S''
asbasbasbag68
(g84
g70
NtRp337
(dp338
g73
(dp339
sg82
g270
sg75
(lp340
g68
(g89
g70
NtRp341
(dp342
g73
(dp343
g93
g94
ssg82
g337
sg75
(lp344
S'httponly'
p345
asbag68
(g89
g70
NtRp346
(dp347
g73
(dp348
g100
g101
ssg82
g337
sg75
(lp349
S':'
asbag68
(g89
g70
NtRp350
(dp351
g73
(dp352
sg82
g337
sg75
(lp353
g68
(g69
g70
NtRp354
(dp355
g73
(dp356
g81
I3
ssg82
g350
sg75
(lp357
S''
asbasbasbag68
(g84
g70
NtRp358
(dp359
g73
(dp360
sg82
g270
sg75
(lp361
g68
(g89
g70
NtRp362
(dp363
g73
(dp364
g93
g94
ssg82
g358
sg75
(lp365
S'max-age'
p366
asbag68
(g89
g70
NtRp367
(dp368
g73
(dp369
g100
g101
ssg82
g358
sg75
(lp370
S':'
asbag68
(g89
g70
NtRp371
(dp372
g73
(dp373
sg82
g358
sg75
(lp374
g68
(g69
g70
NtRp375
(dp376
g73
(dp377
g81
I3
ssg82
g371
sg75
(lp378
S''
asbasbasbag68
(g84
g70
NtRp379
(dp380
g73
(dp381
sg82
g270
sg75
(lp382
g68
(g89
g70
NtRp383
(dp384
g73
(dp385
g93
g94
ssg82
g379
sg75
(lp386
S'path'
p387
asbag68
(g89
g70
NtRp388
(dp389
g73
(dp390
g100
g101
ssg82
g379
sg75
(lp391
S':'
asbag68
(g89
g70
NtRp392
(dp393
g73
(dp394
sg82
g379
sg75
(lp395
g68
(g69
g70
NtRp396
(dp397
g73
(dp398
g81
I3
ssg82
g392
sg75
(lp399
S''
asbasbasbag68
(g84
g70
NtRp400
(dp401
g73
(dp402
sg82
g270
sg75
(lp403
g68
(g89
g70
NtRp404
(dp405
g73
(dp406
g93
g94
ssg82
g400
sg75
(lp407
S'secure'
p408
asbag68
(g89
g70
NtRp409
(dp410
g73
(dp411
g100
g101
ssg82
g400
sg75
(lp412
S':'
asbag68
(g89
g70
NtRp413
(dp414
g73
(dp415
sg82
g400
sg75
(lp416
g68
(g69
g70
NtRp417
(dp418
g73
(dp419
g81
I3
ssg82
g413
sg75
(lp420
S''
asbasbasbag68
(g84
g70
NtRp421
(dp422
g73
(dp423
sg82
g270
sg75
(lp424
g68
(g89
g70
NtRp425
(dp426
g73
(dp427
g93
g94
ssg82
g421
sg75
(lp428
S'version'
p429
asbag68
(g89
g70
NtRp430
(dp431
g73
(dp432
g100
g101
ssg82
g421
sg75
(lp433
S':'
asbag68
(g89
g70
NtRp434
(dp435
g73
(dp436
sg82
g421
sg75
(lp437
g68
(g69
g70
NtRp438
(dp439
g73
(dp440
g81
I3
ssg82
g434
sg75
(lp441
S''
asbasbasbasbasbasbasbag68
(g84
g70
NtRp442
(dp443
g73
(dp444
sg82
g245
sg75
(lp445
g68
(g89
g70
NtRp446
(dp447
g73
(dp448
g93
g94
ssg82
g442
sg75
(lp449
S'session_id_admin'
p450
asbag68
(g89
g70
NtRp451
(dp452
g73
(dp453
g100
g101
ssg82
g442
sg75
(lp454
S':'
asbag68
(g89
g70
NtRp455
(dp456
g73
(dp457
sg82
g442
sg75
(lp458
g68
(g69
g70
NtRp459
(dp460
g73
(dp461
g81
I4
ssg82
g455
sg75
(lp462
g68
(g77
g70
NtRp463
(dp464
g73
(dp465
g81
I3
ssg82
Nsg75
(lp466
g68
(g84
g70
NtRp467
(dp468
g73
(dp469
sg82
g463
sg75
(lp470
g68
(g89
g70
NtRp471
(dp472
g73
(dp473
g93
g94
ssg82
g467
sg75
(lp474
g282
asbag68
(g89
g70
NtRp475
(dp476
g73
(dp477
g100
g101
ssg82
g467
sg75
(lp478
S':'
asbag68
(g89
g70
NtRp479
(dp480
g73
(dp481
sg82
g467
sg75
(lp482
g68
(g69
g70
NtRp483
(dp484
g73
(dp485
g81
I3
ssg82
g479
sg75
(lp486
S''
asbasbasbag68
(g84
g70
NtRp487
(dp488
g73
(dp489
sg82
g463
sg75
(lp490
g68
(g89
g70
NtRp491
(dp492
g73
(dp493
g93
g94
ssg82
g487
sg75
(lp494
g303
asbag68
(g89
g70
NtRp495
(dp496
g73
(dp497
g100
g101
ssg82
g487
sg75
(lp498
S':'
asbag68
(g89
g70
NtRp499
(dp500
g73
(dp501
sg82
g487
sg75
(lp502
g68
(g69
g70
NtRp503
(dp504
g73
(dp505
g81
I3
ssg82
g499
sg75
(lp506
S''
asbasbasbag68
(g84
g70
NtRp507
(dp508
g73
(dp509
sg82
g463
sg75
(lp510
g68
(g89
g70
NtRp511
(dp512
g73
(dp513
g93
g94
ssg82
g507
sg75
(lp514
g324
asbag68
(g89
g70
NtRp515
(dp516
g73
(dp517
g100
g101
ssg82
g507
sg75
(lp518
S':'
asbag68
(g89
g70
NtRp519
(dp520
g73
(dp521
sg82
g507
sg75
(lp522
g68
(g69
g70
NtRp523
(dp524
g73
(dp525
g81
I3
ssg82
g519
sg75
(lp526
S''
asbasbasbag68
(g84
g70
NtRp527
(dp528
g73
(dp529
sg82
g463
sg75
(lp530
g68
(g89
g70
NtRp531
(dp532
g73
(dp533
g93
g94
ssg82
g527
sg75
(lp534
g345
asbag68
(g89
g70
NtRp535
(dp536
g73
(dp537
g100
g101
ssg82
g527
sg75
(lp538
S':'
asbag68
(g89
g70
NtRp539
(dp540
g73
(dp541
sg82
g527
sg75
(lp542
g68
(g69
g70
NtRp543
(dp544
g73
(dp545
g81
I3
ssg82
g539
sg75
(lp546
S''
asbasbasbag68
(g84
g70
NtRp547
(dp548
g73
(dp549
sg82
g463
sg75
(lp550
g68
(g89
g70
NtRp551
(dp552
g73
(dp553
g93
g94
ssg82
g547
sg75
(lp554
g366
asbag68
(g89
g70
NtRp555
(dp556
g73
(dp557
g100
g101
ssg82
g547
sg75
(lp558
S':'
asbag68
(g89
g70
NtRp559
(dp560
g73
(dp561
sg82
g547
sg75
(lp562
g68
(g69
g70
NtRp563
(dp564
g73
(dp565
g81
I3
ssg82
g559
sg75
(lp566
S''
asbasbasbag68
(g84
g70
NtRp567
(dp568
g73
(dp569
sg82
g463
sg75
(lp570
g68
(g89
g70
NtRp571
(dp572
g73
(dp573
g93
g94
ssg82
g567
sg75
(lp574
g387
asbag68
(g89
g70
NtRp575
(dp576
g73
(dp577
g100
g101
ssg82
g567
sg75
(lp578
S':'
asbag68
(g89
g70
NtRp579
(dp580
g73
(dp581
sg82
g567
sg75
(lp582
g68
(g69
g70
NtRp583
(dp584
g73
(dp585
g81
I3
ssg82
g579
sg75
(lp586
S''
asbasbasbag68
(g84
g70
NtRp587
(dp588
g73
(dp589
sg82
g463
sg75
(lp590
g68
(g89
g70
NtRp591
(dp592
g73
(dp593
g93
g94
ssg82
g587
sg75
(lp594
g408
asbag68
(g89
g70
NtRp595
(dp596
g73
(dp597
g100
g101
ssg82
g587
sg75
(lp598
S':'
asbag68
(g89
g70
NtRp599
(dp600
g73
(dp601
sg82
g587
sg75
(lp602
g68
(g69
g70
NtRp603
(dp604
g73
(dp605
g81
I3
ssg82
g599
sg75
(lp606
S''
asbasbasbag68
(g84
g70
NtRp607
(dp608
g73
(dp609
sg82
g463
sg75
(lp610
g68
(g89
g70
NtRp611
(dp612
g73
(dp613
g93
g94
ssg82
g607
sg75
(lp614
g429
asbag68
(g89
g70
NtRp615
(dp616
g73
(dp617
g100
g101
ssg82
g607
sg75
(lp618
S':'
asbag68
(g89
g70
NtRp619
(dp620
g73
(dp621
sg82
g607
sg75
(lp622
g68
(g69
g70
NtRp623
(dp624
g73
(dp625
g81
I3
ssg82
g619
sg75
(lp626
S''
asbasbasbasbasbasbasbag68
(g84
g70
NtRp627
(dp628
g73
(dp629
sg82
g245
sg75
(lp630
g68
(g89
g70
NtRp631
(dp632
g73
(dp633
g93
g94
ssg82
g627
sg75
(lp634
S'session_id_dalex1'
p635
asbag68
(g89
g70
NtRp636
(dp637
g73
(dp638
g100
g101
ssg82
g627
sg75
(lp639
S':'
asbag68
(g89
g70
NtRp640
(dp641
g73
(dp642
sg82
g627
sg75
(lp643
g68
(g69
g70
NtRp644
(dp645
g73
(dp646
g81
I4
ssg82
g640
sg75
(lp647
g68
(g77
g70
NtRp648
(dp649
g73
(dp650
g81
I3
ssg82
Nsg75
(lp651
g68
(g84
g70
NtRp652
(dp653
g73
(dp654
sg82
g648
sg75
(lp655
g68
(g89
g70
NtRp656
(dp657
g73
(dp658
g93
g94
ssg82
g652
sg75
(lp659
g282
asbag68
(g89
g70
NtRp660
(dp661
g73
(dp662
g100
g101
ssg82
g652
sg75
(lp663
S':'
asbag68
(g89
g70
NtRp664
(dp665
g73
(dp666
sg82
g652
sg75
(lp667
g68
(g69
g70
NtRp668
(dp669
g73
(dp670
g81
I3
ssg82
g664
sg75
(lp671
S''
asbasbasbag68
(g84
g70
NtRp672
(dp673
g73
(dp674
sg82
g648
sg75
(lp675
g68
(g89
g70
NtRp676
(dp677
g73
(dp678
g93
g94
ssg82
g672
sg75
(lp679
g303
asbag68
(g89
g70
NtRp680
(dp681
g73
(dp682
g100
g101
ssg82
g672
sg75
(lp683
S':'
asbag68
(g89
g70
NtRp684
(dp685
g73
(dp686
sg82
g672
sg75
(lp687
g68
(g69
g70
NtRp688
(dp689
g73
(dp690
g81
I3
ssg82
g684
sg75
(lp691
S''
asbasbasbag68
(g84
g70
NtRp692
(dp693
g73
(dp694
sg82
g648
sg75
(lp695
g68
(g89
g70
NtRp696
(dp697
g73
(dp698
g93
g94
ssg82
g692
sg75
(lp699
g324
asbag68
(g89
g70
NtRp700
(dp701
g73
(dp702
g100
g101
ssg82
g692
sg75
(lp703
S':'
asbag68
(g89
g70
NtRp704
(dp705
g73
(dp706
sg82
g692
sg75
(lp707
g68
(g69
g70
NtRp708
(dp709
g73
(dp710
g81
I3
ssg82
g704
sg75
(lp711
S''
asbasbasbag68
(g84
g70
NtRp712
(dp713
g73
(dp714
sg82
g648
sg75
(lp715
g68
(g89
g70
NtRp716
(dp717
g73
(dp718
g93
g94
ssg82
g712
sg75
(lp719
g345
asbag68
(g89
g70
NtRp720
(dp721
g73
(dp722
g100
g101
ssg82
g712
sg75
(lp723
S':'
asbag68
(g89
g70
NtRp724
(dp725
g73
(dp726
sg82
g712
sg75
(lp727
g68
(g69
g70
NtRp728
(dp729
g73
(dp730
g81
I3
ssg82
g724
sg75
(lp731
S''
asbasbasbag68
(g84
g70
NtRp732
(dp733
g73
(dp734
sg82
g648
sg75
(lp735
g68
(g89
g70
NtRp736
(dp737
g73
(dp738
g93
g94
ssg82
g732
sg75
(lp739
g366
asbag68
(g89
g70
NtRp740
(dp741
g73
(dp742
g100
g101
ssg82
g732
sg75
(lp743
S':'
asbag68
(g89
g70
NtRp744
(dp745
g73
(dp746
sg82
g732
sg75
(lp747
g68
(g69
g70
NtRp748
(dp749
g73
(dp750
g81
I3
ssg82
g744
sg75
(lp751
S''
asbasbasbag68
(g84
g70
NtRp752
(dp753
g73
(dp754
sg82
g648
sg75
(lp755
g68
(g89
g70
NtRp756
(dp757
g73
(dp758
g93
g94
ssg82
g752
sg75
(lp759
g387
asbag68
(g89
g70
NtRp760
(dp761
g73
(dp762
g100
g101
ssg82
g752
sg75
(lp763
S':'
asbag68
(g89
g70
NtRp764
(dp765
g73
(dp766
sg82
g752
sg75
(lp767
g68
(g69
g70
NtRp768
(dp769
g73
(dp770
g81
I3
ssg82
g764
sg75
(lp771
S''
asbasbasbag68
(g84
g70
NtRp772
(dp773
g73
(dp774
sg82
g648
sg75
(lp775
g68
(g89
g70
NtRp776
(dp777
g73
(dp778
g93
g94
ssg82
g772
sg75
(lp779
g408
asbag68
(g89
g70
NtRp780
(dp781
g73
(dp782
g100
g101
ssg82
g772
sg75
(lp783
S':'
asbag68
(g89
g70
NtRp784
(dp785
g73
(dp786
sg82
g772
sg75
(lp787
g68
(g69
g70
NtRp788
(dp789
g73
(dp790
g81
I3
ssg82
g784
sg75
(lp791
S''
asbasbasbag68
(g84
g70
NtRp792
(dp793
g73
(dp794
sg82
g648
sg75
(lp795
g68
(g89
g70
NtRp796
(dp797
g73
(dp798
g93
g94
ssg82
g792
sg75
(lp799
g429
asbag68
(g89
g70
NtRp800
(dp801
g73
(dp802
g100
g101
ssg82
g792
sg75
(lp803
S':'
asbag68
(g89
g70
NtRp804
(dp805
g73
(dp806
sg82
g792
sg75
(lp807
g68
(g69
g70
NtRp808
(dp809
g73
(dp810
g81
I3
ssg82
g804
sg75
(lp811
S''
asbasbasbasbasbasbasbag68
(g84
g70
NtRp812
(dp813
g73
(dp814
sg82
g245
sg75
(lp815
g68
(g89
g70
NtRp816
(dp817
g73
(dp818
g93
g94
ssg82
g812
sg75
(lp819
S'session_id_payperiod'
p820
asbag68
(g89
g70
NtRp821
(dp822
g73
(dp823
g100
g101
ssg82
g812
sg75
(lp824
S':'
asbag68
(g89
g70
NtRp825
(dp826
g73
(dp827
sg82
g812
sg75
(lp828
g68
(g69
g70
NtRp829
(dp830
g73
(dp831
g81
I4
ssg82
g825
sg75
(lp832
g68
(g77
g70
NtRp833
(dp834
g73
(dp835
g81
I3
ssg82
Nsg75
(lp836
g68
(g84
g70
NtRp837
(dp838
g73
(dp839
sg82
g833
sg75
(lp840
g68
(g89
g70
NtRp841
(dp842
g73
(dp843
g93
g94
ssg82
g837
sg75
(lp844
g282
asbag68
(g89
g70
NtRp845
(dp846
g73
(dp847
g100
g101
ssg82
g837
sg75
(lp848
S':'
asbag68
(g89
g70
NtRp849
(dp850
g73
(dp851
sg82
g837
sg75
(lp852
g68
(g69
g70
NtRp853
(dp854
g73
(dp855
g81
I3
ssg82
g849
sg75
(lp856
S''
asbasbasbag68
(g84
g70
NtRp857
(dp858
g73
(dp859
sg82
g833
sg75
(lp860
g68
(g89
g70
NtRp861
(dp862
g73
(dp863
g93
g94
ssg82
g857
sg75
(lp864
g303
asbag68
(g89
g70
NtRp865
(dp866
g73
(dp867
g100
g101
ssg82
g857
sg75
(lp868
S':'
asbag68
(g89
g70
NtRp869
(dp870
g73
(dp871
sg82
g857
sg75
(lp872
g68
(g69
g70
NtRp873
(dp874
g73
(dp875
g81
I3
ssg82
g869
sg75
(lp876
S''
asbasbasbag68
(g84
g70
NtRp877
(dp878
g73
(dp879
sg82
g833
sg75
(lp880
g68
(g89
g70
NtRp881
(dp882
g73
(dp883
g93
g94
ssg82
g877
sg75
(lp884
g324
asbag68
(g89
g70
NtRp885
(dp886
g73
(dp887
g100
g101
ssg82
g877
sg75
(lp888
S':'
asbag68
(g89
g70
NtRp889
(dp890
g73
(dp891
sg82
g877
sg75
(lp892
g68
(g69
g70
NtRp893
(dp894
g73
(dp895
g81
I3
ssg82
g889
sg75
(lp896
S''
asbasbasbag68
(g84
g70
NtRp897
(dp898
g73
(dp899
sg82
g833
sg75
(lp900
g68
(g89
g70
NtRp901
(dp902
g73
(dp903
g93
g94
ssg82
g897
sg75
(lp904
g345
asbag68
(g89
g70
NtRp905
(dp906
g73
(dp907
g100
g101
ssg82
g897
sg75
(lp908
S':'
asbag68
(g89
g70
NtRp909
(dp910
g73
(dp911
sg82
g897
sg75
(lp912
g68
(g69
g70
NtRp913
(dp914
g73
(dp915
g81
I3
ssg82
g909
sg75
(lp916
S''
asbasbasbag68
(g84
g70
NtRp917
(dp918
g73
(dp919
sg82
g833
sg75
(lp920
g68
(g89
g70
NtRp921
(dp922
g73
(dp923
g93
g94
ssg82
g917
sg75
(lp924
g366
asbag68
(g89
g70
NtRp925
(dp926
g73
(dp927
g100
g101
ssg82
g917
sg75
(lp928
S':'
asbag68
(g89
g70
NtRp929
(dp930
g73
(dp931
sg82
g917
sg75
(lp932
g68
(g69
g70
NtRp933
(dp934
g73
(dp935
g81
I3
ssg82
g929
sg75
(lp936
S''
asbasbasbag68
(g84
g70
NtRp937
(dp938
g73
(dp939
sg82
g833
sg75
(lp940
g68
(g89
g70
NtRp941
(dp942
g73
(dp943
g93
g94
ssg82
g937
sg75
(lp944
g387
asbag68
(g89
g70
NtRp945
(dp946
g73
(dp947
g100
g101
ssg82
g937
sg75
(lp948
S':'
asbag68
(g89
g70
NtRp949
(dp950
g73
(dp951
sg82
g937
sg75
(lp952
g68
(g69
g70
NtRp953
(dp954
g73
(dp955
g81
I3
ssg82
g949
sg75
(lp956
S''
asbasbasbag68
(g84
g70
NtRp957
(dp958
g73
(dp959
sg82
g833
sg75
(lp960
g68
(g89
g70
NtRp961
(dp962
g73
(dp963
g93
g94
ssg82
g957
sg75
(lp964
g408
asbag68
(g89
g70
NtRp965
(dp966
g73
(dp967
g100
g101
ssg82
g957
sg75
(lp968
S':'
asbag68
(g89
g70
NtRp969
(dp970
g73
(dp971
sg82
g957
sg75
(lp972
g68
(g69
g70
NtRp973
(dp974
g73
(dp975
g81
I3
ssg82
g969
sg75
(lp976
S''
asbasbasbag68
(g84
g70
NtRp977
(dp978
g73
(dp979
sg82
g833
sg75
(lp980
g68
(g89
g70
NtRp981
(dp982
g73
(dp983
g93
g94
ssg82
g977
sg75
(lp984
g429
asbag68
(g89
g70
NtRp985
(dp986
g73
(dp987
g100
g101
ssg82
g977
sg75
(lp988
S':'
asbag68
(g89
g70
NtRp989
(dp990
g73
(dp991
sg82
g977
sg75
(lp992
g68
(g69
g70
NtRp993
(dp994
g73
(dp995
g81
I3
ssg82
g989
sg75
(lp996
S''
asbasbasbasbasbasbasbag68
(g84
g70
NtRp997
(dp998
g73
(dp999
sg82
g245
sg75
(lp1000
g68
(g89
g70
NtRp1001
(dp1002
g73
(dp1003
g93
g94
ssg82
g997
sg75
(lp1004
S'session_id_welcome'
p1005
asbag68
(g89
g70
NtRp1006
(dp1007
g73
(dp1008
g100
g101
ssg82
g997
sg75
(lp1009
S':'
asbag68
(g89
g70
NtRp1010
(dp1011
g73
(dp1012
sg82
g997
sg75
(lp1013
g68
(g69
g70
NtRp1014
(dp1015
g73
(dp1016
g81
I4
ssg82
g1010
sg75
(lp1017
g68
(g77
g70
NtRp1018
(dp1019
g73
(dp1020
g81
I3
ssg82
Nsg75
(lp1021
g68
(g84
g70
NtRp1022
(dp1023
g73
(dp1024
sg82
g1018
sg75
(lp1025
g68
(g89
g70
NtRp1026
(dp1027
g73
(dp1028
g93
g94
ssg82
g1022
sg75
(lp1029
g282
asbag68
(g89
g70
NtRp1030
(dp1031
g73
(dp1032
g100
g101
ssg82
g1022
sg75
(lp1033
S':'
asbag68
(g89
g70
NtRp1034
(dp1035
g73
(dp1036
sg82
g1022
sg75
(lp1037
g68
(g69
g70
NtRp1038
(dp1039
g73
(dp1040
g81
I3
ssg82
g1034
sg75
(lp1041
S''
asbasbasbag68
(g84
g70
NtRp1042
(dp1043
g73
(dp1044
sg82
g1018
sg75
(lp1045
g68
(g89
g70
NtRp1046
(dp1047
g73
(dp1048
g93
g94
ssg82
g1042
sg75
(lp1049
g303
asbag68
(g89
g70
NtRp1050
(dp1051
g73
(dp1052
g100
g101
ssg82
g1042
sg75
(lp1053
S':'
asbag68
(g89
g70
NtRp1054
(dp1055
g73
(dp1056
sg82
g1042
sg75
(lp1057
g68
(g69
g70
NtRp1058
(dp1059
g73
(dp1060
g81
I3
ssg82
g1054
sg75
(lp1061
S''
asbasbasbag68
(g84
g70
NtRp1062
(dp1063
g73
(dp1064
sg82
g1018
sg75
(lp1065
g68
(g89
g70
NtRp1066
(dp1067
g73
(dp1068
g93
g94
ssg82
g1062
sg75
(lp1069
g324
asbag68
(g89
g70
NtRp1070
(dp1071
g73
(dp1072
g100
g101
ssg82
g1062
sg75
(lp1073
S':'
asbag68
(g89
g70
NtRp1074
(dp1075
g73
(dp1076
sg82
g1062
sg75
(lp1077
g68
(g69
g70
NtRp1078
(dp1079
g73
(dp1080
g81
I3
ssg82
g1074
sg75
(lp1081
S''
asbasbasbag68
(g84
g70
NtRp1082
(dp1083
g73
(dp1084
sg82
g1018
sg75
(lp1085
g68
(g89
g70
NtRp1086
(dp1087
g73
(dp1088
g93
g94
ssg82
g1082
sg75
(lp1089
g345
asbag68
(g89
g70
NtRp1090
(dp1091
g73
(dp1092
g100
g101
ssg82
g1082
sg75
(lp1093
S':'
asbag68
(g89
g70
NtRp1094
(dp1095
g73
(dp1096
sg82
g1082
sg75
(lp1097
g68
(g69
g70
NtRp1098
(dp1099
g73
(dp1100
g81
I3
ssg82
g1094
sg75
(lp1101
S''
asbasbasbag68
(g84
g70
NtRp1102
(dp1103
g73
(dp1104
sg82
g1018
sg75
(lp1105
g68
(g89
g70
NtRp1106
(dp1107
g73
(dp1108
g93
g94
ssg82
g1102
sg75
(lp1109
g366
asbag68
(g89
g70
NtRp1110
(dp1111
g73
(dp1112
g100
g101
ssg82
g1102
sg75
(lp1113
S':'
asbag68
(g89
g70
NtRp1114
(dp1115
g73
(dp1116
sg82
g1102
sg75
(lp1117
g68
(g69
g70
NtRp1118
(dp1119
g73
(dp1120
g81
I3
ssg82
g1114
sg75
(lp1121
S''
asbasbasbag68
(g84
g70
NtRp1122
(dp1123
g73
(dp1124
sg82
g1018
sg75
(lp1125
g68
(g89
g70
NtRp1126
(dp1127
g73
(dp1128
g93
g94
ssg82
g1122
sg75
(lp1129
g387
asbag68
(g89
g70
NtRp1130
(dp1131
g73
(dp1132
g100
g101
ssg82
g1122
sg75
(lp1133
S':'
asbag68
(g89
g70
NtRp1134
(dp1135
g73
(dp1136
sg82
g1122
sg75
(lp1137
g68
(g69
g70
NtRp1138
(dp1139
g73
(dp1140
g81
I3
ssg82
g1134
sg75
(lp1141
S''
asbasbasbag68
(g84
g70
NtRp1142
(dp1143
g73
(dp1144
sg82
g1018
sg75
(lp1145
g68
(g89
g70
NtRp1146
(dp1147
g73
(dp1148
g93
g94
ssg82
g1142
sg75
(lp1149
g408
asbag68
(g89
g70
NtRp1150
(dp1151
g73
(dp1152
g100
g101
ssg82
g1142
sg75
(lp1153
S':'
asbag68
(g89
g70
NtRp1154
(dp1155
g73
(dp1156
sg82
g1142
sg75
(lp1157
g68
(g69
g70
NtRp1158
(dp1159
g73
(dp1160
g81
I3
ssg82
g1154
sg75
(lp1161
S''
asbasbasbag68
(g84
g70
NtRp1162
(dp1163
g73
(dp1164
sg82
g1018
sg75
(lp1165
g68
(g89
g70
NtRp1166
(dp1167
g73
(dp1168
g93
g94
ssg82
g1162
sg75
(lp1169
g429
asbag68
(g89
g70
NtRp1170
(dp1171
g73
(dp1172
g100
g101
ssg82
g1162
sg75
(lp1173
S':'
asbag68
(g89
g70
NtRp1174
(dp1175
g73
(dp1176
sg82
g1162
sg75
(lp1177
g68
(g69
g70
NtRp1178
(dp1179
g73
(dp1180
g81
I3
ssg82
g1174
sg75
(lp1181
S''
asbasbasbasbasbasbasbasbasbasbasbag68
(g84
g70
NtRp1182
(dp1183
g73
(dp1184
sg82
g78
sg75
(lp1185
g68
(g89
g70
NtRp1186
(dp1187
g73
(dp1188
g93
g94
ssg82
g1182
sg75
(lp1189
S'env'
p1190
asbag68
(g89
g70
NtRp1191
(dp1192
g73
(dp1193
g100
g101
ssg82
g1182
sg75
(lp1194
S':'
asbag68
(g89
g70
NtRp1195
(dp1196
g73
(dp1197
sg82
g1182
sg75
(lp1198
g68
(g69
g70
NtRp1199
(dp1200
g73
(dp1201
g81
I5
ssg82
g1195
sg75
(lp1202
g68
(g77
g70
NtRp1203
(dp1204
g73
(dp1205
g81
I4
ssg82
Nsg75
(lp1206
g68
(g84
g70
NtRp1207
(dp1208
g73
(dp1209
sg82
g1203
sg75
(lp1210
g68
(g89
g70
NtRp1211
(dp1212
g73
(dp1213
g93
g94
ssg82
g1207
sg75
(lp1214
S'app_folders'
p1215
asbag68
(g89
g70
NtRp1216
(dp1217
g73
(dp1218
g100
g101
ssg82
g1207
sg75
(lp1219
S':'
asbag68
(g89
g70
NtRp1220
(dp1221
g73
(dp1222
sg82
g1207
sg75
(lp1223
g68
(g69
g70
NtRp1224
(dp1225
g73
(dp1226
g81
I4
ssg82
g1220
sg75
(lp1227
S"set(['/home/u4hcsdaw/Python/web2py/applications/ACES/', '/home/u4hcsdaw/Python/web2py/applications/PayPeriod/', '/home/u4hcsdaw/Python/web2py/applications/admin/', '/home/u4hcsdaw/Python/web2py/applications/welcome/', '/home/u4hcsdaw/Python/web2py/applications/DALEX1/'])"
p1228
asbasbasbag68
(g84
g70
NtRp1229
(dp1230
g73
(dp1231
sg82
g1203
sg75
(lp1232
g68
(g89
g70
NtRp1233
(dp1234
g73
(dp1235
g93
g94
ssg82
g1229
sg75
(lp1236
S'applications_parent'
p1237
asbag68
(g89
g70
NtRp1238
(dp1239
g73
(dp1240
g100
g101
ssg82
g1229
sg75
(lp1241
S':'
asbag68
(g89
g70
NtRp1242
(dp1243
g73
(dp1244
sg82
g1229
sg75
(lp1245
g68
(g69
g70
NtRp1246
(dp1247
g73
(dp1248
g81
I4
ssg82
g1242
sg75
(lp1249
S'/home/u4hcsdaw/Python/web2py'
p1250
asbasbasbag68
(g84
g70
NtRp1251
(dp1252
g73
(dp1253
sg82
g1203
sg75
(lp1254
g68
(g89
g70
NtRp1255
(dp1256
g73
(dp1257
g93
g94
ssg82
g1251
sg75
(lp1258
S'cmd_args'
p1259
asbag68
(g89
g70
NtRp1260
(dp1261
g73
(dp1262
g100
g101
ssg82
g1251
sg75
(lp1263
S':'
asbag68
(g89
g70
NtRp1264
(dp1265
g73
(dp1266
sg82
g1251
sg75
(lp1267
g68
(g69
g70
NtRp1268
(dp1269
g73
(dp1270
g81
I4
ssg82
g1264
sg75
(lp1271
g68
(g77
g70
NtRp1272
(dp1273
g73
(dp1274
g81
I3
ssg82
Nsg75
(lp1275
sbasbasbasbag68
(g84
g70
NtRp1276
(dp1277
g73
(dp1278
sg82
g1203
sg75
(lp1279
g68
(g89
g70
NtRp1280
(dp1281
g73
(dp1282
g93
g94
ssg82
g1276
sg75
(lp1283
S'cmd_options'
p1284
asbag68
(g89
g70
NtRp1285
(dp1286
g73
(dp1287
g100
g101
ssg82
g1276
sg75
(lp1288
S':'
asbag68
(g89
g70
NtRp1289
(dp1290
g73
(dp1291
sg82
g1276
sg75
(lp1292
g68
(g69
g70
NtRp1293
(dp1294
g73
(dp1295
g81
I4
ssg82
g1289
sg75
(lp1296
S"<Values at 0xa59ca2c: {'verbose': False, 'ip': '127.0.0.1', 'shutdown_timeout': 5, 'taskbar': False, 'nocron': False, 'pid_filename': 'httpserver.pid', 'maxthreads': None, 'softcron': False, 'server_name': 'CHL-5833E', 'bpython': False, 'nogui': False, 'port': 8000, 'extcron': False, 'debuglevel': 30, 'test': None, 'folder': '/home/u4hcsdaw/Python/web2py', 'config': '', 'import_models': False, 'winservice': '', 'shell': None, 'run': '', 'log_filename': 'httpserver.log', 'args': [''], 'ssl_ca_certificate': None, 'scheduler': None, 'profiler_filename': None, 'ssl_private_key': '', 'password': '<ask>', 'request_queue_size': 5, 'ssl_certificate': '', 'cronjob': False, 'plain': False, 'quiet': False, 'interfaces': None, 'minthreads': None, 'timeout': 10, 'numthreads': None, 'nobanner': False}>"
p1297
asbasbasbag68
(g84
g70
NtRp1298
(dp1299
g73
(dp1300
sg82
g1203
sg75
(lp1301
g68
(g89
g70
NtRp1302
(dp1303
g73
(dp1304
g93
g94
ssg82
g1298
sg75
(lp1305
S'content_length'
p1306
asbag68
(g89
g70
NtRp1307
(dp1308
g73
(dp1309
g100
g101
ssg82
g1298
sg75
(lp1310
S':'
asbag68
(g89
g70
NtRp1311
(dp1312
g73
(dp1313
sg82
g1298
sg75
(lp1314
g68
(g69
g70
NtRp1315
(dp1316
g73
(dp1317
g81
I4
ssg82
g1311
sg75
(lp1318
S'572'
p1319
asbasbasbag68
(g84
g70
NtRp1320
(dp1321
g73
(dp1322
sg82
g1203
sg75
(lp1323
g68
(g89
g70
NtRp1324
(dp1325
g73
(dp1326
g93
g94
ssg82
g1320
sg75
(lp1327
S'content_type'
p1328
asbag68
(g89
g70
NtRp1329
(dp1330
g73
(dp1331
g100
g101
ssg82
g1320
sg75
(lp1332
S':'
asbag68
(g89
g70
NtRp1333
(dp1334
g73
(dp1335
sg82
g1320
sg75
(lp1336
g68
(g69
g70
NtRp1337
(dp1338
g73
(dp1339
g81
I4
ssg82
g1333
sg75
(lp1340
S'multipart/form-data; boundary=---------------------------9693814051845569658227531312'
p1341
asbasbasbag68
(g84
g70
NtRp1342
(dp1343
g73
(dp1344
sg82
g1203
sg75
(lp1345
g68
(g89
g70
NtRp1346
(dp1347
g73
(dp1348
g93
g94
ssg82
g1342
sg75
(lp1349
S'db_sessions'
p1350
asbag68
(g89
g70
NtRp1351
(dp1352
g73
(dp1353
g100
g101
ssg82
g1342
sg75
(lp1354
S':'
asbag68
(g89
g70
NtRp1355
(dp1356
g73
(dp1357
sg82
g1342
sg75
(lp1358
g68
(g69
g70
NtRp1359
(dp1360
g73
(dp1361
g81
I4
ssg82
g1355
sg75
(lp1362
S'set([])'
p1363
asbasbasbag68
(g84
g70
NtRp1364
(dp1365
g73
(dp1366
sg82
g1203
sg75
(lp1367
g68
(g89
g70
NtRp1368
(dp1369
g73
(dp1370
g93
g94
ssg82
g1364
sg75
(lp1371
S'debugging'
p1372
asbag68
(g89
g70
NtRp1373
(dp1374
g73
(dp1375
g100
g101
ssg82
g1364
sg75
(lp1376
S':'
asbag68
(g89
g70
NtRp1377
(dp1378
g73
(dp1379
sg82
g1364
sg75
(lp1380
g68
(g69
g70
NtRp1381
(dp1382
g73
(dp1383
g81
I4
ssg82
g1377
sg75
(lp1384
g111
asbasbasbag68
(g84
g70
NtRp1385
(dp1386
g73
(dp1387
sg82
g1203
sg75
(lp1388
g68
(g89
g70
NtRp1389
(dp1390
g73
(dp1391
g93
g94
ssg82
g1385
sg75
(lp1392
S'gluon_parent'
p1393
asbag68
(g89
g70
NtRp1394
(dp1395
g73
(dp1396
g100
g101
ssg82
g1385
sg75
(lp1397
S':'
asbag68
(g89
g70
NtRp1398
(dp1399
g73
(dp1400
sg82
g1385
sg75
(lp1401
g68
(g69
g70
NtRp1402
(dp1403
g73
(dp1404
g81
I4
ssg82
g1398
sg75
(lp1405
S'/home/u4hcsdaw/Python/web2py'
p1406
asbasbasbag68
(g84
g70
NtRp1407
(dp1408
g73
(dp1409
sg82
g1203
sg75
(lp1410
g68
(g89
g70
NtRp1411
(dp1412
g73
(dp1413
g93
g94
ssg82
g1407
sg75
(lp1414
S'http_accept'
p1415
asbag68
(g89
g70
NtRp1416
(dp1417
g73
(dp1418
g100
g101
ssg82
g1407
sg75
(lp1419
S':'
asbag68
(g89
g70
NtRp1420
(dp1421
g73
(dp1422
sg82
g1407
sg75
(lp1423
g68
(g69
g70
NtRp1424
(dp1425
g73
(dp1426
g81
I4
ssg82
g1420
sg75
(lp1427
S'text/html,application/xhtml+xml,application/xml;q=0.9,*/*;q=0.8'
p1428
asbasbasbag68
(g84
g70
NtRp1429
(dp1430
g73
(dp1431
sg82
g1203
sg75
(lp1432
g68
(g89
g70
NtRp1433
(dp1434
g73
(dp1435
g93
g94
ssg82
g1429
sg75
(lp1436
S'http_accept_encoding'
p1437
asbag68
(g89
g70
NtRp1438
(dp1439
g73
(dp1440
g100
g101
ssg82
g1429
sg75
(lp1441
S':'
asbag68
(g89
g70
NtRp1442
(dp1443
g73
(dp1444
sg82
g1429
sg75
(lp1445
g68
(g69
g70
NtRp1446
(dp1447
g73
(dp1448
g81
I4
ssg82
g1442
sg75
(lp1449
S'gzip, deflate'
p1450
asbasbasbag68
(g84
g70
NtRp1451
(dp1452
g73
(dp1453
sg82
g1203
sg75
(lp1454
g68
(g89
g70
NtRp1455
(dp1456
g73
(dp1457
g93
g94
ssg82
g1451
sg75
(lp1458
S'http_accept_language'
p1459
asbag68
(g89
g70
NtRp1460
(dp1461
g73
(dp1462
g100
g101
ssg82
g1451
sg75
(lp1463
S':'
asbag68
(g89
g70
NtRp1464
(dp1465
g73
(dp1466
sg82
g1451
sg75
(lp1467
g68
(g69
g70
NtRp1468
(dp1469
g73
(dp1470
g81
I4
ssg82
g1464
sg75
(lp1471
S'en-us,en;q=0.5'
p1472
asbasbasbag68
(g84
g70
NtRp1473
(dp1474
g73
(dp1475
sg82
g1203
sg75
(lp1476
g68
(g89
g70
NtRp1477
(dp1478
g73
(dp1479
g93
g94
ssg82
g1473
sg75
(lp1480
S'http_connection'
p1481
asbag68
(g89
g70
NtRp1482
(dp1483
g73
(dp1484
g100
g101
ssg82
g1473
sg75
(lp1485
S':'
asbag68
(g89
g70
NtRp1486
(dp1487
g73
(dp1488
sg82
g1473
sg75
(lp1489
g68
(g69
g70
NtRp1490
(dp1491
g73
(dp1492
g81
I4
ssg82
g1486
sg75
(lp1493
S'keep-alive'
p1494
asbasbasbag68
(g84
g70
NtRp1495
(dp1496
g73
(dp1497
sg82
g1203
sg75
(lp1498
g68
(g89
g70
NtRp1499
(dp1500
g73
(dp1501
g93
g94
ssg82
g1495
sg75
(lp1502
S'http_content_length'
p1503
asbag68
(g89
g70
NtRp1504
(dp1505
g73
(dp1506
g100
g101
ssg82
g1495
sg75
(lp1507
S':'
asbag68
(g89
g70
NtRp1508
(dp1509
g73
(dp1510
sg82
g1495
sg75
(lp1511
g68
(g69
g70
NtRp1512
(dp1513
g73
(dp1514
g81
I4
ssg82
g1508
sg75
(lp1515
g1319
asbasbasbag68
(g84
g70
NtRp1516
(dp1517
g73
(dp1518
sg82
g1203
sg75
(lp1519
g68
(g89
g70
NtRp1520
(dp1521
g73
(dp1522
g93
g94
ssg82
g1516
sg75
(lp1523
S'http_content_type'
p1524
asbag68
(g89
g70
NtRp1525
(dp1526
g73
(dp1527
g100
g101
ssg82
g1516
sg75
(lp1528
S':'
asbag68
(g89
g70
NtRp1529
(dp1530
g73
(dp1531
sg82
g1516
sg75
(lp1532
g68
(g69
g70
NtRp1533
(dp1534
g73
(dp1535
g81
I4
ssg82
g1529
sg75
(lp1536
g1341
asbasbasbag68
(g84
g70
NtRp1537
(dp1538
g73
(dp1539
sg82
g1203
sg75
(lp1540
g68
(g89
g70
NtRp1541
(dp1542
g73
(dp1543
g93
g94
ssg82
g1537
sg75
(lp1544
S'http_cookie'
p1545
asbag68
(g89
g70
NtRp1546
(dp1547
g73
(dp1548
g100
g101
ssg82
g1537
sg75
(lp1549
S':'
asbag68
(g89
g70
NtRp1550
(dp1551
g73
(dp1552
sg82
g1537
sg75
(lp1553
g68
(g69
g70
NtRp1554
(dp1555
g73
(dp1556
g81
I4
ssg82
g1550
sg75
(lp1557
S'session_id_welcome=127.0.0.1-12b98747-1fd8-478d-9049-d46630d93557; session_id_dalex1=127.0.0.1-7e0fdc70-88f0-470f-b29d-66b8055bd8b0; session_id_admin=127.0.0.1-b6612ac5-4ad8-4c3c-a00a-ff553923cd64; session_id_aces=127.0.0.1-41cac65c-3668-453b-9ecc-c26f12d379cc; session_id_payperiod=127.0.0.1-9708cb9c-54bb-4c0f-8cf3-5e7899aff001'
p1558
asbasbasbag68
(g84
g70
NtRp1559
(dp1560
g73
(dp1561
sg82
g1203
sg75
(lp1562
g68
(g89
g70
NtRp1563
(dp1564
g73
(dp1565
g93
g94
ssg82
g1559
sg75
(lp1566
S'http_host'
p1567
asbag68
(g89
g70
NtRp1568
(dp1569
g73
(dp1570
g100
g101
ssg82
g1559
sg75
(lp1571
S':'
asbag68
(g89
g70
NtRp1572
(dp1573
g73
(dp1574
sg82
g1559
sg75
(lp1575
g68
(g69
g70
NtRp1576
(dp1577
g73
(dp1578
g81
I4
ssg82
g1572
sg75
(lp1579
S'127.0.0.1:8000'
p1580
asbasbasbag68
(g84
g70
NtRp1581
(dp1582
g73
(dp1583
sg82
g1203
sg75
(lp1584
g68
(g89
g70
NtRp1585
(dp1586
g73
(dp1587
g93
g94
ssg82
g1581
sg75
(lp1588
S'http_referer'
p1589
asbag68
(g89
g70
NtRp1590
(dp1591
g73
(dp1592
g100
g101
ssg82
g1581
sg75
(lp1593
S':'
asbag68
(g89
g70
NtRp1594
(dp1595
g73
(dp1596
sg82
g1581
sg75
(lp1597
g68
(g69
g70
NtRp1598
(dp1599
g73
(dp1600
g81
I4
ssg82
g1594
sg75
(lp1601
S'http://127.0.0.1:8000/ACES/default/index'
p1602
asbasbasbag68
(g84
g70
NtRp1603
(dp1604
g73
(dp1605
sg82
g1203
sg75
(lp1606
g68
(g89
g70
NtRp1607
(dp1608
g73
(dp1609
g93
g94
ssg82
g1603
sg75
(lp1610
S'http_user_agent'
p1611
asbag68
(g89
g70
NtRp1612
(dp1613
g73
(dp1614
g100
g101
ssg82
g1603
sg75
(lp1615
S':'
asbag68
(g89
g70
NtRp1616
(dp1617
g73
(dp1618
sg82
g1603
sg75
(lp1619
g68
(g69
g70
NtRp1620
(dp1621
g73
(dp1622
g81
I4
ssg82
g1616
sg75
(lp1623
S'Mozilla/5.0 (X11; Ubuntu; Linux i686; rv:11.0) Gecko/20100101 Firefox/11.0'
p1624
asbasbasbag68
(g84
g70
NtRp1625
(dp1626
g73
(dp1627
sg82
g1203
sg75
(lp1628
g68
(g89
g70
NtRp1629
(dp1630
g73
(dp1631
g93
g94
ssg82
g1625
sg75
(lp1632
S'is_jython'
p1633
asbag68
(g89
g70
NtRp1634
(dp1635
g73
(dp1636
g100
g101
ssg82
g1625
sg75
(lp1637
S':'
asbag68
(g89
g70
NtRp1638
(dp1639
g73
(dp1640
sg82
g1625
sg75
(lp1641
g68
(g69
g70
NtRp1642
(dp1643
g73
(dp1644
g81
I4
ssg82
g1638
sg75
(lp1645
g111
asbasbasbag68
(g84
g70
NtRp1646
(dp1647
g73
(dp1648
sg82
g1203
sg75
(lp1649
g68
(g89
g70
NtRp1650
(dp1651
g73
(dp1652
g93
g94
ssg82
g1646
sg75
(lp1653
S'path_info'
p1654
asbag68
(g89
g70
NtRp1655
(dp1656
g73
(dp1657
g100
g101
ssg82
g1646
sg75
(lp1658
S':'
asbag68
(g89
g70
NtRp1659
(dp1660
g73
(dp1661
sg82
g1646
sg75
(lp1662
g68
(g69
g70
NtRp1663
(dp1664
g73
(dp1665
g81
I4
ssg82
g1659
sg75
(lp1666
S'/ACES/default/index'
p1667
asbasbasbag68
(g84
g70
NtRp1668
(dp1669
g73
(dp1670
sg82
g1203
sg75
(lp1671
g68
(g89
g70
NtRp1672
(dp1673
g73
(dp1674
g93
g94
ssg82
g1668
sg75
(lp1675
S'query_string'
p1676
asbag68
(g89
g70
NtRp1677
(dp1678
g73
(dp1679
g100
g101
ssg82
g1668
sg75
(lp1680
S':'
asbag68
(g89
g70
NtRp1681
(dp1682
g73
(dp1683
sg82
g1668
sg75
(lp1684
g68
(g69
g70
NtRp1685
(dp1686
g73
(dp1687
g81
I4
ssg82
g1681
sg75
(lp1688
S''
asbasbasbag68
(g84
g70
NtRp1689
(dp1690
g73
(dp1691
sg82
g1203
sg75
(lp1692
g68
(g89
g70
NtRp1693
(dp1694
g73
(dp1695
g93
g94
ssg82
g1689
sg75
(lp1696
S'remote_addr'
p1697
asbag68
(g89
g70
NtRp1698
(dp1699
g73
(dp1700
g100
g101
ssg82
g1689
sg75
(lp1701
S':'
asbag68
(g89
g70
NtRp1702
(dp1703
g73
(dp1704
sg82
g1689
sg75
(lp1705
g68
(g69
g70
NtRp1706
(dp1707
g73
(dp1708
g81
I4
ssg82
g1702
sg75
(lp1709
g201
asbasbasbag68
(g84
g70
NtRp1710
(dp1711
g73
(dp1712
sg82
g1203
sg75
(lp1713
g68
(g89
g70
NtRp1714
(dp1715
g73
(dp1716
g93
g94
ssg82
g1710
sg75
(lp1717
S'remote_port'
p1718
asbag68
(g89
g70
NtRp1719
(dp1720
g73
(dp1721
g100
g101
ssg82
g1710
sg75
(lp1722
S':'
asbag68
(g89
g70
NtRp1723
(dp1724
g73
(dp1725
sg82
g1710
sg75
(lp1726
g68
(g69
g70
NtRp1727
(dp1728
g73
(dp1729
g81
I4
ssg82
g1723
sg75
(lp1730
S'58088'
p1731
asbasbasbag68
(g84
g70
NtRp1732
(dp1733
g73
(dp1734
sg82
g1203
sg75
(lp1735
g68
(g89
g70
NtRp1736
(dp1737
g73
(dp1738
g93
g94
ssg82
g1732
sg75
(lp1739
S'request_method'
p1740
asbag68
(g89
g70
NtRp1741
(dp1742
g73
(dp1743
g100
g101
ssg82
g1732
sg75
(lp1744
S':'
asbag68
(g89
g70
NtRp1745
(dp1746
g73
(dp1747
sg82
g1732
sg75
(lp1748
g68
(g69
g70
NtRp1749
(dp1750
g73
(dp1751
g81
I4
ssg82
g1745
sg75
(lp1752
S'POST'
p1753
asbasbasbag68
(g84
g70
NtRp1754
(dp1755
g73
(dp1756
sg82
g1203
sg75
(lp1757
g68
(g89
g70
NtRp1758
(dp1759
g73
(dp1760
g93
g94
ssg82
g1754
sg75
(lp1761
S'script_name'
p1762
asbag68
(g89
g70
NtRp1763
(dp1764
g73
(dp1765
g100
g101
ssg82
g1754
sg75
(lp1766
S':'
asbag68
(g89
g70
NtRp1767
(dp1768
g73
(dp1769
sg82
g1754
sg75
(lp1770
g68
(g69
g70
NtRp1771
(dp1772
g73
(dp1773
g81
I4
ssg82
g1767
sg75
(lp1774
S''
asbasbasbag68
(g84
g70
NtRp1775
(dp1776
g73
(dp1777
sg82
g1203
sg75
(lp1778
g68
(g89
g70
NtRp1779
(dp1780
g73
(dp1781
g93
g94
ssg82
g1775
sg75
(lp1782
S'server_name'
p1783
asbag68
(g89
g70
NtRp1784
(dp1785
g73
(dp1786
g100
g101
ssg82
g1775
sg75
(lp1787
S':'
asbag68
(g89
g70
NtRp1788
(dp1789
g73
(dp1790
sg82
g1775
sg75
(lp1791
g68
(g69
g70
NtRp1792
(dp1793
g73
(dp1794
g81
I4
ssg82
g1788
sg75
(lp1795
S'CHL-5833E'
p1796
asbasbasbag68
(g84
g70
NtRp1797
(dp1798
g73
(dp1799
sg82
g1203
sg75
(lp1800
g68
(g89
g70
NtRp1801
(dp1802
g73
(dp1803
g93
g94
ssg82
g1797
sg75
(lp1804
S'server_port'
p1805
asbag68
(g89
g70
NtRp1806
(dp1807
g73
(dp1808
g100
g101
ssg82
g1797
sg75
(lp1809
S':'
asbag68
(g89
g70
NtRp1810
(dp1811
g73
(dp1812
sg82
g1797
sg75
(lp1813
g68
(g69
g70
NtRp1814
(dp1815
g73
(dp1816
g81
I4
ssg82
g1810
sg75
(lp1817
S'8000'
p1818
asbasbasbag68
(g84
g70
NtRp1819
(dp1820
g73
(dp1821
sg82
g1203
sg75
(lp1822
g68
(g89
g70
NtRp1823
(dp1824
g73
(dp1825
g93
g94
ssg82
g1819
sg75
(lp1826
S'server_protocol'
p1827
asbag68
(g89
g70
NtRp1828
(dp1829
g73
(dp1830
g100
g101
ssg82
g1819
sg75
(lp1831
S':'
asbag68
(g89
g70
NtRp1832
(dp1833
g73
(dp1834
sg82
g1819
sg75
(lp1835
g68
(g69
g70
NtRp1836
(dp1837
g73
(dp1838
g81
I4
ssg82
g1832
sg75
(lp1839
S'HTTP/1.1'
p1840
asbasbasbag68
(g84
g70
NtRp1841
(dp1842
g73
(dp1843
sg82
g1203
sg75
(lp1844
g68
(g89
g70
NtRp1845
(dp1846
g73
(dp1847
g93
g94
ssg82
g1841
sg75
(lp1848
S'server_software'
p1849
asbag68
(g89
g70
NtRp1850
(dp1851
g73
(dp1852
g100
g101
ssg82
g1841
sg75
(lp1853
S':'
asbag68
(g89
g70
NtRp1854
(dp1855
g73
(dp1856
sg82
g1841
sg75
(lp1857
g68
(g69
g70
NtRp1858
(dp1859
g73
(dp1860
g81
I4
ssg82
g1854
sg75
(lp1861
S'Rocket 1.2.4'
p1862
asbasbasbag68
(g84
g70
NtRp1863
(dp1864
g73
(dp1865
sg82
g1203
sg75
(lp1866
g68
(g89
g70
NtRp1867
(dp1868
g73
(dp1869
g93
g94
ssg82
g1863
sg75
(lp1870
S'web2py_crontype'
p1871
asbag68
(g89
g70
NtRp1872
(dp1873
g73
(dp1874
g100
g101
ssg82
g1863
sg75
(lp1875
S':'
asbag68
(g89
g70
NtRp1876
(dp1877
g73
(dp1878
sg82
g1863
sg75
(lp1879
g68
(g69
g70
NtRp1880
(dp1881
g73
(dp1882
g81
I4
ssg82
g1876
sg75
(lp1883
S'hard'
p1884
asbasbasbag68
(g84
g70
NtRp1885
(dp1886
g73
(dp1887
sg82
g1203
sg75
(lp1888
g68
(g89
g70
NtRp1889
(dp1890
g73
(dp1891
g93
g94
ssg82
g1885
sg75
(lp1892
S'web2py_path'
p1893
asbag68
(g89
g70
NtRp1894
(dp1895
g73
(dp1896
g100
g101
ssg82
g1885
sg75
(lp1897
S':'
asbag68
(g89
g70
NtRp1898
(dp1899
g73
(dp1900
sg82
g1885
sg75
(lp1901
g68
(g69
g70
NtRp1902
(dp1903
g73
(dp1904
g81
I4
ssg82
g1898
sg75
(lp1905
g1250
asbasbasbag68
(g84
g70
NtRp1906
(dp1907
g73
(dp1908
sg82
g1203
sg75
(lp1909
g68
(g89
g70
NtRp1910
(dp1911
g73
(dp1912
g93
g94
ssg82
g1906
sg75
(lp1913
S'web2py_version'
p1914
asbag68
(g89
g70
NtRp1915
(dp1916
g73
(dp1917
g100
g101
ssg82
g1906
sg75
(lp1918
S':'
asbag68
(g89
g70
NtRp1919
(dp1920
g73
(dp1921
sg82
g1906
sg75
(lp1922
g68
(g69
g70
NtRp1923
(dp1924
g73
(dp1925
g81
I4
ssg82
g1919
sg75
(lp1926
g68
(g77
g70
NtRp1927
(dp1928
g73
(dp1929
g81
I3
ssg82
Nsg75
(lp1930
g68
(g84
g70
NtRp1931
(dp1932
g73
(dp1933
sg82
g1927
sg75
(lp1934
g68
(g89
g70
NtRp1935
(dp1936
g73
(dp1937
sg82
g1931
sg75
(lp1938
g68
(g69
g70
NtRp1939
(dp1940
g73
(dp1941
g81
I3
ssg82
g1935
sg75
(lp1942
S'1'
asbasbasbag68
(g84
g70
NtRp1943
(dp1944
g73
(dp1945
sg82
g1927
sg75
(lp1946
g68
(g89
g70
NtRp1947
(dp1948
g73
(dp1949
sg82
g1943
sg75
(lp1950
g68
(g69
g70
NtRp1951
(dp1952
g73
(dp1953
g81
I3
ssg82
g1947
sg75
(lp1954
S'99'
p1955
asbasbasbag68
(g84
g70
NtRp1956
(dp1957
g73
(dp1958
sg82
g1927
sg75
(lp1959
g68
(g89
g70
NtRp1960
(dp1961
g73
(dp1962
sg82
g1956
sg75
(lp1963
g68
(g69
g70
NtRp1964
(dp1965
g73
(dp1966
g81
I3
ssg82
g1960
sg75
(lp1967
S'2'
asbasbasbag68
(g84
g70
NtRp1968
(dp1969
g73
(dp1970
sg82
g1927
sg75
(lp1971
g68
(g89
g70
NtRp1972
(dp1973
g73
(dp1974
sg82
g1968
sg75
(lp1975
g68
(g69
g70
NtRp1976
(dp1977
g73
(dp1978
g81
I3
ssg82
g1972
sg75
(lp1979
S'datetime.datetime(2011, 9, 26, 6, 55, 33)'
p1980
asbasbasbag68
(g84
g70
NtRp1981
(dp1982
g73
(dp1983
sg82
g1927
sg75
(lp1984
g68
(g89
g70
NtRp1985
(dp1986
g73
(dp1987
sg82
g1981
sg75
(lp1988
g68
(g69
g70
NtRp1989
(dp1990
g73
(dp1991
g81
I3
ssg82
g1985
sg75
(lp1992
S'stable'
p1993
asbasbasbasbasbasbasbag68
(g84
g70
NtRp1994
(dp1995
g73
(dp1996
sg82
g1203
sg75
(lp1997
g68
(g89
g70
NtRp1998
(dp1999
g73
(dp2000
g93
g94
ssg82
g1994
sg75
(lp2001
S'wsgi_errors'
p2002
asbag68
(g89
g70
NtRp2003
(dp2004
g73
(dp2005
g100
g101
ssg82
g1994
sg75
(lp2006
S':'
asbag68
(g89
g70
NtRp2007
(dp2008
g73
(dp2009
sg82
g1994
sg75
(lp2010
g68
(g69
g70
NtRp2011
(dp2012
g73
(dp2013
g81
I4
ssg82
g2007
sg75
(lp2014
S"<open file '<stderr>', mode 'w' at 0xb738b0d0>"
p2015
asbasbasbag68
(g84
g70
NtRp2016
(dp2017
g73
(dp2018
sg82
g1203
sg75
(lp2019
g68
(g89
g70
NtRp2020
(dp2021
g73
(dp2022
g93
g94
ssg82
g2016
sg75
(lp2023
S'wsgi_file_wrapper'
p2024
asbag68
(g89
g70
NtRp2025
(dp2026
g73
(dp2027
g100
g101
ssg82
g2016
sg75
(lp2028
S':'
asbag68
(g89
g70
NtRp2029
(dp2030
g73
(dp2031
sg82
g2016
sg75
(lp2032
g68
(g69
g70
NtRp2033
(dp2034
g73
(dp2035
g81
I4
ssg82
g2029
sg75
(lp2036
S'<class wsgiref.util.FileWrapper at 0xa4ce92c>'
p2037
asbasbasbag68
(g84
g70
NtRp2038
(dp2039
g73
(dp2040
sg82
g1203
sg75
(lp2041
g68
(g89
g70
NtRp2042
(dp2043
g73
(dp2044
g93
g94
ssg82
g2038
sg75
(lp2045
S'wsgi_input'
p2046
asbag68
(g89
g70
NtRp2047
(dp2048
g73
(dp2049
g100
g101
ssg82
g2038
sg75
(lp2050
S':'
asbag68
(g89
g70
NtRp2051
(dp2052
g73
(dp2053
sg82
g2038
sg75
(lp2054
g68
(g69
g70
NtRp2055
(dp2056
g73
(dp2057
g81
I4
ssg82
g2051
sg75
(lp2058
S'<socket._fileobject object at 0xa8c60ac>'
p2059
asbasbasbag68
(g84
g70
NtRp2060
(dp2061
g73
(dp2062
sg82
g1203
sg75
(lp2063
g68
(g89
g70
NtRp2064
(dp2065
g73
(dp2066
g93
g94
ssg82
g2060
sg75
(lp2067
S'wsgi_multiprocess'
p2068
asbag68
(g89
g70
NtRp2069
(dp2070
g73
(dp2071
g100
g101
ssg82
g2060
sg75
(lp2072
S':'
asbag68
(g89
g70
NtRp2073
(dp2074
g73
(dp2075
sg82
g2060
sg75
(lp2076
g68
(g69
g70
NtRp2077
(dp2078
g73
(dp2079
g81
I4
ssg82
g2073
sg75
(lp2080
g111
asbasbasbag68
(g84
g70
NtRp2081
(dp2082
g73
(dp2083
sg82
g1203
sg75
(lp2084
g68
(g89
g70
NtRp2085
(dp2086
g73
(dp2087
g93
g94
ssg82
g2081
sg75
(lp2088
S'wsgi_multithread'
p2089
asbag68
(g89
g70
NtRp2090
(dp2091
g73
(dp2092
g100
g101
ssg82
g2081
sg75
(lp2093
S':'
asbag68
(g89
g70
NtRp2094
(dp2095
g73
(dp2096
sg82
g2081
sg75
(lp2097
g68
(g69
g70
NtRp2098
(dp2099
g73
(dp2100
g81
I4
ssg82
g2094
sg75
(lp2101
S'True'
p2102
asbasbasbag68
(g84
g70
NtRp2103
(dp2104
g73
(dp2105
sg82
g1203
sg75
(lp2106
g68
(g89
g70
NtRp2107
(dp2108
g73
(dp2109
g93
g94
ssg82
g2103
sg75
(lp2110
S'wsgi_run_once'
p2111
asbag68
(g89
g70
NtRp2112
(dp2113
g73
(dp2114
g100
g101
ssg82
g2103
sg75
(lp2115
S':'
asbag68
(g89
g70
NtRp2116
(dp2117
g73
(dp2118
sg82
g2103
sg75
(lp2119
g68
(g69
g70
NtRp2120
(dp2121
g73
(dp2122
g81
I4
ssg82
g2116
sg75
(lp2123
g111
asbasbasbag68
(g84
g70
NtRp2124
(dp2125
g73
(dp2126
sg82
g1203
sg75
(lp2127
g68
(g89
g70
NtRp2128
(dp2129
g73
(dp2130
g93
g94
ssg82
g2124
sg75
(lp2131
S'wsgi_url_scheme'
p2132
asbag68
(g89
g70
NtRp2133
(dp2134
g73
(dp2135
g100
g101
ssg82
g2124
sg75
(lp2136
S':'
asbag68
(g89
g70
NtRp2137
(dp2138
g73
(dp2139
sg82
g2124
sg75
(lp2140
g68
(g69
g70
NtRp2141
(dp2142
g73
(dp2143
g81
I4
ssg82
g2137
sg75
(lp2144
S'http'
p2145
asbasbasbag68
(g84
g70
NtRp2146
(dp2147
g73
(dp2148
sg82
g1203
sg75
(lp2149
g68
(g89
g70
NtRp2150
(dp2151
g73
(dp2152
g93
g94
ssg82
g2146
sg75
(lp2153
S'wsgi_version'
p2154
asbag68
(g89
g70
NtRp2155
(dp2156
g73
(dp2157
g100
g101
ssg82
g2146
sg75
(lp2158
S':'
asbag68
(g89
g70
NtRp2159
(dp2160
g73
(dp2161
sg82
g2146
sg75
(lp2162
g68
(g69
g70
NtRp2163
(dp2164
g73
(dp2165
g81
I4
ssg82
g2159
sg75
(lp2166
g68
(g77
g70
NtRp2167
(dp2168
g73
(dp2169
g81
I3
ssg82
Nsg75
(lp2170
g68
(g84
g70
NtRp2171
(dp2172
g73
(dp2173
sg82
g2167
sg75
(lp2174
g68
(g89
g70
NtRp2175
(dp2176
g73
(dp2177
sg82
g2171
sg75
(lp2178
g68
(g69
g70
NtRp2179
(dp2180
g73
(dp2181
g81
I3
ssg82
g2175
sg75
(lp2182
S'1'
asbasbasbag68
(g84
g70
NtRp2183
(dp2184
g73
(dp2185
sg82
g2167
sg75
(lp2186
g68
(g89
g70
NtRp2187
(dp2188
g73
(dp2189
sg82
g2183
sg75
(lp2190
g68
(g69
g70
NtRp2191
(dp2192
g73
(dp2193
g81
I3
ssg82
g2187
sg75
(lp2194
S'0'
asbasbasbasbasbasbasbasbasbasbasbag68
(g84
g70
NtRp2195
(dp2196
g73
(dp2197
sg82
g78
sg75
(lp2198
g68
(g89
g70
NtRp2199
(dp2200
g73
(dp2201
g93
g94
ssg82
g2195
sg75
(lp2202
S'extension'
p2203
asbag68
(g89
g70
NtRp2204
(dp2205
g73
(dp2206
g100
g101
ssg82
g2195
sg75
(lp2207
S':'
asbag68
(g89
g70
NtRp2208
(dp2209
g73
(dp2210
sg82
g2195
sg75
(lp2211
g68
(g69
g70
NtRp2212
(dp2213
g73
(dp2214
g81
I5
ssg82
g2208
sg75
(lp2215
S'html'
p2216
asbasbasbag68
(g84
g70
NtRp2217
(dp2218
g73
(dp2219
sg82
g78
sg75
(lp2220
g68
(g89
g70
NtRp2221
(dp2222
g73
(dp2223
g93
g94
ssg82
g2217
sg75
(lp2224
S'folder'
p2225
asbag68
(g89
g70
NtRp2226
(dp2227
g73
(dp2228
g100
g101
ssg82
g2217
sg75
(lp2229
S':'
asbag68
(g89
g70
NtRp2230
(dp2231
g73
(dp2232
sg82
g2217
sg75
(lp2233
g68
(g69
g70
NtRp2234
(dp2235
g73
(dp2236
g81
I5
ssg82
g2230
sg75
(lp2237
S'/home/u4hcsdaw/Python/web2py/applications/ACES/'
p2238
asbasbasbag68
(g84
g70
NtRp2239
(dp2240
g73
(dp2241
sg82
g78
sg75
(lp2242
g68
(g89
g70
NtRp2243
(dp2244
g73
(dp2245
g93
g94
ssg82
g2239
sg75
(lp2246
S'function'
p2247
asbag68
(g89
g70
NtRp2248
(dp2249
g73
(dp2250
g100
g101
ssg82
g2239
sg75
(lp2251
S':'
asbag68
(g89
g70
NtRp2252
(dp2253
g73
(dp2254
sg82
g2239
sg75
(lp2255
g68
(g69
g70
NtRp2256
(dp2257
g73
(dp2258
g81
I5
ssg82
g2252
sg75
(lp2259
S'index'
p2260
asbasbasbag68
(g84
g70
NtRp2261
(dp2262
g73
(dp2263
sg82
g78
sg75
(lp2264
g68
(g89
g70
NtRp2265
(dp2266
g73
(dp2267
g93
g94
ssg82
g2261
sg75
(lp2268
S'get_vars'
p2269
asbag68
(g89
g70
NtRp2270
(dp2271
g73
(dp2272
g100
g101
ssg82
g2261
sg75
(lp2273
S':'
asbag68
(g89
g70
NtRp2274
(dp2275
g73
(dp2276
sg82
g2261
sg75
(lp2277
g68
(g69
g70
NtRp2278
(dp2279
g73
(dp2280
g81
I5
ssg82
g2274
sg75
(lp2281
g68
(g77
g70
NtRp2282
(dp2283
g73
(dp2284
g81
I4
ssg82
Nsg75
(lp2285
sbasbasbasbag68
(g84
g70
NtRp2286
(dp2287
g73
(dp2288
sg82
g78
sg75
(lp2289
g68
(g89
g70
NtRp2290
(dp2291
g73
(dp2292
g93
g94
ssg82
g2286
sg75
(lp2293
S'global_settings'
p2294
asbag68
(g89
g70
NtRp2295
(dp2296
g73
(dp2297
g100
g101
ssg82
g2286
sg75
(lp2298
S':'
asbag68
(g89
g70
NtRp2299
(dp2300
g73
(dp2301
sg82
g2286
sg75
(lp2302
g68
(g69
g70
NtRp2303
(dp2304
g73
(dp2305
g81
I5
ssg82
g2299
sg75
(lp2306
g68
(g77
g70
NtRp2307
(dp2308
g73
(dp2309
g81
I4
ssg82
Nsg75
(lp2310
g68
(g84
g70
NtRp2311
(dp2312
g73
(dp2313
sg82
g2307
sg75
(lp2314
g68
(g89
g70
NtRp2315
(dp2316
g73
(dp2317
g93
g94
ssg82
g2311
sg75
(lp2318
g1215
asbag68
(g89
g70
NtRp2319
(dp2320
g73
(dp2321
g100
g101
ssg82
g2311
sg75
(lp2322
S':'
asbag68
(g89
g70
NtRp2323
(dp2324
g73
(dp2325
sg82
g2311
sg75
(lp2326
g68
(g69
g70
NtRp2327
(dp2328
g73
(dp2329
g81
I4
ssg82
g2323
sg75
(lp2330
S"set(['/home/u4hcsdaw/Python/web2py/applications/ACES/', '/home/u4hcsdaw/Python/web2py/applications/PayPeriod/', '/home/u4hcsdaw/Python/web2py/applications/admin/', '/home/u4hcsdaw/Python/web2py/applications/welcome/', '/home/u4hcsdaw/Python/web2py/applications/DALEX1/'])"
p2331
asbasbasbag68
(g84
g70
NtRp2332
(dp2333
g73
(dp2334
sg82
g2307
sg75
(lp2335
g68
(g89
g70
NtRp2336
(dp2337
g73
(dp2338
g93
g94
ssg82
g2332
sg75
(lp2339
g1237
asbag68
(g89
g70
NtRp2340
(dp2341
g73
(dp2342
g100
g101
ssg82
g2332
sg75
(lp2343
S':'
asbag68
(g89
g70
NtRp2344
(dp2345
g73
(dp2346
sg82
g2332
sg75
(lp2347
g68
(g69
g70
NtRp2348
(dp2349
g73
(dp2350
g81
I4
ssg82
g2344
sg75
(lp2351
g1250
asbasbasbag68
(g84
g70
NtRp2352
(dp2353
g73
(dp2354
sg82
g2307
sg75
(lp2355
g68
(g89
g70
NtRp2356
(dp2357
g73
(dp2358
g93
g94
ssg82
g2352
sg75
(lp2359
g1259
asbag68
(g89
g70
NtRp2360
(dp2361
g73
(dp2362
g100
g101
ssg82
g2352
sg75
(lp2363
S':'
asbag68
(g89
g70
NtRp2364
(dp2365
g73
(dp2366
sg82
g2352
sg75
(lp2367
g68
(g69
g70
NtRp2368
(dp2369
g73
(dp2370
g81
I4
ssg82
g2364
sg75
(lp2371
g68
(g77
g70
NtRp2372
(dp2373
g73
(dp2374
g81
I3
ssg82
Nsg75
(lp2375
sbasbasbasbag68
(g84
g70
NtRp2376
(dp2377
g73
(dp2378
sg82
g2307
sg75
(lp2379
g68
(g89
g70
NtRp2380
(dp2381
g73
(dp2382
g93
g94
ssg82
g2376
sg75
(lp2383
g1284
asbag68
(g89
g70
NtRp2384
(dp2385
g73
(dp2386
g100
g101
ssg82
g2376
sg75
(lp2387
S':'
asbag68
(g89
g70
NtRp2388
(dp2389
g73
(dp2390
sg82
g2376
sg75
(lp2391
g68
(g69
g70
NtRp2392
(dp2393
g73
(dp2394
g81
I4
ssg82
g2388
sg75
(lp2395
S"<Values at 0xa59ca2c: {'verbose': False, 'ip': '127.0.0.1', 'shutdown_timeout': 5, 'taskbar': False, 'nocron': False, 'pid_filename': 'httpserver.pid', 'maxthreads': None, 'softcron': False, 'server_name': 'CHL-5833E', 'bpython': False, 'nogui': False, 'port': 8000, 'extcron': False, 'debuglevel': 30, 'test': None, 'folder': '/home/u4hcsdaw/Python/web2py', 'config': '', 'import_models': False, 'winservice': '', 'shell': None, 'run': '', 'log_filename': 'httpserver.log', 'args': [''], 'ssl_ca_certificate': None, 'scheduler': None, 'profiler_filename': None, 'ssl_private_key': '', 'password': '<ask>', 'request_queue_size': 5, 'ssl_certificate': '', 'cronjob': False, 'plain': False, 'quiet': False, 'interfaces': None, 'minthreads': None, 'timeout': 10, 'numthreads': None, 'nobanner': False}>"
p2396
asbasbasbag68
(g84
g70
NtRp2397
(dp2398
g73
(dp2399
sg82
g2307
sg75
(lp2400
g68
(g89
g70
NtRp2401
(dp2402
g73
(dp2403
g93
g94
ssg82
g2397
sg75
(lp2404
g1350
asbag68
(g89
g70
NtRp2405
(dp2406
g73
(dp2407
g100
g101
ssg82
g2397
sg75
(lp2408
S':'
asbag68
(g89
g70
NtRp2409
(dp2410
g73
(dp2411
sg82
g2397
sg75
(lp2412
g68
(g69
g70
NtRp2413
(dp2414
g73
(dp2415
g81
I4
ssg82
g2409
sg75
(lp2416
S'set([])'
p2417
asbasbasbag68
(g84
g70
NtRp2418
(dp2419
g73
(dp2420
sg82
g2307
sg75
(lp2421
g68
(g89
g70
NtRp2422
(dp2423
g73
(dp2424
g93
g94
ssg82
g2418
sg75
(lp2425
g1372
asbag68
(g89
g70
NtRp2426
(dp2427
g73
(dp2428
g100
g101
ssg82
g2418
sg75
(lp2429
S':'
asbag68
(g89
g70
NtRp2430
(dp2431
g73
(dp2432
sg82
g2418
sg75
(lp2433
g68
(g69
g70
NtRp2434
(dp2435
g73
(dp2436
g81
I4
ssg82
g2430
sg75
(lp2437
g111
asbasbasbag68
(g84
g70
NtRp2438
(dp2439
g73
(dp2440
sg82
g2307
sg75
(lp2441
g68
(g89
g70
NtRp2442
(dp2443
g73
(dp2444
g93
g94
ssg82
g2438
sg75
(lp2445
g1393
asbag68
(g89
g70
NtRp2446
(dp2447
g73
(dp2448
g100
g101
ssg82
g2438
sg75
(lp2449
S':'
asbag68
(g89
g70
NtRp2450
(dp2451
g73
(dp2452
sg82
g2438
sg75
(lp2453
g68
(g69
g70
NtRp2454
(dp2455
g73
(dp2456
g81
I4
ssg82
g2450
sg75
(lp2457
g1406
asbasbasbag68
(g84
g70
NtRp2458
(dp2459
g73
(dp2460
sg82
g2307
sg75
(lp2461
g68
(g89
g70
NtRp2462
(dp2463
g73
(dp2464
g93
g94
ssg82
g2458
sg75
(lp2465
g1633
asbag68
(g89
g70
NtRp2466
(dp2467
g73
(dp2468
g100
g101
ssg82
g2458
sg75
(lp2469
S':'
asbag68
(g89
g70
NtRp2470
(dp2471
g73
(dp2472
sg82
g2458
sg75
(lp2473
g68
(g69
g70
NtRp2474
(dp2475
g73
(dp2476
g81
I4
ssg82
g2470
sg75
(lp2477
g111
asbasbasbag68
(g84
g70
NtRp2478
(dp2479
g73
(dp2480
sg82
g2307
sg75
(lp2481
g68
(g89
g70
NtRp2482
(dp2483
g73
(dp2484
g93
g94
ssg82
g2478
sg75
(lp2485
g1871
asbag68
(g89
g70
NtRp2486
(dp2487
g73
(dp2488
g100
g101
ssg82
g2478
sg75
(lp2489
S':'
asbag68
(g89
g70
NtRp2490
(dp2491
g73
(dp2492
sg82
g2478
sg75
(lp2493
g68
(g69
g70
NtRp2494
(dp2495
g73
(dp2496
g81
I4
ssg82
g2490
sg75
(lp2497
g1884
asbasbasbag68
(g84
g70
NtRp2498
(dp2499
g73
(dp2500
sg82
g2307
sg75
(lp2501
g68
(g89
g70
NtRp2502
(dp2503
g73
(dp2504
g93
g94
ssg82
g2498
sg75
(lp2505
g1914
asbag68
(g89
g70
NtRp2506
(dp2507
g73
(dp2508
g100
g101
ssg82
g2498
sg75
(lp2509
S':'
asbag68
(g89
g70
NtRp2510
(dp2511
g73
(dp2512
sg82
g2498
sg75
(lp2513
g68
(g69
g70
NtRp2514
(dp2515
g73
(dp2516
g81
I4
ssg82
g2510
sg75
(lp2517
g68
(g77
g70
NtRp2518
(dp2519
g73
(dp2520
g81
I3
ssg82
Nsg75
(lp2521
g68
(g84
g70
NtRp2522
(dp2523
g73
(dp2524
sg82
g2518
sg75
(lp2525
g68
(g89
g70
NtRp2526
(dp2527
g73
(dp2528
sg82
g2522
sg75
(lp2529
g68
(g69
g70
NtRp2530
(dp2531
g73
(dp2532
g81
I3
ssg82
g2526
sg75
(lp2533
S'1'
asbasbasbag68
(g84
g70
NtRp2534
(dp2535
g73
(dp2536
sg82
g2518
sg75
(lp2537
g68
(g89
g70
NtRp2538
(dp2539
g73
(dp2540
sg82
g2534
sg75
(lp2541
g68
(g69
g70
NtRp2542
(dp2543
g73
(dp2544
g81
I3
ssg82
g2538
sg75
(lp2545
S'99'
p2546
asbasbasbag68
(g84
g70
NtRp2547
(dp2548
g73
(dp2549
sg82
g2518
sg75
(lp2550
g68
(g89
g70
NtRp2551
(dp2552
g73
(dp2553
sg82
g2547
sg75
(lp2554
g68
(g69
g70
NtRp2555
(dp2556
g73
(dp2557
g81
I3
ssg82
g2551
sg75
(lp2558
S'2'
asbasbasbag68
(g84
g70
NtRp2559
(dp2560
g73
(dp2561
sg82
g2518
sg75
(lp2562
g68
(g89
g70
NtRp2563
(dp2564
g73
(dp2565
sg82
g2559
sg75
(lp2566
g68
(g69
g70
NtRp2567
(dp2568
g73
(dp2569
g81
I3
ssg82
g2563
sg75
(lp2570
S'datetime.datetime(2011, 9, 26, 6, 55, 33)'
p2571
asbasbasbag68
(g84
g70
NtRp2572
(dp2573
g73
(dp2574
sg82
g2518
sg75
(lp2575
g68
(g89
g70
NtRp2576
(dp2577
g73
(dp2578
sg82
g2572
sg75
(lp2579
g68
(g69
g70
NtRp2580
(dp2581
g73
(dp2582
g81
I3
ssg82
g2576
sg75
(lp2583
g1993
asbasbasbasbasbasbasbasbasbasbasbag68
(g84
g70
NtRp2584
(dp2585
g73
(dp2586
sg82
g78
sg75
(lp2587
g68
(g89
g70
NtRp2588
(dp2589
g73
(dp2590
g93
g94
ssg82
g2584
sg75
(lp2591
S'is_https'
p2592
asbag68
(g89
g70
NtRp2593
(dp2594
g73
(dp2595
g100
g101
ssg82
g2584
sg75
(lp2596
S':'
asbag68
(g89
g70
NtRp2597
(dp2598
g73
(dp2599
sg82
g2584
sg75
(lp2600
g68
(g69
g70
NtRp2601
(dp2602
g73
(dp2603
g81
I5
ssg82
g2597
sg75
(lp2604
g111
asbasbasbag68
(g84
g70
NtRp2605
(dp2606
g73
(dp2607
sg82
g78
sg75
(lp2608
g68
(g89
g70
NtRp2609
(dp2610
g73
(dp2611
g93
g94
ssg82
g2605
sg75
(lp2612
S'is_local'
p2613
asbag68
(g89
g70
NtRp2614
(dp2615
g73
(dp2616
g100
g101
ssg82
g2605
sg75
(lp2617
S':'
asbag68
(g89
g70
NtRp2618
(dp2619
g73
(dp2620
sg82
g2605
sg75
(lp2621
g68
(g69
g70
NtRp2622
(dp2623
g73
(dp2624
g81
I5
ssg82
g2618
sg75
(lp2625
g2102
asbasbasbag68
(g84
g70
NtRp2626
(dp2627
g73
(dp2628
sg82
g78
sg75
(lp2629
g68
(g89
g70
NtRp2630
(dp2631
g73
(dp2632
g93
g94
ssg82
g2626
sg75
(lp2633
S'is_restful'
p2634
asbag68
(g89
g70
NtRp2635
(dp2636
g73
(dp2637
g100
g101
ssg82
g2626
sg75
(lp2638
S':'
asbag68
(g89
g70
NtRp2639
(dp2640
g73
(dp2641
sg82
g2626
sg75
(lp2642
g68
(g69
g70
NtRp2643
(dp2644
g73
(dp2645
g81
I5
ssg82
g2639
sg75
(lp2646
g111
asbasbasbag68
(g84
g70
NtRp2647
(dp2648
g73
(dp2649
sg82
g78
sg75
(lp2650
g68
(g89
g70
NtRp2651
(dp2652
g73
(dp2653
g93
g94
ssg82
g2647
sg75
(lp2654
S'now'
p2655
asbag68
(g89
g70
NtRp2656
(dp2657
g73
(dp2658
g100
g101
ssg82
g2647
sg75
(lp2659
S':'
asbag68
(g89
g70
NtRp2660
(dp2661
g73
(dp2662
sg82
g2647
sg75
(lp2663
g68
(g69
g70
NtRp2664
(dp2665
g73
(dp2666
g81
I5
ssg82
g2660
sg75
(lp2667
S'datetime.datetime(2012, 6, 5, 16, 29, 45, 822009)'
p2668
asbasbasbag68
(g84
g70
NtRp2669
(dp2670
g73
(dp2671
sg82
g78
sg75
(lp2672
g68
(g89
g70
NtRp2673
(dp2674
g73
(dp2675
g93
g94
ssg82
g2669
sg75
(lp2676
S'post_vars'
p2677
asbag68
(g89
g70
NtRp2678
(dp2679
g73
(dp2680
g100
g101
ssg82
g2669
sg75
(lp2681
S':'
asbag68
(g89
g70
NtRp2682
(dp2683
g73
(dp2684
sg82
g2669
sg75
(lp2685
g68
(g69
g70
NtRp2686
(dp2687
g73
(dp2688
g81
I5
ssg82
g2682
sg75
(lp2689
g68
(g77
g70
NtRp2690
(dp2691
g73
(dp2692
g81
I4
ssg82
Nsg75
(lp2693
g68
(g84
g70
NtRp2694
(dp2695
g73
(dp2696
sg82
g2690
sg75
(lp2697
g68
(g89
g70
NtRp2698
(dp2699
g73
(dp2700
g93
g94
ssg82
g2694
sg75
(lp2701
S'subButton'
p2702
asbag68
(g89
g70
NtRp2703
(dp2704
g73
(dp2705
g100
g101
ssg82
g2694
sg75
(lp2706
S':'
asbag68
(g89
g70
NtRp2707
(dp2708
g73
(dp2709
sg82
g2694
sg75
(lp2710
g68
(g69
g70
NtRp2711
(dp2712
g73
(dp2713
g81
I4
ssg82
g2707
sg75
(lp2714
S'Submit Query'
p2715
asbasbasbag68
(g84
g70
NtRp2716
(dp2717
g73
(dp2718
sg82
g2690
sg75
(lp2719
g68
(g89
g70
NtRp2720
(dp2721
g73
(dp2722
g93
g94
ssg82
g2716
sg75
(lp2723
S'waveHeight'
p2724
asbag68
(g89
g70
NtRp2725
(dp2726
g73
(dp2727
g100
g101
ssg82
g2716
sg75
(lp2728
S':'
asbag68
(g89
g70
NtRp2729
(dp2730
g73
(dp2731
sg82
g2716
sg75
(lp2732
g68
(g69
g70
NtRp2733
(dp2734
g73
(dp2735
g81
I4
ssg82
g2729
sg75
(lp2736
S'0.85'
p2737
asbasbasbasbasbasbasbag68
(g84
g70
NtRp2738
(dp2739
g73
(dp2740
sg82
g78
sg75
(lp2741
g68
(g89
g70
NtRp2742
(dp2743
g73
(dp2744
g93
g94
ssg82
g2738
sg75
(lp2745
S'url'
p2746
asbag68
(g89
g70
NtRp2747
(dp2748
g73
(dp2749
g100
g101
ssg82
g2738
sg75
(lp2750
S':'
asbag68
(g89
g70
NtRp2751
(dp2752
g73
(dp2753
sg82
g2738
sg75
(lp2754
g68
(g69
g70
NtRp2755
(dp2756
g73
(dp2757
g81
I5
ssg82
g2751
sg75
(lp2758
S'/ACES/default/index'
p2759
asbasbasbag68
(g84
g70
NtRp2760
(dp2761
g73
(dp2762
sg82
g78
sg75
(lp2763
g68
(g89
g70
NtRp2764
(dp2765
g73
(dp2766
g93
g94
ssg82
g2760
sg75
(lp2767
S'utcnow'
p2768
asbag68
(g89
g70
NtRp2769
(dp2770
g73
(dp2771
g100
g101
ssg82
g2760
sg75
(lp2772
S':'
asbag68
(g89
g70
NtRp2773
(dp2774
g73
(dp2775
sg82
g2760
sg75
(lp2776
g68
(g69
g70
NtRp2777
(dp2778
g73
(dp2779
g81
I5
ssg82
g2773
sg75
(lp2780
S'datetime.datetime(2012, 6, 5, 21, 29, 45, 822040)'
p2781
asbasbasbag68
(g84
g70
NtRp2782
(dp2783
g73
(dp2784
sg82
g78
sg75
(lp2785
g68
(g89
g70
NtRp2786
(dp2787
g73
(dp2788
g93
g94
ssg82
g2782
sg75
(lp2789
S'uuid'
p2790
asbag68
(g89
g70
NtRp2791
(dp2792
g73
(dp2793
g100
g101
ssg82
g2782
sg75
(lp2794
S':'
asbag68
(g89
g70
NtRp2795
(dp2796
g73
(dp2797
sg82
g2782
sg75
(lp2798
g68
(g69
g70
NtRp2799
(dp2800
g73
(dp2801
g81
I5
ssg82
g2795
sg75
(lp2802
S'ACES/127.0.0.1.2012-06-05.16-29-45.99fd1ec5-7cc3-46a3-88f5-68913ad88877'
p2803
asbasbasbag68
(g84
g70
NtRp2804
(dp2805
g73
(dp2806
sg82
g78
sg75
(lp2807
g68
(g89
g70
NtRp2808
(dp2809
g73
(dp2810
g93
g94
ssg82
g2804
sg75
(lp2811
S'vars'
p2812
asbag68
(g89
g70
NtRp2813
(dp2814
g73
(dp2815
g100
g101
ssg82
g2804
sg75
(lp2816
S':'
asbag68
(g89
g70
NtRp2817
(dp2818
g73
(dp2819
sg82
g2804
sg75
(lp2820
g68
(g69
g70
NtRp2821
(dp2822
g73
(dp2823
g81
I5
ssg82
g2817
sg75
(lp2824
g68
(g77
g70
NtRp2825
(dp2826
g73
(dp2827
g81
I4
ssg82
Nsg75
(lp2828
g68
(g84
g70
NtRp2829
(dp2830
g73
(dp2831
sg82
g2825
sg75
(lp2832
g68
(g89
g70
NtRp2833
(dp2834
g73
(dp2835
g93
g94
ssg82
g2829
sg75
(lp2836
g2702
asbag68
(g89
g70
NtRp2837
(dp2838
g73
(dp2839
g100
g101
ssg82
g2829
sg75
(lp2840
S':'
asbag68
(g89
g70
NtRp2841
(dp2842
g73
(dp2843
sg82
g2829
sg75
(lp2844
g68
(g69
g70
NtRp2845
(dp2846
g73
(dp2847
g81
I4
ssg82
g2841
sg75
(lp2848
g2715
asbasbasbag68
(g84
g70
NtRp2849
(dp2850
g73
(dp2851
sg82
g2825
sg75
(lp2852
g68
(g89
g70
NtRp2853
(dp2854
g73
(dp2855
g93
g94
ssg82
g2849
sg75
(lp2856
g2724
asbag68
(g89
g70
NtRp2857
(dp2858
g73
(dp2859
g100
g101
ssg82
g2849
sg75
(lp2860
S':'
asbag68
(g89
g70
NtRp2861
(dp2862
g73
(dp2863
sg82
g2849
sg75
(lp2864
g68
(g69
g70
NtRp2865
(dp2866
g73
(dp2867
g81
I4
ssg82
g2861
sg75
(lp2868
g2737
asbasbasbasbasbasbasbag68
(g84
g70
NtRp2869
(dp2870
g73
(dp2871
sg82
g78
sg75
(lp2872
g68
(g89
g70
NtRp2873
(dp2874
g73
(dp2875
g93
g94
ssg82
g2869
sg75
(lp2876
S'wsgi'
p2877
asbag68
(g89
g70
NtRp2878
(dp2879
g73
(dp2880
g100
g101
ssg82
g2869
sg75
(lp2881
S':'
asbag68
(g89
g70
NtRp2882
(dp2883
g73
(dp2884
sg82
g2869
sg75
(lp2885
g68
(g69
g70
NtRp2886
(dp2887
g73
(dp2888
g81
I5
ssg82
g2882
sg75
(lp2889
g68
(g77
g70
NtRp2890
(dp2891
g73
(dp2892
g81
I4
ssg82
Nsg75
(lp2893
g68
(g84
g70
NtRp2894
(dp2895
g73
(dp2896
sg82
g2890
sg75
(lp2897
g68
(g89
g70
NtRp2898
(dp2899
g73
(dp2900
g93
g94
ssg82
g2894
sg75
(lp2901
S'environ'
p2902
asbag68
(g89
g70
NtRp2903
(dp2904
g73
(dp2905
g100
g101
ssg82
g2894
sg75
(lp2906
S':'
asbag68
(g89
g70
NtRp2907
(dp2908
g73
(dp2909
sg82
g2894
sg75
(lp2910
g68
(g69
g70
NtRp2911
(dp2912
g73
(dp2913
g81
I4
ssg82
g2907
sg75
(lp2914
g68
(g77
g70
NtRp2915
(dp2916
g73
(dp2917
g81
I3
ssg82
Nsg75
(lp2918
g68
(g84
g70
NtRp2919
(dp2920
g73
(dp2921
sg82
g2915
sg75
(lp2922
g68
(g89
g70
NtRp2923
(dp2924
g73
(dp2925
g93
g94
ssg82
g2919
sg75
(lp2926
S'CONTENT_LENGTH'
p2927
asbag68
(g89
g70
NtRp2928
(dp2929
g73
(dp2930
g100
g101
ssg82
g2919
sg75
(lp2931
S':'
asbag68
(g89
g70
NtRp2932
(dp2933
g73
(dp2934
sg82
g2919
sg75
(lp2935
g68
(g69
g70
NtRp2936
(dp2937
g73
(dp2938
g81
I3
ssg82
g2932
sg75
(lp2939
g1319
asbasbasbag68
(g84
g70
NtRp2940
(dp2941
g73
(dp2942
sg82
g2915
sg75
(lp2943
g68
(g89
g70
NtRp2944
(dp2945
g73
(dp2946
g93
g94
ssg82
g2940
sg75
(lp2947
S'CONTENT_TYPE'
p2948
asbag68
(g89
g70
NtRp2949
(dp2950
g73
(dp2951
g100
g101
ssg82
g2940
sg75
(lp2952
S':'
asbag68
(g89
g70
NtRp2953
(dp2954
g73
(dp2955
sg82
g2940
sg75
(lp2956
g68
(g69
g70
NtRp2957
(dp2958
g73
(dp2959
g81
I3
ssg82
g2953
sg75
(lp2960
g1341
asbasbasbag68
(g84
g70
NtRp2961
(dp2962
g73
(dp2963
sg82
g2915
sg75
(lp2964
g68
(g89
g70
NtRp2965
(dp2966
g73
(dp2967
g93
g94
ssg82
g2961
sg75
(lp2968
S'HTTP_ACCEPT'
p2969
asbag68
(g89
g70
NtRp2970
(dp2971
g73
(dp2972
g100
g101
ssg82
g2961
sg75
(lp2973
S':'
asbag68
(g89
g70
NtRp2974
(dp2975
g73
(dp2976
sg82
g2961
sg75
(lp2977
g68
(g69
g70
NtRp2978
(dp2979
g73
(dp2980
g81
I3
ssg82
g2974
sg75
(lp2981
g1428
asbasbasbag68
(g84
g70
NtRp2982
(dp2983
g73
(dp2984
sg82
g2915
sg75
(lp2985
g68
(g89
g70
NtRp2986
(dp2987
g73
(dp2988
g93
g94
ssg82
g2982
sg75
(lp2989
S'HTTP_ACCEPT_ENCODING'
p2990
asbag68
(g89
g70
NtRp2991
(dp2992
g73
(dp2993
g100
g101
ssg82
g2982
sg75
(lp2994
S':'
asbag68
(g89
g70
NtRp2995
(dp2996
g73
(dp2997
sg82
g2982
sg75
(lp2998
g68
(g69
g70
NtRp2999
(dp3000
g73
(dp3001
g81
I3
ssg82
g2995
sg75
(lp3002
g1450
asbasbasbag68
(g84
g70
NtRp3003
(dp3004
g73
(dp3005
sg82
g2915
sg75
(lp3006
g68
(g89
g70
NtRp3007
(dp3008
g73
(dp3009
g93
g94
ssg82
g3003
sg75
(lp3010
S'HTTP_ACCEPT_LANGUAGE'
p3011
asbag68
(g89
g70
NtRp3012
(dp3013
g73
(dp3014
g100
g101
ssg82
g3003
sg75
(lp3015
S':'
asbag68
(g89
g70
NtRp3016
(dp3017
g73
(dp3018
sg82
g3003
sg75
(lp3019
g68
(g69
g70
NtRp3020
(dp3021
g73
(dp3022
g81
I3
ssg82
g3016
sg75
(lp3023
g1472
asbasbasbag68
(g84
g70
NtRp3024
(dp3025
g73
(dp3026
sg82
g2915
sg75
(lp3027
g68
(g89
g70
NtRp3028
(dp3029
g73
(dp3030
g93
g94
ssg82
g3024
sg75
(lp3031
S'HTTP_CONNECTION'
p3032
asbag68
(g89
g70
NtRp3033
(dp3034
g73
(dp3035
g100
g101
ssg82
g3024
sg75
(lp3036
S':'
asbag68
(g89
g70
NtRp3037
(dp3038
g73
(dp3039
sg82
g3024
sg75
(lp3040
g68
(g69
g70
NtRp3041
(dp3042
g73
(dp3043
g81
I3
ssg82
g3037
sg75
(lp3044
g1494
asbasbasbag68
(g84
g70
NtRp3045
(dp3046
g73
(dp3047
sg82
g2915
sg75
(lp3048
g68
(g89
g70
NtRp3049
(dp3050
g73
(dp3051
g93
g94
ssg82
g3045
sg75
(lp3052
S'HTTP_CONTENT_LENGTH'
p3053
asbag68
(g89
g70
NtRp3054
(dp3055
g73
(dp3056
g100
g101
ssg82
g3045
sg75
(lp3057
S':'
asbag68
(g89
g70
NtRp3058
(dp3059
g73
(dp3060
sg82
g3045
sg75
(lp3061
g68
(g69
g70
NtRp3062
(dp3063
g73
(dp3064
g81
I3
ssg82
g3058
sg75
(lp3065
g1319
asbasbasbag68
(g84
g70
NtRp3066
(dp3067
g73
(dp3068
sg82
g2915
sg75
(lp3069
g68
(g89
g70
NtRp3070
(dp3071
g73
(dp3072
g93
g94
ssg82
g3066
sg75
(lp3073
S'HTTP_CONTENT_TYPE'
p3074
asbag68
(g89
g70
NtRp3075
(dp3076
g73
(dp3077
g100
g101
ssg82
g3066
sg75
(lp3078
S':'
asbag68
(g89
g70
NtRp3079
(dp3080
g73
(dp3081
sg82
g3066
sg75
(lp3082
g68
(g69
g70
NtRp3083
(dp3084
g73
(dp3085
g81
I3
ssg82
g3079
sg75
(lp3086
g1341
asbasbasbag68
(g84
g70
NtRp3087
(dp3088
g73
(dp3089
sg82
g2915
sg75
(lp3090
g68
(g89
g70
NtRp3091
(dp3092
g73
(dp3093
g93
g94
ssg82
g3087
sg75
(lp3094
S'HTTP_COOKIE'
p3095
asbag68
(g89
g70
NtRp3096
(dp3097
g73
(dp3098
g100
g101
ssg82
g3087
sg75
(lp3099
S':'
asbag68
(g89
g70
NtRp3100
(dp3101
g73
(dp3102
sg82
g3087
sg75
(lp3103
g68
(g69
g70
NtRp3104
(dp3105
g73
(dp3106
g81
I3
ssg82
g3100
sg75
(lp3107
g1558
asbasbasbag68
(g84
g70
NtRp3108
(dp3109
g73
(dp3110
sg82
g2915
sg75
(lp3111
g68
(g89
g70
NtRp3112
(dp3113
g73
(dp3114
g93
g94
ssg82
g3108
sg75
(lp3115
S'HTTP_HOST'
p3116
asbag68
(g89
g70
NtRp3117
(dp3118
g73
(dp3119
g100
g101
ssg82
g3108
sg75
(lp3120
S':'
asbag68
(g89
g70
NtRp3121
(dp3122
g73
(dp3123
sg82
g3108
sg75
(lp3124
g68
(g69
g70
NtRp3125
(dp3126
g73
(dp3127
g81
I3
ssg82
g3121
sg75
(lp3128
g1580
asbasbasbag68
(g84
g70
NtRp3129
(dp3130
g73
(dp3131
sg82
g2915
sg75
(lp3132
g68
(g89
g70
NtRp3133
(dp3134
g73
(dp3135
g93
g94
ssg82
g3129
sg75
(lp3136
S'HTTP_REFERER'
p3137
asbag68
(g89
g70
NtRp3138
(dp3139
g73
(dp3140
g100
g101
ssg82
g3129
sg75
(lp3141
S':'
asbag68
(g89
g70
NtRp3142
(dp3143
g73
(dp3144
sg82
g3129
sg75
(lp3145
g68
(g69
g70
NtRp3146
(dp3147
g73
(dp3148
g81
I3
ssg82
g3142
sg75
(lp3149
g1602
asbasbasbag68
(g84
g70
NtRp3150
(dp3151
g73
(dp3152
sg82
g2915
sg75
(lp3153
g68
(g89
g70
NtRp3154
(dp3155
g73
(dp3156
g93
g94
ssg82
g3150
sg75
(lp3157
S'HTTP_USER_AGENT'
p3158
asbag68
(g89
g70
NtRp3159
(dp3160
g73
(dp3161
g100
g101
ssg82
g3150
sg75
(lp3162
S':'
asbag68
(g89
g70
NtRp3163
(dp3164
g73
(dp3165
sg82
g3150
sg75
(lp3166
g68
(g69
g70
NtRp3167
(dp3168
g73
(dp3169
g81
I3
ssg82
g3163
sg75
(lp3170
g1624
asbasbasbag68
(g84
g70
NtRp3171
(dp3172
g73
(dp3173
sg82
g2915
sg75
(lp3174
g68
(g89
g70
NtRp3175
(dp3176
g73
(dp3177
g93
g94
ssg82
g3171
sg75
(lp3178
S'PATH_INFO'
p3179
asbag68
(g89
g70
NtRp3180
(dp3181
g73
(dp3182
g100
g101
ssg82
g3171
sg75
(lp3183
S':'
asbag68
(g89
g70
NtRp3184
(dp3185
g73
(dp3186
sg82
g3171
sg75
(lp3187
g68
(g69
g70
NtRp3188
(dp3189
g73
(dp3190
g81
I3
ssg82
g3184
sg75
(lp3191
g1667
asbasbasbag68
(g84
g70
NtRp3192
(dp3193
g73
(dp3194
sg82
g2915
sg75
(lp3195
g68
(g89
g70
NtRp3196
(dp3197
g73
(dp3198
g93
g94
ssg82
g3192
sg75
(lp3199
S'QUERY_STRING'
p3200
asbag68
(g89
g70
NtRp3201
(dp3202
g73
(dp3203
g100
g101
ssg82
g3192
sg75
(lp3204
S':'
asbag68
(g89
g70
NtRp3205
(dp3206
g73
(dp3207
sg82
g3192
sg75
(lp3208
g68
(g69
g70
NtRp3209
(dp3210
g73
(dp3211
g81
I3
ssg82
g3205
sg75
(lp3212
S''
asbasbasbag68
(g84
g70
NtRp3213
(dp3214
g73
(dp3215
sg82
g2915
sg75
(lp3216
g68
(g89
g70
NtRp3217
(dp3218
g73
(dp3219
g93
g94
ssg82
g3213
sg75
(lp3220
S'REMOTE_ADDR'
p3221
asbag68
(g89
g70
NtRp3222
(dp3223
g73
(dp3224
g100
g101
ssg82
g3213
sg75
(lp3225
S':'
asbag68
(g89
g70
NtRp3226
(dp3227
g73
(dp3228
sg82
g3213
sg75
(lp3229
g68
(g69
g70
NtRp3230
(dp3231
g73
(dp3232
g81
I3
ssg82
g3226
sg75
(lp3233
g201
asbasbasbag68
(g84
g70
NtRp3234
(dp3235
g73
(dp3236
sg82
g2915
sg75
(lp3237
g68
(g89
g70
NtRp3238
(dp3239
g73
(dp3240
g93
g94
ssg82
g3234
sg75
(lp3241
S'REMOTE_PORT'
p3242
asbag68
(g89
g70
NtRp3243
(dp3244
g73
(dp3245
g100
g101
ssg82
g3234
sg75
(lp3246
S':'
asbag68
(g89
g70
NtRp3247
(dp3248
g73
(dp3249
sg82
g3234
sg75
(lp3250
g68
(g69
g70
NtRp3251
(dp3252
g73
(dp3253
g81
I3
ssg82
g3247
sg75
(lp3254
g1731
asbasbasbag68
(g84
g70
NtRp3255
(dp3256
g73
(dp3257
sg82
g2915
sg75
(lp3258
g68
(g89
g70
NtRp3259
(dp3260
g73
(dp3261
g93
g94
ssg82
g3255
sg75
(lp3262
S'REQUEST_METHOD'
p3263
asbag68
(g89
g70
NtRp3264
(dp3265
g73
(dp3266
g100
g101
ssg82
g3255
sg75
(lp3267
S':'
asbag68
(g89
g70
NtRp3268
(dp3269
g73
(dp3270
sg82
g3255
sg75
(lp3271
g68
(g69
g70
NtRp3272
(dp3273
g73
(dp3274
g81
I3
ssg82
g3268
sg75
(lp3275
g1753
asbasbasbag68
(g84
g70
NtRp3276
(dp3277
g73
(dp3278
sg82
g2915
sg75
(lp3279
g68
(g89
g70
NtRp3280
(dp3281
g73
(dp3282
g93
g94
ssg82
g3276
sg75
(lp3283
S'SCRIPT_NAME'
p3284
asbag68
(g89
g70
NtRp3285
(dp3286
g73
(dp3287
g100
g101
ssg82
g3276
sg75
(lp3288
S':'
asbag68
(g89
g70
NtRp3289
(dp3290
g73
(dp3291
sg82
g3276
sg75
(lp3292
g68
(g69
g70
NtRp3293
(dp3294
g73
(dp3295
g81
I3
ssg82
g3289
sg75
(lp3296
S''
asbasbasbag68
(g84
g70
NtRp3297
(dp3298
g73
(dp3299
sg82
g2915
sg75
(lp3300
g68
(g89
g70
NtRp3301
(dp3302
g73
(dp3303
g93
g94
ssg82
g3297
sg75
(lp3304
S'SERVER_NAME'
p3305
asbag68
(g89
g70
NtRp3306
(dp3307
g73
(dp3308
g100
g101
ssg82
g3297
sg75
(lp3309
S':'
asbag68
(g89
g70
NtRp3310
(dp3311
g73
(dp3312
sg82
g3297
sg75
(lp3313
g68
(g69
g70
NtRp3314
(dp3315
g73
(dp3316
g81
I3
ssg82
g3310
sg75
(lp3317
g1796
asbasbasbag68
(g84
g70
NtRp3318
(dp3319
g73
(dp3320
sg82
g2915
sg75
(lp3321
g68
(g89
g70
NtRp3322
(dp3323
g73
(dp3324
g93
g94
ssg82
g3318
sg75
(lp3325
S'SERVER_PORT'
p3326
asbag68
(g89
g70
NtRp3327
(dp3328
g73
(dp3329
g100
g101
ssg82
g3318
sg75
(lp3330
S':'
asbag68
(g89
g70
NtRp3331
(dp3332
g73
(dp3333
sg82
g3318
sg75
(lp3334
g68
(g69
g70
NtRp3335
(dp3336
g73
(dp3337
g81
I3
ssg82
g3331
sg75
(lp3338
g1818
asbasbasbag68
(g84
g70
NtRp3339
(dp3340
g73
(dp3341
sg82
g2915
sg75
(lp3342
g68
(g89
g70
NtRp3343
(dp3344
g73
(dp3345
g93
g94
ssg82
g3339
sg75
(lp3346
S'SERVER_PROTOCOL'
p3347
asbag68
(g89
g70
NtRp3348
(dp3349
g73
(dp3350
g100
g101
ssg82
g3339
sg75
(lp3351
S':'
asbag68
(g89
g70
NtRp3352
(dp3353
g73
(dp3354
sg82
g3339
sg75
(lp3355
g68
(g69
g70
NtRp3356
(dp3357
g73
(dp3358
g81
I3
ssg82
g3352
sg75
(lp3359
g1840
asbasbasbag68
(g84
g70
NtRp3360
(dp3361
g73
(dp3362
sg82
g2915
sg75
(lp3363
g68
(g89
g70
NtRp3364
(dp3365
g73
(dp3366
g93
g94
ssg82
g3360
sg75
(lp3367
S'SERVER_SOFTWARE'
p3368
asbag68
(g89
g70
NtRp3369
(dp3370
g73
(dp3371
g100
g101
ssg82
g3360
sg75
(lp3372
S':'
asbag68
(g89
g70
NtRp3373
(dp3374
g73
(dp3375
sg82
g3360
sg75
(lp3376
g68
(g69
g70
NtRp3377
(dp3378
g73
(dp3379
g81
I3
ssg82
g3373
sg75
(lp3380
g1862
asbasbasbag68
(g84
g70
NtRp3381
(dp3382
g73
(dp3383
sg82
g2915
sg75
(lp3384
g68
(g89
g70
NtRp3385
(dp3386
g73
(dp3387
g93
g94
ssg82
g3381
sg75
(lp3388
S'wsgi.errors'
p3389
asbag68
(g89
g70
NtRp3390
(dp3391
g73
(dp3392
g100
g101
ssg82
g3381
sg75
(lp3393
S':'
asbag68
(g89
g70
NtRp3394
(dp3395
g73
(dp3396
sg82
g3381
sg75
(lp3397
g68
(g69
g70
NtRp3398
(dp3399
g73
(dp3400
g81
I3
ssg82
g3394
sg75
(lp3401
S"<open file '<stderr>', mode 'w' at 0xb738b0d0>"
p3402
asbasbasbag68
(g84
g70
NtRp3403
(dp3404
g73
(dp3405
sg82
g2915
sg75
(lp3406
g68
(g89
g70
NtRp3407
(dp3408
g73
(dp3409
g93
g94
ssg82
g3403
sg75
(lp3410
S'wsgi.file_wrapper'
p3411
asbag68
(g89
g70
NtRp3412
(dp3413
g73
(dp3414
g100
g101
ssg82
g3403
sg75
(lp3415
S':'
asbag68
(g89
g70
NtRp3416
(dp3417
g73
(dp3418
sg82
g3403
sg75
(lp3419
g68
(g69
g70
NtRp3420
(dp3421
g73
(dp3422
g81
I3
ssg82
g3416
sg75
(lp3423
S'<class wsgiref.util.FileWrapper at 0xa4ce92c>'
p3424
asbasbasbag68
(g84
g70
NtRp3425
(dp3426
g73
(dp3427
sg82
g2915
sg75
(lp3428
g68
(g89
g70
NtRp3429
(dp3430
g73
(dp3431
g93
g94
ssg82
g3425
sg75
(lp3432
S'wsgi.input'
p3433
asbag68
(g89
g70
NtRp3434
(dp3435
g73
(dp3436
g100
g101
ssg82
g3425
sg75
(lp3437
S':'
asbag68
(g89
g70
NtRp3438
(dp3439
g73
(dp3440
sg82
g3425
sg75
(lp3441
g68
(g69
g70
NtRp3442
(dp3443
g73
(dp3444
g81
I3
ssg82
g3438
sg75
(lp3445
S"<open file '<fdopen>', mode 'w+b' at 0xa8729c0>"
p3446
asbasbasbag68
(g84
g70
NtRp3447
(dp3448
g73
(dp3449
sg82
g2915
sg75
(lp3450
g68
(g89
g70
NtRp3451
(dp3452
g73
(dp3453
g93
g94
ssg82
g3447
sg75
(lp3454
S'wsgi.multiprocess'
p3455
asbag68
(g89
g70
NtRp3456
(dp3457
g73
(dp3458
g100
g101
ssg82
g3447
sg75
(lp3459
S':'
asbag68
(g89
g70
NtRp3460
(dp3461
g73
(dp3462
sg82
g3447
sg75
(lp3463
g68
(g69
g70
NtRp3464
(dp3465
g73
(dp3466
g81
I3
ssg82
g3460
sg75
(lp3467
g111
asbasbasbag68
(g84
g70
NtRp3468
(dp3469
g73
(dp3470
sg82
g2915
sg75
(lp3471
g68
(g89
g70
NtRp3472
(dp3473
g73
(dp3474
g93
g94
ssg82
g3468
sg75
(lp3475
S'wsgi.multithread'
p3476
asbag68
(g89
g70
NtRp3477
(dp3478
g73
(dp3479
g100
g101
ssg82
g3468
sg75
(lp3480
S':'
asbag68
(g89
g70
NtRp3481
(dp3482
g73
(dp3483
sg82
g3468
sg75
(lp3484
g68
(g69
g70
NtRp3485
(dp3486
g73
(dp3487
g81
I3
ssg82
g3481
sg75
(lp3488
g2102
asbasbasbag68
(g84
g70
NtRp3489
(dp3490
g73
(dp3491
sg82
g2915
sg75
(lp3492
g68
(g89
g70
NtRp3493
(dp3494
g73
(dp3495
g93
g94
ssg82
g3489
sg75
(lp3496
S'wsgi.run_once'
p3497
asbag68
(g89
g70
NtRp3498
(dp3499
g73
(dp3500
g100
g101
ssg82
g3489
sg75
(lp3501
S':'
asbag68
(g89
g70
NtRp3502
(dp3503
g73
(dp3504
sg82
g3489
sg75
(lp3505
g68
(g69
g70
NtRp3506
(dp3507
g73
(dp3508
g81
I3
ssg82
g3502
sg75
(lp3509
g111
asbasbasbag68
(g84
g70
NtRp3510
(dp3511
g73
(dp3512
sg82
g2915
sg75
(lp3513
g68
(g89
g70
NtRp3514
(dp3515
g73
(dp3516
g93
g94
ssg82
g3510
sg75
(lp3517
S'wsgi.url_scheme'
p3518
asbag68
(g89
g70
NtRp3519
(dp3520
g73
(dp3521
g100
g101
ssg82
g3510
sg75
(lp3522
S':'
asbag68
(g89
g70
NtRp3523
(dp3524
g73
(dp3525
sg82
g3510
sg75
(lp3526
g68
(g69
g70
NtRp3527
(dp3528
g73
(dp3529
g81
I3
ssg82
g3523
sg75
(lp3530
g2145
asbasbasbag68
(g84
g70
NtRp3531
(dp3532
g73
(dp3533
sg82
g2915
sg75
(lp3534
g68
(g89
g70
NtRp3535
(dp3536
g73
(dp3537
g93
g94
ssg82
g3531
sg75
(lp3538
S'wsgi.version'
p3539
asbag68
(g89
g70
NtRp3540
(dp3541
g73
(dp3542
g100
g101
ssg82
g3531
sg75
(lp3543
S':'
asbag68
(g89
g70
NtRp3544
(dp3545
g73
(dp3546
sg82
g3531
sg75
(lp3547
g68
(g69
g70
NtRp3548
(dp3549
g73
(dp3550
g81
I3
ssg82
g3544
sg75
(lp3551
S'1'
asbasbasbasbasbasbasbasbasbasbasbasbasbsS'frames'
p3552
(lp3553
(dp3554
S'file'
p3555
S'/home/u4hcsdaw/Python/web2py/gluon/restricted.py'
p3556
sS'dump'
p3557
(dp3558
S'environment'
p3559
S"{'A': <class 'gluon.html.A'>, 'AcesCall': <function AcesCall>, 'Auth': <class 'gluon.tools.Auth'>, 'B': <class 'gluon.html.B'>, 'BEAUTIFY': <class 'gluon.html.BEAUTIFY'>, 'BODY': <class 'gluon.html.BODY'>, 'BR': <class 'gluon.html.BR'>, 'BUTTON': <class 'gluon.html.BUTTON'>, 'CAT': <class 'gluon.html.CAT'>, 'CENTER': <class 'gluon.html.CENTER'>, ...}"
p3560
sS'ccode'
p3561
S'<code object <module> at 0xb1fc6e0, file "/home/...plications/ACES/controllers/default.py", line 12>'
p3562
ssS'lnum'
p3563
I194
sS'lines'
p3564
(dp3565
I192
S'        else:'
p3566
sI193
S'            ccode = compile2(code,layer)'
p3567
sI194
S'        exec ccode in environment'
p3568
sI195
S'    except HTTP:'
p3569
sI196
S'        raise'
p3570
sI197
S'    except Exception, error:'
p3571
sI198
S'        # XXX Show exception in Wing IDE if running in debugger'
p3572
sI189
S'    try:'
p3573
sI190
S'        if type(code) == types.CodeType:'
p3574
sI191
S'            ccode = code'
p3575
ssS'call'
p3576
S"(code='# -*- coding: utf-8 -*-\\n# this file is released ...=crud())\\n\\nresponse._vars=response._caller(index)\\n', environment={'A': <class 'gluon.html.A'>, 'AcesCall': <function AcesCall>, 'Auth': <class 'gluon.tools.Auth'>, 'B': <class 'gluon.html.B'>, 'BEAUTIFY': <class 'gluon.html.BEAUTIFY'>, 'BODY': <class 'gluon.html.BODY'>, 'BR': <class 'gluon.html.BR'>, 'BUTTON': <class 'gluon.html.BUTTON'>, 'CAT': <class 'gluon.html.CAT'>, 'CENTER': <class 'gluon.html.CENTER'>, ...}, layer='/home/u4hcsdaw/Python/web2py/applications/ACES/controllers/default.py')"
p3577
sS'func'
p3578
S'restricted'
p3579
sa(dp3580
g3555
S'/home/u4hcsdaw/Python/web2py/applications/ACES/controllers/default.py'
p3581
sg3557
(dp3582
sg3563
I80
sg3564
(dp3583
I69
S'    http://..../[app]/default/data/update/[table]/[id]'
p3584
sI70
S'    http://..../[app]/default/data/delete/[table]/[id]'
p3585
sI71
S'    http://..../[app]/default/data/select/[table]'
p3586
sI72
S'    http://..../[app]/default/data/search/[table]'
p3587
sI73
S'    but URLs bust be signed, i.e. linked with'
p3588
sI74
S"      A('table',_href=URL('data/tables',user_signature=True))"
p3589
sI75
S'    or with the signed load operator'
p3590
sI76
S"      LOAD('default','data.load',args='tables',ajax=True,user_signature=True)"
p3591
sI77
S'    """'
p3592
sI78
S'    return dict(form=crud())'
p3593
ssg3576
S'()'
p3594
sg3578
S'<module>'
p3595
sa(dp3596
g3555
S'/home/u4hcsdaw/Python/web2py/gluon/globals.py'
p3597
sg3557
(dp3598
S'self'
p3599
S'undefined'
p3600
sS'f'
S'<function index>'
p3601
ssg3563
I149
sg3564
(dp3602
I144
S'        self.meta = Storage()      # used by web2py_ajax.html'
p3603
sI145
S'        self.menu = []             # used by the default view layout'
p3604
sI146
S'        self.files = []            # used by web2py_ajax.html'
p3605
sI147
S'        self.generic_patterns = [] # patterns to allow generic views'
p3606
sI148
S'        self._vars = None'
p3607
sI149
S'        self._caller = lambda f: f()'
p3608
sI150
S'        self._view_environment = None'
p3609
sI151
S'        self._custom_commit = None'
p3610
sI152
S'        self._custom_rollback = None'
p3611
sI153
S''
ssg3576
S'(f=<function index>)'
p3612
sg3578
S'<lambda>'
p3613
sa(dp3614
g3555
S'/home/u4hcsdaw/Python/web2py/applications/ACES/controllers/default.py'
p3615
sg3557
(dp3616
S'global URL'
p3617
S'<function URL>'
p3618
sS'img1'
p3619
S"''"
p3620
sS'global IMG'
p3621
S"<class 'gluon.html.IMG'>"
p3622
ssg3563
I25
sg3564
(dp3623
I20
S"    sub1=INPUT(_type='submit',_name='subButton')"
p3624
sI21
S"    f1=FORM('wave',ip1,sub1,_name='Form1',_action='')"
p3625
sI22
S'    if f1.accepts(request.vars,session):'
p3626
sI23
S'        session.formVars=f1.vars'
p3627
sI24
S'        t0=AcesCall(f1.vars)'
p3628
sI25
S"        img1=IMG(URL('static','images/Waves.svg'))"
p3629
sI26
S'    return dict(form=f1,t0=t0,img1=img1)'
p3630
sI27
S''
sI28
S'def user():'
p3631
sI29
S'    """'
p3632
ssg3576
S'()'
p3633
sg3578
S'index'
p3634
sa(dp3635
g3555
S'/home/u4hcsdaw/Python/web2py/gluon/html.py'
p3636
sg3557
(dp3637
S'self'
p3638
S'<gluon.html.IMG object>'
p3639
sS'self.tag'
p3640
S"'img/'"
p3641
ssg3563
I579
sg3564
(dp3642
I576
S''
sI577
S"        if self.tag[-1:] == '/' and components:"
p3643
sI578
S"            raise SyntaxError, '<%s> tags cannot have components'\\"
p3644
sI579
S'                 % self.tag'
p3645
sI580
S'        if len(components) == 1 and isinstance(components[0], (list,tuple)):'
p3646
sI581
S'            self.components = list(components[0])'
p3647
sI582
S'        else:'
p3648
sI583
S'            self.components = list(components)'
p3649
sI574
S'        :raises SyntaxError: when a stand alone tag receives components'
p3650
sI575
S'        """'
p3651
ssg3576
S"(self=<gluon.html.IMG object>, *components=('/ACES/static/images/Waves.svg',), **attributes={})"
p3652
sg3578
g23
sasS'pyver'
p3653
S'Python 2.7.3: /home/u4hcsdaw/Python/epd/bin/python2.7'
p3654
sS'session'
p3655
g68
(g69
g70
NtRp3656
(dp3657
g73
(dp3658
sg75
(lp3659
g68
(g77
g70
NtRp3660
(dp3661
g73
(dp3662
g81
I5
ssg82
Nsg75
(lp3663
g68
(g84
g70
NtRp3664
(dp3665
g73
(dp3666
sg82
g3660
sg75
(lp3667
g68
(g89
g70
NtRp3668
(dp3669
g73
(dp3670
g93
g94
ssg82
g3664
sg75
(lp3671
S'formVars'
p3672
asbag68
(g89
g70
NtRp3673
(dp3674
g73
(dp3675
g100
g101
ssg82
g3664
sg75
(lp3676
S':'
asbag68
(g89
g70
NtRp3677
(dp3678
g73
(dp3679
sg82
g3664
sg75
(lp3680
g68
(g69
g70
NtRp3681
(dp3682
g73
(dp3683
g81
I5
ssg82
g3677
sg75
(lp3684
g68
(g77
g70
NtRp3685
(dp3686
g73
(dp3687
g81
I4
ssg82
Nsg75
(lp3688
g68
(g84
g70
NtRp3689
(dp3690
g73
(dp3691
sg82
g3685
sg75
(lp3692
g68
(g89
g70
NtRp3693
(dp3694
g73
(dp3695
g93
g94
ssg82
g3689
sg75
(lp3696
S'subButton'
p3697
asbag68
(g89
g70
NtRp3698
(dp3699
g73
(dp3700
g100
g101
ssg82
g3689
sg75
(lp3701
S':'
asbag68
(g89
g70
NtRp3702
(dp3703
g73
(dp3704
sg82
g3689
sg75
(lp3705
g68
(g69
g70
NtRp3706
(dp3707
g73
(dp3708
g81
I4
ssg82
g3702
sg75
(lp3709
g2715
asbasbasbag68
(g84
g70
NtRp3710
(dp3711
g73
(dp3712
sg82
g3685
sg75
(lp3713
g68
(g89
g70
NtRp3714
(dp3715
g73
(dp3716
g93
g94
ssg82
g3710
sg75
(lp3717
S'waveHeight'
p3718
asbag68
(g89
g70
NtRp3719
(dp3720
g73
(dp3721
g100
g101
ssg82
g3710
sg75
(lp3722
S':'
asbag68
(g89
g70
NtRp3723
(dp3724
g73
(dp3725
sg82
g3710
sg75
(lp3726
g68
(g69
g70
NtRp3727
(dp3728
g73
(dp3729
g81
I4
ssg82
g3723
sg75
(lp3730
g2737
asbasbasbasbasbasbasbasbasbsS'etype'
p3731
S"<type 'exceptions.SyntaxError'>"
p3732
sS'date'
p3733
S'Tue Jun  5 16:29:47 2012'
p3734
sS'response'
p3735
g68
(g69
g70
NtRp3736
(dp3737
g73
(dp3738
sg75
(lp3739
g68
(g77
g70
NtRp3740
(dp3741
g73
(dp3742
g81
I5
ssg82
Nsg75
(lp3743
g68
(g84
g70
NtRp3744
(dp3745
g73
(dp3746
sg82
g3740
sg75
(lp3747
g68
(g89
g70
NtRp3748
(dp3749
g73
(dp3750
g93
g94
ssg82
g3744
sg75
(lp3751
g166
asbag68
(g89
g70
NtRp3752
(dp3753
g73
(dp3754
g100
g101
ssg82
g3744
sg75
(lp3755
S':'
asbag68
(g89
g70
NtRp3756
(dp3757
g73
(dp3758
sg82
g3744
sg75
(lp3759
g68
(g69
g70
NtRp3760
(dp3761
g73
(dp3762
g81
I5
ssg82
g3756
sg75
(lp3763
S'<cStringIO.StringO object at 0xafac540>'
p3764
asbasbasbag68
(g84
g70
NtRp3765
(dp3766
g73
(dp3767
sg82
g3740
sg75
(lp3768
g68
(g89
g70
NtRp3769
(dp3770
g73
(dp3771
g93
g94
ssg82
g3765
sg75
(lp3772
g232
asbag68
(g89
g70
NtRp3773
(dp3774
g73
(dp3775
g100
g101
ssg82
g3765
sg75
(lp3776
S':'
asbag68
(g89
g70
NtRp3777
(dp3778
g73
(dp3779
sg82
g3765
sg75
(lp3780
g68
(g69
g70
NtRp3781
(dp3782
g73
(dp3783
g81
I5
ssg82
g3777
sg75
(lp3784
g68
(g77
g70
NtRp3785
(dp3786
g73
(dp3787
g81
I4
ssg82
Nsg75
(lp3788
g68
(g84
g70
NtRp3789
(dp3790
g73
(dp3791
sg82
g3785
sg75
(lp3792
g68
(g89
g70
NtRp3793
(dp3794
g73
(dp3795
g93
g94
ssg82
g3789
sg75
(lp3796
S'session_id_aces'
p3797
asbag68
(g89
g70
NtRp3798
(dp3799
g73
(dp3800
g100
g101
ssg82
g3789
sg75
(lp3801
S':'
asbag68
(g89
g70
NtRp3802
(dp3803
g73
(dp3804
sg82
g3789
sg75
(lp3805
g68
(g69
g70
NtRp3806
(dp3807
g73
(dp3808
g81
I4
ssg82
g3802
sg75
(lp3809
g68
(g77
g70
NtRp3810
(dp3811
g73
(dp3812
g81
I3
ssg82
Nsg75
(lp3813
g68
(g84
g70
NtRp3814
(dp3815
g73
(dp3816
sg82
g3810
sg75
(lp3817
g68
(g89
g70
NtRp3818
(dp3819
g73
(dp3820
g93
g94
ssg82
g3814
sg75
(lp3821
g282
asbag68
(g89
g70
NtRp3822
(dp3823
g73
(dp3824
g100
g101
ssg82
g3814
sg75
(lp3825
S':'
asbag68
(g89
g70
NtRp3826
(dp3827
g73
(dp3828
sg82
g3814
sg75
(lp3829
g68
(g69
g70
NtRp3830
(dp3831
g73
(dp3832
g81
I3
ssg82
g3826
sg75
(lp3833
S''
asbasbasbag68
(g84
g70
NtRp3834
(dp3835
g73
(dp3836
sg82
g3810
sg75
(lp3837
g68
(g89
g70
NtRp3838
(dp3839
g73
(dp3840
g93
g94
ssg82
g3834
sg75
(lp3841
g303
asbag68
(g89
g70
NtRp3842
(dp3843
g73
(dp3844
g100
g101
ssg82
g3834
sg75
(lp3845
S':'
asbag68
(g89
g70
NtRp3846
(dp3847
g73
(dp3848
sg82
g3834
sg75
(lp3849
g68
(g69
g70
NtRp3850
(dp3851
g73
(dp3852
g81
I3
ssg82
g3846
sg75
(lp3853
S''
asbasbasbag68
(g84
g70
NtRp3854
(dp3855
g73
(dp3856
sg82
g3810
sg75
(lp3857
g68
(g89
g70
NtRp3858
(dp3859
g73
(dp3860
g93
g94
ssg82
g3854
sg75
(lp3861
g324
asbag68
(g89
g70
NtRp3862
(dp3863
g73
(dp3864
g100
g101
ssg82
g3854
sg75
(lp3865
S':'
asbag68
(g89
g70
NtRp3866
(dp3867
g73
(dp3868
sg82
g3854
sg75
(lp3869
g68
(g69
g70
NtRp3870
(dp3871
g73
(dp3872
g81
I3
ssg82
g3866
sg75
(lp3873
S''
asbasbasbag68
(g84
g70
NtRp3874
(dp3875
g73
(dp3876
sg82
g3810
sg75
(lp3877
g68
(g89
g70
NtRp3878
(dp3879
g73
(dp3880
g93
g94
ssg82
g3874
sg75
(lp3881
g345
asbag68
(g89
g70
NtRp3882
(dp3883
g73
(dp3884
g100
g101
ssg82
g3874
sg75
(lp3885
S':'
asbag68
(g89
g70
NtRp3886
(dp3887
g73
(dp3888
sg82
g3874
sg75
(lp3889
g68
(g69
g70
NtRp3890
(dp3891
g73
(dp3892
g81
I3
ssg82
g3886
sg75
(lp3893
S''
asbasbasbag68
(g84
g70
NtRp3894
(dp3895
g73
(dp3896
sg82
g3810
sg75
(lp3897
g68
(g89
g70
NtRp3898
(dp3899
g73
(dp3900
g93
g94
ssg82
g3894
sg75
(lp3901
g366
asbag68
(g89
g70
NtRp3902
(dp3903
g73
(dp3904
g100
g101
ssg82
g3894
sg75
(lp3905
S':'
asbag68
(g89
g70
NtRp3906
(dp3907
g73
(dp3908
sg82
g3894
sg75
(lp3909
g68
(g69
g70
NtRp3910
(dp3911
g73
(dp3912
g81
I3
ssg82
g3906
sg75
(lp3913
S''
asbasbasbag68
(g84
g70
NtRp3914
(dp3915
g73
(dp3916
sg82
g3810
sg75
(lp3917
g68
(g89
g70
NtRp3918
(dp3919
g73
(dp3920
g93
g94
ssg82
g3914
sg75
(lp3921
g387
asbag68
(g89
g70
NtRp3922
(dp3923
g73
(dp3924
g100
g101
ssg82
g3914
sg75
(lp3925
S':'
asbag68
(g89
g70
NtRp3926
(dp3927
g73
(dp3928
sg82
g3914
sg75
(lp3929
g68
(g69
g70
NtRp3930
(dp3931
g73
(dp3932
g81
I3
ssg82
g3926
sg75
(lp3933
S'/'
asbasbasbag68
(g84
g70
NtRp3934
(dp3935
g73
(dp3936
sg82
g3810
sg75
(lp3937
g68
(g89
g70
NtRp3938
(dp3939
g73
(dp3940
g93
g94
ssg82
g3934
sg75
(lp3941
g408
asbag68
(g89
g70
NtRp3942
(dp3943
g73
(dp3944
g100
g101
ssg82
g3934
sg75
(lp3945
S':'
asbag68
(g89
g70
NtRp3946
(dp3947
g73
(dp3948
sg82
g3934
sg75
(lp3949
g68
(g69
g70
NtRp3950
(dp3951
g73
(dp3952
g81
I3
ssg82
g3946
sg75
(lp3953
S''
asbasbasbag68
(g84
g70
NtRp3954
(dp3955
g73
(dp3956
sg82
g3810
sg75
(lp3957
g68
(g89
g70
NtRp3958
(dp3959
g73
(dp3960
g93
g94
ssg82
g3954
sg75
(lp3961
g429
asbag68
(g89
g70
NtRp3962
(dp3963
g73
(dp3964
g100
g101
ssg82
g3954
sg75
(lp3965
S':'
asbag68
(g89
g70
NtRp3966
(dp3967
g73
(dp3968
sg82
g3954
sg75
(lp3969
g68
(g69
g70
NtRp3970
(dp3971
g73
(dp3972
g81
I3
ssg82
g3966
sg75
(lp3973
S''
asbasbasbasbasbasbasbasbasbasbasbag68
(g84
g70
NtRp3974
(dp3975
g73
(dp3976
sg82
g3740
sg75
(lp3977
g68
(g89
g70
NtRp3978
(dp3979
g73
(dp3980
g93
g94
ssg82
g3974
sg75
(lp3981
S'files'
p3982
asbag68
(g89
g70
NtRp3983
(dp3984
g73
(dp3985
g100
g101
ssg82
g3974
sg75
(lp3986
S':'
asbag68
(g89
g70
NtRp3987
(dp3988
g73
(dp3989
sg82
g3974
sg75
(lp3990
g68
(g69
g70
NtRp3991
(dp3992
g73
(dp3993
g81
I5
ssg82
g3987
sg75
(lp3994
g68
(g77
g70
NtRp3995
(dp3996
g73
(dp3997
g81
I4
ssg82
Nsg75
(lp3998
sbasbasbasbag68
(g84
g70
NtRp3999
(dp4000
g73
(dp4001
sg82
g3740
sg75
(lp4002
g68
(g89
g70
NtRp4003
(dp4004
g73
(dp4005
g93
g94
ssg82
g3999
sg75
(lp4006
S'flash'
p4007
asbag68
(g89
g70
NtRp4008
(dp4009
g73
(dp4010
g100
g101
ssg82
g3999
sg75
(lp4011
S':'
asbag68
(g89
g70
NtRp4012
(dp4013
g73
(dp4014
sg82
g3999
sg75
(lp4015
g68
(g69
g70
NtRp4016
(dp4017
g73
(dp4018
g81
I5
ssg82
g4012
sg75
(lp4019
S''
asbasbasbag68
(g84
g70
NtRp4020
(dp4021
g73
(dp4022
sg82
g3740
sg75
(lp4023
g68
(g89
g70
NtRp4024
(dp4025
g73
(dp4026
g93
g94
ssg82
g4020
sg75
(lp4027
S'generic_patterns'
p4028
asbag68
(g89
g70
NtRp4029
(dp4030
g73
(dp4031
g100
g101
ssg82
g4020
sg75
(lp4032
S':'
asbag68
(g89
g70
NtRp4033
(dp4034
g73
(dp4035
sg82
g4020
sg75
(lp4036
g68
(g69
g70
NtRp4037
(dp4038
g73
(dp4039
g81
I5
ssg82
g4033
sg75
(lp4040
g68
(g77
g70
NtRp4041
(dp4042
g73
(dp4043
g81
I4
ssg82
Nsg75
(lp4044
g68
(g84
g70
NtRp4045
(dp4046
g73
(dp4047
sg82
g4041
sg75
(lp4048
g68
(g89
g70
NtRp4049
(dp4050
g73
(dp4051
sg82
g4045
sg75
(lp4052
g68
(g69
g70
NtRp4053
(dp4054
g73
(dp4055
g81
I4
ssg82
g4049
sg75
(lp4056
S'*'
asbasbasbasbasbasbasbag68
(g84
g70
NtRp4057
(dp4058
g73
(dp4059
sg82
g3740
sg75
(lp4060
g68
(g89
g70
NtRp4061
(dp4062
g73
(dp4063
g93
g94
ssg82
g4057
sg75
(lp4064
S'headers'
p4065
asbag68
(g89
g70
NtRp4066
(dp4067
g73
(dp4068
g100
g101
ssg82
g4057
sg75
(lp4069
S':'
asbag68
(g89
g70
NtRp4070
(dp4071
g73
(dp4072
sg82
g4057
sg75
(lp4073
g68
(g69
g70
NtRp4074
(dp4075
g73
(dp4076
g81
I5
ssg82
g4070
sg75
(lp4077
g68
(g77
g70
NtRp4078
(dp4079
g73
(dp4080
g81
I4
ssg82
Nsg75
(lp4081
g68
(g84
g70
NtRp4082
(dp4083
g73
(dp4084
sg82
g4078
sg75
(lp4085
g68
(g89
g70
NtRp4086
(dp4087
g73
(dp4088
g93
g94
ssg82
g4082
sg75
(lp4089
S'Cache-Control'
p4090
asbag68
(g89
g70
NtRp4091
(dp4092
g73
(dp4093
g100
g101
ssg82
g4082
sg75
(lp4094
S':'
asbag68
(g89
g70
NtRp4095
(dp4096
g73
(dp4097
sg82
g4082
sg75
(lp4098
g68
(g69
g70
NtRp4099
(dp4100
g73
(dp4101
g81
I4
ssg82
g4095
sg75
(lp4102
S'no-store, no-cache, must-revalidate, post-check=0, pre-check=0'
p4103
asbasbasbag68
(g84
g70
NtRp4104
(dp4105
g73
(dp4106
sg82
g4078
sg75
(lp4107
g68
(g89
g70
NtRp4108
(dp4109
g73
(dp4110
g93
g94
ssg82
g4104
sg75
(lp4111
S'Content-Type'
p4112
asbag68
(g89
g70
NtRp4113
(dp4114
g73
(dp4115
g100
g101
ssg82
g4104
sg75
(lp4116
S':'
asbag68
(g89
g70
NtRp4117
(dp4118
g73
(dp4119
sg82
g4104
sg75
(lp4120
g68
(g69
g70
NtRp4121
(dp4122
g73
(dp4123
g81
I4
ssg82
g4117
sg75
(lp4124
S'text/html; charset=utf-8'
p4125
asbasbasbag68
(g84
g70
NtRp4126
(dp4127
g73
(dp4128
sg82
g4078
sg75
(lp4129
g68
(g89
g70
NtRp4130
(dp4131
g73
(dp4132
g93
g94
ssg82
g4126
sg75
(lp4133
S'Expires'
p4134
asbag68
(g89
g70
NtRp4135
(dp4136
g73
(dp4137
g100
g101
ssg82
g4126
sg75
(lp4138
S':'
asbag68
(g89
g70
NtRp4139
(dp4140
g73
(dp4141
sg82
g4126
sg75
(lp4142
g68
(g69
g70
NtRp4143
(dp4144
g73
(dp4145
g81
I4
ssg82
g4139
sg75
(lp4146
S'Tue, 05 Jun 2012 21:29:45 GMT'
p4147
asbasbasbag68
(g84
g70
NtRp4148
(dp4149
g73
(dp4150
sg82
g4078
sg75
(lp4151
g68
(g89
g70
NtRp4152
(dp4153
g73
(dp4154
g93
g94
ssg82
g4148
sg75
(lp4155
S'Pragma'
p4156
asbag68
(g89
g70
NtRp4157
(dp4158
g73
(dp4159
g100
g101
ssg82
g4148
sg75
(lp4160
S':'
asbag68
(g89
g70
NtRp4161
(dp4162
g73
(dp4163
sg82
g4148
sg75
(lp4164
g68
(g69
g70
NtRp4165
(dp4166
g73
(dp4167
g81
I4
ssg82
g4161
sg75
(lp4168
S'no-cache'
p4169
asbasbasbag68
(g84
g70
NtRp4170
(dp4171
g73
(dp4172
sg82
g4078
sg75
(lp4173
g68
(g89
g70
NtRp4174
(dp4175
g73
(dp4176
g93
g94
ssg82
g4170
sg75
(lp4177
S'X-Powered-By'
p4178
asbag68
(g89
g70
NtRp4179
(dp4180
g73
(dp4181
g100
g101
ssg82
g4170
sg75
(lp4182
S':'
asbag68
(g89
g70
NtRp4183
(dp4184
g73
(dp4185
sg82
g4170
sg75
(lp4186
g68
(g69
g70
NtRp4187
(dp4188
g73
(dp4189
g81
I4
ssg82
g4183
sg75
(lp4190
S'web2py'
p4191
asbasbasbasbasbasbasbag68
(g84
g70
NtRp4192
(dp4193
g73
(dp4194
sg82
g3740
sg75
(lp4195
g68
(g89
g70
NtRp4196
(dp4197
g73
(dp4198
g93
g94
ssg82
g4192
sg75
(lp4199
S'menu'
p4200
asbag68
(g89
g70
NtRp4201
(dp4202
g73
(dp4203
g100
g101
ssg82
g4192
sg75
(lp4204
S':'
asbag68
(g89
g70
NtRp4205
(dp4206
g73
(dp4207
sg82
g4192
sg75
(lp4208
g68
(g69
g70
NtRp4209
(dp4210
g73
(dp4211
g81
I5
ssg82
g4205
sg75
(lp4212
g68
(g77
g70
NtRp4213
(dp4214
g73
(dp4215
g81
I4
ssg82
Nsg75
(lp4216
g68
(g84
g70
NtRp4217
(dp4218
g73
(dp4219
sg82
g4213
sg75
(lp4220
g68
(g89
g70
NtRp4221
(dp4222
g73
(dp4223
sg82
g4217
sg75
(lp4224
g68
(g69
g70
NtRp4225
(dp4226
g73
(dp4227
g81
I4
ssg82
g4221
sg75
(lp4228
g68
(g77
g70
NtRp4229
(dp4230
g73
(dp4231
g81
I3
ssg82
Nsg75
(lp4232
g68
(g84
g70
NtRp4233
(dp4234
g73
(dp4235
sg82
g4229
sg75
(lp4236
g68
(g89
g70
NtRp4237
(dp4238
g73
(dp4239
sg82
g4233
sg75
(lp4240
g68
(g69
g70
NtRp4241
(dp4242
g73
(dp4243
g81
I3
ssg82
g4237
sg75
(lp4244
cgluon.languages
lazyT_unpickle
p4245
(S't\x04\x00\x00\x00Home'
tRp4246
asbasbasbag68
(g84
g70
NtRp4247
(dp4248
g73
(dp4249
sg82
g4229
sg75
(lp4250
g68
(g89
g70
NtRp4251
(dp4252
g73
(dp4253
sg82
g4247
sg75
(lp4254
g68
(g69
g70
NtRp4255
(dp4256
g73
(dp4257
g81
I3
ssg82
g4251
sg75
(lp4258
g111
asbasbasbag68
(g84
g70
NtRp4259
(dp4260
g73
(dp4261
sg82
g4229
sg75
(lp4262
g68
(g89
g70
NtRp4263
(dp4264
g73
(dp4265
sg82
g4259
sg75
(lp4266
g68
(g69
g70
NtRp4267
(dp4268
g73
(dp4269
g81
I3
ssg82
g4263
sg75
(lp4270
S'/ACES/default/index'
p4271
asbasbasbag68
(g84
g70
NtRp4272
(dp4273
g73
(dp4274
sg82
g4229
sg75
(lp4275
g68
(g89
g70
NtRp4276
(dp4277
g73
(dp4278
sg82
g4272
sg75
(lp4279
g68
(g69
g70
NtRp4280
(dp4281
g73
(dp4282
g81
I3
ssg82
g4276
sg75
(lp4283
g68
(g77
g70
NtRp4284
(dp4285
g73
(dp4286
g81
I2
ssg82
Nsg75
(lp4287
sbasbasbasbasbasbasbasbag68
(g84
g70
NtRp4288
(dp4289
g73
(dp4290
sg82
g4213
sg75
(lp4291
g68
(g89
g70
NtRp4292
(dp4293
g73
(dp4294
sg82
g4288
sg75
(lp4295
g68
(g69
g70
NtRp4296
(dp4297
g73
(dp4298
g81
I4
ssg82
g4292
sg75
(lp4299
g68
(g77
g70
NtRp4300
(dp4301
g73
(dp4302
g81
I3
ssg82
Nsg75
(lp4303
g68
(g84
g70
NtRp4304
(dp4305
g73
(dp4306
sg82
g4300
sg75
(lp4307
g68
(g89
g70
NtRp4308
(dp4309
g73
(dp4310
sg82
g4304
sg75
(lp4311
g68
(g69
g70
NtRp4312
(dp4313
g73
(dp4314
g81
I3
ssg82
g4308
sg75
(lp4315
g4245
(S's\x08\x00\x00\x00This App'
tRp4316
asbasbasbag68
(g84
g70
NtRp4317
(dp4318
g73
(dp4319
sg82
g4300
sg75
(lp4320
g68
(g89
g70
NtRp4321
(dp4322
g73
(dp4323
sg82
g4317
sg75
(lp4324
g68
(g69
g70
NtRp4325
(dp4326
g73
(dp4327
g81
I3
ssg82
g4321
sg75
(lp4328
g111
asbasbasbag68
(g84
g70
NtRp4329
(dp4330
g73
(dp4331
sg82
g4300
sg75
(lp4332
g68
(g89
g70
NtRp4333
(dp4334
g73
(dp4335
sg82
g4329
sg75
(lp4336
g68
(g69
g70
NtRp4337
(dp4338
g73
(dp4339
g81
I3
ssg82
g4333
sg75
(lp4340
S'/admin/default/design/ACES'
p4341
asbasbasbag68
(g84
g70
NtRp4342
(dp4343
g73
(dp4344
sg82
g4300
sg75
(lp4345
g68
(g89
g70
NtRp4346
(dp4347
g73
(dp4348
sg82
g4342
sg75
(lp4349
g68
(g69
g70
NtRp4350
(dp4351
g73
(dp4352
g81
I3
ssg82
g4346
sg75
(lp4353
g68
(g77
g70
NtRp4354
(dp4355
g73
(dp4356
g81
I2
ssg82
Nsg75
(lp4357
g68
(g84
g70
NtRp4358
(dp4359
g73
(dp4360
sg82
g4354
sg75
(lp4361
g68
(g89
g70
NtRp4362
(dp4363
g73
(dp4364
sg82
g4358
sg75
(lp4365
g68
(g69
g70
NtRp4366
(dp4367
g73
(dp4368
g81
I2
ssg82
g4362
sg75
(lp4369
g68
(g77
g70
NtRp4370
(dp4371
g73
(dp4372
g81
I1
ssg82
Nsg75
(lp4373
g68
(g84
g70
NtRp4374
(dp4375
g73
(dp4376
sg82
g4370
sg75
(lp4377
g68
(g89
g70
NtRp4378
(dp4379
g73
(dp4380
sg82
g4374
sg75
(lp4381
g68
(g69
g70
NtRp4382
(dp4383
g73
(dp4384
g81
I1
ssg82
g4378
sg75
(lp4385
g4245
(S't\n\x00\x00\x00Controller'
tRp4386
asbasbasbag68
(g84
g70
NtRp4387
(dp4388
g73
(dp4389
sg82
g4370
sg75
(lp4390
g68
(g89
g70
NtRp4391
(dp4392
g73
(dp4393
sg82
g4387
sg75
(lp4394
g68
(g69
g70
NtRp4395
(dp4396
g73
(dp4397
g81
I1
ssg82
g4391
sg75
(lp4398
I00
asbasbasbag68
(g84
g70
NtRp4399
(dp4400
g73
(dp4401
sg82
g4370
sg75
(lp4402
g68
(g89
g70
NtRp4403
(dp4404
g73
(dp4405
sg82
g4399
sg75
(lp4406
g68
(g69
g70
NtRp4407
(dp4408
g73
(dp4409
g81
I1
ssg82
g4403
sg75
(lp4410
S'/admin/default/edit/ACES/controllers/default.py'
p4411
asbasbasbasbasbasbasbag68
(g84
g70
NtRp4412
(dp4413
g73
(dp4414
sg82
g4354
sg75
(lp4415
g68
(g89
g70
NtRp4416
(dp4417
g73
(dp4418
sg82
g4412
sg75
(lp4419
g68
(g69
g70
NtRp4420
(dp4421
g73
(dp4422
g81
I2
ssg82
g4416
sg75
(lp4423
g68
(g77
g70
NtRp4424
(dp4425
g73
(dp4426
g81
I1
ssg82
Nsg75
(lp4427
g68
(g84
g70
NtRp4428
(dp4429
g73
(dp4430
sg82
g4424
sg75
(lp4431
g68
(g89
g70
NtRp4432
(dp4433
g73
(dp4434
sg82
g4428
sg75
(lp4435
g68
(g69
g70
NtRp4436
(dp4437
g73
(dp4438
g81
I1
ssg82
g4432
sg75
(lp4439
g4245
(S't\x04\x00\x00\x00View'
tRp4440
asbasbasbag68
(g84
g70
NtRp4441
(dp4442
g73
(dp4443
sg82
g4424
sg75
(lp4444
g68
(g89
g70
NtRp4445
(dp4446
g73
(dp4447
sg82
g4441
sg75
(lp4448
g68
(g69
g70
NtRp4449
(dp4450
g73
(dp4451
g81
I1
ssg82
g4445
sg75
(lp4452
I00
asbasbasbag68
(g84
g70
NtRp4453
(dp4454
g73
(dp4455
sg82
g4424
sg75
(lp4456
g68
(g89
g70
NtRp4457
(dp4458
g73
(dp4459
sg82
g4453
sg75
(lp4460
g68
(g69
g70
NtRp4461
(dp4462
g73
(dp4463
g81
I1
ssg82
g4457
sg75
(lp4464
S'/admin/default/edit/ACES/views/default/index.html'
p4465
asbasbasbasbasbasbasbag68
(g84
g70
NtRp4466
(dp4467
g73
(dp4468
sg82
g4354
sg75
(lp4469
g68
(g89
g70
NtRp4470
(dp4471
g73
(dp4472
sg82
g4466
sg75
(lp4473
g68
(g69
g70
NtRp4474
(dp4475
g73
(dp4476
g81
I2
ssg82
g4470
sg75
(lp4477
g68
(g77
g70
NtRp4478
(dp4479
g73
(dp4480
g81
I1
ssg82
Nsg75
(lp4481
g68
(g84
g70
NtRp4482
(dp4483
g73
(dp4484
sg82
g4478
sg75
(lp4485
g68
(g89
g70
NtRp4486
(dp4487
g73
(dp4488
sg82
g4482
sg75
(lp4489
g68
(g69
g70
NtRp4490
(dp4491
g73
(dp4492
g81
I1
ssg82
g4486
sg75
(lp4493
g4245
(S't\x06\x00\x00\x00Layout'
tRp4494
asbasbasbag68
(g84
g70
NtRp4495
(dp4496
g73
(dp4497
sg82
g4478
sg75
(lp4498
g68
(g89
g70
NtRp4499
(dp4500
g73
(dp4501
sg82
g4495
sg75
(lp4502
g68
(g69
g70
NtRp4503
(dp4504
g73
(dp4505
g81
I1
ssg82
g4499
sg75
(lp4506
I00
asbasbasbag68
(g84
g70
NtRp4507
(dp4508
g73
(dp4509
sg82
g4478
sg75
(lp4510
g68
(g89
g70
NtRp4511
(dp4512
g73
(dp4513
sg82
g4507
sg75
(lp4514
g68
(g69
g70
NtRp4515
(dp4516
g73
(dp4517
g81
I1
ssg82
g4511
sg75
(lp4518
S'/admin/default/edit/ACES/views/layout.html'
p4519
asbasbasbasbasbasbasbag68
(g84
g70
NtRp4520
(dp4521
g73
(dp4522
sg82
g4354
sg75
(lp4523
g68
(g89
g70
NtRp4524
(dp4525
g73
(dp4526
sg82
g4520
sg75
(lp4527
g68
(g69
g70
NtRp4528
(dp4529
g73
(dp4530
g81
I2
ssg82
g4524
sg75
(lp4531
g68
(g77
g70
NtRp4532
(dp4533
g73
(dp4534
g81
I1
ssg82
Nsg75
(lp4535
g68
(g84
g70
NtRp4536
(dp4537
g73
(dp4538
sg82
g4532
sg75
(lp4539
g68
(g89
g70
NtRp4540
(dp4541
g73
(dp4542
sg82
g4536
sg75
(lp4543
g68
(g69
g70
NtRp4544
(dp4545
g73
(dp4546
g81
I1
ssg82
g4540
sg75
(lp4547
g4245
(S't\n\x00\x00\x00Stylesheet'
tRp4548
asbasbasbag68
(g84
g70
NtRp4549
(dp4550
g73
(dp4551
sg82
g4532
sg75
(lp4552
g68
(g89
g70
NtRp4553
(dp4554
g73
(dp4555
sg82
g4549
sg75
(lp4556
g68
(g69
g70
NtRp4557
(dp4558
g73
(dp4559
g81
I1
ssg82
g4553
sg75
(lp4560
I00
asbasbasbag68
(g84
g70
NtRp4561
(dp4562
g73
(dp4563
sg82
g4532
sg75
(lp4564
g68
(g89
g70
NtRp4565
(dp4566
g73
(dp4567
sg82
g4561
sg75
(lp4568
g68
(g69
g70
NtRp4569
(dp4570
g73
(dp4571
g81
I1
ssg82
g4565
sg75
(lp4572
S'/admin/default/edit/ACES/static/base.css'
p4573
asbasbasbasbasbasbasbag68
(g84
g70
NtRp4574
(dp4575
g73
(dp4576
sg82
g4354
sg75
(lp4577
g68
(g89
g70
NtRp4578
(dp4579
g73
(dp4580
sg82
g4574
sg75
(lp4581
g68
(g69
g70
NtRp4582
(dp4583
g73
(dp4584
g81
I2
ssg82
g4578
sg75
(lp4585
g68
(g77
g70
NtRp4586
(dp4587
g73
(dp4588
g81
I1
ssg82
Nsg75
(lp4589
g68
(g84
g70
NtRp4590
(dp4591
g73
(dp4592
sg82
g4586
sg75
(lp4593
g68
(g89
g70
NtRp4594
(dp4595
g73
(dp4596
sg82
g4590
sg75
(lp4597
g68
(g69
g70
NtRp4598
(dp4599
g73
(dp4600
g81
I1
ssg82
g4594
sg75
(lp4601
g4245
(S's\x08\x00\x00\x00DB Model'
tRp4602
asbasbasbag68
(g84
g70
NtRp4603
(dp4604
g73
(dp4605
sg82
g4586
sg75
(lp4606
g68
(g89
g70
NtRp4607
(dp4608
g73
(dp4609
sg82
g4603
sg75
(lp4610
g68
(g69
g70
NtRp4611
(dp4612
g73
(dp4613
g81
I1
ssg82
g4607
sg75
(lp4614
I00
asbasbasbag68
(g84
g70
NtRp4615
(dp4616
g73
(dp4617
sg82
g4586
sg75
(lp4618
g68
(g89
g70
NtRp4619
(dp4620
g73
(dp4621
sg82
g4615
sg75
(lp4622
g68
(g69
g70
NtRp4623
(dp4624
g73
(dp4625
g81
I1
ssg82
g4619
sg75
(lp4626
S'/admin/default/edit/ACES/models/db.py'
p4627
asbasbasbasbasbasbasbag68
(g84
g70
NtRp4628
(dp4629
g73
(dp4630
sg82
g4354
sg75
(lp4631
g68
(g89
g70
NtRp4632
(dp4633
g73
(dp4634
sg82
g4628
sg75
(lp4635
g68
(g69
g70
NtRp4636
(dp4637
g73
(dp4638
g81
I2
ssg82
g4632
sg75
(lp4639
g68
(g77
g70
NtRp4640
(dp4641
g73
(dp4642
g81
I1
ssg82
Nsg75
(lp4643
g68
(g84
g70
NtRp4644
(dp4645
g73
(dp4646
sg82
g4640
sg75
(lp4647
g68
(g89
g70
NtRp4648
(dp4649
g73
(dp4650
sg82
g4644
sg75
(lp4651
g68
(g69
g70
NtRp4652
(dp4653
g73
(dp4654
g81
I1
ssg82
g4648
sg75
(lp4655
g4245
(S's\n\x00\x00\x00Menu Model'
tRp4656
asbasbasbag68
(g84
g70
NtRp4657
(dp4658
g73
(dp4659
sg82
g4640
sg75
(lp4660
g68
(g89
g70
NtRp4661
(dp4662
g73
(dp4663
sg82
g4657
sg75
(lp4664
g68
(g69
g70
NtRp4665
(dp4666
g73
(dp4667
g81
I1
ssg82
g4661
sg75
(lp4668
I00
asbasbasbag68
(g84
g70
NtRp4669
(dp4670
g73
(dp4671
sg82
g4640
sg75
(lp4672
g68
(g89
g70
NtRp4673
(dp4674
g73
(dp4675
sg82
g4669
sg75
(lp4676
g68
(g69
g70
NtRp4677
(dp4678
g73
(dp4679
g81
I1
ssg82
g4673
sg75
(lp4680
S'/admin/default/edit/ACES/models/menu.py'
p4681
asbasbasbasbasbasbasbag68
(g84
g70
NtRp4682
(dp4683
g73
(dp4684
sg82
g4354
sg75
(lp4685
g68
(g89
g70
NtRp4686
(dp4687
g73
(dp4688
sg82
g4682
sg75
(lp4689
g68
(g69
g70
NtRp4690
(dp4691
g73
(dp4692
g81
I2
ssg82
g4686
sg75
(lp4693
g68
(g77
g70
NtRp4694
(dp4695
g73
(dp4696
g81
I1
ssg82
Nsg75
(lp4697
g68
(g84
g70
NtRp4698
(dp4699
g73
(dp4700
sg82
g4694
sg75
(lp4701
g68
(g89
g70
NtRp4702
(dp4703
g73
(dp4704
sg82
g4698
sg75
(lp4705
g68
(g69
g70
NtRp4706
(dp4707
g73
(dp4708
g81
I1
ssg82
g4702
sg75
(lp4709
g4245
(S't\x08\x00\x00\x00Database'
tRp4710
asbasbasbag68
(g84
g70
NtRp4711
(dp4712
g73
(dp4713
sg82
g4694
sg75
(lp4714
g68
(g89
g70
NtRp4715
(dp4716
g73
(dp4717
sg82
g4711
sg75
(lp4718
g68
(g69
g70
NtRp4719
(dp4720
g73
(dp4721
g81
I1
ssg82
g4715
sg75
(lp4722
I00
asbasbasbag68
(g84
g70
NtRp4723
(dp4724
g73
(dp4725
sg82
g4694
sg75
(lp4726
g68
(g89
g70
NtRp4727
(dp4728
g73
(dp4729
sg82
g4723
sg75
(lp4730
g68
(g69
g70
NtRp4731
(dp4732
g73
(dp4733
g81
I1
ssg82
g4727
sg75
(lp4734
S'/ACES/appadmin/index'
p4735
asbasbasbasbasbasbasbag68
(g84
g70
NtRp4736
(dp4737
g73
(dp4738
sg82
g4354
sg75
(lp4739
g68
(g89
g70
NtRp4740
(dp4741
g73
(dp4742
sg82
g4736
sg75
(lp4743
g68
(g69
g70
NtRp4744
(dp4745
g73
(dp4746
g81
I2
ssg82
g4740
sg75
(lp4747
g68
(g77
g70
NtRp4748
(dp4749
g73
(dp4750
g81
I1
ssg82
Nsg75
(lp4751
g68
(g84
g70
NtRp4752
(dp4753
g73
(dp4754
sg82
g4748
sg75
(lp4755
g68
(g89
g70
NtRp4756
(dp4757
g73
(dp4758
sg82
g4752
sg75
(lp4759
g68
(g69
g70
NtRp4760
(dp4761
g73
(dp4762
g81
I1
ssg82
g4756
sg75
(lp4763
g4245
(S't\x06\x00\x00\x00Errors'
tRp4764
asbasbasbag68
(g84
g70
NtRp4765
(dp4766
g73
(dp4767
sg82
g4748
sg75
(lp4768
g68
(g89
g70
NtRp4769
(dp4770
g73
(dp4771
sg82
g4765
sg75
(lp4772
g68
(g69
g70
NtRp4773
(dp4774
g73
(dp4775
g81
I1
ssg82
g4769
sg75
(lp4776
I00
asbasbasbag68
(g84
g70
NtRp4777
(dp4778
g73
(dp4779
sg82
g4748
sg75
(lp4780
g68
(g89
g70
NtRp4781
(dp4782
g73
(dp4783
sg82
g4777
sg75
(lp4784
g68
(g69
g70
NtRp4785
(dp4786
g73
(dp4787
g81
I1
ssg82
g4781
sg75
(lp4788
S'/admin/default/errors/ACES'
p4789
asbasbasbasbasbasbasbag68
(g84
g70
NtRp4790
(dp4791
g73
(dp4792
sg82
g4354
sg75
(lp4793
g68
(g89
g70
NtRp4794
(dp4795
g73
(dp4796
sg82
g4790
sg75
(lp4797
g68
(g69
g70
NtRp4798
(dp4799
g73
(dp4800
g81
I2
ssg82
g4794
sg75
(lp4801
g68
(g77
g70
NtRp4802
(dp4803
g73
(dp4804
g81
I1
ssg82
Nsg75
(lp4805
g68
(g84
g70
NtRp4806
(dp4807
g73
(dp4808
sg82
g4802
sg75
(lp4809
g68
(g89
g70
NtRp4810
(dp4811
g73
(dp4812
sg82
g4806
sg75
(lp4813
g68
(g69
g70
NtRp4814
(dp4815
g73
(dp4816
g81
I1
ssg82
g4810
sg75
(lp4817
g4245
(S't\x05\x00\x00\x00About'
tRp4818
asbasbasbag68
(g84
g70
NtRp4819
(dp4820
g73
(dp4821
sg82
g4802
sg75
(lp4822
g68
(g89
g70
NtRp4823
(dp4824
g73
(dp4825
sg82
g4819
sg75
(lp4826
g68
(g69
g70
NtRp4827
(dp4828
g73
(dp4829
g81
I1
ssg82
g4823
sg75
(lp4830
I00
asbasbasbag68
(g84
g70
NtRp4831
(dp4832
g73
(dp4833
sg82
g4802
sg75
(lp4834
g68
(g89
g70
NtRp4835
(dp4836
g73
(dp4837
sg82
g4831
sg75
(lp4838
g68
(g69
g70
NtRp4839
(dp4840
g73
(dp4841
g81
I1
ssg82
g4835
sg75
(lp4842
S'/admin/default/about/ACES'
p4843
asbasbasbasbasbasbasbasbasbasbasbasbasbasbasbag68
(g84
g70
NtRp4844
(dp4845
g73
(dp4846
sg82
g4213
sg75
(lp4847
g68
(g89
g70
NtRp4848
(dp4849
g73
(dp4850
sg82
g4844
sg75
(lp4851
g68
(g69
g70
NtRp4852
(dp4853
g73
(dp4854
g81
I4
ssg82
g4848
sg75
(lp4855
g68
(g77
g70
NtRp4856
(dp4857
g73
(dp4858
g81
I3
ssg82
Nsg75
(lp4859
g68
(g84
g70
NtRp4860
(dp4861
g73
(dp4862
sg82
g4856
sg75
(lp4863
g68
(g89
g70
NtRp4864
(dp4865
g73
(dp4866
sg82
g4860
sg75
(lp4867
g68
(g69
g70
NtRp4868
(dp4869
g73
(dp4870
g81
I3
ssg82
g4864
sg75
(lp4871
g4245
(S't\t\x00\x00\x00Resources'
tRp4872
asbasbasbag68
(g84
g70
NtRp4873
(dp4874
g73
(dp4875
sg82
g4856
sg75
(lp4876
g68
(g89
g70
NtRp4877
(dp4878
g73
(dp4879
sg82
g4873
sg75
(lp4880
g68
(g69
g70
NtRp4881
(dp4882
g73
(dp4883
g81
I3
ssg82
g4877
sg75
(lp4884
g111
asbasbasbag68
(g84
g70
NtRp4885
(dp4886
g73
(dp4887
sg82
g4856
sg75
(lp4888
g68
(g89
g70
NtRp4889
(dp4890
g73
(dp4891
sg82
g4885
sg75
(lp4892
g68
(g69
g70
NtRp4893
(dp4894
g73
(dp4895
g81
I3
ssg82
g4889
sg75
(lp4896
S'None'
p4897
asbasbasbag68
(g84
g70
NtRp4898
(dp4899
g73
(dp4900
sg82
g4856
sg75
(lp4901
g68
(g89
g70
NtRp4902
(dp4903
g73
(dp4904
sg82
g4898
sg75
(lp4905
g68
(g69
g70
NtRp4906
(dp4907
g73
(dp4908
g81
I3
ssg82
g4902
sg75
(lp4909
g68
(g77
g70
NtRp4910
(dp4911
g73
(dp4912
g81
I2
ssg82
Nsg75
(lp4913
g68
(g84
g70
NtRp4914
(dp4915
g73
(dp4916
sg82
g4910
sg75
(lp4917
g68
(g89
g70
NtRp4918
(dp4919
g73
(dp4920
sg82
g4914
sg75
(lp4921
g68
(g69
g70
NtRp4922
(dp4923
g73
(dp4924
g81
I2
ssg82
g4918
sg75
(lp4925
g68
(g77
g70
NtRp4926
(dp4927
g73
(dp4928
g81
I1
ssg82
Nsg75
(lp4929
g68
(g84
g70
NtRp4930
(dp4931
g73
(dp4932
sg82
g4926
sg75
(lp4933
g68
(g89
g70
NtRp4934
(dp4935
g73
(dp4936
sg82
g4930
sg75
(lp4937
g68
(g69
g70
NtRp4938
(dp4939
g73
(dp4940
g81
I1
ssg82
g4934
sg75
(lp4941
g4245
(S't\r\x00\x00\x00Documentation'
tRp4942
asbasbasbag68
(g84
g70
NtRp4943
(dp4944
g73
(dp4945
sg82
g4926
sg75
(lp4946
g68
(g89
g70
NtRp4947
(dp4948
g73
(dp4949
sg82
g4943
sg75
(lp4950
g68
(g69
g70
NtRp4951
(dp4952
g73
(dp4953
g81
I1
ssg82
g4947
sg75
(lp4954
I00
asbasbasbag68
(g84
g70
NtRp4955
(dp4956
g73
(dp4957
sg82
g4926
sg75
(lp4958
g68
(g89
g70
NtRp4959
(dp4960
g73
(dp4961
sg82
g4955
sg75
(lp4962
g68
(g69
g70
NtRp4963
(dp4964
g73
(dp4965
g81
I1
ssg82
g4959
sg75
(lp4966
S'http://www.web2py.com/book'
p4967
asbasbasbag68
(g84
g70
NtRp4968
(dp4969
g73
(dp4970
sg82
g4926
sg75
(lp4971
g68
(g89
g70
NtRp4972
(dp4973
g73
(dp4974
sg82
g4968
sg75
(lp4975
g68
(g69
g70
NtRp4976
(dp4977
g73
(dp4978
g81
I1
ssg82
g4972
sg75
(lp4979
(lp4980
(g4245
(S't\x07\x00\x00\x00Preface'
tRp4981
I00
S'http://www.web2py.com/book/default/chapter/00'
p4982
tp4983
a(g4245
(S't\x0c\x00\x00\x00Introduction'
tRp4984
I00
S'http://www.web2py.com/book/default/chapter/01'
p4985
tp4986
a(g4245
(S't\x06\x00\x00\x00Python'
tRp4987
I00
S'http://www.web2py.com/book/default/chapter/02'
p4988
tp4989
a(g4245
(S't\x08\x00\x00\x00Overview'
tRp4990
I00
S'http://www.web2py.com/book/default/chapter/03'
p4991
tp4992
a(g4245
(S's\x08\x00\x00\x00The Core'
tRp4993
I00
S'http://www.web2py.com/book/default/chapter/04'
p4994
tp4995
a(g4245
(S's\t\x00\x00\x00The Views'
tRp4996
I00
S'http://www.web2py.com/book/default/chapter/05'
p4997
tp4998
a(g4245
(S't\x08\x00\x00\x00Database'
tRp4999
I00
S'http://www.web2py.com/book/default/chapter/06'
p5000
tp5001
a(g4245
(S's\x14\x00\x00\x00Forms and Validators'
tRp5002
I00
S'http://www.web2py.com/book/default/chapter/07'
p5003
tp5004
a(g4245
(S's\x0e\x00\x00\x00Access Control'
tRp5005
I00
S'http://www.web2py.com/book/default/chapter/08'
p5006
tp5007
a(g4245
(S't\x08\x00\x00\x00Services'
tRp5008
I00
S'http://www.web2py.com/book/default/chapter/09'
p5009
tp5010
a(g4245
(S's\x0c\x00\x00\x00Ajax Recipes'
tRp5011
I00
S'http://www.web2py.com/book/default/chapter/10'
p5012
tp5013
a(g4245
(S's\x12\x00\x00\x00Deployment Recipes'
tRp5014
I00
S'http://www.web2py.com/book/default/chapter/11'
p5015
tp5016
a(g4245
(S's\r\x00\x00\x00Other Recipes'
tRp5017
I00
S'http://www.web2py.com/book/default/chapter/12'
p5018
tp5019
a(g4245
(S's\r\x00\x00\x00Buy this book'
tRp5020
I00
S'http://stores.lulu.com/web2py'
p5021
tp5022
aasbasbasbasbasbasbasbag68
(g84
g70
NtRp5023
(dp5024
g73
(dp5025
sg82
g4910
sg75
(lp5026
g68
(g89
g70
NtRp5027
(dp5028
g73
(dp5029
sg82
g5023
sg75
(lp5030
g68
(g69
g70
NtRp5031
(dp5032
g73
(dp5033
g81
I2
ssg82
g5027
sg75
(lp5034
g68
(g77
g70
NtRp5035
(dp5036
g73
(dp5037
g81
I1
ssg82
Nsg75
(lp5038
g68
(g84
g70
NtRp5039
(dp5040
g73
(dp5041
sg82
g5035
sg75
(lp5042
g68
(g89
g70
NtRp5043
(dp5044
g73
(dp5045
sg82
g5039
sg75
(lp5046
g68
(g69
g70
NtRp5047
(dp5048
g73
(dp5049
g81
I1
ssg82
g5043
sg75
(lp5050
g4245
(S't\t\x00\x00\x00Community'
tRp5051
asbasbasbag68
(g84
g70
NtRp5052
(dp5053
g73
(dp5054
sg82
g5035
sg75
(lp5055
g68
(g89
g70
NtRp5056
(dp5057
g73
(dp5058
sg82
g5052
sg75
(lp5059
g68
(g69
g70
NtRp5060
(dp5061
g73
(dp5062
g81
I1
ssg82
g5056
sg75
(lp5063
I00
asbasbasbag68
(g84
g70
NtRp5064
(dp5065
g73
(dp5066
sg82
g5035
sg75
(lp5067
g68
(g89
g70
NtRp5068
(dp5069
g73
(dp5070
sg82
g5064
sg75
(lp5071
g68
(g69
g70
NtRp5072
(dp5073
g73
(dp5074
g81
I1
ssg82
g5068
sg75
(lp5075
Nasbasbasbag68
(g84
g70
NtRp5076
(dp5077
g73
(dp5078
sg82
g5035
sg75
(lp5079
g68
(g89
g70
NtRp5080
(dp5081
g73
(dp5082
sg82
g5076
sg75
(lp5083
g68
(g69
g70
NtRp5084
(dp5085
g73
(dp5086
g81
I1
ssg82
g5080
sg75
(lp5087
(lp5088
(g4245
(S't\x06\x00\x00\x00Groups'
tRp5089
I00
S'http://www.web2py.com/examples/default/usergroups'
p5090
tp5091
a(g4245
(S't\x07\x00\x00\x00Twitter'
tRp5092
I00
S'http://twitter.com/web2py'
p5093
tp5094
a(g4245
(S's\t\x00\x00\x00Live chat'
tRp5095
I00
S'http://mibbit.com/?channel=%23web2py&server=irc.mibbit.net'
p5096
tp5097
a(g4245
(S's\n\x00\x00\x00User Voice'
tRp5098
I00
S'http://web2py.uservoice.com/'
p5099
tp5100
aasbasbasbasbasbasbasbag68
(g84
g70
NtRp5101
(dp5102
g73
(dp5103
sg82
g4910
sg75
(lp5104
g68
(g89
g70
NtRp5105
(dp5106
g73
(dp5107
sg82
g5101
sg75
(lp5108
g68
(g69
g70
NtRp5109
(dp5110
g73
(dp5111
g81
I2
ssg82
g5105
sg75
(lp5112
g68
(g77
g70
NtRp5113
(dp5114
g73
(dp5115
g81
I1
ssg82
Nsg75
(lp5116
g68
(g84
g70
NtRp5117
(dp5118
g73
(dp5119
sg82
g5113
sg75
(lp5120
g68
(g89
g70
NtRp5121
(dp5122
g73
(dp5123
sg82
g5117
sg75
(lp5124
g68
(g69
g70
NtRp5125
(dp5126
g73
(dp5127
g81
I1
ssg82
g5121
sg75
(lp5128
g4245
(S't\x06\x00\x00\x00Web2py'
tRp5129
asbasbasbag68
(g84
g70
NtRp5130
(dp5131
g73
(dp5132
sg82
g5113
sg75
(lp5133
g68
(g89
g70
NtRp5134
(dp5135
g73
(dp5136
sg82
g5130
sg75
(lp5137
g68
(g69
g70
NtRp5138
(dp5139
g73
(dp5140
g81
I1
ssg82
g5134
sg75
(lp5141
I00
asbasbasbag68
(g84
g70
NtRp5142
(dp5143
g73
(dp5144
sg82
g5113
sg75
(lp5145
g68
(g89
g70
NtRp5146
(dp5147
g73
(dp5148
sg82
g5142
sg75
(lp5149
g68
(g69
g70
NtRp5150
(dp5151
g73
(dp5152
g81
I1
ssg82
g5146
sg75
(lp5153
S'http://www.web2py.com'
p5154
asbasbasbag68
(g84
g70
NtRp5155
(dp5156
g73
(dp5157
sg82
g5113
sg75
(lp5158
g68
(g89
g70
NtRp5159
(dp5160
g73
(dp5161
sg82
g5155
sg75
(lp5162
g68
(g69
g70
NtRp5163
(dp5164
g73
(dp5165
g81
I1
ssg82
g5159
sg75
(lp5166
(lp5167
(g4245
(S't\x08\x00\x00\x00Download'
tRp5168
I00
S'http://www.web2py.com/examples/default/download'
p5169
tp5170
a(g4245
(S't\x07\x00\x00\x00Support'
tRp5171
I00
S'http://www.web2py.com/examples/default/support'
p5172
tp5173
a(g4245
(S's\x0e\x00\x00\x00Quick Examples'
tRp5174
I00
S'http://web2py.com/examples/default/examples'
p5175
tp5176
a(g4245
(S't\x03\x00\x00\x00FAQ'
tRp5177
I00
S'http://web2py.com/AlterEgo'
p5178
tp5179
a(g4245
(S's\x11\x00\x00\x00Free Applications'
tRp5180
I00
S'http://web2py.com/appliances'
p5181
tp5182
a(g4245
(S't\x07\x00\x00\x00Plugins'
tRp5183
I00
S'http://web2py.com/plugins'
p5184
tp5185
a(g4245
(S't\x07\x00\x00\x00Recipes'
tRp5186
I00
S'http://web2pyslices.com/'
p5187
tp5188
a(g4245
(S't\x04\x00\x00\x00Demo'
tRp5189
I00
S'http://web2py.com/demo_admin'
p5190
tp5191
a(g4245
(S't\x08\x00\x00\x00Semantic'
tRp5192
I00
S'http://web2py.com/semantic'
p5193
tp5194
a(g4245
(S't\x07\x00\x00\x00Layouts'
tRp5195
I00
S'http://web2py.com/layouts'
p5196
tp5197
a(g4245
(S't\x06\x00\x00\x00Videos'
tRp5198
I00
S'http://www.web2py.com/examples/default/videos/'
p5199
tp5200
aasbasbasbasbasbasbasbasbasbasbasbasbasbasbasbasbasbasbasbag68
(g84
g70
NtRp5201
(dp5202
g73
(dp5203
sg82
g3740
sg75
(lp5204
g68
(g89
g70
NtRp5205
(dp5206
g73
(dp5207
g93
g94
ssg82
g5201
sg75
(lp5208
S'meta'
p5209
asbag68
(g89
g70
NtRp5210
(dp5211
g73
(dp5212
g100
g101
ssg82
g5201
sg75
(lp5213
S':'
asbag68
(g89
g70
NtRp5214
(dp5215
g73
(dp5216
sg82
g5201
sg75
(lp5217
g68
(g69
g70
NtRp5218
(dp5219
g73
(dp5220
g81
I5
ssg82
g5214
sg75
(lp5221
g68
(g77
g70
NtRp5222
(dp5223
g73
(dp5224
g81
I4
ssg82
Nsg75
(lp5225
g68
(g84
g70
NtRp5226
(dp5227
g73
(dp5228
sg82
g5222
sg75
(lp5229
g68
(g89
g70
NtRp5230
(dp5231
g73
(dp5232
g93
g94
ssg82
g5226
sg75
(lp5233
S'author'
p5234
asbag68
(g89
g70
NtRp5235
(dp5236
g73
(dp5237
g100
g101
ssg82
g5226
sg75
(lp5238
S':'
asbag68
(g89
g70
NtRp5239
(dp5240
g73
(dp5241
sg82
g5226
sg75
(lp5242
g68
(g69
g70
NtRp5243
(dp5244
g73
(dp5245
g81
I4
ssg82
g5239
sg75
(lp5246
S'Your Name <you@example.com>'
p5247
asbasbasbag68
(g84
g70
NtRp5248
(dp5249
g73
(dp5250
sg82
g5222
sg75
(lp5251
g68
(g89
g70
NtRp5252
(dp5253
g73
(dp5254
g93
g94
ssg82
g5248
sg75
(lp5255
S'copyright'
p5256
asbag68
(g89
g70
NtRp5257
(dp5258
g73
(dp5259
g100
g101
ssg82
g5248
sg75
(lp5260
S':'
asbag68
(g89
g70
NtRp5261
(dp5262
g73
(dp5263
sg82
g5248
sg75
(lp5264
g68
(g69
g70
NtRp5265
(dp5266
g73
(dp5267
g81
I4
ssg82
g5261
sg75
(lp5268
S'Copyright 2011'
p5269
asbasbasbag68
(g84
g70
NtRp5270
(dp5271
g73
(dp5272
sg82
g5222
sg75
(lp5273
g68
(g89
g70
NtRp5274
(dp5275
g73
(dp5276
g93
g94
ssg82
g5270
sg75
(lp5277
S'description'
p5278
asbag68
(g89
g70
NtRp5279
(dp5280
g73
(dp5281
g100
g101
ssg82
g5270
sg75
(lp5282
S':'
asbag68
(g89
g70
NtRp5283
(dp5284
g73
(dp5285
sg82
g5270
sg75
(lp5286
g68
(g69
g70
NtRp5287
(dp5288
g73
(dp5289
g81
I4
ssg82
g5283
sg75
(lp5290
S'a cool new app'
p5291
asbasbasbag68
(g84
g70
NtRp5292
(dp5293
g73
(dp5294
sg82
g5222
sg75
(lp5295
g68
(g89
g70
NtRp5296
(dp5297
g73
(dp5298
g93
g94
ssg82
g5292
sg75
(lp5299
S'generator'
p5300
asbag68
(g89
g70
NtRp5301
(dp5302
g73
(dp5303
g100
g101
ssg82
g5292
sg75
(lp5304
S':'
asbag68
(g89
g70
NtRp5305
(dp5306
g73
(dp5307
sg82
g5292
sg75
(lp5308
g68
(g69
g70
NtRp5309
(dp5310
g73
(dp5311
g81
I4
ssg82
g5305
sg75
(lp5312
S'Web2py Web Framework'
p5313
asbasbasbag68
(g84
g70
NtRp5314
(dp5315
g73
(dp5316
sg82
g5222
sg75
(lp5317
g68
(g89
g70
NtRp5318
(dp5319
g73
(dp5320
g93
g94
ssg82
g5314
sg75
(lp5321
S'keywords'
p5322
asbag68
(g89
g70
NtRp5323
(dp5324
g73
(dp5325
g100
g101
ssg82
g5314
sg75
(lp5326
S':'
asbag68
(g89
g70
NtRp5327
(dp5328
g73
(dp5329
sg82
g5314
sg75
(lp5330
g68
(g69
g70
NtRp5331
(dp5332
g73
(dp5333
g81
I4
ssg82
g5327
sg75
(lp5334
S'web2py, python, framework'
p5335
asbasbasbasbasbasbasbag68
(g84
g70
NtRp5336
(dp5337
g73
(dp5338
sg82
g3740
sg75
(lp5339
g68
(g89
g70
NtRp5340
(dp5341
g73
(dp5342
g93
g94
ssg82
g5336
sg75
(lp5343
S'postprocessing'
p5344
asbag68
(g89
g70
NtRp5345
(dp5346
g73
(dp5347
g100
g101
ssg82
g5336
sg75
(lp5348
S':'
asbag68
(g89
g70
NtRp5349
(dp5350
g73
(dp5351
sg82
g5336
sg75
(lp5352
g68
(g69
g70
NtRp5353
(dp5354
g73
(dp5355
g81
I5
ssg82
g5349
sg75
(lp5356
g68
(g77
g70
NtRp5357
(dp5358
g73
(dp5359
g81
I4
ssg82
Nsg75
(lp5360
sbasbasbasbag68
(g84
g70
NtRp5361
(dp5362
g73
(dp5363
sg82
g3740
sg75
(lp5364
g68
(g89
g70
NtRp5365
(dp5366
g73
(dp5367
g93
g94
ssg82
g5361
sg75
(lp5368
S'session_file'
p5369
asbag68
(g89
g70
NtRp5370
(dp5371
g73
(dp5372
g100
g101
ssg82
g5361
sg75
(lp5373
S':'
asbag68
(g89
g70
NtRp5374
(dp5375
g73
(dp5376
sg82
g5361
sg75
(lp5377
g68
(g69
g70
NtRp5378
(dp5379
g73
(dp5380
g81
I5
ssg82
g5374
sg75
(lp5381
S"<open file '/home/u4hcsdaw/Python/web2py/applications/ACES/sessions/127.0.0.1-41cac65c-3668-453b-9ecc-c26f12d379cc', mode 'rb+' at 0xa8bc3e8>"
p5382
asbasbasbag68
(g84
g70
NtRp5383
(dp5384
g73
(dp5385
sg82
g3740
sg75
(lp5386
g68
(g89
g70
NtRp5387
(dp5388
g73
(dp5389
g93
g94
ssg82
g5383
sg75
(lp5390
S'session_filename'
p5391
asbag68
(g89
g70
NtRp5392
(dp5393
g73
(dp5394
g100
g101
ssg82
g5383
sg75
(lp5395
S':'
asbag68
(g89
g70
NtRp5396
(dp5397
g73
(dp5398
sg82
g5383
sg75
(lp5399
g68
(g69
g70
NtRp5400
(dp5401
g73
(dp5402
g81
I5
ssg82
g5396
sg75
(lp5403
S'/home/u4hcsdaw/Python/web2py/applications/ACES/sessions/127.0.0.1-41cac65c-3668-453b-9ecc-c26f12d379cc'
p5404
asbasbasbag68
(g84
g70
NtRp5405
(dp5406
g73
(dp5407
sg82
g3740
sg75
(lp5408
g68
(g89
g70
NtRp5409
(dp5410
g73
(dp5411
g93
g94
ssg82
g5405
sg75
(lp5412
S'session_id'
p5413
asbag68
(g89
g70
NtRp5414
(dp5415
g73
(dp5416
g100
g101
ssg82
g5405
sg75
(lp5417
S':'
asbag68
(g89
g70
NtRp5418
(dp5419
g73
(dp5420
sg82
g5405
sg75
(lp5421
g68
(g69
g70
NtRp5422
(dp5423
g73
(dp5424
g81
I5
ssg82
g5418
sg75
(lp5425
S'127.0.0.1-41cac65c-3668-453b-9ecc-c26f12d379cc'
p5426
asbasbasbag68
(g84
g70
NtRp5427
(dp5428
g73
(dp5429
sg82
g3740
sg75
(lp5430
g68
(g89
g70
NtRp5431
(dp5432
g73
(dp5433
g93
g94
ssg82
g5427
sg75
(lp5434
S'session_id_name'
p5435
asbag68
(g89
g70
NtRp5436
(dp5437
g73
(dp5438
g100
g101
ssg82
g5427
sg75
(lp5439
S':'
asbag68
(g89
g70
NtRp5440
(dp5441
g73
(dp5442
sg82
g5427
sg75
(lp5443
g68
(g69
g70
NtRp5444
(dp5445
g73
(dp5446
g81
I5
ssg82
g5440
sg75
(lp5447
g3797
asbasbasbag68
(g84
g70
NtRp5448
(dp5449
g73
(dp5450
sg82
g3740
sg75
(lp5451
g68
(g89
g70
NtRp5452
(dp5453
g73
(dp5454
g93
g94
ssg82
g5448
sg75
(lp5455
S'session_locked'
p5456
asbag68
(g89
g70
NtRp5457
(dp5458
g73
(dp5459
g100
g101
ssg82
g5448
sg75
(lp5460
S':'
asbag68
(g89
g70
NtRp5461
(dp5462
g73
(dp5463
sg82
g5448
sg75
(lp5464
g68
(g69
g70
NtRp5465
(dp5466
g73
(dp5467
g81
I5
ssg82
g5461
sg75
(lp5468
g2102
asbasbasbag68
(g84
g70
NtRp5469
(dp5470
g73
(dp5471
sg82
g3740
sg75
(lp5472
g68
(g89
g70
NtRp5473
(dp5474
g73
(dp5475
g93
g94
ssg82
g5469
sg75
(lp5476
S'session_new'
p5477
asbag68
(g89
g70
NtRp5478
(dp5479
g73
(dp5480
g100
g101
ssg82
g5469
sg75
(lp5481
S':'
asbag68
(g89
g70
NtRp5482
(dp5483
g73
(dp5484
sg82
g5469
sg75
(lp5485
g68
(g69
g70
NtRp5486
(dp5487
g73
(dp5488
g81
I5
ssg82
g5482
sg75
(lp5489
g111
asbasbasbag68
(g84
g70
NtRp5490
(dp5491
g73
(dp5492
sg82
g3740
sg75
(lp5493
g68
(g89
g70
NtRp5494
(dp5495
g73
(dp5496
g93
g94
ssg82
g5490
sg75
(lp5497
S'status'
p5498
asbag68
(g89
g70
NtRp5499
(dp5500
g73
(dp5501
g100
g101
ssg82
g5490
sg75
(lp5502
S':'
asbag68
(g89
g70
NtRp5503
(dp5504
g73
(dp5505
sg82
g5490
sg75
(lp5506
g68
(g69
g70
NtRp5507
(dp5508
g73
(dp5509
g81
I5
ssg82
g5503
sg75
(lp5510
S'200'
p5511
asbasbasbag68
(g84
g70
NtRp5512
(dp5513
g73
(dp5514
sg82
g3740
sg75
(lp5515
g68
(g89
g70
NtRp5516
(dp5517
g73
(dp5518
g93
g94
ssg82
g5512
sg75
(lp5519
S'subtitle'
p5520
asbag68
(g89
g70
NtRp5521
(dp5522
g73
(dp5523
g100
g101
ssg82
g5512
sg75
(lp5524
S':'
asbag68
(g89
g70
NtRp5525
(dp5526
g73
(dp5527
sg82
g5512
sg75
(lp5528
g68
(g69
g70
NtRp5529
(dp5530
g73
(dp5531
g81
I5
ssg82
g5525
sg75
(lp5532
g4245
(S's\r\x00\x00\x00customize me!'
tRp5533
asbasbasbag68
(g84
g70
NtRp5534
(dp5535
g73
(dp5536
sg82
g3740
sg75
(lp5537
g68
(g89
g70
NtRp5538
(dp5539
g73
(dp5540
g93
g94
ssg82
g5534
sg75
(lp5541
S'title'
p5542
asbag68
(g89
g70
NtRp5543
(dp5544
g73
(dp5545
g100
g101
ssg82
g5534
sg75
(lp5546
S':'
asbag68
(g89
g70
NtRp5547
(dp5548
g73
(dp5549
sg82
g5534
sg75
(lp5550
g68
(g69
g70
NtRp5551
(dp5552
g73
(dp5553
g81
I5
ssg82
g5547
sg75
(lp5554
g133
asbasbasbag68
(g84
g70
NtRp5555
(dp5556
g73
(dp5557
sg82
g3740
sg75
(lp5558
g68
(g89
g70
NtRp5559
(dp5560
g73
(dp5561
g93
g94
ssg82
g5555
sg75
(lp5562
g2790
asbag68
(g89
g70
NtRp5563
(dp5564
g73
(dp5565
g100
g101
ssg82
g5555
sg75
(lp5566
S':'
asbag68
(g89
g70
NtRp5567
(dp5568
g73
(dp5569
sg82
g5555
sg75
(lp5570
g68
(g69
g70
NtRp5571
(dp5572
g73
(dp5573
g81
I5
ssg82
g5567
sg75
(lp5574
g2803
asbasbasbag68
(g84
g70
NtRp5575
(dp5576
g73
(dp5577
sg82
g3740
sg75
(lp5578
g68
(g89
g70
NtRp5579
(dp5580
g73
(dp5581
g93
g94
ssg82
g5575
sg75
(lp5582
S'view'
p5583
asbag68
(g89
g70
NtRp5584
(dp5585
g73
(dp5586
g100
g101
ssg82
g5575
sg75
(lp5587
S':'
asbag68
(g89
g70
NtRp5588
(dp5589
g73
(dp5590
sg82
g5575
sg75
(lp5591
g68
(g69
g70
NtRp5592
(dp5593
g73
(dp5594
g81
I5
ssg82
g5588
sg75
(lp5595
S'default/index.html'
p5596
asbasbasbasbasbsS'locals'
p5597
(dp5598
g73
g20
sS'self'
p5599
S'<gluon.html.IMG object>'
p5600
sg75
S"('/ACES/static/images/Waves.svg',)"
p5601
sssS'traceback'
p5602
S'Traceback (most recent call last):\n  File "/home/u4hcsdaw/Python/web2py/gluon/restricted.py", line 194, in restricted\n    exec ccode in environment\n  File "/home/u4hcsdaw/Python/web2py/applications/ACES/controllers/default.py", line 80, in <module>\n  File "/home/u4hcsdaw/Python/web2py/gluon/globals.py", line 149, in <lambda>\n    self._caller = lambda f: f()\n  File "/home/u4hcsdaw/Python/web2py/applications/ACES/controllers/default.py", line 25, in index\n    img1=IMG(URL(\'static\',\'images/Waves.svg\'))\n  File "/home/u4hcsdaw/Python/web2py/gluon/html.py", line 579, in __init__\n    % self.tag\nSyntaxError: <img/> tags cannot have components\n'
p5603
s.