(dp1
S'output'
p2
S''
sS'layer'
p3
S'/home/u4hcsdaw/Python/web2py/applications/ACES/controllers/default.py'
p4
sS'code'
p5
S'# -*- coding: utf-8 -*-\n# this file is released under public domain and you can use without limitations\n\n#########################################################################\n## This is a samples controller\n## - index is the default action of any application\n## - user is required for authentication and authorization\n## - download is for downloading files uploaded in the db (does streaming)\n## - call exposes all registered services (none by default)\n#########################################################################\n\ndef index():\n    """\n    example action using the internationalization operator T and flash\n    rendered by views/default/index.html or views/generic.html\n    """\n    import datetime\n    now=datetime.datetime.now()\n    nowS=now.strftime(\'%s\')\n    t0=\'\'\n    img1=\'\'\n    ip1=INPUT(_type=\'text\', _name=\'waveHeight\', _value=\'0.85\')\n    sub1=INPUT(_type=\'submit\',_name=\'subButton\')\n    f1=FORM(\'wave\',ip1,sub1,_name=\'Form1\',_action=\'\')\n    if f1.accepts(request.vars,session):\n        session.formVars=f1.vars\n        t0=AcesCall(f1.vars)\n        img1=IMG(_src=URL(\'static\',\'images/Waves.svg?\'+nowS))\n    return dict(form=f1,t0=t0,img1=img1)\n\ndef user():\n    """\n    exposes:\n    http://..../[app]/default/user/login\n    http://..../[app]/default/user/logout\n    http://..../[app]/default/user/register\n    http://..../[app]/default/user/profile\n    http://..../[app]/default/user/retrieve_password\n    http://..../[app]/default/user/change_password\n    use @auth.requires_login()\n        @auth.requires_membership(\'group name\')\n        @auth.requires_permission(\'read\',\'table name\',record_id)\n    to decorate functions that need access control\n    """\n    return dict(form=auth())\n\n\ndef download():\n    """\n    allows downloading of uploaded files\n    http://..../[app]/default/download/[filename]\n    """\n    return response.download(request,db)\n\n\ndef call():\n    """\n    exposes services. for example:\n    http://..../[app]/default/call/jsonrpc\n    decorate with @services.jsonrpc the functions to expose\n    supports xml, json, xmlrpc, jsonrpc, amfrpc, rss, csv\n    """\n    return service()\n\n\n@auth.requires_signature()\ndef data():\n    """\n    http://..../[app]/default/data/tables\n    http://..../[app]/default/data/create/[table]\n    http://..../[app]/default/data/read/[table]/[id]\n    http://..../[app]/default/data/update/[table]/[id]\n    http://..../[app]/default/data/delete/[table]/[id]\n    http://..../[app]/default/data/select/[table]\n    http://..../[app]/default/data/search/[table]\n    but URLs bust be signed, i.e. linked with\n      A(\'table\',_href=URL(\'data/tables\',user_signature=True))\n    or with the signed load operator\n      LOAD(\'default\',\'data.load\',args=\'tables\',ajax=True,user_signature=True)\n    """\n    return dict(form=crud())\n\nresponse._vars=response._caller(index)\n'
p6
sS'snapshot'
p7
(dp8
S'exception'
p9
(dp10
S'__getslice__'
p11
S"<method-wrapper '__getslice__' of exceptions.OSError object>"
p12
sS'__str__'
p13
S"<method-wrapper '__str__' of exceptions.OSError object>"
p14
sS'__reduce__'
p15
S'<built-in method __reduce__ of exceptions.OSError object>'
p16
sS'__dict__'
p17
S'{\'child_traceback\': \'Traceback (most recent call last):\\n  File "/home...st)\\nOSError: [Errno 2] No such file or directory\\n\'}'
p18
sS'__sizeof__'
p19
S'<built-in method __sizeof__ of exceptions.OSError object>'
p20
sS'__init__'
p21
S"<method-wrapper '__init__' of exceptions.OSError object>"
p22
sS'__setattr__'
p23
S"<method-wrapper '__setattr__' of exceptions.OSError object>"
p24
sS'__reduce_ex__'
p25
S'<built-in method __reduce_ex__ of exceptions.OSError object>'
p26
sS'__new__'
p27
S'<built-in method __new__ of type object>'
p28
sS'child_traceback'
p29
S'\'Traceback (most recent call last):\\n  File "/home...st)\\nOSError: [Errno 2] No such file or directory\\n\''
p30
sS'errno'
p31
S'2'
sS'__format__'
p32
S'<built-in method __format__ of exceptions.OSError object>'
p33
sS'__class__'
p34
S"<type 'exceptions.OSError'>"
p35
sS'filename'
p36
S'None'
p37
sS'__doc__'
p38
S"'OS system call failed.'"
p39
sS'__getitem__'
p40
S"<method-wrapper '__getitem__' of exceptions.OSError object>"
p41
sS'__setstate__'
p42
S'<built-in method __setstate__ of exceptions.OSError object>'
p43
sS'__getattribute__'
p44
S"<method-wrapper '__getattribute__' of exceptions.OSError object>"
p45
sS'args'
p46
S"(2, 'No such file or directory')"
p47
sS'__subclasshook__'
p48
S'<built-in method __subclasshook__ of type object>'
p49
sS'__unicode__'
p50
S'<built-in method __unicode__ of exceptions.OSError object>'
p51
sS'strerror'
p52
S"'No such file or directory'"
p53
sS'__delattr__'
p54
S"<method-wrapper '__delattr__' of exceptions.OSError object>"
p55
sS'__repr__'
p56
S"<method-wrapper '__repr__' of exceptions.OSError object>"
p57
sS'__hash__'
p58
S"<method-wrapper '__hash__' of exceptions.OSError object>"
p59
ssS'evalue'
p60
S'[Errno 2] No such file or directory'
p61
sS'request'
p62
ccopy_reg
_reconstructor
p63
(cgluon.html
BEAUTIFY
p64
c__builtin__
object
p65
NtRp66
(dp67
S'attributes'
p68
(dp69
sS'components'
p70
(lp71
g63
(cgluon.html
TABLE
p72
g65
NtRp73
(dp74
g68
(dp75
S'level'
p76
I5
ssS'parent'
p77
Nsg70
(lp78
g63
(cgluon.html
TR
p79
g65
NtRp80
(dp81
g68
(dp82
sg77
g73
sg70
(lp83
g63
(cgluon.html
TD
p84
g65
NtRp85
(dp86
g68
(dp87
S'_style'
p88
S'font-weight:bold;'
p89
ssg77
g80
sg70
(lp90
S'ajax'
p91
asbag63
(g84
g65
NtRp92
(dp93
g68
(dp94
S'_valign'
p95
S'top'
p96
ssg77
g80
sg70
(lp97
S':'
asbag63
(g84
g65
NtRp98
(dp99
g68
(dp100
sg77
g80
sg70
(lp101
g63
(g64
g65
NtRp102
(dp103
g68
(dp104
g76
I5
ssg77
g98
sg70
(lp105
S'False'
p106
asbasbasbag63
(g79
g65
NtRp107
(dp108
g68
(dp109
sg77
g73
sg70
(lp110
g63
(g84
g65
NtRp111
(dp112
g68
(dp113
g88
g89
ssg77
g107
sg70
(lp114
S'application'
p115
asbag63
(g84
g65
NtRp116
(dp117
g68
(dp118
g95
g96
ssg77
g107
sg70
(lp119
S':'
asbag63
(g84
g65
NtRp120
(dp121
g68
(dp122
sg77
g107
sg70
(lp123
g63
(g64
g65
NtRp124
(dp125
g68
(dp126
g76
I5
ssg77
g120
sg70
(lp127
S'ACES'
p128
asbasbasbag63
(g79
g65
NtRp129
(dp130
g68
(dp131
sg77
g73
sg70
(lp132
g63
(g84
g65
NtRp133
(dp134
g68
(dp135
g88
g89
ssg77
g129
sg70
(lp136
g46
asbag63
(g84
g65
NtRp137
(dp138
g68
(dp139
g95
g96
ssg77
g129
sg70
(lp140
S':'
asbag63
(g84
g65
NtRp141
(dp142
g68
(dp143
sg77
g129
sg70
(lp144
g63
(g64
g65
NtRp145
(dp146
g68
(dp147
g76
I5
ssg77
g141
sg70
(lp148
g63
(g72
g65
NtRp149
(dp150
g68
(dp151
g76
I4
ssg77
Nsg70
(lp152
sbasbasbasbag63
(g79
g65
NtRp153
(dp154
g68
(dp155
sg77
g73
sg70
(lp156
g63
(g84
g65
NtRp157
(dp158
g68
(dp159
g88
g89
ssg77
g153
sg70
(lp160
S'body'
p161
asbag63
(g84
g65
NtRp162
(dp163
g68
(dp164
g95
g96
ssg77
g153
sg70
(lp165
S':'
asbag63
(g84
g65
NtRp166
(dp167
g68
(dp168
sg77
g153
sg70
(lp169
g63
(g64
g65
NtRp170
(dp171
g68
(dp172
g76
I5
ssg77
g166
sg70
(lp173
S"<open file '<fdopen>', mode 'w+b' at 0xafffa70>"
p174
asbasbasbag63
(g79
g65
NtRp175
(dp176
g68
(dp177
sg77
g73
sg70
(lp178
g63
(g84
g65
NtRp179
(dp180
g68
(dp181
g88
g89
ssg77
g175
sg70
(lp182
S'client'
p183
asbag63
(g84
g65
NtRp184
(dp185
g68
(dp186
g95
g96
ssg77
g175
sg70
(lp187
S':'
asbag63
(g84
g65
NtRp188
(dp189
g68
(dp190
sg77
g175
sg70
(lp191
g63
(g64
g65
NtRp192
(dp193
g68
(dp194
g76
I5
ssg77
g188
sg70
(lp195
S'127.0.0.1'
p196
asbasbasbag63
(g79
g65
NtRp197
(dp198
g68
(dp199
sg77
g73
sg70
(lp200
g63
(g84
g65
NtRp201
(dp202
g68
(dp203
g88
g89
ssg77
g197
sg70
(lp204
S'controller'
p205
asbag63
(g84
g65
NtRp206
(dp207
g68
(dp208
g95
g96
ssg77
g197
sg70
(lp209
S':'
asbag63
(g84
g65
NtRp210
(dp211
g68
(dp212
sg77
g197
sg70
(lp213
g63
(g64
g65
NtRp214
(dp215
g68
(dp216
g76
I5
ssg77
g210
sg70
(lp217
S'default'
p218
asbasbasbag63
(g79
g65
NtRp219
(dp220
g68
(dp221
sg77
g73
sg70
(lp222
g63
(g84
g65
NtRp223
(dp224
g68
(dp225
g88
g89
ssg77
g219
sg70
(lp226
S'cookies'
p227
asbag63
(g84
g65
NtRp228
(dp229
g68
(dp230
g95
g96
ssg77
g219
sg70
(lp231
S':'
asbag63
(g84
g65
NtRp232
(dp233
g68
(dp234
sg77
g219
sg70
(lp235
g63
(g64
g65
NtRp236
(dp237
g68
(dp238
g76
I5
ssg77
g232
sg70
(lp239
g63
(g72
g65
NtRp240
(dp241
g68
(dp242
g76
I4
ssg77
Nsg70
(lp243
g63
(g79
g65
NtRp244
(dp245
g68
(dp246
sg77
g240
sg70
(lp247
g63
(g84
g65
NtRp248
(dp249
g68
(dp250
g88
g89
ssg77
g244
sg70
(lp251
S'session_id_aces'
p252
asbag63
(g84
g65
NtRp253
(dp254
g68
(dp255
g95
g96
ssg77
g244
sg70
(lp256
S':'
asbag63
(g84
g65
NtRp257
(dp258
g68
(dp259
sg77
g244
sg70
(lp260
g63
(g64
g65
NtRp261
(dp262
g68
(dp263
g76
I4
ssg77
g257
sg70
(lp264
g63
(g72
g65
NtRp265
(dp266
g68
(dp267
g76
I3
ssg77
Nsg70
(lp268
g63
(g79
g65
NtRp269
(dp270
g68
(dp271
sg77
g265
sg70
(lp272
g63
(g84
g65
NtRp273
(dp274
g68
(dp275
g88
g89
ssg77
g269
sg70
(lp276
S'comment'
p277
asbag63
(g84
g65
NtRp278
(dp279
g68
(dp280
g95
g96
ssg77
g269
sg70
(lp281
S':'
asbag63
(g84
g65
NtRp282
(dp283
g68
(dp284
sg77
g269
sg70
(lp285
g63
(g64
g65
NtRp286
(dp287
g68
(dp288
g76
I3
ssg77
g282
sg70
(lp289
S''
asbasbasbag63
(g79
g65
NtRp290
(dp291
g68
(dp292
sg77
g265
sg70
(lp293
g63
(g84
g65
NtRp294
(dp295
g68
(dp296
g88
g89
ssg77
g290
sg70
(lp297
S'domain'
p298
asbag63
(g84
g65
NtRp299
(dp300
g68
(dp301
g95
g96
ssg77
g290
sg70
(lp302
S':'
asbag63
(g84
g65
NtRp303
(dp304
g68
(dp305
sg77
g290
sg70
(lp306
g63
(g64
g65
NtRp307
(dp308
g68
(dp309
g76
I3
ssg77
g303
sg70
(lp310
S''
asbasbasbag63
(g79
g65
NtRp311
(dp312
g68
(dp313
sg77
g265
sg70
(lp314
g63
(g84
g65
NtRp315
(dp316
g68
(dp317
g88
g89
ssg77
g311
sg70
(lp318
S'expires'
p319
asbag63
(g84
g65
NtRp320
(dp321
g68
(dp322
g95
g96
ssg77
g311
sg70
(lp323
S':'
asbag63
(g84
g65
NtRp324
(dp325
g68
(dp326
sg77
g311
sg70
(lp327
g63
(g64
g65
NtRp328
(dp329
g68
(dp330
g76
I3
ssg77
g324
sg70
(lp331
S''
asbasbasbag63
(g79
g65
NtRp332
(dp333
g68
(dp334
sg77
g265
sg70
(lp335
g63
(g84
g65
NtRp336
(dp337
g68
(dp338
g88
g89
ssg77
g332
sg70
(lp339
S'httponly'
p340
asbag63
(g84
g65
NtRp341
(dp342
g68
(dp343
g95
g96
ssg77
g332
sg70
(lp344
S':'
asbag63
(g84
g65
NtRp345
(dp346
g68
(dp347
sg77
g332
sg70
(lp348
g63
(g64
g65
NtRp349
(dp350
g68
(dp351
g76
I3
ssg77
g345
sg70
(lp352
S''
asbasbasbag63
(g79
g65
NtRp353
(dp354
g68
(dp355
sg77
g265
sg70
(lp356
g63
(g84
g65
NtRp357
(dp358
g68
(dp359
g88
g89
ssg77
g353
sg70
(lp360
S'max-age'
p361
asbag63
(g84
g65
NtRp362
(dp363
g68
(dp364
g95
g96
ssg77
g353
sg70
(lp365
S':'
asbag63
(g84
g65
NtRp366
(dp367
g68
(dp368
sg77
g353
sg70
(lp369
g63
(g64
g65
NtRp370
(dp371
g68
(dp372
g76
I3
ssg77
g366
sg70
(lp373
S''
asbasbasbag63
(g79
g65
NtRp374
(dp375
g68
(dp376
sg77
g265
sg70
(lp377
g63
(g84
g65
NtRp378
(dp379
g68
(dp380
g88
g89
ssg77
g374
sg70
(lp381
S'path'
p382
asbag63
(g84
g65
NtRp383
(dp384
g68
(dp385
g95
g96
ssg77
g374
sg70
(lp386
S':'
asbag63
(g84
g65
NtRp387
(dp388
g68
(dp389
sg77
g374
sg70
(lp390
g63
(g64
g65
NtRp391
(dp392
g68
(dp393
g76
I3
ssg77
g387
sg70
(lp394
S''
asbasbasbag63
(g79
g65
NtRp395
(dp396
g68
(dp397
sg77
g265
sg70
(lp398
g63
(g84
g65
NtRp399
(dp400
g68
(dp401
g88
g89
ssg77
g395
sg70
(lp402
S'secure'
p403
asbag63
(g84
g65
NtRp404
(dp405
g68
(dp406
g95
g96
ssg77
g395
sg70
(lp407
S':'
asbag63
(g84
g65
NtRp408
(dp409
g68
(dp410
sg77
g395
sg70
(lp411
g63
(g64
g65
NtRp412
(dp413
g68
(dp414
g76
I3
ssg77
g408
sg70
(lp415
S''
asbasbasbag63
(g79
g65
NtRp416
(dp417
g68
(dp418
sg77
g265
sg70
(lp419
g63
(g84
g65
NtRp420
(dp421
g68
(dp422
g88
g89
ssg77
g416
sg70
(lp423
S'version'
p424
asbag63
(g84
g65
NtRp425
(dp426
g68
(dp427
g95
g96
ssg77
g416
sg70
(lp428
S':'
asbag63
(g84
g65
NtRp429
(dp430
g68
(dp431
sg77
g416
sg70
(lp432
g63
(g64
g65
NtRp433
(dp434
g68
(dp435
g76
I3
ssg77
g429
sg70
(lp436
S''
asbasbasbasbasbasbasbag63
(g79
g65
NtRp437
(dp438
g68
(dp439
sg77
g240
sg70
(lp440
g63
(g84
g65
NtRp441
(dp442
g68
(dp443
g88
g89
ssg77
g437
sg70
(lp444
S'session_id_admin'
p445
asbag63
(g84
g65
NtRp446
(dp447
g68
(dp448
g95
g96
ssg77
g437
sg70
(lp449
S':'
asbag63
(g84
g65
NtRp450
(dp451
g68
(dp452
sg77
g437
sg70
(lp453
g63
(g64
g65
NtRp454
(dp455
g68
(dp456
g76
I4
ssg77
g450
sg70
(lp457
g63
(g72
g65
NtRp458
(dp459
g68
(dp460
g76
I3
ssg77
Nsg70
(lp461
g63
(g79
g65
NtRp462
(dp463
g68
(dp464
sg77
g458
sg70
(lp465
g63
(g84
g65
NtRp466
(dp467
g68
(dp468
g88
g89
ssg77
g462
sg70
(lp469
g277
asbag63
(g84
g65
NtRp470
(dp471
g68
(dp472
g95
g96
ssg77
g462
sg70
(lp473
S':'
asbag63
(g84
g65
NtRp474
(dp475
g68
(dp476
sg77
g462
sg70
(lp477
g63
(g64
g65
NtRp478
(dp479
g68
(dp480
g76
I3
ssg77
g474
sg70
(lp481
S''
asbasbasbag63
(g79
g65
NtRp482
(dp483
g68
(dp484
sg77
g458
sg70
(lp485
g63
(g84
g65
NtRp486
(dp487
g68
(dp488
g88
g89
ssg77
g482
sg70
(lp489
g298
asbag63
(g84
g65
NtRp490
(dp491
g68
(dp492
g95
g96
ssg77
g482
sg70
(lp493
S':'
asbag63
(g84
g65
NtRp494
(dp495
g68
(dp496
sg77
g482
sg70
(lp497
g63
(g64
g65
NtRp498
(dp499
g68
(dp500
g76
I3
ssg77
g494
sg70
(lp501
S''
asbasbasbag63
(g79
g65
NtRp502
(dp503
g68
(dp504
sg77
g458
sg70
(lp505
g63
(g84
g65
NtRp506
(dp507
g68
(dp508
g88
g89
ssg77
g502
sg70
(lp509
g319
asbag63
(g84
g65
NtRp510
(dp511
g68
(dp512
g95
g96
ssg77
g502
sg70
(lp513
S':'
asbag63
(g84
g65
NtRp514
(dp515
g68
(dp516
sg77
g502
sg70
(lp517
g63
(g64
g65
NtRp518
(dp519
g68
(dp520
g76
I3
ssg77
g514
sg70
(lp521
S''
asbasbasbag63
(g79
g65
NtRp522
(dp523
g68
(dp524
sg77
g458
sg70
(lp525
g63
(g84
g65
NtRp526
(dp527
g68
(dp528
g88
g89
ssg77
g522
sg70
(lp529
g340
asbag63
(g84
g65
NtRp530
(dp531
g68
(dp532
g95
g96
ssg77
g522
sg70
(lp533
S':'
asbag63
(g84
g65
NtRp534
(dp535
g68
(dp536
sg77
g522
sg70
(lp537
g63
(g64
g65
NtRp538
(dp539
g68
(dp540
g76
I3
ssg77
g534
sg70
(lp541
S''
asbasbasbag63
(g79
g65
NtRp542
(dp543
g68
(dp544
sg77
g458
sg70
(lp545
g63
(g84
g65
NtRp546
(dp547
g68
(dp548
g88
g89
ssg77
g542
sg70
(lp549
g361
asbag63
(g84
g65
NtRp550
(dp551
g68
(dp552
g95
g96
ssg77
g542
sg70
(lp553
S':'
asbag63
(g84
g65
NtRp554
(dp555
g68
(dp556
sg77
g542
sg70
(lp557
g63
(g64
g65
NtRp558
(dp559
g68
(dp560
g76
I3
ssg77
g554
sg70
(lp561
S''
asbasbasbag63
(g79
g65
NtRp562
(dp563
g68
(dp564
sg77
g458
sg70
(lp565
g63
(g84
g65
NtRp566
(dp567
g68
(dp568
g88
g89
ssg77
g562
sg70
(lp569
g382
asbag63
(g84
g65
NtRp570
(dp571
g68
(dp572
g95
g96
ssg77
g562
sg70
(lp573
S':'
asbag63
(g84
g65
NtRp574
(dp575
g68
(dp576
sg77
g562
sg70
(lp577
g63
(g64
g65
NtRp578
(dp579
g68
(dp580
g76
I3
ssg77
g574
sg70
(lp581
S''
asbasbasbag63
(g79
g65
NtRp582
(dp583
g68
(dp584
sg77
g458
sg70
(lp585
g63
(g84
g65
NtRp586
(dp587
g68
(dp588
g88
g89
ssg77
g582
sg70
(lp589
g403
asbag63
(g84
g65
NtRp590
(dp591
g68
(dp592
g95
g96
ssg77
g582
sg70
(lp593
S':'
asbag63
(g84
g65
NtRp594
(dp595
g68
(dp596
sg77
g582
sg70
(lp597
g63
(g64
g65
NtRp598
(dp599
g68
(dp600
g76
I3
ssg77
g594
sg70
(lp601
S''
asbasbasbag63
(g79
g65
NtRp602
(dp603
g68
(dp604
sg77
g458
sg70
(lp605
g63
(g84
g65
NtRp606
(dp607
g68
(dp608
g88
g89
ssg77
g602
sg70
(lp609
g424
asbag63
(g84
g65
NtRp610
(dp611
g68
(dp612
g95
g96
ssg77
g602
sg70
(lp613
S':'
asbag63
(g84
g65
NtRp614
(dp615
g68
(dp616
sg77
g602
sg70
(lp617
g63
(g64
g65
NtRp618
(dp619
g68
(dp620
g76
I3
ssg77
g614
sg70
(lp621
S''
asbasbasbasbasbasbasbag63
(g79
g65
NtRp622
(dp623
g68
(dp624
sg77
g240
sg70
(lp625
g63
(g84
g65
NtRp626
(dp627
g68
(dp628
g88
g89
ssg77
g622
sg70
(lp629
S'session_id_dalex1'
p630
asbag63
(g84
g65
NtRp631
(dp632
g68
(dp633
g95
g96
ssg77
g622
sg70
(lp634
S':'
asbag63
(g84
g65
NtRp635
(dp636
g68
(dp637
sg77
g622
sg70
(lp638
g63
(g64
g65
NtRp639
(dp640
g68
(dp641
g76
I4
ssg77
g635
sg70
(lp642
g63
(g72
g65
NtRp643
(dp644
g68
(dp645
g76
I3
ssg77
Nsg70
(lp646
g63
(g79
g65
NtRp647
(dp648
g68
(dp649
sg77
g643
sg70
(lp650
g63
(g84
g65
NtRp651
(dp652
g68
(dp653
g88
g89
ssg77
g647
sg70
(lp654
g277
asbag63
(g84
g65
NtRp655
(dp656
g68
(dp657
g95
g96
ssg77
g647
sg70
(lp658
S':'
asbag63
(g84
g65
NtRp659
(dp660
g68
(dp661
sg77
g647
sg70
(lp662
g63
(g64
g65
NtRp663
(dp664
g68
(dp665
g76
I3
ssg77
g659
sg70
(lp666
S''
asbasbasbag63
(g79
g65
NtRp667
(dp668
g68
(dp669
sg77
g643
sg70
(lp670
g63
(g84
g65
NtRp671
(dp672
g68
(dp673
g88
g89
ssg77
g667
sg70
(lp674
g298
asbag63
(g84
g65
NtRp675
(dp676
g68
(dp677
g95
g96
ssg77
g667
sg70
(lp678
S':'
asbag63
(g84
g65
NtRp679
(dp680
g68
(dp681
sg77
g667
sg70
(lp682
g63
(g64
g65
NtRp683
(dp684
g68
(dp685
g76
I3
ssg77
g679
sg70
(lp686
S''
asbasbasbag63
(g79
g65
NtRp687
(dp688
g68
(dp689
sg77
g643
sg70
(lp690
g63
(g84
g65
NtRp691
(dp692
g68
(dp693
g88
g89
ssg77
g687
sg70
(lp694
g319
asbag63
(g84
g65
NtRp695
(dp696
g68
(dp697
g95
g96
ssg77
g687
sg70
(lp698
S':'
asbag63
(g84
g65
NtRp699
(dp700
g68
(dp701
sg77
g687
sg70
(lp702
g63
(g64
g65
NtRp703
(dp704
g68
(dp705
g76
I3
ssg77
g699
sg70
(lp706
S''
asbasbasbag63
(g79
g65
NtRp707
(dp708
g68
(dp709
sg77
g643
sg70
(lp710
g63
(g84
g65
NtRp711
(dp712
g68
(dp713
g88
g89
ssg77
g707
sg70
(lp714
g340
asbag63
(g84
g65
NtRp715
(dp716
g68
(dp717
g95
g96
ssg77
g707
sg70
(lp718
S':'
asbag63
(g84
g65
NtRp719
(dp720
g68
(dp721
sg77
g707
sg70
(lp722
g63
(g64
g65
NtRp723
(dp724
g68
(dp725
g76
I3
ssg77
g719
sg70
(lp726
S''
asbasbasbag63
(g79
g65
NtRp727
(dp728
g68
(dp729
sg77
g643
sg70
(lp730
g63
(g84
g65
NtRp731
(dp732
g68
(dp733
g88
g89
ssg77
g727
sg70
(lp734
g361
asbag63
(g84
g65
NtRp735
(dp736
g68
(dp737
g95
g96
ssg77
g727
sg70
(lp738
S':'
asbag63
(g84
g65
NtRp739
(dp740
g68
(dp741
sg77
g727
sg70
(lp742
g63
(g64
g65
NtRp743
(dp744
g68
(dp745
g76
I3
ssg77
g739
sg70
(lp746
S''
asbasbasbag63
(g79
g65
NtRp747
(dp748
g68
(dp749
sg77
g643
sg70
(lp750
g63
(g84
g65
NtRp751
(dp752
g68
(dp753
g88
g89
ssg77
g747
sg70
(lp754
g382
asbag63
(g84
g65
NtRp755
(dp756
g68
(dp757
g95
g96
ssg77
g747
sg70
(lp758
S':'
asbag63
(g84
g65
NtRp759
(dp760
g68
(dp761
sg77
g747
sg70
(lp762
g63
(g64
g65
NtRp763
(dp764
g68
(dp765
g76
I3
ssg77
g759
sg70
(lp766
S''
asbasbasbag63
(g79
g65
NtRp767
(dp768
g68
(dp769
sg77
g643
sg70
(lp770
g63
(g84
g65
NtRp771
(dp772
g68
(dp773
g88
g89
ssg77
g767
sg70
(lp774
g403
asbag63
(g84
g65
NtRp775
(dp776
g68
(dp777
g95
g96
ssg77
g767
sg70
(lp778
S':'
asbag63
(g84
g65
NtRp779
(dp780
g68
(dp781
sg77
g767
sg70
(lp782
g63
(g64
g65
NtRp783
(dp784
g68
(dp785
g76
I3
ssg77
g779
sg70
(lp786
S''
asbasbasbag63
(g79
g65
NtRp787
(dp788
g68
(dp789
sg77
g643
sg70
(lp790
g63
(g84
g65
NtRp791
(dp792
g68
(dp793
g88
g89
ssg77
g787
sg70
(lp794
g424
asbag63
(g84
g65
NtRp795
(dp796
g68
(dp797
g95
g96
ssg77
g787
sg70
(lp798
S':'
asbag63
(g84
g65
NtRp799
(dp800
g68
(dp801
sg77
g787
sg70
(lp802
g63
(g64
g65
NtRp803
(dp804
g68
(dp805
g76
I3
ssg77
g799
sg70
(lp806
S''
asbasbasbasbasbasbasbag63
(g79
g65
NtRp807
(dp808
g68
(dp809
sg77
g240
sg70
(lp810
g63
(g84
g65
NtRp811
(dp812
g68
(dp813
g88
g89
ssg77
g807
sg70
(lp814
S'session_id_payperiod'
p815
asbag63
(g84
g65
NtRp816
(dp817
g68
(dp818
g95
g96
ssg77
g807
sg70
(lp819
S':'
asbag63
(g84
g65
NtRp820
(dp821
g68
(dp822
sg77
g807
sg70
(lp823
g63
(g64
g65
NtRp824
(dp825
g68
(dp826
g76
I4
ssg77
g820
sg70
(lp827
g63
(g72
g65
NtRp828
(dp829
g68
(dp830
g76
I3
ssg77
Nsg70
(lp831
g63
(g79
g65
NtRp832
(dp833
g68
(dp834
sg77
g828
sg70
(lp835
g63
(g84
g65
NtRp836
(dp837
g68
(dp838
g88
g89
ssg77
g832
sg70
(lp839
g277
asbag63
(g84
g65
NtRp840
(dp841
g68
(dp842
g95
g96
ssg77
g832
sg70
(lp843
S':'
asbag63
(g84
g65
NtRp844
(dp845
g68
(dp846
sg77
g832
sg70
(lp847
g63
(g64
g65
NtRp848
(dp849
g68
(dp850
g76
I3
ssg77
g844
sg70
(lp851
S''
asbasbasbag63
(g79
g65
NtRp852
(dp853
g68
(dp854
sg77
g828
sg70
(lp855
g63
(g84
g65
NtRp856
(dp857
g68
(dp858
g88
g89
ssg77
g852
sg70
(lp859
g298
asbag63
(g84
g65
NtRp860
(dp861
g68
(dp862
g95
g96
ssg77
g852
sg70
(lp863
S':'
asbag63
(g84
g65
NtRp864
(dp865
g68
(dp866
sg77
g852
sg70
(lp867
g63
(g64
g65
NtRp868
(dp869
g68
(dp870
g76
I3
ssg77
g864
sg70
(lp871
S''
asbasbasbag63
(g79
g65
NtRp872
(dp873
g68
(dp874
sg77
g828
sg70
(lp875
g63
(g84
g65
NtRp876
(dp877
g68
(dp878
g88
g89
ssg77
g872
sg70
(lp879
g319
asbag63
(g84
g65
NtRp880
(dp881
g68
(dp882
g95
g96
ssg77
g872
sg70
(lp883
S':'
asbag63
(g84
g65
NtRp884
(dp885
g68
(dp886
sg77
g872
sg70
(lp887
g63
(g64
g65
NtRp888
(dp889
g68
(dp890
g76
I3
ssg77
g884
sg70
(lp891
S''
asbasbasbag63
(g79
g65
NtRp892
(dp893
g68
(dp894
sg77
g828
sg70
(lp895
g63
(g84
g65
NtRp896
(dp897
g68
(dp898
g88
g89
ssg77
g892
sg70
(lp899
g340
asbag63
(g84
g65
NtRp900
(dp901
g68
(dp902
g95
g96
ssg77
g892
sg70
(lp903
S':'
asbag63
(g84
g65
NtRp904
(dp905
g68
(dp906
sg77
g892
sg70
(lp907
g63
(g64
g65
NtRp908
(dp909
g68
(dp910
g76
I3
ssg77
g904
sg70
(lp911
S''
asbasbasbag63
(g79
g65
NtRp912
(dp913
g68
(dp914
sg77
g828
sg70
(lp915
g63
(g84
g65
NtRp916
(dp917
g68
(dp918
g88
g89
ssg77
g912
sg70
(lp919
g361
asbag63
(g84
g65
NtRp920
(dp921
g68
(dp922
g95
g96
ssg77
g912
sg70
(lp923
S':'
asbag63
(g84
g65
NtRp924
(dp925
g68
(dp926
sg77
g912
sg70
(lp927
g63
(g64
g65
NtRp928
(dp929
g68
(dp930
g76
I3
ssg77
g924
sg70
(lp931
S''
asbasbasbag63
(g79
g65
NtRp932
(dp933
g68
(dp934
sg77
g828
sg70
(lp935
g63
(g84
g65
NtRp936
(dp937
g68
(dp938
g88
g89
ssg77
g932
sg70
(lp939
g382
asbag63
(g84
g65
NtRp940
(dp941
g68
(dp942
g95
g96
ssg77
g932
sg70
(lp943
S':'
asbag63
(g84
g65
NtRp944
(dp945
g68
(dp946
sg77
g932
sg70
(lp947
g63
(g64
g65
NtRp948
(dp949
g68
(dp950
g76
I3
ssg77
g944
sg70
(lp951
S''
asbasbasbag63
(g79
g65
NtRp952
(dp953
g68
(dp954
sg77
g828
sg70
(lp955
g63
(g84
g65
NtRp956
(dp957
g68
(dp958
g88
g89
ssg77
g952
sg70
(lp959
g403
asbag63
(g84
g65
NtRp960
(dp961
g68
(dp962
g95
g96
ssg77
g952
sg70
(lp963
S':'
asbag63
(g84
g65
NtRp964
(dp965
g68
(dp966
sg77
g952
sg70
(lp967
g63
(g64
g65
NtRp968
(dp969
g68
(dp970
g76
I3
ssg77
g964
sg70
(lp971
S''
asbasbasbag63
(g79
g65
NtRp972
(dp973
g68
(dp974
sg77
g828
sg70
(lp975
g63
(g84
g65
NtRp976
(dp977
g68
(dp978
g88
g89
ssg77
g972
sg70
(lp979
g424
asbag63
(g84
g65
NtRp980
(dp981
g68
(dp982
g95
g96
ssg77
g972
sg70
(lp983
S':'
asbag63
(g84
g65
NtRp984
(dp985
g68
(dp986
sg77
g972
sg70
(lp987
g63
(g64
g65
NtRp988
(dp989
g68
(dp990
g76
I3
ssg77
g984
sg70
(lp991
S''
asbasbasbasbasbasbasbag63
(g79
g65
NtRp992
(dp993
g68
(dp994
sg77
g240
sg70
(lp995
g63
(g84
g65
NtRp996
(dp997
g68
(dp998
g88
g89
ssg77
g992
sg70
(lp999
S'session_id_welcome'
p1000
asbag63
(g84
g65
NtRp1001
(dp1002
g68
(dp1003
g95
g96
ssg77
g992
sg70
(lp1004
S':'
asbag63
(g84
g65
NtRp1005
(dp1006
g68
(dp1007
sg77
g992
sg70
(lp1008
g63
(g64
g65
NtRp1009
(dp1010
g68
(dp1011
g76
I4
ssg77
g1005
sg70
(lp1012
g63
(g72
g65
NtRp1013
(dp1014
g68
(dp1015
g76
I3
ssg77
Nsg70
(lp1016
g63
(g79
g65
NtRp1017
(dp1018
g68
(dp1019
sg77
g1013
sg70
(lp1020
g63
(g84
g65
NtRp1021
(dp1022
g68
(dp1023
g88
g89
ssg77
g1017
sg70
(lp1024
g277
asbag63
(g84
g65
NtRp1025
(dp1026
g68
(dp1027
g95
g96
ssg77
g1017
sg70
(lp1028
S':'
asbag63
(g84
g65
NtRp1029
(dp1030
g68
(dp1031
sg77
g1017
sg70
(lp1032
g63
(g64
g65
NtRp1033
(dp1034
g68
(dp1035
g76
I3
ssg77
g1029
sg70
(lp1036
S''
asbasbasbag63
(g79
g65
NtRp1037
(dp1038
g68
(dp1039
sg77
g1013
sg70
(lp1040
g63
(g84
g65
NtRp1041
(dp1042
g68
(dp1043
g88
g89
ssg77
g1037
sg70
(lp1044
g298
asbag63
(g84
g65
NtRp1045
(dp1046
g68
(dp1047
g95
g96
ssg77
g1037
sg70
(lp1048
S':'
asbag63
(g84
g65
NtRp1049
(dp1050
g68
(dp1051
sg77
g1037
sg70
(lp1052
g63
(g64
g65
NtRp1053
(dp1054
g68
(dp1055
g76
I3
ssg77
g1049
sg70
(lp1056
S''
asbasbasbag63
(g79
g65
NtRp1057
(dp1058
g68
(dp1059
sg77
g1013
sg70
(lp1060
g63
(g84
g65
NtRp1061
(dp1062
g68
(dp1063
g88
g89
ssg77
g1057
sg70
(lp1064
g319
asbag63
(g84
g65
NtRp1065
(dp1066
g68
(dp1067
g95
g96
ssg77
g1057
sg70
(lp1068
S':'
asbag63
(g84
g65
NtRp1069
(dp1070
g68
(dp1071
sg77
g1057
sg70
(lp1072
g63
(g64
g65
NtRp1073
(dp1074
g68
(dp1075
g76
I3
ssg77
g1069
sg70
(lp1076
S''
asbasbasbag63
(g79
g65
NtRp1077
(dp1078
g68
(dp1079
sg77
g1013
sg70
(lp1080
g63
(g84
g65
NtRp1081
(dp1082
g68
(dp1083
g88
g89
ssg77
g1077
sg70
(lp1084
g340
asbag63
(g84
g65
NtRp1085
(dp1086
g68
(dp1087
g95
g96
ssg77
g1077
sg70
(lp1088
S':'
asbag63
(g84
g65
NtRp1089
(dp1090
g68
(dp1091
sg77
g1077
sg70
(lp1092
g63
(g64
g65
NtRp1093
(dp1094
g68
(dp1095
g76
I3
ssg77
g1089
sg70
(lp1096
S''
asbasbasbag63
(g79
g65
NtRp1097
(dp1098
g68
(dp1099
sg77
g1013
sg70
(lp1100
g63
(g84
g65
NtRp1101
(dp1102
g68
(dp1103
g88
g89
ssg77
g1097
sg70
(lp1104
g361
asbag63
(g84
g65
NtRp1105
(dp1106
g68
(dp1107
g95
g96
ssg77
g1097
sg70
(lp1108
S':'
asbag63
(g84
g65
NtRp1109
(dp1110
g68
(dp1111
sg77
g1097
sg70
(lp1112
g63
(g64
g65
NtRp1113
(dp1114
g68
(dp1115
g76
I3
ssg77
g1109
sg70
(lp1116
S''
asbasbasbag63
(g79
g65
NtRp1117
(dp1118
g68
(dp1119
sg77
g1013
sg70
(lp1120
g63
(g84
g65
NtRp1121
(dp1122
g68
(dp1123
g88
g89
ssg77
g1117
sg70
(lp1124
g382
asbag63
(g84
g65
NtRp1125
(dp1126
g68
(dp1127
g95
g96
ssg77
g1117
sg70
(lp1128
S':'
asbag63
(g84
g65
NtRp1129
(dp1130
g68
(dp1131
sg77
g1117
sg70
(lp1132
g63
(g64
g65
NtRp1133
(dp1134
g68
(dp1135
g76
I3
ssg77
g1129
sg70
(lp1136
S''
asbasbasbag63
(g79
g65
NtRp1137
(dp1138
g68
(dp1139
sg77
g1013
sg70
(lp1140
g63
(g84
g65
NtRp1141
(dp1142
g68
(dp1143
g88
g89
ssg77
g1137
sg70
(lp1144
g403
asbag63
(g84
g65
NtRp1145
(dp1146
g68
(dp1147
g95
g96
ssg77
g1137
sg70
(lp1148
S':'
asbag63
(g84
g65
NtRp1149
(dp1150
g68
(dp1151
sg77
g1137
sg70
(lp1152
g63
(g64
g65
NtRp1153
(dp1154
g68
(dp1155
g76
I3
ssg77
g1149
sg70
(lp1156
S''
asbasbasbag63
(g79
g65
NtRp1157
(dp1158
g68
(dp1159
sg77
g1013
sg70
(lp1160
g63
(g84
g65
NtRp1161
(dp1162
g68
(dp1163
g88
g89
ssg77
g1157
sg70
(lp1164
g424
asbag63
(g84
g65
NtRp1165
(dp1166
g68
(dp1167
g95
g96
ssg77
g1157
sg70
(lp1168
S':'
asbag63
(g84
g65
NtRp1169
(dp1170
g68
(dp1171
sg77
g1157
sg70
(lp1172
g63
(g64
g65
NtRp1173
(dp1174
g68
(dp1175
g76
I3
ssg77
g1169
sg70
(lp1176
S''
asbasbasbasbasbasbasbasbasbasbasbag63
(g79
g65
NtRp1177
(dp1178
g68
(dp1179
sg77
g73
sg70
(lp1180
g63
(g84
g65
NtRp1181
(dp1182
g68
(dp1183
g88
g89
ssg77
g1177
sg70
(lp1184
S'env'
p1185
asbag63
(g84
g65
NtRp1186
(dp1187
g68
(dp1188
g95
g96
ssg77
g1177
sg70
(lp1189
S':'
asbag63
(g84
g65
NtRp1190
(dp1191
g68
(dp1192
sg77
g1177
sg70
(lp1193
g63
(g64
g65
NtRp1194
(dp1195
g68
(dp1196
g76
I5
ssg77
g1190
sg70
(lp1197
g63
(g72
g65
NtRp1198
(dp1199
g68
(dp1200
g76
I4
ssg77
Nsg70
(lp1201
g63
(g79
g65
NtRp1202
(dp1203
g68
(dp1204
sg77
g1198
sg70
(lp1205
g63
(g84
g65
NtRp1206
(dp1207
g68
(dp1208
g88
g89
ssg77
g1202
sg70
(lp1209
S'app_folders'
p1210
asbag63
(g84
g65
NtRp1211
(dp1212
g68
(dp1213
g95
g96
ssg77
g1202
sg70
(lp1214
S':'
asbag63
(g84
g65
NtRp1215
(dp1216
g68
(dp1217
sg77
g1202
sg70
(lp1218
g63
(g64
g65
NtRp1219
(dp1220
g68
(dp1221
g76
I4
ssg77
g1215
sg70
(lp1222
S"set(['/home/u4hcsdaw/Python/web2py/applications/ACES/', '/home/u4hcsdaw/Python/web2py/applications/PayPeriod/', '/home/u4hcsdaw/Python/web2py/applications/admin/', '/home/u4hcsdaw/Python/web2py/applications/welcome/', '/home/u4hcsdaw/Python/web2py/applications/DALEX1/'])"
p1223
asbasbasbag63
(g79
g65
NtRp1224
(dp1225
g68
(dp1226
sg77
g1198
sg70
(lp1227
g63
(g84
g65
NtRp1228
(dp1229
g68
(dp1230
g88
g89
ssg77
g1224
sg70
(lp1231
S'applications_parent'
p1232
asbag63
(g84
g65
NtRp1233
(dp1234
g68
(dp1235
g95
g96
ssg77
g1224
sg70
(lp1236
S':'
asbag63
(g84
g65
NtRp1237
(dp1238
g68
(dp1239
sg77
g1224
sg70
(lp1240
g63
(g64
g65
NtRp1241
(dp1242
g68
(dp1243
g76
I4
ssg77
g1237
sg70
(lp1244
S'/home/u4hcsdaw/Python/web2py'
p1245
asbasbasbag63
(g79
g65
NtRp1246
(dp1247
g68
(dp1248
sg77
g1198
sg70
(lp1249
g63
(g84
g65
NtRp1250
(dp1251
g68
(dp1252
g88
g89
ssg77
g1246
sg70
(lp1253
S'cmd_args'
p1254
asbag63
(g84
g65
NtRp1255
(dp1256
g68
(dp1257
g95
g96
ssg77
g1246
sg70
(lp1258
S':'
asbag63
(g84
g65
NtRp1259
(dp1260
g68
(dp1261
sg77
g1246
sg70
(lp1262
g63
(g64
g65
NtRp1263
(dp1264
g68
(dp1265
g76
I4
ssg77
g1259
sg70
(lp1266
g63
(g72
g65
NtRp1267
(dp1268
g68
(dp1269
g76
I3
ssg77
Nsg70
(lp1270
sbasbasbasbag63
(g79
g65
NtRp1271
(dp1272
g68
(dp1273
sg77
g1198
sg70
(lp1274
g63
(g84
g65
NtRp1275
(dp1276
g68
(dp1277
g88
g89
ssg77
g1271
sg70
(lp1278
S'cmd_options'
p1279
asbag63
(g84
g65
NtRp1280
(dp1281
g68
(dp1282
g95
g96
ssg77
g1271
sg70
(lp1283
S':'
asbag63
(g84
g65
NtRp1284
(dp1285
g68
(dp1286
sg77
g1271
sg70
(lp1287
g63
(g64
g65
NtRp1288
(dp1289
g68
(dp1290
g76
I4
ssg77
g1284
sg70
(lp1291
S"<Values at 0xa59ca2c: {'verbose': False, 'ip': '127.0.0.1', 'shutdown_timeout': 5, 'taskbar': False, 'nocron': False, 'pid_filename': 'httpserver.pid', 'maxthreads': None, 'softcron': False, 'server_name': 'CHL-5833E', 'bpython': False, 'nogui': False, 'port': 8000, 'extcron': False, 'debuglevel': 30, 'test': None, 'folder': '/home/u4hcsdaw/Python/web2py', 'config': '', 'import_models': False, 'winservice': '', 'shell': None, 'run': '', 'log_filename': 'httpserver.log', 'args': [''], 'ssl_ca_certificate': None, 'scheduler': None, 'profiler_filename': None, 'ssl_private_key': '', 'password': '<ask>', 'request_queue_size': 5, 'ssl_certificate': '', 'cronjob': False, 'plain': False, 'quiet': False, 'interfaces': None, 'minthreads': None, 'timeout': 10, 'numthreads': None, 'nobanner': False}>"
p1292
asbasbasbag63
(g79
g65
NtRp1293
(dp1294
g68
(dp1295
sg77
g1198
sg70
(lp1296
g63
(g84
g65
NtRp1297
(dp1298
g68
(dp1299
g88
g89
ssg77
g1293
sg70
(lp1300
S'content_length'
p1301
asbag63
(g84
g65
NtRp1302
(dp1303
g68
(dp1304
g95
g96
ssg77
g1293
sg70
(lp1305
S':'
asbag63
(g84
g65
NtRp1306
(dp1307
g68
(dp1308
sg77
g1293
sg70
(lp1309
g63
(g64
g65
NtRp1310
(dp1311
g68
(dp1312
g76
I4
ssg77
g1306
sg70
(lp1313
S'582'
p1314
asbasbasbag63
(g79
g65
NtRp1315
(dp1316
g68
(dp1317
sg77
g1198
sg70
(lp1318
g63
(g84
g65
NtRp1319
(dp1320
g68
(dp1321
g88
g89
ssg77
g1315
sg70
(lp1322
S'content_type'
p1323
asbag63
(g84
g65
NtRp1324
(dp1325
g68
(dp1326
g95
g96
ssg77
g1315
sg70
(lp1327
S':'
asbag63
(g84
g65
NtRp1328
(dp1329
g68
(dp1330
sg77
g1315
sg70
(lp1331
g63
(g64
g65
NtRp1332
(dp1333
g68
(dp1334
g76
I4
ssg77
g1328
sg70
(lp1335
S'multipart/form-data; boundary=---------------------------104688414115278758031525041185'
p1336
asbasbasbag63
(g79
g65
NtRp1337
(dp1338
g68
(dp1339
sg77
g1198
sg70
(lp1340
g63
(g84
g65
NtRp1341
(dp1342
g68
(dp1343
g88
g89
ssg77
g1337
sg70
(lp1344
S'db_sessions'
p1345
asbag63
(g84
g65
NtRp1346
(dp1347
g68
(dp1348
g95
g96
ssg77
g1337
sg70
(lp1349
S':'
asbag63
(g84
g65
NtRp1350
(dp1351
g68
(dp1352
sg77
g1337
sg70
(lp1353
g63
(g64
g65
NtRp1354
(dp1355
g68
(dp1356
g76
I4
ssg77
g1350
sg70
(lp1357
S'set([])'
p1358
asbasbasbag63
(g79
g65
NtRp1359
(dp1360
g68
(dp1361
sg77
g1198
sg70
(lp1362
g63
(g84
g65
NtRp1363
(dp1364
g68
(dp1365
g88
g89
ssg77
g1359
sg70
(lp1366
S'debugging'
p1367
asbag63
(g84
g65
NtRp1368
(dp1369
g68
(dp1370
g95
g96
ssg77
g1359
sg70
(lp1371
S':'
asbag63
(g84
g65
NtRp1372
(dp1373
g68
(dp1374
sg77
g1359
sg70
(lp1375
g63
(g64
g65
NtRp1376
(dp1377
g68
(dp1378
g76
I4
ssg77
g1372
sg70
(lp1379
g106
asbasbasbag63
(g79
g65
NtRp1380
(dp1381
g68
(dp1382
sg77
g1198
sg70
(lp1383
g63
(g84
g65
NtRp1384
(dp1385
g68
(dp1386
g88
g89
ssg77
g1380
sg70
(lp1387
S'gluon_parent'
p1388
asbag63
(g84
g65
NtRp1389
(dp1390
g68
(dp1391
g95
g96
ssg77
g1380
sg70
(lp1392
S':'
asbag63
(g84
g65
NtRp1393
(dp1394
g68
(dp1395
sg77
g1380
sg70
(lp1396
g63
(g64
g65
NtRp1397
(dp1398
g68
(dp1399
g76
I4
ssg77
g1393
sg70
(lp1400
S'/home/u4hcsdaw/Python/web2py'
p1401
asbasbasbag63
(g79
g65
NtRp1402
(dp1403
g68
(dp1404
sg77
g1198
sg70
(lp1405
g63
(g84
g65
NtRp1406
(dp1407
g68
(dp1408
g88
g89
ssg77
g1402
sg70
(lp1409
S'http_accept'
p1410
asbag63
(g84
g65
NtRp1411
(dp1412
g68
(dp1413
g95
g96
ssg77
g1402
sg70
(lp1414
S':'
asbag63
(g84
g65
NtRp1415
(dp1416
g68
(dp1417
sg77
g1402
sg70
(lp1418
g63
(g64
g65
NtRp1419
(dp1420
g68
(dp1421
g76
I4
ssg77
g1415
sg70
(lp1422
S'text/html,application/xhtml+xml,application/xml;q=0.9,*/*;q=0.8'
p1423
asbasbasbag63
(g79
g65
NtRp1424
(dp1425
g68
(dp1426
sg77
g1198
sg70
(lp1427
g63
(g84
g65
NtRp1428
(dp1429
g68
(dp1430
g88
g89
ssg77
g1424
sg70
(lp1431
S'http_accept_encoding'
p1432
asbag63
(g84
g65
NtRp1433
(dp1434
g68
(dp1435
g95
g96
ssg77
g1424
sg70
(lp1436
S':'
asbag63
(g84
g65
NtRp1437
(dp1438
g68
(dp1439
sg77
g1424
sg70
(lp1440
g63
(g64
g65
NtRp1441
(dp1442
g68
(dp1443
g76
I4
ssg77
g1437
sg70
(lp1444
S'gzip, deflate'
p1445
asbasbasbag63
(g79
g65
NtRp1446
(dp1447
g68
(dp1448
sg77
g1198
sg70
(lp1449
g63
(g84
g65
NtRp1450
(dp1451
g68
(dp1452
g88
g89
ssg77
g1446
sg70
(lp1453
S'http_accept_language'
p1454
asbag63
(g84
g65
NtRp1455
(dp1456
g68
(dp1457
g95
g96
ssg77
g1446
sg70
(lp1458
S':'
asbag63
(g84
g65
NtRp1459
(dp1460
g68
(dp1461
sg77
g1446
sg70
(lp1462
g63
(g64
g65
NtRp1463
(dp1464
g68
(dp1465
g76
I4
ssg77
g1459
sg70
(lp1466
S'en-us,en;q=0.5'
p1467
asbasbasbag63
(g79
g65
NtRp1468
(dp1469
g68
(dp1470
sg77
g1198
sg70
(lp1471
g63
(g84
g65
NtRp1472
(dp1473
g68
(dp1474
g88
g89
ssg77
g1468
sg70
(lp1475
S'http_connection'
p1476
asbag63
(g84
g65
NtRp1477
(dp1478
g68
(dp1479
g95
g96
ssg77
g1468
sg70
(lp1480
S':'
asbag63
(g84
g65
NtRp1481
(dp1482
g68
(dp1483
sg77
g1468
sg70
(lp1484
g63
(g64
g65
NtRp1485
(dp1486
g68
(dp1487
g76
I4
ssg77
g1481
sg70
(lp1488
S'keep-alive'
p1489
asbasbasbag63
(g79
g65
NtRp1490
(dp1491
g68
(dp1492
sg77
g1198
sg70
(lp1493
g63
(g84
g65
NtRp1494
(dp1495
g68
(dp1496
g88
g89
ssg77
g1490
sg70
(lp1497
S'http_content_length'
p1498
asbag63
(g84
g65
NtRp1499
(dp1500
g68
(dp1501
g95
g96
ssg77
g1490
sg70
(lp1502
S':'
asbag63
(g84
g65
NtRp1503
(dp1504
g68
(dp1505
sg77
g1490
sg70
(lp1506
g63
(g64
g65
NtRp1507
(dp1508
g68
(dp1509
g76
I4
ssg77
g1503
sg70
(lp1510
g1314
asbasbasbag63
(g79
g65
NtRp1511
(dp1512
g68
(dp1513
sg77
g1198
sg70
(lp1514
g63
(g84
g65
NtRp1515
(dp1516
g68
(dp1517
g88
g89
ssg77
g1511
sg70
(lp1518
S'http_content_type'
p1519
asbag63
(g84
g65
NtRp1520
(dp1521
g68
(dp1522
g95
g96
ssg77
g1511
sg70
(lp1523
S':'
asbag63
(g84
g65
NtRp1524
(dp1525
g68
(dp1526
sg77
g1511
sg70
(lp1527
g63
(g64
g65
NtRp1528
(dp1529
g68
(dp1530
g76
I4
ssg77
g1524
sg70
(lp1531
g1336
asbasbasbag63
(g79
g65
NtRp1532
(dp1533
g68
(dp1534
sg77
g1198
sg70
(lp1535
g63
(g84
g65
NtRp1536
(dp1537
g68
(dp1538
g88
g89
ssg77
g1532
sg70
(lp1539
S'http_cookie'
p1540
asbag63
(g84
g65
NtRp1541
(dp1542
g68
(dp1543
g95
g96
ssg77
g1532
sg70
(lp1544
S':'
asbag63
(g84
g65
NtRp1545
(dp1546
g68
(dp1547
sg77
g1532
sg70
(lp1548
g63
(g64
g65
NtRp1549
(dp1550
g68
(dp1551
g76
I4
ssg77
g1545
sg70
(lp1552
S'session_id_welcome=127.0.0.1-12b98747-1fd8-478d-9049-d46630d93557; session_id_dalex1=127.0.0.1-7e0fdc70-88f0-470f-b29d-66b8055bd8b0; session_id_admin=127.0.0.1-b6612ac5-4ad8-4c3c-a00a-ff553923cd64; session_id_aces=127.0.0.1-41cac65c-3668-453b-9ecc-c26f12d379cc; session_id_payperiod=127.0.0.1-9708cb9c-54bb-4c0f-8cf3-5e7899aff001'
p1553
asbasbasbag63
(g79
g65
NtRp1554
(dp1555
g68
(dp1556
sg77
g1198
sg70
(lp1557
g63
(g84
g65
NtRp1558
(dp1559
g68
(dp1560
g88
g89
ssg77
g1554
sg70
(lp1561
S'http_host'
p1562
asbag63
(g84
g65
NtRp1563
(dp1564
g68
(dp1565
g95
g96
ssg77
g1554
sg70
(lp1566
S':'
asbag63
(g84
g65
NtRp1567
(dp1568
g68
(dp1569
sg77
g1554
sg70
(lp1570
g63
(g64
g65
NtRp1571
(dp1572
g68
(dp1573
g76
I4
ssg77
g1567
sg70
(lp1574
S'127.0.0.1:8000'
p1575
asbasbasbag63
(g79
g65
NtRp1576
(dp1577
g68
(dp1578
sg77
g1198
sg70
(lp1579
g63
(g84
g65
NtRp1580
(dp1581
g68
(dp1582
g88
g89
ssg77
g1576
sg70
(lp1583
S'http_referer'
p1584
asbag63
(g84
g65
NtRp1585
(dp1586
g68
(dp1587
g95
g96
ssg77
g1576
sg70
(lp1588
S':'
asbag63
(g84
g65
NtRp1589
(dp1590
g68
(dp1591
sg77
g1576
sg70
(lp1592
g63
(g64
g65
NtRp1593
(dp1594
g68
(dp1595
g76
I4
ssg77
g1589
sg70
(lp1596
S'http://127.0.0.1:8000/ACES/default/index'
p1597
asbasbasbag63
(g79
g65
NtRp1598
(dp1599
g68
(dp1600
sg77
g1198
sg70
(lp1601
g63
(g84
g65
NtRp1602
(dp1603
g68
(dp1604
g88
g89
ssg77
g1598
sg70
(lp1605
S'http_user_agent'
p1606
asbag63
(g84
g65
NtRp1607
(dp1608
g68
(dp1609
g95
g96
ssg77
g1598
sg70
(lp1610
S':'
asbag63
(g84
g65
NtRp1611
(dp1612
g68
(dp1613
sg77
g1598
sg70
(lp1614
g63
(g64
g65
NtRp1615
(dp1616
g68
(dp1617
g76
I4
ssg77
g1611
sg70
(lp1618
S'Mozilla/5.0 (X11; Ubuntu; Linux i686; rv:11.0) Gecko/20100101 Firefox/11.0'
p1619
asbasbasbag63
(g79
g65
NtRp1620
(dp1621
g68
(dp1622
sg77
g1198
sg70
(lp1623
g63
(g84
g65
NtRp1624
(dp1625
g68
(dp1626
g88
g89
ssg77
g1620
sg70
(lp1627
S'is_jython'
p1628
asbag63
(g84
g65
NtRp1629
(dp1630
g68
(dp1631
g95
g96
ssg77
g1620
sg70
(lp1632
S':'
asbag63
(g84
g65
NtRp1633
(dp1634
g68
(dp1635
sg77
g1620
sg70
(lp1636
g63
(g64
g65
NtRp1637
(dp1638
g68
(dp1639
g76
I4
ssg77
g1633
sg70
(lp1640
g106
asbasbasbag63
(g79
g65
NtRp1641
(dp1642
g68
(dp1643
sg77
g1198
sg70
(lp1644
g63
(g84
g65
NtRp1645
(dp1646
g68
(dp1647
g88
g89
ssg77
g1641
sg70
(lp1648
S'path_info'
p1649
asbag63
(g84
g65
NtRp1650
(dp1651
g68
(dp1652
g95
g96
ssg77
g1641
sg70
(lp1653
S':'
asbag63
(g84
g65
NtRp1654
(dp1655
g68
(dp1656
sg77
g1641
sg70
(lp1657
g63
(g64
g65
NtRp1658
(dp1659
g68
(dp1660
g76
I4
ssg77
g1654
sg70
(lp1661
S'/ACES/default/index'
p1662
asbasbasbag63
(g79
g65
NtRp1663
(dp1664
g68
(dp1665
sg77
g1198
sg70
(lp1666
g63
(g84
g65
NtRp1667
(dp1668
g68
(dp1669
g88
g89
ssg77
g1663
sg70
(lp1670
S'query_string'
p1671
asbag63
(g84
g65
NtRp1672
(dp1673
g68
(dp1674
g95
g96
ssg77
g1663
sg70
(lp1675
S':'
asbag63
(g84
g65
NtRp1676
(dp1677
g68
(dp1678
sg77
g1663
sg70
(lp1679
g63
(g64
g65
NtRp1680
(dp1681
g68
(dp1682
g76
I4
ssg77
g1676
sg70
(lp1683
S''
asbasbasbag63
(g79
g65
NtRp1684
(dp1685
g68
(dp1686
sg77
g1198
sg70
(lp1687
g63
(g84
g65
NtRp1688
(dp1689
g68
(dp1690
g88
g89
ssg77
g1684
sg70
(lp1691
S'remote_addr'
p1692
asbag63
(g84
g65
NtRp1693
(dp1694
g68
(dp1695
g95
g96
ssg77
g1684
sg70
(lp1696
S':'
asbag63
(g84
g65
NtRp1697
(dp1698
g68
(dp1699
sg77
g1684
sg70
(lp1700
g63
(g64
g65
NtRp1701
(dp1702
g68
(dp1703
g76
I4
ssg77
g1697
sg70
(lp1704
g196
asbasbasbag63
(g79
g65
NtRp1705
(dp1706
g68
(dp1707
sg77
g1198
sg70
(lp1708
g63
(g84
g65
NtRp1709
(dp1710
g68
(dp1711
g88
g89
ssg77
g1705
sg70
(lp1712
S'remote_port'
p1713
asbag63
(g84
g65
NtRp1714
(dp1715
g68
(dp1716
g95
g96
ssg77
g1705
sg70
(lp1717
S':'
asbag63
(g84
g65
NtRp1718
(dp1719
g68
(dp1720
sg77
g1705
sg70
(lp1721
g63
(g64
g65
NtRp1722
(dp1723
g68
(dp1724
g76
I4
ssg77
g1718
sg70
(lp1725
S'58298'
p1726
asbasbasbag63
(g79
g65
NtRp1727
(dp1728
g68
(dp1729
sg77
g1198
sg70
(lp1730
g63
(g84
g65
NtRp1731
(dp1732
g68
(dp1733
g88
g89
ssg77
g1727
sg70
(lp1734
S'request_method'
p1735
asbag63
(g84
g65
NtRp1736
(dp1737
g68
(dp1738
g95
g96
ssg77
g1727
sg70
(lp1739
S':'
asbag63
(g84
g65
NtRp1740
(dp1741
g68
(dp1742
sg77
g1727
sg70
(lp1743
g63
(g64
g65
NtRp1744
(dp1745
g68
(dp1746
g76
I4
ssg77
g1740
sg70
(lp1747
S'POST'
p1748
asbasbasbag63
(g79
g65
NtRp1749
(dp1750
g68
(dp1751
sg77
g1198
sg70
(lp1752
g63
(g84
g65
NtRp1753
(dp1754
g68
(dp1755
g88
g89
ssg77
g1749
sg70
(lp1756
S'script_name'
p1757
asbag63
(g84
g65
NtRp1758
(dp1759
g68
(dp1760
g95
g96
ssg77
g1749
sg70
(lp1761
S':'
asbag63
(g84
g65
NtRp1762
(dp1763
g68
(dp1764
sg77
g1749
sg70
(lp1765
g63
(g64
g65
NtRp1766
(dp1767
g68
(dp1768
g76
I4
ssg77
g1762
sg70
(lp1769
S''
asbasbasbag63
(g79
g65
NtRp1770
(dp1771
g68
(dp1772
sg77
g1198
sg70
(lp1773
g63
(g84
g65
NtRp1774
(dp1775
g68
(dp1776
g88
g89
ssg77
g1770
sg70
(lp1777
S'server_name'
p1778
asbag63
(g84
g65
NtRp1779
(dp1780
g68
(dp1781
g95
g96
ssg77
g1770
sg70
(lp1782
S':'
asbag63
(g84
g65
NtRp1783
(dp1784
g68
(dp1785
sg77
g1770
sg70
(lp1786
g63
(g64
g65
NtRp1787
(dp1788
g68
(dp1789
g76
I4
ssg77
g1783
sg70
(lp1790
S'CHL-5833E'
p1791
asbasbasbag63
(g79
g65
NtRp1792
(dp1793
g68
(dp1794
sg77
g1198
sg70
(lp1795
g63
(g84
g65
NtRp1796
(dp1797
g68
(dp1798
g88
g89
ssg77
g1792
sg70
(lp1799
S'server_port'
p1800
asbag63
(g84
g65
NtRp1801
(dp1802
g68
(dp1803
g95
g96
ssg77
g1792
sg70
(lp1804
S':'
asbag63
(g84
g65
NtRp1805
(dp1806
g68
(dp1807
sg77
g1792
sg70
(lp1808
g63
(g64
g65
NtRp1809
(dp1810
g68
(dp1811
g76
I4
ssg77
g1805
sg70
(lp1812
S'8000'
p1813
asbasbasbag63
(g79
g65
NtRp1814
(dp1815
g68
(dp1816
sg77
g1198
sg70
(lp1817
g63
(g84
g65
NtRp1818
(dp1819
g68
(dp1820
g88
g89
ssg77
g1814
sg70
(lp1821
S'server_protocol'
p1822
asbag63
(g84
g65
NtRp1823
(dp1824
g68
(dp1825
g95
g96
ssg77
g1814
sg70
(lp1826
S':'
asbag63
(g84
g65
NtRp1827
(dp1828
g68
(dp1829
sg77
g1814
sg70
(lp1830
g63
(g64
g65
NtRp1831
(dp1832
g68
(dp1833
g76
I4
ssg77
g1827
sg70
(lp1834
S'HTTP/1.1'
p1835
asbasbasbag63
(g79
g65
NtRp1836
(dp1837
g68
(dp1838
sg77
g1198
sg70
(lp1839
g63
(g84
g65
NtRp1840
(dp1841
g68
(dp1842
g88
g89
ssg77
g1836
sg70
(lp1843
S'server_software'
p1844
asbag63
(g84
g65
NtRp1845
(dp1846
g68
(dp1847
g95
g96
ssg77
g1836
sg70
(lp1848
S':'
asbag63
(g84
g65
NtRp1849
(dp1850
g68
(dp1851
sg77
g1836
sg70
(lp1852
g63
(g64
g65
NtRp1853
(dp1854
g68
(dp1855
g76
I4
ssg77
g1849
sg70
(lp1856
S'Rocket 1.2.4'
p1857
asbasbasbag63
(g79
g65
NtRp1858
(dp1859
g68
(dp1860
sg77
g1198
sg70
(lp1861
g63
(g84
g65
NtRp1862
(dp1863
g68
(dp1864
g88
g89
ssg77
g1858
sg70
(lp1865
S'web2py_crontype'
p1866
asbag63
(g84
g65
NtRp1867
(dp1868
g68
(dp1869
g95
g96
ssg77
g1858
sg70
(lp1870
S':'
asbag63
(g84
g65
NtRp1871
(dp1872
g68
(dp1873
sg77
g1858
sg70
(lp1874
g63
(g64
g65
NtRp1875
(dp1876
g68
(dp1877
g76
I4
ssg77
g1871
sg70
(lp1878
S'hard'
p1879
asbasbasbag63
(g79
g65
NtRp1880
(dp1881
g68
(dp1882
sg77
g1198
sg70
(lp1883
g63
(g84
g65
NtRp1884
(dp1885
g68
(dp1886
g88
g89
ssg77
g1880
sg70
(lp1887
S'web2py_path'
p1888
asbag63
(g84
g65
NtRp1889
(dp1890
g68
(dp1891
g95
g96
ssg77
g1880
sg70
(lp1892
S':'
asbag63
(g84
g65
NtRp1893
(dp1894
g68
(dp1895
sg77
g1880
sg70
(lp1896
g63
(g64
g65
NtRp1897
(dp1898
g68
(dp1899
g76
I4
ssg77
g1893
sg70
(lp1900
g1245
asbasbasbag63
(g79
g65
NtRp1901
(dp1902
g68
(dp1903
sg77
g1198
sg70
(lp1904
g63
(g84
g65
NtRp1905
(dp1906
g68
(dp1907
g88
g89
ssg77
g1901
sg70
(lp1908
S'web2py_version'
p1909
asbag63
(g84
g65
NtRp1910
(dp1911
g68
(dp1912
g95
g96
ssg77
g1901
sg70
(lp1913
S':'
asbag63
(g84
g65
NtRp1914
(dp1915
g68
(dp1916
sg77
g1901
sg70
(lp1917
g63
(g64
g65
NtRp1918
(dp1919
g68
(dp1920
g76
I4
ssg77
g1914
sg70
(lp1921
g63
(g72
g65
NtRp1922
(dp1923
g68
(dp1924
g76
I3
ssg77
Nsg70
(lp1925
g63
(g79
g65
NtRp1926
(dp1927
g68
(dp1928
sg77
g1922
sg70
(lp1929
g63
(g84
g65
NtRp1930
(dp1931
g68
(dp1932
sg77
g1926
sg70
(lp1933
g63
(g64
g65
NtRp1934
(dp1935
g68
(dp1936
g76
I3
ssg77
g1930
sg70
(lp1937
S'1'
asbasbasbag63
(g79
g65
NtRp1938
(dp1939
g68
(dp1940
sg77
g1922
sg70
(lp1941
g63
(g84
g65
NtRp1942
(dp1943
g68
(dp1944
sg77
g1938
sg70
(lp1945
g63
(g64
g65
NtRp1946
(dp1947
g68
(dp1948
g76
I3
ssg77
g1942
sg70
(lp1949
S'99'
p1950
asbasbasbag63
(g79
g65
NtRp1951
(dp1952
g68
(dp1953
sg77
g1922
sg70
(lp1954
g63
(g84
g65
NtRp1955
(dp1956
g68
(dp1957
sg77
g1951
sg70
(lp1958
g63
(g64
g65
NtRp1959
(dp1960
g68
(dp1961
g76
I3
ssg77
g1955
sg70
(lp1962
S'2'
asbasbasbag63
(g79
g65
NtRp1963
(dp1964
g68
(dp1965
sg77
g1922
sg70
(lp1966
g63
(g84
g65
NtRp1967
(dp1968
g68
(dp1969
sg77
g1963
sg70
(lp1970
g63
(g64
g65
NtRp1971
(dp1972
g68
(dp1973
g76
I3
ssg77
g1967
sg70
(lp1974
S'datetime.datetime(2011, 9, 26, 6, 55, 33)'
p1975
asbasbasbag63
(g79
g65
NtRp1976
(dp1977
g68
(dp1978
sg77
g1922
sg70
(lp1979
g63
(g84
g65
NtRp1980
(dp1981
g68
(dp1982
sg77
g1976
sg70
(lp1983
g63
(g64
g65
NtRp1984
(dp1985
g68
(dp1986
g76
I3
ssg77
g1980
sg70
(lp1987
S'stable'
p1988
asbasbasbasbasbasbasbag63
(g79
g65
NtRp1989
(dp1990
g68
(dp1991
sg77
g1198
sg70
(lp1992
g63
(g84
g65
NtRp1993
(dp1994
g68
(dp1995
g88
g89
ssg77
g1989
sg70
(lp1996
S'wsgi_errors'
p1997
asbag63
(g84
g65
NtRp1998
(dp1999
g68
(dp2000
g95
g96
ssg77
g1989
sg70
(lp2001
S':'
asbag63
(g84
g65
NtRp2002
(dp2003
g68
(dp2004
sg77
g1989
sg70
(lp2005
g63
(g64
g65
NtRp2006
(dp2007
g68
(dp2008
g76
I4
ssg77
g2002
sg70
(lp2009
S"<open file '<stderr>', mode 'w' at 0xb738b0d0>"
p2010
asbasbasbag63
(g79
g65
NtRp2011
(dp2012
g68
(dp2013
sg77
g1198
sg70
(lp2014
g63
(g84
g65
NtRp2015
(dp2016
g68
(dp2017
g88
g89
ssg77
g2011
sg70
(lp2018
S'wsgi_file_wrapper'
p2019
asbag63
(g84
g65
NtRp2020
(dp2021
g68
(dp2022
g95
g96
ssg77
g2011
sg70
(lp2023
S':'
asbag63
(g84
g65
NtRp2024
(dp2025
g68
(dp2026
sg77
g2011
sg70
(lp2027
g63
(g64
g65
NtRp2028
(dp2029
g68
(dp2030
g76
I4
ssg77
g2024
sg70
(lp2031
S'<class wsgiref.util.FileWrapper at 0xa4ce92c>'
p2032
asbasbasbag63
(g79
g65
NtRp2033
(dp2034
g68
(dp2035
sg77
g1198
sg70
(lp2036
g63
(g84
g65
NtRp2037
(dp2038
g68
(dp2039
g88
g89
ssg77
g2033
sg70
(lp2040
S'wsgi_input'
p2041
asbag63
(g84
g65
NtRp2042
(dp2043
g68
(dp2044
g95
g96
ssg77
g2033
sg70
(lp2045
S':'
asbag63
(g84
g65
NtRp2046
(dp2047
g68
(dp2048
sg77
g2033
sg70
(lp2049
g63
(g64
g65
NtRp2050
(dp2051
g68
(dp2052
g76
I4
ssg77
g2046
sg70
(lp2053
S'<socket._fileobject object at 0xb19302c>'
p2054
asbasbasbag63
(g79
g65
NtRp2055
(dp2056
g68
(dp2057
sg77
g1198
sg70
(lp2058
g63
(g84
g65
NtRp2059
(dp2060
g68
(dp2061
g88
g89
ssg77
g2055
sg70
(lp2062
S'wsgi_multiprocess'
p2063
asbag63
(g84
g65
NtRp2064
(dp2065
g68
(dp2066
g95
g96
ssg77
g2055
sg70
(lp2067
S':'
asbag63
(g84
g65
NtRp2068
(dp2069
g68
(dp2070
sg77
g2055
sg70
(lp2071
g63
(g64
g65
NtRp2072
(dp2073
g68
(dp2074
g76
I4
ssg77
g2068
sg70
(lp2075
g106
asbasbasbag63
(g79
g65
NtRp2076
(dp2077
g68
(dp2078
sg77
g1198
sg70
(lp2079
g63
(g84
g65
NtRp2080
(dp2081
g68
(dp2082
g88
g89
ssg77
g2076
sg70
(lp2083
S'wsgi_multithread'
p2084
asbag63
(g84
g65
NtRp2085
(dp2086
g68
(dp2087
g95
g96
ssg77
g2076
sg70
(lp2088
S':'
asbag63
(g84
g65
NtRp2089
(dp2090
g68
(dp2091
sg77
g2076
sg70
(lp2092
g63
(g64
g65
NtRp2093
(dp2094
g68
(dp2095
g76
I4
ssg77
g2089
sg70
(lp2096
S'True'
p2097
asbasbasbag63
(g79
g65
NtRp2098
(dp2099
g68
(dp2100
sg77
g1198
sg70
(lp2101
g63
(g84
g65
NtRp2102
(dp2103
g68
(dp2104
g88
g89
ssg77
g2098
sg70
(lp2105
S'wsgi_run_once'
p2106
asbag63
(g84
g65
NtRp2107
(dp2108
g68
(dp2109
g95
g96
ssg77
g2098
sg70
(lp2110
S':'
asbag63
(g84
g65
NtRp2111
(dp2112
g68
(dp2113
sg77
g2098
sg70
(lp2114
g63
(g64
g65
NtRp2115
(dp2116
g68
(dp2117
g76
I4
ssg77
g2111
sg70
(lp2118
g106
asbasbasbag63
(g79
g65
NtRp2119
(dp2120
g68
(dp2121
sg77
g1198
sg70
(lp2122
g63
(g84
g65
NtRp2123
(dp2124
g68
(dp2125
g88
g89
ssg77
g2119
sg70
(lp2126
S'wsgi_url_scheme'
p2127
asbag63
(g84
g65
NtRp2128
(dp2129
g68
(dp2130
g95
g96
ssg77
g2119
sg70
(lp2131
S':'
asbag63
(g84
g65
NtRp2132
(dp2133
g68
(dp2134
sg77
g2119
sg70
(lp2135
g63
(g64
g65
NtRp2136
(dp2137
g68
(dp2138
g76
I4
ssg77
g2132
sg70
(lp2139
S'http'
p2140
asbasbasbag63
(g79
g65
NtRp2141
(dp2142
g68
(dp2143
sg77
g1198
sg70
(lp2144
g63
(g84
g65
NtRp2145
(dp2146
g68
(dp2147
g88
g89
ssg77
g2141
sg70
(lp2148
S'wsgi_version'
p2149
asbag63
(g84
g65
NtRp2150
(dp2151
g68
(dp2152
g95
g96
ssg77
g2141
sg70
(lp2153
S':'
asbag63
(g84
g65
NtRp2154
(dp2155
g68
(dp2156
sg77
g2141
sg70
(lp2157
g63
(g64
g65
NtRp2158
(dp2159
g68
(dp2160
g76
I4
ssg77
g2154
sg70
(lp2161
g63
(g72
g65
NtRp2162
(dp2163
g68
(dp2164
g76
I3
ssg77
Nsg70
(lp2165
g63
(g79
g65
NtRp2166
(dp2167
g68
(dp2168
sg77
g2162
sg70
(lp2169
g63
(g84
g65
NtRp2170
(dp2171
g68
(dp2172
sg77
g2166
sg70
(lp2173
g63
(g64
g65
NtRp2174
(dp2175
g68
(dp2176
g76
I3
ssg77
g2170
sg70
(lp2177
S'1'
asbasbasbag63
(g79
g65
NtRp2178
(dp2179
g68
(dp2180
sg77
g2162
sg70
(lp2181
g63
(g84
g65
NtRp2182
(dp2183
g68
(dp2184
sg77
g2178
sg70
(lp2185
g63
(g64
g65
NtRp2186
(dp2187
g68
(dp2188
g76
I3
ssg77
g2182
sg70
(lp2189
S'0'
asbasbasbasbasbasbasbasbasbasbasbag63
(g79
g65
NtRp2190
(dp2191
g68
(dp2192
sg77
g73
sg70
(lp2193
g63
(g84
g65
NtRp2194
(dp2195
g68
(dp2196
g88
g89
ssg77
g2190
sg70
(lp2197
S'extension'
p2198
asbag63
(g84
g65
NtRp2199
(dp2200
g68
(dp2201
g95
g96
ssg77
g2190
sg70
(lp2202
S':'
asbag63
(g84
g65
NtRp2203
(dp2204
g68
(dp2205
sg77
g2190
sg70
(lp2206
g63
(g64
g65
NtRp2207
(dp2208
g68
(dp2209
g76
I5
ssg77
g2203
sg70
(lp2210
S'html'
p2211
asbasbasbag63
(g79
g65
NtRp2212
(dp2213
g68
(dp2214
sg77
g73
sg70
(lp2215
g63
(g84
g65
NtRp2216
(dp2217
g68
(dp2218
g88
g89
ssg77
g2212
sg70
(lp2219
S'folder'
p2220
asbag63
(g84
g65
NtRp2221
(dp2222
g68
(dp2223
g95
g96
ssg77
g2212
sg70
(lp2224
S':'
asbag63
(g84
g65
NtRp2225
(dp2226
g68
(dp2227
sg77
g2212
sg70
(lp2228
g63
(g64
g65
NtRp2229
(dp2230
g68
(dp2231
g76
I5
ssg77
g2225
sg70
(lp2232
S'/home/u4hcsdaw/Python/web2py/applications/ACES/'
p2233
asbasbasbag63
(g79
g65
NtRp2234
(dp2235
g68
(dp2236
sg77
g73
sg70
(lp2237
g63
(g84
g65
NtRp2238
(dp2239
g68
(dp2240
g88
g89
ssg77
g2234
sg70
(lp2241
S'function'
p2242
asbag63
(g84
g65
NtRp2243
(dp2244
g68
(dp2245
g95
g96
ssg77
g2234
sg70
(lp2246
S':'
asbag63
(g84
g65
NtRp2247
(dp2248
g68
(dp2249
sg77
g2234
sg70
(lp2250
g63
(g64
g65
NtRp2251
(dp2252
g68
(dp2253
g76
I5
ssg77
g2247
sg70
(lp2254
S'index'
p2255
asbasbasbag63
(g79
g65
NtRp2256
(dp2257
g68
(dp2258
sg77
g73
sg70
(lp2259
g63
(g84
g65
NtRp2260
(dp2261
g68
(dp2262
g88
g89
ssg77
g2256
sg70
(lp2263
S'get_vars'
p2264
asbag63
(g84
g65
NtRp2265
(dp2266
g68
(dp2267
g95
g96
ssg77
g2256
sg70
(lp2268
S':'
asbag63
(g84
g65
NtRp2269
(dp2270
g68
(dp2271
sg77
g2256
sg70
(lp2272
g63
(g64
g65
NtRp2273
(dp2274
g68
(dp2275
g76
I5
ssg77
g2269
sg70
(lp2276
g63
(g72
g65
NtRp2277
(dp2278
g68
(dp2279
g76
I4
ssg77
Nsg70
(lp2280
sbasbasbasbag63
(g79
g65
NtRp2281
(dp2282
g68
(dp2283
sg77
g73
sg70
(lp2284
g63
(g84
g65
NtRp2285
(dp2286
g68
(dp2287
g88
g89
ssg77
g2281
sg70
(lp2288
S'global_settings'
p2289
asbag63
(g84
g65
NtRp2290
(dp2291
g68
(dp2292
g95
g96
ssg77
g2281
sg70
(lp2293
S':'
asbag63
(g84
g65
NtRp2294
(dp2295
g68
(dp2296
sg77
g2281
sg70
(lp2297
g63
(g64
g65
NtRp2298
(dp2299
g68
(dp2300
g76
I5
ssg77
g2294
sg70
(lp2301
g63
(g72
g65
NtRp2302
(dp2303
g68
(dp2304
g76
I4
ssg77
Nsg70
(lp2305
g63
(g79
g65
NtRp2306
(dp2307
g68
(dp2308
sg77
g2302
sg70
(lp2309
g63
(g84
g65
NtRp2310
(dp2311
g68
(dp2312
g88
g89
ssg77
g2306
sg70
(lp2313
g1210
asbag63
(g84
g65
NtRp2314
(dp2315
g68
(dp2316
g95
g96
ssg77
g2306
sg70
(lp2317
S':'
asbag63
(g84
g65
NtRp2318
(dp2319
g68
(dp2320
sg77
g2306
sg70
(lp2321
g63
(g64
g65
NtRp2322
(dp2323
g68
(dp2324
g76
I4
ssg77
g2318
sg70
(lp2325
S"set(['/home/u4hcsdaw/Python/web2py/applications/ACES/', '/home/u4hcsdaw/Python/web2py/applications/PayPeriod/', '/home/u4hcsdaw/Python/web2py/applications/admin/', '/home/u4hcsdaw/Python/web2py/applications/welcome/', '/home/u4hcsdaw/Python/web2py/applications/DALEX1/'])"
p2326
asbasbasbag63
(g79
g65
NtRp2327
(dp2328
g68
(dp2329
sg77
g2302
sg70
(lp2330
g63
(g84
g65
NtRp2331
(dp2332
g68
(dp2333
g88
g89
ssg77
g2327
sg70
(lp2334
g1232
asbag63
(g84
g65
NtRp2335
(dp2336
g68
(dp2337
g95
g96
ssg77
g2327
sg70
(lp2338
S':'
asbag63
(g84
g65
NtRp2339
(dp2340
g68
(dp2341
sg77
g2327
sg70
(lp2342
g63
(g64
g65
NtRp2343
(dp2344
g68
(dp2345
g76
I4
ssg77
g2339
sg70
(lp2346
g1245
asbasbasbag63
(g79
g65
NtRp2347
(dp2348
g68
(dp2349
sg77
g2302
sg70
(lp2350
g63
(g84
g65
NtRp2351
(dp2352
g68
(dp2353
g88
g89
ssg77
g2347
sg70
(lp2354
g1254
asbag63
(g84
g65
NtRp2355
(dp2356
g68
(dp2357
g95
g96
ssg77
g2347
sg70
(lp2358
S':'
asbag63
(g84
g65
NtRp2359
(dp2360
g68
(dp2361
sg77
g2347
sg70
(lp2362
g63
(g64
g65
NtRp2363
(dp2364
g68
(dp2365
g76
I4
ssg77
g2359
sg70
(lp2366
g63
(g72
g65
NtRp2367
(dp2368
g68
(dp2369
g76
I3
ssg77
Nsg70
(lp2370
sbasbasbasbag63
(g79
g65
NtRp2371
(dp2372
g68
(dp2373
sg77
g2302
sg70
(lp2374
g63
(g84
g65
NtRp2375
(dp2376
g68
(dp2377
g88
g89
ssg77
g2371
sg70
(lp2378
g1279
asbag63
(g84
g65
NtRp2379
(dp2380
g68
(dp2381
g95
g96
ssg77
g2371
sg70
(lp2382
S':'
asbag63
(g84
g65
NtRp2383
(dp2384
g68
(dp2385
sg77
g2371
sg70
(lp2386
g63
(g64
g65
NtRp2387
(dp2388
g68
(dp2389
g76
I4
ssg77
g2383
sg70
(lp2390
S"<Values at 0xa59ca2c: {'verbose': False, 'ip': '127.0.0.1', 'shutdown_timeout': 5, 'taskbar': False, 'nocron': False, 'pid_filename': 'httpserver.pid', 'maxthreads': None, 'softcron': False, 'server_name': 'CHL-5833E', 'bpython': False, 'nogui': False, 'port': 8000, 'extcron': False, 'debuglevel': 30, 'test': None, 'folder': '/home/u4hcsdaw/Python/web2py', 'config': '', 'import_models': False, 'winservice': '', 'shell': None, 'run': '', 'log_filename': 'httpserver.log', 'args': [''], 'ssl_ca_certificate': None, 'scheduler': None, 'profiler_filename': None, 'ssl_private_key': '', 'password': '<ask>', 'request_queue_size': 5, 'ssl_certificate': '', 'cronjob': False, 'plain': False, 'quiet': False, 'interfaces': None, 'minthreads': None, 'timeout': 10, 'numthreads': None, 'nobanner': False}>"
p2391
asbasbasbag63
(g79
g65
NtRp2392
(dp2393
g68
(dp2394
sg77
g2302
sg70
(lp2395
g63
(g84
g65
NtRp2396
(dp2397
g68
(dp2398
g88
g89
ssg77
g2392
sg70
(lp2399
g1345
asbag63
(g84
g65
NtRp2400
(dp2401
g68
(dp2402
g95
g96
ssg77
g2392
sg70
(lp2403
S':'
asbag63
(g84
g65
NtRp2404
(dp2405
g68
(dp2406
sg77
g2392
sg70
(lp2407
g63
(g64
g65
NtRp2408
(dp2409
g68
(dp2410
g76
I4
ssg77
g2404
sg70
(lp2411
S'set([])'
p2412
asbasbasbag63
(g79
g65
NtRp2413
(dp2414
g68
(dp2415
sg77
g2302
sg70
(lp2416
g63
(g84
g65
NtRp2417
(dp2418
g68
(dp2419
g88
g89
ssg77
g2413
sg70
(lp2420
g1367
asbag63
(g84
g65
NtRp2421
(dp2422
g68
(dp2423
g95
g96
ssg77
g2413
sg70
(lp2424
S':'
asbag63
(g84
g65
NtRp2425
(dp2426
g68
(dp2427
sg77
g2413
sg70
(lp2428
g63
(g64
g65
NtRp2429
(dp2430
g68
(dp2431
g76
I4
ssg77
g2425
sg70
(lp2432
g106
asbasbasbag63
(g79
g65
NtRp2433
(dp2434
g68
(dp2435
sg77
g2302
sg70
(lp2436
g63
(g84
g65
NtRp2437
(dp2438
g68
(dp2439
g88
g89
ssg77
g2433
sg70
(lp2440
g1388
asbag63
(g84
g65
NtRp2441
(dp2442
g68
(dp2443
g95
g96
ssg77
g2433
sg70
(lp2444
S':'
asbag63
(g84
g65
NtRp2445
(dp2446
g68
(dp2447
sg77
g2433
sg70
(lp2448
g63
(g64
g65
NtRp2449
(dp2450
g68
(dp2451
g76
I4
ssg77
g2445
sg70
(lp2452
g1401
asbasbasbag63
(g79
g65
NtRp2453
(dp2454
g68
(dp2455
sg77
g2302
sg70
(lp2456
g63
(g84
g65
NtRp2457
(dp2458
g68
(dp2459
g88
g89
ssg77
g2453
sg70
(lp2460
g1628
asbag63
(g84
g65
NtRp2461
(dp2462
g68
(dp2463
g95
g96
ssg77
g2453
sg70
(lp2464
S':'
asbag63
(g84
g65
NtRp2465
(dp2466
g68
(dp2467
sg77
g2453
sg70
(lp2468
g63
(g64
g65
NtRp2469
(dp2470
g68
(dp2471
g76
I4
ssg77
g2465
sg70
(lp2472
g106
asbasbasbag63
(g79
g65
NtRp2473
(dp2474
g68
(dp2475
sg77
g2302
sg70
(lp2476
g63
(g84
g65
NtRp2477
(dp2478
g68
(dp2479
g88
g89
ssg77
g2473
sg70
(lp2480
g1866
asbag63
(g84
g65
NtRp2481
(dp2482
g68
(dp2483
g95
g96
ssg77
g2473
sg70
(lp2484
S':'
asbag63
(g84
g65
NtRp2485
(dp2486
g68
(dp2487
sg77
g2473
sg70
(lp2488
g63
(g64
g65
NtRp2489
(dp2490
g68
(dp2491
g76
I4
ssg77
g2485
sg70
(lp2492
g1879
asbasbasbag63
(g79
g65
NtRp2493
(dp2494
g68
(dp2495
sg77
g2302
sg70
(lp2496
g63
(g84
g65
NtRp2497
(dp2498
g68
(dp2499
g88
g89
ssg77
g2493
sg70
(lp2500
g1909
asbag63
(g84
g65
NtRp2501
(dp2502
g68
(dp2503
g95
g96
ssg77
g2493
sg70
(lp2504
S':'
asbag63
(g84
g65
NtRp2505
(dp2506
g68
(dp2507
sg77
g2493
sg70
(lp2508
g63
(g64
g65
NtRp2509
(dp2510
g68
(dp2511
g76
I4
ssg77
g2505
sg70
(lp2512
g63
(g72
g65
NtRp2513
(dp2514
g68
(dp2515
g76
I3
ssg77
Nsg70
(lp2516
g63
(g79
g65
NtRp2517
(dp2518
g68
(dp2519
sg77
g2513
sg70
(lp2520
g63
(g84
g65
NtRp2521
(dp2522
g68
(dp2523
sg77
g2517
sg70
(lp2524
g63
(g64
g65
NtRp2525
(dp2526
g68
(dp2527
g76
I3
ssg77
g2521
sg70
(lp2528
S'1'
asbasbasbag63
(g79
g65
NtRp2529
(dp2530
g68
(dp2531
sg77
g2513
sg70
(lp2532
g63
(g84
g65
NtRp2533
(dp2534
g68
(dp2535
sg77
g2529
sg70
(lp2536
g63
(g64
g65
NtRp2537
(dp2538
g68
(dp2539
g76
I3
ssg77
g2533
sg70
(lp2540
S'99'
p2541
asbasbasbag63
(g79
g65
NtRp2542
(dp2543
g68
(dp2544
sg77
g2513
sg70
(lp2545
g63
(g84
g65
NtRp2546
(dp2547
g68
(dp2548
sg77
g2542
sg70
(lp2549
g63
(g64
g65
NtRp2550
(dp2551
g68
(dp2552
g76
I3
ssg77
g2546
sg70
(lp2553
S'2'
asbasbasbag63
(g79
g65
NtRp2554
(dp2555
g68
(dp2556
sg77
g2513
sg70
(lp2557
g63
(g84
g65
NtRp2558
(dp2559
g68
(dp2560
sg77
g2554
sg70
(lp2561
g63
(g64
g65
NtRp2562
(dp2563
g68
(dp2564
g76
I3
ssg77
g2558
sg70
(lp2565
S'datetime.datetime(2011, 9, 26, 6, 55, 33)'
p2566
asbasbasbag63
(g79
g65
NtRp2567
(dp2568
g68
(dp2569
sg77
g2513
sg70
(lp2570
g63
(g84
g65
NtRp2571
(dp2572
g68
(dp2573
sg77
g2567
sg70
(lp2574
g63
(g64
g65
NtRp2575
(dp2576
g68
(dp2577
g76
I3
ssg77
g2571
sg70
(lp2578
g1988
asbasbasbasbasbasbasbasbasbasbasbag63
(g79
g65
NtRp2579
(dp2580
g68
(dp2581
sg77
g73
sg70
(lp2582
g63
(g84
g65
NtRp2583
(dp2584
g68
(dp2585
g88
g89
ssg77
g2579
sg70
(lp2586
S'is_https'
p2587
asbag63
(g84
g65
NtRp2588
(dp2589
g68
(dp2590
g95
g96
ssg77
g2579
sg70
(lp2591
S':'
asbag63
(g84
g65
NtRp2592
(dp2593
g68
(dp2594
sg77
g2579
sg70
(lp2595
g63
(g64
g65
NtRp2596
(dp2597
g68
(dp2598
g76
I5
ssg77
g2592
sg70
(lp2599
g106
asbasbasbag63
(g79
g65
NtRp2600
(dp2601
g68
(dp2602
sg77
g73
sg70
(lp2603
g63
(g84
g65
NtRp2604
(dp2605
g68
(dp2606
g88
g89
ssg77
g2600
sg70
(lp2607
S'is_local'
p2608
asbag63
(g84
g65
NtRp2609
(dp2610
g68
(dp2611
g95
g96
ssg77
g2600
sg70
(lp2612
S':'
asbag63
(g84
g65
NtRp2613
(dp2614
g68
(dp2615
sg77
g2600
sg70
(lp2616
g63
(g64
g65
NtRp2617
(dp2618
g68
(dp2619
g76
I5
ssg77
g2613
sg70
(lp2620
g2097
asbasbasbag63
(g79
g65
NtRp2621
(dp2622
g68
(dp2623
sg77
g73
sg70
(lp2624
g63
(g84
g65
NtRp2625
(dp2626
g68
(dp2627
g88
g89
ssg77
g2621
sg70
(lp2628
S'is_restful'
p2629
asbag63
(g84
g65
NtRp2630
(dp2631
g68
(dp2632
g95
g96
ssg77
g2621
sg70
(lp2633
S':'
asbag63
(g84
g65
NtRp2634
(dp2635
g68
(dp2636
sg77
g2621
sg70
(lp2637
g63
(g64
g65
NtRp2638
(dp2639
g68
(dp2640
g76
I5
ssg77
g2634
sg70
(lp2641
g106
asbasbasbag63
(g79
g65
NtRp2642
(dp2643
g68
(dp2644
sg77
g73
sg70
(lp2645
g63
(g84
g65
NtRp2646
(dp2647
g68
(dp2648
g88
g89
ssg77
g2642
sg70
(lp2649
S'now'
p2650
asbag63
(g84
g65
NtRp2651
(dp2652
g68
(dp2653
g95
g96
ssg77
g2642
sg70
(lp2654
S':'
asbag63
(g84
g65
NtRp2655
(dp2656
g68
(dp2657
sg77
g2642
sg70
(lp2658
g63
(g64
g65
NtRp2659
(dp2660
g68
(dp2661
g76
I5
ssg77
g2655
sg70
(lp2662
S'datetime.datetime(2012, 6, 5, 17, 7, 1, 169155)'
p2663
asbasbasbag63
(g79
g65
NtRp2664
(dp2665
g68
(dp2666
sg77
g73
sg70
(lp2667
g63
(g84
g65
NtRp2668
(dp2669
g68
(dp2670
g88
g89
ssg77
g2664
sg70
(lp2671
S'post_vars'
p2672
asbag63
(g84
g65
NtRp2673
(dp2674
g68
(dp2675
g95
g96
ssg77
g2664
sg70
(lp2676
S':'
asbag63
(g84
g65
NtRp2677
(dp2678
g68
(dp2679
sg77
g2664
sg70
(lp2680
g63
(g64
g65
NtRp2681
(dp2682
g68
(dp2683
g76
I5
ssg77
g2677
sg70
(lp2684
g63
(g72
g65
NtRp2685
(dp2686
g68
(dp2687
g76
I4
ssg77
Nsg70
(lp2688
g63
(g79
g65
NtRp2689
(dp2690
g68
(dp2691
sg77
g2685
sg70
(lp2692
g63
(g84
g65
NtRp2693
(dp2694
g68
(dp2695
g88
g89
ssg77
g2689
sg70
(lp2696
S'subButton'
p2697
asbag63
(g84
g65
NtRp2698
(dp2699
g68
(dp2700
g95
g96
ssg77
g2689
sg70
(lp2701
S':'
asbag63
(g84
g65
NtRp2702
(dp2703
g68
(dp2704
sg77
g2689
sg70
(lp2705
g63
(g64
g65
NtRp2706
(dp2707
g68
(dp2708
g76
I4
ssg77
g2702
sg70
(lp2709
S'Submit Query'
p2710
asbasbasbag63
(g79
g65
NtRp2711
(dp2712
g68
(dp2713
sg77
g2685
sg70
(lp2714
g63
(g84
g65
NtRp2715
(dp2716
g68
(dp2717
g88
g89
ssg77
g2711
sg70
(lp2718
S'waveHeight'
p2719
asbag63
(g84
g65
NtRp2720
(dp2721
g68
(dp2722
g95
g96
ssg77
g2711
sg70
(lp2723
S':'
asbag63
(g84
g65
NtRp2724
(dp2725
g68
(dp2726
sg77
g2711
sg70
(lp2727
g63
(g64
g65
NtRp2728
(dp2729
g68
(dp2730
g76
I4
ssg77
g2724
sg70
(lp2731
S'0.85'
p2732
asbasbasbasbasbasbasbag63
(g79
g65
NtRp2733
(dp2734
g68
(dp2735
sg77
g73
sg70
(lp2736
g63
(g84
g65
NtRp2737
(dp2738
g68
(dp2739
g88
g89
ssg77
g2733
sg70
(lp2740
S'url'
p2741
asbag63
(g84
g65
NtRp2742
(dp2743
g68
(dp2744
g95
g96
ssg77
g2733
sg70
(lp2745
S':'
asbag63
(g84
g65
NtRp2746
(dp2747
g68
(dp2748
sg77
g2733
sg70
(lp2749
g63
(g64
g65
NtRp2750
(dp2751
g68
(dp2752
g76
I5
ssg77
g2746
sg70
(lp2753
S'/ACES/default/index'
p2754
asbasbasbag63
(g79
g65
NtRp2755
(dp2756
g68
(dp2757
sg77
g73
sg70
(lp2758
g63
(g84
g65
NtRp2759
(dp2760
g68
(dp2761
g88
g89
ssg77
g2755
sg70
(lp2762
S'utcnow'
p2763
asbag63
(g84
g65
NtRp2764
(dp2765
g68
(dp2766
g95
g96
ssg77
g2755
sg70
(lp2767
S':'
asbag63
(g84
g65
NtRp2768
(dp2769
g68
(dp2770
sg77
g2755
sg70
(lp2771
g63
(g64
g65
NtRp2772
(dp2773
g68
(dp2774
g76
I5
ssg77
g2768
sg70
(lp2775
S'datetime.datetime(2012, 6, 5, 22, 7, 1, 169191)'
p2776
asbasbasbag63
(g79
g65
NtRp2777
(dp2778
g68
(dp2779
sg77
g73
sg70
(lp2780
g63
(g84
g65
NtRp2781
(dp2782
g68
(dp2783
g88
g89
ssg77
g2777
sg70
(lp2784
S'uuid'
p2785
asbag63
(g84
g65
NtRp2786
(dp2787
g68
(dp2788
g95
g96
ssg77
g2777
sg70
(lp2789
S':'
asbag63
(g84
g65
NtRp2790
(dp2791
g68
(dp2792
sg77
g2777
sg70
(lp2793
g63
(g64
g65
NtRp2794
(dp2795
g68
(dp2796
g76
I5
ssg77
g2790
sg70
(lp2797
S'ACES/127.0.0.1.2012-06-05.17-07-01.f21e494c-aa49-46ff-90eb-377c99fdebeb'
p2798
asbasbasbag63
(g79
g65
NtRp2799
(dp2800
g68
(dp2801
sg77
g73
sg70
(lp2802
g63
(g84
g65
NtRp2803
(dp2804
g68
(dp2805
g88
g89
ssg77
g2799
sg70
(lp2806
S'vars'
p2807
asbag63
(g84
g65
NtRp2808
(dp2809
g68
(dp2810
g95
g96
ssg77
g2799
sg70
(lp2811
S':'
asbag63
(g84
g65
NtRp2812
(dp2813
g68
(dp2814
sg77
g2799
sg70
(lp2815
g63
(g64
g65
NtRp2816
(dp2817
g68
(dp2818
g76
I5
ssg77
g2812
sg70
(lp2819
g63
(g72
g65
NtRp2820
(dp2821
g68
(dp2822
g76
I4
ssg77
Nsg70
(lp2823
g63
(g79
g65
NtRp2824
(dp2825
g68
(dp2826
sg77
g2820
sg70
(lp2827
g63
(g84
g65
NtRp2828
(dp2829
g68
(dp2830
g88
g89
ssg77
g2824
sg70
(lp2831
g2697
asbag63
(g84
g65
NtRp2832
(dp2833
g68
(dp2834
g95
g96
ssg77
g2824
sg70
(lp2835
S':'
asbag63
(g84
g65
NtRp2836
(dp2837
g68
(dp2838
sg77
g2824
sg70
(lp2839
g63
(g64
g65
NtRp2840
(dp2841
g68
(dp2842
g76
I4
ssg77
g2836
sg70
(lp2843
g2710
asbasbasbag63
(g79
g65
NtRp2844
(dp2845
g68
(dp2846
sg77
g2820
sg70
(lp2847
g63
(g84
g65
NtRp2848
(dp2849
g68
(dp2850
g88
g89
ssg77
g2844
sg70
(lp2851
g2719
asbag63
(g84
g65
NtRp2852
(dp2853
g68
(dp2854
g95
g96
ssg77
g2844
sg70
(lp2855
S':'
asbag63
(g84
g65
NtRp2856
(dp2857
g68
(dp2858
sg77
g2844
sg70
(lp2859
g63
(g64
g65
NtRp2860
(dp2861
g68
(dp2862
g76
I4
ssg77
g2856
sg70
(lp2863
g2732
asbasbasbasbasbasbasbag63
(g79
g65
NtRp2864
(dp2865
g68
(dp2866
sg77
g73
sg70
(lp2867
g63
(g84
g65
NtRp2868
(dp2869
g68
(dp2870
g88
g89
ssg77
g2864
sg70
(lp2871
S'wsgi'
p2872
asbag63
(g84
g65
NtRp2873
(dp2874
g68
(dp2875
g95
g96
ssg77
g2864
sg70
(lp2876
S':'
asbag63
(g84
g65
NtRp2877
(dp2878
g68
(dp2879
sg77
g2864
sg70
(lp2880
g63
(g64
g65
NtRp2881
(dp2882
g68
(dp2883
g76
I5
ssg77
g2877
sg70
(lp2884
g63
(g72
g65
NtRp2885
(dp2886
g68
(dp2887
g76
I4
ssg77
Nsg70
(lp2888
g63
(g79
g65
NtRp2889
(dp2890
g68
(dp2891
sg77
g2885
sg70
(lp2892
g63
(g84
g65
NtRp2893
(dp2894
g68
(dp2895
g88
g89
ssg77
g2889
sg70
(lp2896
S'environ'
p2897
asbag63
(g84
g65
NtRp2898
(dp2899
g68
(dp2900
g95
g96
ssg77
g2889
sg70
(lp2901
S':'
asbag63
(g84
g65
NtRp2902
(dp2903
g68
(dp2904
sg77
g2889
sg70
(lp2905
g63
(g64
g65
NtRp2906
(dp2907
g68
(dp2908
g76
I4
ssg77
g2902
sg70
(lp2909
g63
(g72
g65
NtRp2910
(dp2911
g68
(dp2912
g76
I3
ssg77
Nsg70
(lp2913
g63
(g79
g65
NtRp2914
(dp2915
g68
(dp2916
sg77
g2910
sg70
(lp2917
g63
(g84
g65
NtRp2918
(dp2919
g68
(dp2920
g88
g89
ssg77
g2914
sg70
(lp2921
S'CONTENT_LENGTH'
p2922
asbag63
(g84
g65
NtRp2923
(dp2924
g68
(dp2925
g95
g96
ssg77
g2914
sg70
(lp2926
S':'
asbag63
(g84
g65
NtRp2927
(dp2928
g68
(dp2929
sg77
g2914
sg70
(lp2930
g63
(g64
g65
NtRp2931
(dp2932
g68
(dp2933
g76
I3
ssg77
g2927
sg70
(lp2934
g1314
asbasbasbag63
(g79
g65
NtRp2935
(dp2936
g68
(dp2937
sg77
g2910
sg70
(lp2938
g63
(g84
g65
NtRp2939
(dp2940
g68
(dp2941
g88
g89
ssg77
g2935
sg70
(lp2942
S'CONTENT_TYPE'
p2943
asbag63
(g84
g65
NtRp2944
(dp2945
g68
(dp2946
g95
g96
ssg77
g2935
sg70
(lp2947
S':'
asbag63
(g84
g65
NtRp2948
(dp2949
g68
(dp2950
sg77
g2935
sg70
(lp2951
g63
(g64
g65
NtRp2952
(dp2953
g68
(dp2954
g76
I3
ssg77
g2948
sg70
(lp2955
g1336
asbasbasbag63
(g79
g65
NtRp2956
(dp2957
g68
(dp2958
sg77
g2910
sg70
(lp2959
g63
(g84
g65
NtRp2960
(dp2961
g68
(dp2962
g88
g89
ssg77
g2956
sg70
(lp2963
S'HTTP_ACCEPT'
p2964
asbag63
(g84
g65
NtRp2965
(dp2966
g68
(dp2967
g95
g96
ssg77
g2956
sg70
(lp2968
S':'
asbag63
(g84
g65
NtRp2969
(dp2970
g68
(dp2971
sg77
g2956
sg70
(lp2972
g63
(g64
g65
NtRp2973
(dp2974
g68
(dp2975
g76
I3
ssg77
g2969
sg70
(lp2976
g1423
asbasbasbag63
(g79
g65
NtRp2977
(dp2978
g68
(dp2979
sg77
g2910
sg70
(lp2980
g63
(g84
g65
NtRp2981
(dp2982
g68
(dp2983
g88
g89
ssg77
g2977
sg70
(lp2984
S'HTTP_ACCEPT_ENCODING'
p2985
asbag63
(g84
g65
NtRp2986
(dp2987
g68
(dp2988
g95
g96
ssg77
g2977
sg70
(lp2989
S':'
asbag63
(g84
g65
NtRp2990
(dp2991
g68
(dp2992
sg77
g2977
sg70
(lp2993
g63
(g64
g65
NtRp2994
(dp2995
g68
(dp2996
g76
I3
ssg77
g2990
sg70
(lp2997
g1445
asbasbasbag63
(g79
g65
NtRp2998
(dp2999
g68
(dp3000
sg77
g2910
sg70
(lp3001
g63
(g84
g65
NtRp3002
(dp3003
g68
(dp3004
g88
g89
ssg77
g2998
sg70
(lp3005
S'HTTP_ACCEPT_LANGUAGE'
p3006
asbag63
(g84
g65
NtRp3007
(dp3008
g68
(dp3009
g95
g96
ssg77
g2998
sg70
(lp3010
S':'
asbag63
(g84
g65
NtRp3011
(dp3012
g68
(dp3013
sg77
g2998
sg70
(lp3014
g63
(g64
g65
NtRp3015
(dp3016
g68
(dp3017
g76
I3
ssg77
g3011
sg70
(lp3018
g1467
asbasbasbag63
(g79
g65
NtRp3019
(dp3020
g68
(dp3021
sg77
g2910
sg70
(lp3022
g63
(g84
g65
NtRp3023
(dp3024
g68
(dp3025
g88
g89
ssg77
g3019
sg70
(lp3026
S'HTTP_CONNECTION'
p3027
asbag63
(g84
g65
NtRp3028
(dp3029
g68
(dp3030
g95
g96
ssg77
g3019
sg70
(lp3031
S':'
asbag63
(g84
g65
NtRp3032
(dp3033
g68
(dp3034
sg77
g3019
sg70
(lp3035
g63
(g64
g65
NtRp3036
(dp3037
g68
(dp3038
g76
I3
ssg77
g3032
sg70
(lp3039
g1489
asbasbasbag63
(g79
g65
NtRp3040
(dp3041
g68
(dp3042
sg77
g2910
sg70
(lp3043
g63
(g84
g65
NtRp3044
(dp3045
g68
(dp3046
g88
g89
ssg77
g3040
sg70
(lp3047
S'HTTP_CONTENT_LENGTH'
p3048
asbag63
(g84
g65
NtRp3049
(dp3050
g68
(dp3051
g95
g96
ssg77
g3040
sg70
(lp3052
S':'
asbag63
(g84
g65
NtRp3053
(dp3054
g68
(dp3055
sg77
g3040
sg70
(lp3056
g63
(g64
g65
NtRp3057
(dp3058
g68
(dp3059
g76
I3
ssg77
g3053
sg70
(lp3060
g1314
asbasbasbag63
(g79
g65
NtRp3061
(dp3062
g68
(dp3063
sg77
g2910
sg70
(lp3064
g63
(g84
g65
NtRp3065
(dp3066
g68
(dp3067
g88
g89
ssg77
g3061
sg70
(lp3068
S'HTTP_CONTENT_TYPE'
p3069
asbag63
(g84
g65
NtRp3070
(dp3071
g68
(dp3072
g95
g96
ssg77
g3061
sg70
(lp3073
S':'
asbag63
(g84
g65
NtRp3074
(dp3075
g68
(dp3076
sg77
g3061
sg70
(lp3077
g63
(g64
g65
NtRp3078
(dp3079
g68
(dp3080
g76
I3
ssg77
g3074
sg70
(lp3081
g1336
asbasbasbag63
(g79
g65
NtRp3082
(dp3083
g68
(dp3084
sg77
g2910
sg70
(lp3085
g63
(g84
g65
NtRp3086
(dp3087
g68
(dp3088
g88
g89
ssg77
g3082
sg70
(lp3089
S'HTTP_COOKIE'
p3090
asbag63
(g84
g65
NtRp3091
(dp3092
g68
(dp3093
g95
g96
ssg77
g3082
sg70
(lp3094
S':'
asbag63
(g84
g65
NtRp3095
(dp3096
g68
(dp3097
sg77
g3082
sg70
(lp3098
g63
(g64
g65
NtRp3099
(dp3100
g68
(dp3101
g76
I3
ssg77
g3095
sg70
(lp3102
g1553
asbasbasbag63
(g79
g65
NtRp3103
(dp3104
g68
(dp3105
sg77
g2910
sg70
(lp3106
g63
(g84
g65
NtRp3107
(dp3108
g68
(dp3109
g88
g89
ssg77
g3103
sg70
(lp3110
S'HTTP_HOST'
p3111
asbag63
(g84
g65
NtRp3112
(dp3113
g68
(dp3114
g95
g96
ssg77
g3103
sg70
(lp3115
S':'
asbag63
(g84
g65
NtRp3116
(dp3117
g68
(dp3118
sg77
g3103
sg70
(lp3119
g63
(g64
g65
NtRp3120
(dp3121
g68
(dp3122
g76
I3
ssg77
g3116
sg70
(lp3123
g1575
asbasbasbag63
(g79
g65
NtRp3124
(dp3125
g68
(dp3126
sg77
g2910
sg70
(lp3127
g63
(g84
g65
NtRp3128
(dp3129
g68
(dp3130
g88
g89
ssg77
g3124
sg70
(lp3131
S'HTTP_REFERER'
p3132
asbag63
(g84
g65
NtRp3133
(dp3134
g68
(dp3135
g95
g96
ssg77
g3124
sg70
(lp3136
S':'
asbag63
(g84
g65
NtRp3137
(dp3138
g68
(dp3139
sg77
g3124
sg70
(lp3140
g63
(g64
g65
NtRp3141
(dp3142
g68
(dp3143
g76
I3
ssg77
g3137
sg70
(lp3144
g1597
asbasbasbag63
(g79
g65
NtRp3145
(dp3146
g68
(dp3147
sg77
g2910
sg70
(lp3148
g63
(g84
g65
NtRp3149
(dp3150
g68
(dp3151
g88
g89
ssg77
g3145
sg70
(lp3152
S'HTTP_USER_AGENT'
p3153
asbag63
(g84
g65
NtRp3154
(dp3155
g68
(dp3156
g95
g96
ssg77
g3145
sg70
(lp3157
S':'
asbag63
(g84
g65
NtRp3158
(dp3159
g68
(dp3160
sg77
g3145
sg70
(lp3161
g63
(g64
g65
NtRp3162
(dp3163
g68
(dp3164
g76
I3
ssg77
g3158
sg70
(lp3165
g1619
asbasbasbag63
(g79
g65
NtRp3166
(dp3167
g68
(dp3168
sg77
g2910
sg70
(lp3169
g63
(g84
g65
NtRp3170
(dp3171
g68
(dp3172
g88
g89
ssg77
g3166
sg70
(lp3173
S'PATH_INFO'
p3174
asbag63
(g84
g65
NtRp3175
(dp3176
g68
(dp3177
g95
g96
ssg77
g3166
sg70
(lp3178
S':'
asbag63
(g84
g65
NtRp3179
(dp3180
g68
(dp3181
sg77
g3166
sg70
(lp3182
g63
(g64
g65
NtRp3183
(dp3184
g68
(dp3185
g76
I3
ssg77
g3179
sg70
(lp3186
g1662
asbasbasbag63
(g79
g65
NtRp3187
(dp3188
g68
(dp3189
sg77
g2910
sg70
(lp3190
g63
(g84
g65
NtRp3191
(dp3192
g68
(dp3193
g88
g89
ssg77
g3187
sg70
(lp3194
S'QUERY_STRING'
p3195
asbag63
(g84
g65
NtRp3196
(dp3197
g68
(dp3198
g95
g96
ssg77
g3187
sg70
(lp3199
S':'
asbag63
(g84
g65
NtRp3200
(dp3201
g68
(dp3202
sg77
g3187
sg70
(lp3203
g63
(g64
g65
NtRp3204
(dp3205
g68
(dp3206
g76
I3
ssg77
g3200
sg70
(lp3207
S''
asbasbasbag63
(g79
g65
NtRp3208
(dp3209
g68
(dp3210
sg77
g2910
sg70
(lp3211
g63
(g84
g65
NtRp3212
(dp3213
g68
(dp3214
g88
g89
ssg77
g3208
sg70
(lp3215
S'REMOTE_ADDR'
p3216
asbag63
(g84
g65
NtRp3217
(dp3218
g68
(dp3219
g95
g96
ssg77
g3208
sg70
(lp3220
S':'
asbag63
(g84
g65
NtRp3221
(dp3222
g68
(dp3223
sg77
g3208
sg70
(lp3224
g63
(g64
g65
NtRp3225
(dp3226
g68
(dp3227
g76
I3
ssg77
g3221
sg70
(lp3228
g196
asbasbasbag63
(g79
g65
NtRp3229
(dp3230
g68
(dp3231
sg77
g2910
sg70
(lp3232
g63
(g84
g65
NtRp3233
(dp3234
g68
(dp3235
g88
g89
ssg77
g3229
sg70
(lp3236
S'REMOTE_PORT'
p3237
asbag63
(g84
g65
NtRp3238
(dp3239
g68
(dp3240
g95
g96
ssg77
g3229
sg70
(lp3241
S':'
asbag63
(g84
g65
NtRp3242
(dp3243
g68
(dp3244
sg77
g3229
sg70
(lp3245
g63
(g64
g65
NtRp3246
(dp3247
g68
(dp3248
g76
I3
ssg77
g3242
sg70
(lp3249
g1726
asbasbasbag63
(g79
g65
NtRp3250
(dp3251
g68
(dp3252
sg77
g2910
sg70
(lp3253
g63
(g84
g65
NtRp3254
(dp3255
g68
(dp3256
g88
g89
ssg77
g3250
sg70
(lp3257
S'REQUEST_METHOD'
p3258
asbag63
(g84
g65
NtRp3259
(dp3260
g68
(dp3261
g95
g96
ssg77
g3250
sg70
(lp3262
S':'
asbag63
(g84
g65
NtRp3263
(dp3264
g68
(dp3265
sg77
g3250
sg70
(lp3266
g63
(g64
g65
NtRp3267
(dp3268
g68
(dp3269
g76
I3
ssg77
g3263
sg70
(lp3270
g1748
asbasbasbag63
(g79
g65
NtRp3271
(dp3272
g68
(dp3273
sg77
g2910
sg70
(lp3274
g63
(g84
g65
NtRp3275
(dp3276
g68
(dp3277
g88
g89
ssg77
g3271
sg70
(lp3278
S'SCRIPT_NAME'
p3279
asbag63
(g84
g65
NtRp3280
(dp3281
g68
(dp3282
g95
g96
ssg77
g3271
sg70
(lp3283
S':'
asbag63
(g84
g65
NtRp3284
(dp3285
g68
(dp3286
sg77
g3271
sg70
(lp3287
g63
(g64
g65
NtRp3288
(dp3289
g68
(dp3290
g76
I3
ssg77
g3284
sg70
(lp3291
S''
asbasbasbag63
(g79
g65
NtRp3292
(dp3293
g68
(dp3294
sg77
g2910
sg70
(lp3295
g63
(g84
g65
NtRp3296
(dp3297
g68
(dp3298
g88
g89
ssg77
g3292
sg70
(lp3299
S'SERVER_NAME'
p3300
asbag63
(g84
g65
NtRp3301
(dp3302
g68
(dp3303
g95
g96
ssg77
g3292
sg70
(lp3304
S':'
asbag63
(g84
g65
NtRp3305
(dp3306
g68
(dp3307
sg77
g3292
sg70
(lp3308
g63
(g64
g65
NtRp3309
(dp3310
g68
(dp3311
g76
I3
ssg77
g3305
sg70
(lp3312
g1791
asbasbasbag63
(g79
g65
NtRp3313
(dp3314
g68
(dp3315
sg77
g2910
sg70
(lp3316
g63
(g84
g65
NtRp3317
(dp3318
g68
(dp3319
g88
g89
ssg77
g3313
sg70
(lp3320
S'SERVER_PORT'
p3321
asbag63
(g84
g65
NtRp3322
(dp3323
g68
(dp3324
g95
g96
ssg77
g3313
sg70
(lp3325
S':'
asbag63
(g84
g65
NtRp3326
(dp3327
g68
(dp3328
sg77
g3313
sg70
(lp3329
g63
(g64
g65
NtRp3330
(dp3331
g68
(dp3332
g76
I3
ssg77
g3326
sg70
(lp3333
g1813
asbasbasbag63
(g79
g65
NtRp3334
(dp3335
g68
(dp3336
sg77
g2910
sg70
(lp3337
g63
(g84
g65
NtRp3338
(dp3339
g68
(dp3340
g88
g89
ssg77
g3334
sg70
(lp3341
S'SERVER_PROTOCOL'
p3342
asbag63
(g84
g65
NtRp3343
(dp3344
g68
(dp3345
g95
g96
ssg77
g3334
sg70
(lp3346
S':'
asbag63
(g84
g65
NtRp3347
(dp3348
g68
(dp3349
sg77
g3334
sg70
(lp3350
g63
(g64
g65
NtRp3351
(dp3352
g68
(dp3353
g76
I3
ssg77
g3347
sg70
(lp3354
g1835
asbasbasbag63
(g79
g65
NtRp3355
(dp3356
g68
(dp3357
sg77
g2910
sg70
(lp3358
g63
(g84
g65
NtRp3359
(dp3360
g68
(dp3361
g88
g89
ssg77
g3355
sg70
(lp3362
S'SERVER_SOFTWARE'
p3363
asbag63
(g84
g65
NtRp3364
(dp3365
g68
(dp3366
g95
g96
ssg77
g3355
sg70
(lp3367
S':'
asbag63
(g84
g65
NtRp3368
(dp3369
g68
(dp3370
sg77
g3355
sg70
(lp3371
g63
(g64
g65
NtRp3372
(dp3373
g68
(dp3374
g76
I3
ssg77
g3368
sg70
(lp3375
g1857
asbasbasbag63
(g79
g65
NtRp3376
(dp3377
g68
(dp3378
sg77
g2910
sg70
(lp3379
g63
(g84
g65
NtRp3380
(dp3381
g68
(dp3382
g88
g89
ssg77
g3376
sg70
(lp3383
S'wsgi.errors'
p3384
asbag63
(g84
g65
NtRp3385
(dp3386
g68
(dp3387
g95
g96
ssg77
g3376
sg70
(lp3388
S':'
asbag63
(g84
g65
NtRp3389
(dp3390
g68
(dp3391
sg77
g3376
sg70
(lp3392
g63
(g64
g65
NtRp3393
(dp3394
g68
(dp3395
g76
I3
ssg77
g3389
sg70
(lp3396
S"<open file '<stderr>', mode 'w' at 0xb738b0d0>"
p3397
asbasbasbag63
(g79
g65
NtRp3398
(dp3399
g68
(dp3400
sg77
g2910
sg70
(lp3401
g63
(g84
g65
NtRp3402
(dp3403
g68
(dp3404
g88
g89
ssg77
g3398
sg70
(lp3405
S'wsgi.file_wrapper'
p3406
asbag63
(g84
g65
NtRp3407
(dp3408
g68
(dp3409
g95
g96
ssg77
g3398
sg70
(lp3410
S':'
asbag63
(g84
g65
NtRp3411
(dp3412
g68
(dp3413
sg77
g3398
sg70
(lp3414
g63
(g64
g65
NtRp3415
(dp3416
g68
(dp3417
g76
I3
ssg77
g3411
sg70
(lp3418
S'<class wsgiref.util.FileWrapper at 0xa4ce92c>'
p3419
asbasbasbag63
(g79
g65
NtRp3420
(dp3421
g68
(dp3422
sg77
g2910
sg70
(lp3423
g63
(g84
g65
NtRp3424
(dp3425
g68
(dp3426
g88
g89
ssg77
g3420
sg70
(lp3427
S'wsgi.input'
p3428
asbag63
(g84
g65
NtRp3429
(dp3430
g68
(dp3431
g95
g96
ssg77
g3420
sg70
(lp3432
S':'
asbag63
(g84
g65
NtRp3433
(dp3434
g68
(dp3435
sg77
g3420
sg70
(lp3436
g63
(g64
g65
NtRp3437
(dp3438
g68
(dp3439
g76
I3
ssg77
g3433
sg70
(lp3440
S"<open file '<fdopen>', mode 'w+b' at 0xafffa70>"
p3441
asbasbasbag63
(g79
g65
NtRp3442
(dp3443
g68
(dp3444
sg77
g2910
sg70
(lp3445
g63
(g84
g65
NtRp3446
(dp3447
g68
(dp3448
g88
g89
ssg77
g3442
sg70
(lp3449
S'wsgi.multiprocess'
p3450
asbag63
(g84
g65
NtRp3451
(dp3452
g68
(dp3453
g95
g96
ssg77
g3442
sg70
(lp3454
S':'
asbag63
(g84
g65
NtRp3455
(dp3456
g68
(dp3457
sg77
g3442
sg70
(lp3458
g63
(g64
g65
NtRp3459
(dp3460
g68
(dp3461
g76
I3
ssg77
g3455
sg70
(lp3462
g106
asbasbasbag63
(g79
g65
NtRp3463
(dp3464
g68
(dp3465
sg77
g2910
sg70
(lp3466
g63
(g84
g65
NtRp3467
(dp3468
g68
(dp3469
g88
g89
ssg77
g3463
sg70
(lp3470
S'wsgi.multithread'
p3471
asbag63
(g84
g65
NtRp3472
(dp3473
g68
(dp3474
g95
g96
ssg77
g3463
sg70
(lp3475
S':'
asbag63
(g84
g65
NtRp3476
(dp3477
g68
(dp3478
sg77
g3463
sg70
(lp3479
g63
(g64
g65
NtRp3480
(dp3481
g68
(dp3482
g76
I3
ssg77
g3476
sg70
(lp3483
g2097
asbasbasbag63
(g79
g65
NtRp3484
(dp3485
g68
(dp3486
sg77
g2910
sg70
(lp3487
g63
(g84
g65
NtRp3488
(dp3489
g68
(dp3490
g88
g89
ssg77
g3484
sg70
(lp3491
S'wsgi.run_once'
p3492
asbag63
(g84
g65
NtRp3493
(dp3494
g68
(dp3495
g95
g96
ssg77
g3484
sg70
(lp3496
S':'
asbag63
(g84
g65
NtRp3497
(dp3498
g68
(dp3499
sg77
g3484
sg70
(lp3500
g63
(g64
g65
NtRp3501
(dp3502
g68
(dp3503
g76
I3
ssg77
g3497
sg70
(lp3504
g106
asbasbasbag63
(g79
g65
NtRp3505
(dp3506
g68
(dp3507
sg77
g2910
sg70
(lp3508
g63
(g84
g65
NtRp3509
(dp3510
g68
(dp3511
g88
g89
ssg77
g3505
sg70
(lp3512
S'wsgi.url_scheme'
p3513
asbag63
(g84
g65
NtRp3514
(dp3515
g68
(dp3516
g95
g96
ssg77
g3505
sg70
(lp3517
S':'
asbag63
(g84
g65
NtRp3518
(dp3519
g68
(dp3520
sg77
g3505
sg70
(lp3521
g63
(g64
g65
NtRp3522
(dp3523
g68
(dp3524
g76
I3
ssg77
g3518
sg70
(lp3525
g2140
asbasbasbag63
(g79
g65
NtRp3526
(dp3527
g68
(dp3528
sg77
g2910
sg70
(lp3529
g63
(g84
g65
NtRp3530
(dp3531
g68
(dp3532
g88
g89
ssg77
g3526
sg70
(lp3533
S'wsgi.version'
p3534
asbag63
(g84
g65
NtRp3535
(dp3536
g68
(dp3537
g95
g96
ssg77
g3526
sg70
(lp3538
S':'
asbag63
(g84
g65
NtRp3539
(dp3540
g68
(dp3541
sg77
g3526
sg70
(lp3542
g63
(g64
g65
NtRp3543
(dp3544
g68
(dp3545
g76
I3
ssg77
g3539
sg70
(lp3546
S'1'
asbasbasbasbasbasbasbasbasbasbasbasbasbsS'frames'
p3547
(lp3548
(dp3549
S'file'
p3550
S'/home/u4hcsdaw/Python/web2py/gluon/restricted.py'
p3551
sS'dump'
p3552
(dp3553
S'environment'
p3554
S"{'A': <class 'gluon.html.A'>, 'AcesCall': <function AcesCall>, 'Auth': <class 'gluon.tools.Auth'>, 'B': <class 'gluon.html.B'>, 'BEAUTIFY': <class 'gluon.html.BEAUTIFY'>, 'BODY': <class 'gluon.html.BODY'>, 'BR': <class 'gluon.html.BR'>, 'BUTTON': <class 'gluon.html.BUTTON'>, 'CAT': <class 'gluon.html.CAT'>, 'CENTER': <class 'gluon.html.CENTER'>, ...}"
p3555
sS'ccode'
p3556
S'<code object <module> at 0xa990848, file "/home/...plications/ACES/controllers/default.py", line 12>'
p3557
ssS'lnum'
p3558
I194
sS'lines'
p3559
(dp3560
I192
S'        else:'
p3561
sI193
S'            ccode = compile2(code,layer)'
p3562
sI194
S'        exec ccode in environment'
p3563
sI195
S'    except HTTP:'
p3564
sI196
S'        raise'
p3565
sI197
S'    except Exception, error:'
p3566
sI198
S'        # XXX Show exception in Wing IDE if running in debugger'
p3567
sI189
S'    try:'
p3568
sI190
S'        if type(code) == types.CodeType:'
p3569
sI191
S'            ccode = code'
p3570
ssS'call'
p3571
S"(code='# -*- coding: utf-8 -*-\\n# this file is released ...=crud())\\n\\nresponse._vars=response._caller(index)\\n', environment={'A': <class 'gluon.html.A'>, 'AcesCall': <function AcesCall>, 'Auth': <class 'gluon.tools.Auth'>, 'B': <class 'gluon.html.B'>, 'BEAUTIFY': <class 'gluon.html.BEAUTIFY'>, 'BODY': <class 'gluon.html.BODY'>, 'BR': <class 'gluon.html.BR'>, 'BUTTON': <class 'gluon.html.BUTTON'>, 'CAT': <class 'gluon.html.CAT'>, 'CENTER': <class 'gluon.html.CENTER'>, ...}, layer='/home/u4hcsdaw/Python/web2py/applications/ACES/controllers/default.py')"
p3572
sS'func'
p3573
S'restricted'
p3574
sa(dp3575
g3550
S'/home/u4hcsdaw/Python/web2py/applications/ACES/controllers/default.py'
p3576
sg3552
(dp3577
sg3558
I83
sg3559
(dp3578
I72
S'    http://..../[app]/default/data/update/[table]/[id]'
p3579
sI73
S'    http://..../[app]/default/data/delete/[table]/[id]'
p3580
sI74
S'    http://..../[app]/default/data/select/[table]'
p3581
sI75
S'    http://..../[app]/default/data/search/[table]'
p3582
sI76
S'    but URLs bust be signed, i.e. linked with'
p3583
sI77
S"      A('table',_href=URL('data/tables',user_signature=True))"
p3584
sI78
S'    or with the signed load operator'
p3585
sI79
S"      LOAD('default','data.load',args='tables',ajax=True,user_signature=True)"
p3586
sI80
S'    """'
p3587
sI81
S'    return dict(form=crud())'
p3588
ssg3571
S'()'
p3589
sg3573
S'<module>'
p3590
sa(dp3591
g3550
S'/home/u4hcsdaw/Python/web2py/gluon/globals.py'
p3592
sg3552
(dp3593
S'self'
p3594
S'undefined'
p3595
sS'f'
S'<function index>'
p3596
ssg3558
I149
sg3559
(dp3597
I144
S'        self.meta = Storage()      # used by web2py_ajax.html'
p3598
sI145
S'        self.menu = []             # used by the default view layout'
p3599
sI146
S'        self.files = []            # used by web2py_ajax.html'
p3600
sI147
S'        self.generic_patterns = [] # patterns to allow generic views'
p3601
sI148
S'        self._vars = None'
p3602
sI149
S'        self._caller = lambda f: f()'
p3603
sI150
S'        self._view_environment = None'
p3604
sI151
S'        self._custom_commit = None'
p3605
sI152
S'        self._custom_rollback = None'
p3606
sI153
S''
ssg3571
S'(f=<function index>)'
p3607
sg3573
S'<lambda>'
p3608
sa(dp3609
g3550
S'/home/u4hcsdaw/Python/web2py/applications/ACES/controllers/default.py'
p3610
sg3552
(dp3611
S'global AcesCall'
p3612
S'<function AcesCall>'
p3613
sS'f1'
p3614
S'<gluon.html.FORM object>'
p3615
sS'f1.vars'
p3616
S"<Storage {'waveHeight': '0.85', 'subButton': 'Submit Query'}>"
p3617
sS't0'
p3618
S"''"
p3619
ssg3558
I27
sg3559
(dp3620
I22
S"    ip1=INPUT(_type='text', _name='waveHeight', _value='0.85')"
p3621
sI23
S"    sub1=INPUT(_type='submit',_name='subButton')"
p3622
sI24
S"    f1=FORM('wave',ip1,sub1,_name='Form1',_action='')"
p3623
sI25
S'    if f1.accepts(request.vars,session):'
p3624
sI26
S'        session.formVars=f1.vars'
p3625
sI27
S'        t0=AcesCall(f1.vars)'
p3626
sI28
S"        img1=IMG(_src=URL('static','images/Waves.svg?'+nowS))"
p3627
sI29
S'    return dict(form=f1,t0=t0,img1=img1)'
p3628
sI30
S''
sI31
S'def user():'
p3629
ssg3571
S'()'
p3630
sg3573
S'index'
p3631
sa(dp3632
g3550
S'/home/u4hcsdaw/Python/web2py/applications/ACES/models/functionsAces.py'
p3633
sg3552
(dp3634
S'res'
p3635
g3595
sS'comm'
p3636
S'[\'octave -q --eval "H=0.85" \', \'applications/ACES/Waves/linear_wave_theory.m\']'
p3637
sS'subprocess.call'
p3638
S'<function call>'
p3639
sS'subprocess'
p3640
S"<module 'subprocess' from '/home/u4hcsdaw/Python/epd/lib/python2.7/subprocess.pyc'>"
p3641
ssg3558
I9
sg3559
(dp3642
I3
S'    import subprocess'
p3643
sI4
S''
sI5
S"    WaveHeight=formVars['waveHeight']"
p3644
sI6
S"    ##WavePeriod=formVars['wavePeriod'] or 9.0"
p3645
sI7
S'    EvalString=\'octave -q --eval "H=%(H)s" \' % dict(H=WaveHeight)'
p3646
sI8
S"    comm=[EvalString,'applications/ACES/Waves/linear_wave_theory.m']"
p3647
sI9
S'    res=subprocess.call(comm)'
p3648
sI10
S"    retString='%s %s' %(WaveHeight,res)"
p3649
sI11
S''
sI12
S'    return retString'
p3650
ssg3571
S"(formVars=<Storage {'waveHeight': '0.85', 'subButton': 'Submit Query'}>)"
p3651
sg3573
S'AcesCall'
p3652
sa(dp3653
g3550
S'/home/u4hcsdaw/Python/epd/lib/python2.7/subprocess.py'
p3654
sg3552
(dp3655
S').wait'
p3656
g3595
sS'global Popen'
p3657
S"<class 'subprocess.Popen'>"
p3658
sS'popenargs'
p3659
S'([\'octave -q --eval "H=0.85" \', \'applications/ACES/Waves/linear_wave_theory.m\'],)'
p3660
sS'kwargs'
p3661
S'{}'
p3662
ssg3558
I493
sg3559
(dp3663
I488
S''
sI489
S'    The arguments are the same as for the Popen constructor.  Example:'
p3664
sI490
S''
sI491
S'    retcode = call(["ls", "-l"])'
p3665
sI492
S'    """'
p3666
sI493
S'    return Popen(*popenargs, **kwargs).wait()'
p3667
sI494
S''
sI495
S''
sI496
S'def check_call(*popenargs, **kwargs):'
p3668
sI497
S'    """Run command with arguments.  Wait for command to complete.  If'
p3669
ssg3571
S'(*popenargs=([\'octave -q --eval "H=0.85" \', \'applications/ACES/Waves/linear_wave_theory.m\'],), **kwargs={})'
p3670
sg3573
g3571
sa(dp3671
g3550
S'/home/u4hcsdaw/Python/epd/lib/python2.7/subprocess.py'
p3672
sg3552
(dp3673
S'errwrite'
p3674
S'None'
p3675
sS'errread'
p3676
S'None'
p3677
ssg3558
I679
sg3559
(dp3678
I674
S'        self._execute_child(args, executable, preexec_fn, close_fds,'
p3679
sI675
S'                            cwd, env, universal_newlines,'
p3680
sI676
S'                            startupinfo, creationflags, shell,'
p3681
sI677
S'                            p2cread, p2cwrite,'
p3682
sI678
S'                            c2pread, c2pwrite,'
p3683
sI679
S'                            errread, errwrite)'
p3684
sI680
S''
sI681
S'        if mswindows:'
p3685
sI682
S'            if p2cwrite is not None:'
p3686
sI683
S'                p2cwrite = msvcrt.open_osfhandle(p2cwrite.Detach(), 0)'
p3687
ssg3571
S'(self=<subprocess.Popen object>, args=[\'octave -q --eval "H=0.85" \', \'applications/ACES/Waves/linear_wave_theory.m\'], bufsize=0, executable=None, stdin=None, stdout=None, stderr=None, preexec_fn=None, close_fds=False, shell=False, cwd=None, env=None, universal_newlines=False, startupinfo=None, creationflags=0)'
p3688
sg3573
g21
sa(dp3689
g3550
S'/home/u4hcsdaw/Python/epd/lib/python2.7/subprocess.py'
p3690
sg3552
(dp3691
S'child_exception'
p3692
S"OSError(2, 'No such file or directory')"
p3693
ssg3558
I1249
sg3559
(dp3694
I1248
S'                        os.close(fd)'
p3695
sI1249
S'                raise child_exception'
p3696
sI1250
S''
sI1251
S''
sI1252
S'        def _handle_exitstatus(self, sts, _WIFSIGNALED=os.WIFSIGNALED,'
p3697
sI1253
S'                _WTERMSIG=os.WTERMSIG, _WIFEXITED=os.WIFEXITED,'
p3698
sI1244
S'                        raise'
p3699
sI1245
S'                child_exception = pickle.loads(data)'
p3700
sI1246
S'                for fd in (p2cwrite, c2pread, errread):'
p3701
sI1247
S'                    if fd is not None:'
p3702
ssg3571
S'(self=<subprocess.Popen object>, args=[\'octave -q --eval "H=0.85" \', \'applications/ACES/Waves/linear_wave_theory.m\'], executable=\'octave -q --eval "H=0.85" \', preexec_fn=None, close_fds=False, cwd=None, env=None, universal_newlines=False, startupinfo=None, creationflags=0, shell=False, p2cread=None, p2cwrite=None, c2pread=None, c2pwrite=None, errread=None, errwrite=None)'
p3703
sg3573
S'_execute_child'
p3704
sasS'pyver'
p3705
S'Python 2.7.3: /home/u4hcsdaw/Python/epd/bin/python2.7'
p3706
sS'session'
p3707
g63
(g64
g65
NtRp3708
(dp3709
g68
(dp3710
sg70
(lp3711
g63
(g72
g65
NtRp3712
(dp3713
g68
(dp3714
g76
I5
ssg77
Nsg70
(lp3715
g63
(g79
g65
NtRp3716
(dp3717
g68
(dp3718
sg77
g3712
sg70
(lp3719
g63
(g84
g65
NtRp3720
(dp3721
g68
(dp3722
g88
g89
ssg77
g3716
sg70
(lp3723
S'formVars'
p3724
asbag63
(g84
g65
NtRp3725
(dp3726
g68
(dp3727
g95
g96
ssg77
g3716
sg70
(lp3728
S':'
asbag63
(g84
g65
NtRp3729
(dp3730
g68
(dp3731
sg77
g3716
sg70
(lp3732
g63
(g64
g65
NtRp3733
(dp3734
g68
(dp3735
g76
I5
ssg77
g3729
sg70
(lp3736
g63
(g72
g65
NtRp3737
(dp3738
g68
(dp3739
g76
I4
ssg77
Nsg70
(lp3740
g63
(g79
g65
NtRp3741
(dp3742
g68
(dp3743
sg77
g3737
sg70
(lp3744
g63
(g84
g65
NtRp3745
(dp3746
g68
(dp3747
g88
g89
ssg77
g3741
sg70
(lp3748
S'subButton'
p3749
asbag63
(g84
g65
NtRp3750
(dp3751
g68
(dp3752
g95
g96
ssg77
g3741
sg70
(lp3753
S':'
asbag63
(g84
g65
NtRp3754
(dp3755
g68
(dp3756
sg77
g3741
sg70
(lp3757
g63
(g64
g65
NtRp3758
(dp3759
g68
(dp3760
g76
I4
ssg77
g3754
sg70
(lp3761
g2710
asbasbasbag63
(g79
g65
NtRp3762
(dp3763
g68
(dp3764
sg77
g3737
sg70
(lp3765
g63
(g84
g65
NtRp3766
(dp3767
g68
(dp3768
g88
g89
ssg77
g3762
sg70
(lp3769
S'waveHeight'
p3770
asbag63
(g84
g65
NtRp3771
(dp3772
g68
(dp3773
g95
g96
ssg77
g3762
sg70
(lp3774
S':'
asbag63
(g84
g65
NtRp3775
(dp3776
g68
(dp3777
sg77
g3762
sg70
(lp3778
g63
(g64
g65
NtRp3779
(dp3780
g68
(dp3781
g76
I4
ssg77
g3775
sg70
(lp3782
g2732
asbasbasbasbasbasbasbasbasbsS'etype'
p3783
S"<type 'exceptions.OSError'>"
p3784
sS'date'
p3785
S'Tue Jun  5 17:07:01 2012'
p3786
sS'response'
p3787
g63
(g64
g65
NtRp3788
(dp3789
g68
(dp3790
sg70
(lp3791
g63
(g72
g65
NtRp3792
(dp3793
g68
(dp3794
g76
I5
ssg77
Nsg70
(lp3795
g63
(g79
g65
NtRp3796
(dp3797
g68
(dp3798
sg77
g3792
sg70
(lp3799
g63
(g84
g65
NtRp3800
(dp3801
g68
(dp3802
g88
g89
ssg77
g3796
sg70
(lp3803
g161
asbag63
(g84
g65
NtRp3804
(dp3805
g68
(dp3806
g95
g96
ssg77
g3796
sg70
(lp3807
S':'
asbag63
(g84
g65
NtRp3808
(dp3809
g68
(dp3810
sg77
g3796
sg70
(lp3811
g63
(g64
g65
NtRp3812
(dp3813
g68
(dp3814
g76
I5
ssg77
g3808
sg70
(lp3815
S'<cStringIO.StringO object at 0xabbe520>'
p3816
asbasbasbag63
(g79
g65
NtRp3817
(dp3818
g68
(dp3819
sg77
g3792
sg70
(lp3820
g63
(g84
g65
NtRp3821
(dp3822
g68
(dp3823
g88
g89
ssg77
g3817
sg70
(lp3824
g227
asbag63
(g84
g65
NtRp3825
(dp3826
g68
(dp3827
g95
g96
ssg77
g3817
sg70
(lp3828
S':'
asbag63
(g84
g65
NtRp3829
(dp3830
g68
(dp3831
sg77
g3817
sg70
(lp3832
g63
(g64
g65
NtRp3833
(dp3834
g68
(dp3835
g76
I5
ssg77
g3829
sg70
(lp3836
g63
(g72
g65
NtRp3837
(dp3838
g68
(dp3839
g76
I4
ssg77
Nsg70
(lp3840
g63
(g79
g65
NtRp3841
(dp3842
g68
(dp3843
sg77
g3837
sg70
(lp3844
g63
(g84
g65
NtRp3845
(dp3846
g68
(dp3847
g88
g89
ssg77
g3841
sg70
(lp3848
S'session_id_aces'
p3849
asbag63
(g84
g65
NtRp3850
(dp3851
g68
(dp3852
g95
g96
ssg77
g3841
sg70
(lp3853
S':'
asbag63
(g84
g65
NtRp3854
(dp3855
g68
(dp3856
sg77
g3841
sg70
(lp3857
g63
(g64
g65
NtRp3858
(dp3859
g68
(dp3860
g76
I4
ssg77
g3854
sg70
(lp3861
g63
(g72
g65
NtRp3862
(dp3863
g68
(dp3864
g76
I3
ssg77
Nsg70
(lp3865
g63
(g79
g65
NtRp3866
(dp3867
g68
(dp3868
sg77
g3862
sg70
(lp3869
g63
(g84
g65
NtRp3870
(dp3871
g68
(dp3872
g88
g89
ssg77
g3866
sg70
(lp3873
g277
asbag63
(g84
g65
NtRp3874
(dp3875
g68
(dp3876
g95
g96
ssg77
g3866
sg70
(lp3877
S':'
asbag63
(g84
g65
NtRp3878
(dp3879
g68
(dp3880
sg77
g3866
sg70
(lp3881
g63
(g64
g65
NtRp3882
(dp3883
g68
(dp3884
g76
I3
ssg77
g3878
sg70
(lp3885
S''
asbasbasbag63
(g79
g65
NtRp3886
(dp3887
g68
(dp3888
sg77
g3862
sg70
(lp3889
g63
(g84
g65
NtRp3890
(dp3891
g68
(dp3892
g88
g89
ssg77
g3886
sg70
(lp3893
g298
asbag63
(g84
g65
NtRp3894
(dp3895
g68
(dp3896
g95
g96
ssg77
g3886
sg70
(lp3897
S':'
asbag63
(g84
g65
NtRp3898
(dp3899
g68
(dp3900
sg77
g3886
sg70
(lp3901
g63
(g64
g65
NtRp3902
(dp3903
g68
(dp3904
g76
I3
ssg77
g3898
sg70
(lp3905
S''
asbasbasbag63
(g79
g65
NtRp3906
(dp3907
g68
(dp3908
sg77
g3862
sg70
(lp3909
g63
(g84
g65
NtRp3910
(dp3911
g68
(dp3912
g88
g89
ssg77
g3906
sg70
(lp3913
g319
asbag63
(g84
g65
NtRp3914
(dp3915
g68
(dp3916
g95
g96
ssg77
g3906
sg70
(lp3917
S':'
asbag63
(g84
g65
NtRp3918
(dp3919
g68
(dp3920
sg77
g3906
sg70
(lp3921
g63
(g64
g65
NtRp3922
(dp3923
g68
(dp3924
g76
I3
ssg77
g3918
sg70
(lp3925
S''
asbasbasbag63
(g79
g65
NtRp3926
(dp3927
g68
(dp3928
sg77
g3862
sg70
(lp3929
g63
(g84
g65
NtRp3930
(dp3931
g68
(dp3932
g88
g89
ssg77
g3926
sg70
(lp3933
g340
asbag63
(g84
g65
NtRp3934
(dp3935
g68
(dp3936
g95
g96
ssg77
g3926
sg70
(lp3937
S':'
asbag63
(g84
g65
NtRp3938
(dp3939
g68
(dp3940
sg77
g3926
sg70
(lp3941
g63
(g64
g65
NtRp3942
(dp3943
g68
(dp3944
g76
I3
ssg77
g3938
sg70
(lp3945
S''
asbasbasbag63
(g79
g65
NtRp3946
(dp3947
g68
(dp3948
sg77
g3862
sg70
(lp3949
g63
(g84
g65
NtRp3950
(dp3951
g68
(dp3952
g88
g89
ssg77
g3946
sg70
(lp3953
g361
asbag63
(g84
g65
NtRp3954
(dp3955
g68
(dp3956
g95
g96
ssg77
g3946
sg70
(lp3957
S':'
asbag63
(g84
g65
NtRp3958
(dp3959
g68
(dp3960
sg77
g3946
sg70
(lp3961
g63
(g64
g65
NtRp3962
(dp3963
g68
(dp3964
g76
I3
ssg77
g3958
sg70
(lp3965
S''
asbasbasbag63
(g79
g65
NtRp3966
(dp3967
g68
(dp3968
sg77
g3862
sg70
(lp3969
g63
(g84
g65
NtRp3970
(dp3971
g68
(dp3972
g88
g89
ssg77
g3966
sg70
(lp3973
g382
asbag63
(g84
g65
NtRp3974
(dp3975
g68
(dp3976
g95
g96
ssg77
g3966
sg70
(lp3977
S':'
asbag63
(g84
g65
NtRp3978
(dp3979
g68
(dp3980
sg77
g3966
sg70
(lp3981
g63
(g64
g65
NtRp3982
(dp3983
g68
(dp3984
g76
I3
ssg77
g3978
sg70
(lp3985
S'/'
asbasbasbag63
(g79
g65
NtRp3986
(dp3987
g68
(dp3988
sg77
g3862
sg70
(lp3989
g63
(g84
g65
NtRp3990
(dp3991
g68
(dp3992
g88
g89
ssg77
g3986
sg70
(lp3993
g403
asbag63
(g84
g65
NtRp3994
(dp3995
g68
(dp3996
g95
g96
ssg77
g3986
sg70
(lp3997
S':'
asbag63
(g84
g65
NtRp3998
(dp3999
g68
(dp4000
sg77
g3986
sg70
(lp4001
g63
(g64
g65
NtRp4002
(dp4003
g68
(dp4004
g76
I3
ssg77
g3998
sg70
(lp4005
S''
asbasbasbag63
(g79
g65
NtRp4006
(dp4007
g68
(dp4008
sg77
g3862
sg70
(lp4009
g63
(g84
g65
NtRp4010
(dp4011
g68
(dp4012
g88
g89
ssg77
g4006
sg70
(lp4013
g424
asbag63
(g84
g65
NtRp4014
(dp4015
g68
(dp4016
g95
g96
ssg77
g4006
sg70
(lp4017
S':'
asbag63
(g84
g65
NtRp4018
(dp4019
g68
(dp4020
sg77
g4006
sg70
(lp4021
g63
(g64
g65
NtRp4022
(dp4023
g68
(dp4024
g76
I3
ssg77
g4018
sg70
(lp4025
S''
asbasbasbasbasbasbasbasbasbasbasbag63
(g79
g65
NtRp4026
(dp4027
g68
(dp4028
sg77
g3792
sg70
(lp4029
g63
(g84
g65
NtRp4030
(dp4031
g68
(dp4032
g88
g89
ssg77
g4026
sg70
(lp4033
S'files'
p4034
asbag63
(g84
g65
NtRp4035
(dp4036
g68
(dp4037
g95
g96
ssg77
g4026
sg70
(lp4038
S':'
asbag63
(g84
g65
NtRp4039
(dp4040
g68
(dp4041
sg77
g4026
sg70
(lp4042
g63
(g64
g65
NtRp4043
(dp4044
g68
(dp4045
g76
I5
ssg77
g4039
sg70
(lp4046
g63
(g72
g65
NtRp4047
(dp4048
g68
(dp4049
g76
I4
ssg77
Nsg70
(lp4050
sbasbasbasbag63
(g79
g65
NtRp4051
(dp4052
g68
(dp4053
sg77
g3792
sg70
(lp4054
g63
(g84
g65
NtRp4055
(dp4056
g68
(dp4057
g88
g89
ssg77
g4051
sg70
(lp4058
S'flash'
p4059
asbag63
(g84
g65
NtRp4060
(dp4061
g68
(dp4062
g95
g96
ssg77
g4051
sg70
(lp4063
S':'
asbag63
(g84
g65
NtRp4064
(dp4065
g68
(dp4066
sg77
g4051
sg70
(lp4067
g63
(g64
g65
NtRp4068
(dp4069
g68
(dp4070
g76
I5
ssg77
g4064
sg70
(lp4071
S''
asbasbasbag63
(g79
g65
NtRp4072
(dp4073
g68
(dp4074
sg77
g3792
sg70
(lp4075
g63
(g84
g65
NtRp4076
(dp4077
g68
(dp4078
g88
g89
ssg77
g4072
sg70
(lp4079
S'generic_patterns'
p4080
asbag63
(g84
g65
NtRp4081
(dp4082
g68
(dp4083
g95
g96
ssg77
g4072
sg70
(lp4084
S':'
asbag63
(g84
g65
NtRp4085
(dp4086
g68
(dp4087
sg77
g4072
sg70
(lp4088
g63
(g64
g65
NtRp4089
(dp4090
g68
(dp4091
g76
I5
ssg77
g4085
sg70
(lp4092
g63
(g72
g65
NtRp4093
(dp4094
g68
(dp4095
g76
I4
ssg77
Nsg70
(lp4096
g63
(g79
g65
NtRp4097
(dp4098
g68
(dp4099
sg77
g4093
sg70
(lp4100
g63
(g84
g65
NtRp4101
(dp4102
g68
(dp4103
sg77
g4097
sg70
(lp4104
g63
(g64
g65
NtRp4105
(dp4106
g68
(dp4107
g76
I4
ssg77
g4101
sg70
(lp4108
S'*'
asbasbasbasbasbasbasbag63
(g79
g65
NtRp4109
(dp4110
g68
(dp4111
sg77
g3792
sg70
(lp4112
g63
(g84
g65
NtRp4113
(dp4114
g68
(dp4115
g88
g89
ssg77
g4109
sg70
(lp4116
S'headers'
p4117
asbag63
(g84
g65
NtRp4118
(dp4119
g68
(dp4120
g95
g96
ssg77
g4109
sg70
(lp4121
S':'
asbag63
(g84
g65
NtRp4122
(dp4123
g68
(dp4124
sg77
g4109
sg70
(lp4125
g63
(g64
g65
NtRp4126
(dp4127
g68
(dp4128
g76
I5
ssg77
g4122
sg70
(lp4129
g63
(g72
g65
NtRp4130
(dp4131
g68
(dp4132
g76
I4
ssg77
Nsg70
(lp4133
g63
(g79
g65
NtRp4134
(dp4135
g68
(dp4136
sg77
g4130
sg70
(lp4137
g63
(g84
g65
NtRp4138
(dp4139
g68
(dp4140
g88
g89
ssg77
g4134
sg70
(lp4141
S'Cache-Control'
p4142
asbag63
(g84
g65
NtRp4143
(dp4144
g68
(dp4145
g95
g96
ssg77
g4134
sg70
(lp4146
S':'
asbag63
(g84
g65
NtRp4147
(dp4148
g68
(dp4149
sg77
g4134
sg70
(lp4150
g63
(g64
g65
NtRp4151
(dp4152
g68
(dp4153
g76
I4
ssg77
g4147
sg70
(lp4154
S'no-store, no-cache, must-revalidate, post-check=0, pre-check=0'
p4155
asbasbasbag63
(g79
g65
NtRp4156
(dp4157
g68
(dp4158
sg77
g4130
sg70
(lp4159
g63
(g84
g65
NtRp4160
(dp4161
g68
(dp4162
g88
g89
ssg77
g4156
sg70
(lp4163
S'Content-Type'
p4164
asbag63
(g84
g65
NtRp4165
(dp4166
g68
(dp4167
g95
g96
ssg77
g4156
sg70
(lp4168
S':'
asbag63
(g84
g65
NtRp4169
(dp4170
g68
(dp4171
sg77
g4156
sg70
(lp4172
g63
(g64
g65
NtRp4173
(dp4174
g68
(dp4175
g76
I4
ssg77
g4169
sg70
(lp4176
S'text/html; charset=utf-8'
p4177
asbasbasbag63
(g79
g65
NtRp4178
(dp4179
g68
(dp4180
sg77
g4130
sg70
(lp4181
g63
(g84
g65
NtRp4182
(dp4183
g68
(dp4184
g88
g89
ssg77
g4178
sg70
(lp4185
S'Expires'
p4186
asbag63
(g84
g65
NtRp4187
(dp4188
g68
(dp4189
g95
g96
ssg77
g4178
sg70
(lp4190
S':'
asbag63
(g84
g65
NtRp4191
(dp4192
g68
(dp4193
sg77
g4178
sg70
(lp4194
g63
(g64
g65
NtRp4195
(dp4196
g68
(dp4197
g76
I4
ssg77
g4191
sg70
(lp4198
S'Tue, 05 Jun 2012 22:07:01 GMT'
p4199
asbasbasbag63
(g79
g65
NtRp4200
(dp4201
g68
(dp4202
sg77
g4130
sg70
(lp4203
g63
(g84
g65
NtRp4204
(dp4205
g68
(dp4206
g88
g89
ssg77
g4200
sg70
(lp4207
S'Pragma'
p4208
asbag63
(g84
g65
NtRp4209
(dp4210
g68
(dp4211
g95
g96
ssg77
g4200
sg70
(lp4212
S':'
asbag63
(g84
g65
NtRp4213
(dp4214
g68
(dp4215
sg77
g4200
sg70
(lp4216
g63
(g64
g65
NtRp4217
(dp4218
g68
(dp4219
g76
I4
ssg77
g4213
sg70
(lp4220
S'no-cache'
p4221
asbasbasbag63
(g79
g65
NtRp4222
(dp4223
g68
(dp4224
sg77
g4130
sg70
(lp4225
g63
(g84
g65
NtRp4226
(dp4227
g68
(dp4228
g88
g89
ssg77
g4222
sg70
(lp4229
S'X-Powered-By'
p4230
asbag63
(g84
g65
NtRp4231
(dp4232
g68
(dp4233
g95
g96
ssg77
g4222
sg70
(lp4234
S':'
asbag63
(g84
g65
NtRp4235
(dp4236
g68
(dp4237
sg77
g4222
sg70
(lp4238
g63
(g64
g65
NtRp4239
(dp4240
g68
(dp4241
g76
I4
ssg77
g4235
sg70
(lp4242
S'web2py'
p4243
asbasbasbasbasbasbasbag63
(g79
g65
NtRp4244
(dp4245
g68
(dp4246
sg77
g3792
sg70
(lp4247
g63
(g84
g65
NtRp4248
(dp4249
g68
(dp4250
g88
g89
ssg77
g4244
sg70
(lp4251
S'menu'
p4252
asbag63
(g84
g65
NtRp4253
(dp4254
g68
(dp4255
g95
g96
ssg77
g4244
sg70
(lp4256
S':'
asbag63
(g84
g65
NtRp4257
(dp4258
g68
(dp4259
sg77
g4244
sg70
(lp4260
g63
(g64
g65
NtRp4261
(dp4262
g68
(dp4263
g76
I5
ssg77
g4257
sg70
(lp4264
g63
(g72
g65
NtRp4265
(dp4266
g68
(dp4267
g76
I4
ssg77
Nsg70
(lp4268
g63
(g79
g65
NtRp4269
(dp4270
g68
(dp4271
sg77
g4265
sg70
(lp4272
g63
(g84
g65
NtRp4273
(dp4274
g68
(dp4275
sg77
g4269
sg70
(lp4276
g63
(g64
g65
NtRp4277
(dp4278
g68
(dp4279
g76
I4
ssg77
g4273
sg70
(lp4280
g63
(g72
g65
NtRp4281
(dp4282
g68
(dp4283
g76
I3
ssg77
Nsg70
(lp4284
g63
(g79
g65
NtRp4285
(dp4286
g68
(dp4287
sg77
g4281
sg70
(lp4288
g63
(g84
g65
NtRp4289
(dp4290
g68
(dp4291
sg77
g4285
sg70
(lp4292
g63
(g64
g65
NtRp4293
(dp4294
g68
(dp4295
g76
I3
ssg77
g4289
sg70
(lp4296
cgluon.languages
lazyT_unpickle
p4297
(S't\x04\x00\x00\x00Home'
tRp4298
asbasbasbag63
(g79
g65
NtRp4299
(dp4300
g68
(dp4301
sg77
g4281
sg70
(lp4302
g63
(g84
g65
NtRp4303
(dp4304
g68
(dp4305
sg77
g4299
sg70
(lp4306
g63
(g64
g65
NtRp4307
(dp4308
g68
(dp4309
g76
I3
ssg77
g4303
sg70
(lp4310
g106
asbasbasbag63
(g79
g65
NtRp4311
(dp4312
g68
(dp4313
sg77
g4281
sg70
(lp4314
g63
(g84
g65
NtRp4315
(dp4316
g68
(dp4317
sg77
g4311
sg70
(lp4318
g63
(g64
g65
NtRp4319
(dp4320
g68
(dp4321
g76
I3
ssg77
g4315
sg70
(lp4322
S'/ACES/default/index'
p4323
asbasbasbag63
(g79
g65
NtRp4324
(dp4325
g68
(dp4326
sg77
g4281
sg70
(lp4327
g63
(g84
g65
NtRp4328
(dp4329
g68
(dp4330
sg77
g4324
sg70
(lp4331
g63
(g64
g65
NtRp4332
(dp4333
g68
(dp4334
g76
I3
ssg77
g4328
sg70
(lp4335
g63
(g72
g65
NtRp4336
(dp4337
g68
(dp4338
g76
I2
ssg77
Nsg70
(lp4339
sbasbasbasbasbasbasbasbag63
(g79
g65
NtRp4340
(dp4341
g68
(dp4342
sg77
g4265
sg70
(lp4343
g63
(g84
g65
NtRp4344
(dp4345
g68
(dp4346
sg77
g4340
sg70
(lp4347
g63
(g64
g65
NtRp4348
(dp4349
g68
(dp4350
g76
I4
ssg77
g4344
sg70
(lp4351
g63
(g72
g65
NtRp4352
(dp4353
g68
(dp4354
g76
I3
ssg77
Nsg70
(lp4355
g63
(g79
g65
NtRp4356
(dp4357
g68
(dp4358
sg77
g4352
sg70
(lp4359
g63
(g84
g65
NtRp4360
(dp4361
g68
(dp4362
sg77
g4356
sg70
(lp4363
g63
(g64
g65
NtRp4364
(dp4365
g68
(dp4366
g76
I3
ssg77
g4360
sg70
(lp4367
g4297
(S's\x08\x00\x00\x00This App'
tRp4368
asbasbasbag63
(g79
g65
NtRp4369
(dp4370
g68
(dp4371
sg77
g4352
sg70
(lp4372
g63
(g84
g65
NtRp4373
(dp4374
g68
(dp4375
sg77
g4369
sg70
(lp4376
g63
(g64
g65
NtRp4377
(dp4378
g68
(dp4379
g76
I3
ssg77
g4373
sg70
(lp4380
g106
asbasbasbag63
(g79
g65
NtRp4381
(dp4382
g68
(dp4383
sg77
g4352
sg70
(lp4384
g63
(g84
g65
NtRp4385
(dp4386
g68
(dp4387
sg77
g4381
sg70
(lp4388
g63
(g64
g65
NtRp4389
(dp4390
g68
(dp4391
g76
I3
ssg77
g4385
sg70
(lp4392
S'/admin/default/design/ACES'
p4393
asbasbasbag63
(g79
g65
NtRp4394
(dp4395
g68
(dp4396
sg77
g4352
sg70
(lp4397
g63
(g84
g65
NtRp4398
(dp4399
g68
(dp4400
sg77
g4394
sg70
(lp4401
g63
(g64
g65
NtRp4402
(dp4403
g68
(dp4404
g76
I3
ssg77
g4398
sg70
(lp4405
g63
(g72
g65
NtRp4406
(dp4407
g68
(dp4408
g76
I2
ssg77
Nsg70
(lp4409
g63
(g79
g65
NtRp4410
(dp4411
g68
(dp4412
sg77
g4406
sg70
(lp4413
g63
(g84
g65
NtRp4414
(dp4415
g68
(dp4416
sg77
g4410
sg70
(lp4417
g63
(g64
g65
NtRp4418
(dp4419
g68
(dp4420
g76
I2
ssg77
g4414
sg70
(lp4421
g63
(g72
g65
NtRp4422
(dp4423
g68
(dp4424
g76
I1
ssg77
Nsg70
(lp4425
g63
(g79
g65
NtRp4426
(dp4427
g68
(dp4428
sg77
g4422
sg70
(lp4429
g63
(g84
g65
NtRp4430
(dp4431
g68
(dp4432
sg77
g4426
sg70
(lp4433
g63
(g64
g65
NtRp4434
(dp4435
g68
(dp4436
g76
I1
ssg77
g4430
sg70
(lp4437
g4297
(S't\n\x00\x00\x00Controller'
tRp4438
asbasbasbag63
(g79
g65
NtRp4439
(dp4440
g68
(dp4441
sg77
g4422
sg70
(lp4442
g63
(g84
g65
NtRp4443
(dp4444
g68
(dp4445
sg77
g4439
sg70
(lp4446
g63
(g64
g65
NtRp4447
(dp4448
g68
(dp4449
g76
I1
ssg77
g4443
sg70
(lp4450
I00
asbasbasbag63
(g79
g65
NtRp4451
(dp4452
g68
(dp4453
sg77
g4422
sg70
(lp4454
g63
(g84
g65
NtRp4455
(dp4456
g68
(dp4457
sg77
g4451
sg70
(lp4458
g63
(g64
g65
NtRp4459
(dp4460
g68
(dp4461
g76
I1
ssg77
g4455
sg70
(lp4462
S'/admin/default/edit/ACES/controllers/default.py'
p4463
asbasbasbasbasbasbasbag63
(g79
g65
NtRp4464
(dp4465
g68
(dp4466
sg77
g4406
sg70
(lp4467
g63
(g84
g65
NtRp4468
(dp4469
g68
(dp4470
sg77
g4464
sg70
(lp4471
g63
(g64
g65
NtRp4472
(dp4473
g68
(dp4474
g76
I2
ssg77
g4468
sg70
(lp4475
g63
(g72
g65
NtRp4476
(dp4477
g68
(dp4478
g76
I1
ssg77
Nsg70
(lp4479
g63
(g79
g65
NtRp4480
(dp4481
g68
(dp4482
sg77
g4476
sg70
(lp4483
g63
(g84
g65
NtRp4484
(dp4485
g68
(dp4486
sg77
g4480
sg70
(lp4487
g63
(g64
g65
NtRp4488
(dp4489
g68
(dp4490
g76
I1
ssg77
g4484
sg70
(lp4491
g4297
(S't\x04\x00\x00\x00View'
tRp4492
asbasbasbag63
(g79
g65
NtRp4493
(dp4494
g68
(dp4495
sg77
g4476
sg70
(lp4496
g63
(g84
g65
NtRp4497
(dp4498
g68
(dp4499
sg77
g4493
sg70
(lp4500
g63
(g64
g65
NtRp4501
(dp4502
g68
(dp4503
g76
I1
ssg77
g4497
sg70
(lp4504
I00
asbasbasbag63
(g79
g65
NtRp4505
(dp4506
g68
(dp4507
sg77
g4476
sg70
(lp4508
g63
(g84
g65
NtRp4509
(dp4510
g68
(dp4511
sg77
g4505
sg70
(lp4512
g63
(g64
g65
NtRp4513
(dp4514
g68
(dp4515
g76
I1
ssg77
g4509
sg70
(lp4516
S'/admin/default/edit/ACES/views/default/index.html'
p4517
asbasbasbasbasbasbasbag63
(g79
g65
NtRp4518
(dp4519
g68
(dp4520
sg77
g4406
sg70
(lp4521
g63
(g84
g65
NtRp4522
(dp4523
g68
(dp4524
sg77
g4518
sg70
(lp4525
g63
(g64
g65
NtRp4526
(dp4527
g68
(dp4528
g76
I2
ssg77
g4522
sg70
(lp4529
g63
(g72
g65
NtRp4530
(dp4531
g68
(dp4532
g76
I1
ssg77
Nsg70
(lp4533
g63
(g79
g65
NtRp4534
(dp4535
g68
(dp4536
sg77
g4530
sg70
(lp4537
g63
(g84
g65
NtRp4538
(dp4539
g68
(dp4540
sg77
g4534
sg70
(lp4541
g63
(g64
g65
NtRp4542
(dp4543
g68
(dp4544
g76
I1
ssg77
g4538
sg70
(lp4545
g4297
(S't\x06\x00\x00\x00Layout'
tRp4546
asbasbasbag63
(g79
g65
NtRp4547
(dp4548
g68
(dp4549
sg77
g4530
sg70
(lp4550
g63
(g84
g65
NtRp4551
(dp4552
g68
(dp4553
sg77
g4547
sg70
(lp4554
g63
(g64
g65
NtRp4555
(dp4556
g68
(dp4557
g76
I1
ssg77
g4551
sg70
(lp4558
I00
asbasbasbag63
(g79
g65
NtRp4559
(dp4560
g68
(dp4561
sg77
g4530
sg70
(lp4562
g63
(g84
g65
NtRp4563
(dp4564
g68
(dp4565
sg77
g4559
sg70
(lp4566
g63
(g64
g65
NtRp4567
(dp4568
g68
(dp4569
g76
I1
ssg77
g4563
sg70
(lp4570
S'/admin/default/edit/ACES/views/layout.html'
p4571
asbasbasbasbasbasbasbag63
(g79
g65
NtRp4572
(dp4573
g68
(dp4574
sg77
g4406
sg70
(lp4575
g63
(g84
g65
NtRp4576
(dp4577
g68
(dp4578
sg77
g4572
sg70
(lp4579
g63
(g64
g65
NtRp4580
(dp4581
g68
(dp4582
g76
I2
ssg77
g4576
sg70
(lp4583
g63
(g72
g65
NtRp4584
(dp4585
g68
(dp4586
g76
I1
ssg77
Nsg70
(lp4587
g63
(g79
g65
NtRp4588
(dp4589
g68
(dp4590
sg77
g4584
sg70
(lp4591
g63
(g84
g65
NtRp4592
(dp4593
g68
(dp4594
sg77
g4588
sg70
(lp4595
g63
(g64
g65
NtRp4596
(dp4597
g68
(dp4598
g76
I1
ssg77
g4592
sg70
(lp4599
g4297
(S't\n\x00\x00\x00Stylesheet'
tRp4600
asbasbasbag63
(g79
g65
NtRp4601
(dp4602
g68
(dp4603
sg77
g4584
sg70
(lp4604
g63
(g84
g65
NtRp4605
(dp4606
g68
(dp4607
sg77
g4601
sg70
(lp4608
g63
(g64
g65
NtRp4609
(dp4610
g68
(dp4611
g76
I1
ssg77
g4605
sg70
(lp4612
I00
asbasbasbag63
(g79
g65
NtRp4613
(dp4614
g68
(dp4615
sg77
g4584
sg70
(lp4616
g63
(g84
g65
NtRp4617
(dp4618
g68
(dp4619
sg77
g4613
sg70
(lp4620
g63
(g64
g65
NtRp4621
(dp4622
g68
(dp4623
g76
I1
ssg77
g4617
sg70
(lp4624
S'/admin/default/edit/ACES/static/base.css'
p4625
asbasbasbasbasbasbasbag63
(g79
g65
NtRp4626
(dp4627
g68
(dp4628
sg77
g4406
sg70
(lp4629
g63
(g84
g65
NtRp4630
(dp4631
g68
(dp4632
sg77
g4626
sg70
(lp4633
g63
(g64
g65
NtRp4634
(dp4635
g68
(dp4636
g76
I2
ssg77
g4630
sg70
(lp4637
g63
(g72
g65
NtRp4638
(dp4639
g68
(dp4640
g76
I1
ssg77
Nsg70
(lp4641
g63
(g79
g65
NtRp4642
(dp4643
g68
(dp4644
sg77
g4638
sg70
(lp4645
g63
(g84
g65
NtRp4646
(dp4647
g68
(dp4648
sg77
g4642
sg70
(lp4649
g63
(g64
g65
NtRp4650
(dp4651
g68
(dp4652
g76
I1
ssg77
g4646
sg70
(lp4653
g4297
(S's\x08\x00\x00\x00DB Model'
tRp4654
asbasbasbag63
(g79
g65
NtRp4655
(dp4656
g68
(dp4657
sg77
g4638
sg70
(lp4658
g63
(g84
g65
NtRp4659
(dp4660
g68
(dp4661
sg77
g4655
sg70
(lp4662
g63
(g64
g65
NtRp4663
(dp4664
g68
(dp4665
g76
I1
ssg77
g4659
sg70
(lp4666
I00
asbasbasbag63
(g79
g65
NtRp4667
(dp4668
g68
(dp4669
sg77
g4638
sg70
(lp4670
g63
(g84
g65
NtRp4671
(dp4672
g68
(dp4673
sg77
g4667
sg70
(lp4674
g63
(g64
g65
NtRp4675
(dp4676
g68
(dp4677
g76
I1
ssg77
g4671
sg70
(lp4678
S'/admin/default/edit/ACES/models/db.py'
p4679
asbasbasbasbasbasbasbag63
(g79
g65
NtRp4680
(dp4681
g68
(dp4682
sg77
g4406
sg70
(lp4683
g63
(g84
g65
NtRp4684
(dp4685
g68
(dp4686
sg77
g4680
sg70
(lp4687
g63
(g64
g65
NtRp4688
(dp4689
g68
(dp4690
g76
I2
ssg77
g4684
sg70
(lp4691
g63
(g72
g65
NtRp4692
(dp4693
g68
(dp4694
g76
I1
ssg77
Nsg70
(lp4695
g63
(g79
g65
NtRp4696
(dp4697
g68
(dp4698
sg77
g4692
sg70
(lp4699
g63
(g84
g65
NtRp4700
(dp4701
g68
(dp4702
sg77
g4696
sg70
(lp4703
g63
(g64
g65
NtRp4704
(dp4705
g68
(dp4706
g76
I1
ssg77
g4700
sg70
(lp4707
g4297
(S's\n\x00\x00\x00Menu Model'
tRp4708
asbasbasbag63
(g79
g65
NtRp4709
(dp4710
g68
(dp4711
sg77
g4692
sg70
(lp4712
g63
(g84
g65
NtRp4713
(dp4714
g68
(dp4715
sg77
g4709
sg70
(lp4716
g63
(g64
g65
NtRp4717
(dp4718
g68
(dp4719
g76
I1
ssg77
g4713
sg70
(lp4720
I00
asbasbasbag63
(g79
g65
NtRp4721
(dp4722
g68
(dp4723
sg77
g4692
sg70
(lp4724
g63
(g84
g65
NtRp4725
(dp4726
g68
(dp4727
sg77
g4721
sg70
(lp4728
g63
(g64
g65
NtRp4729
(dp4730
g68
(dp4731
g76
I1
ssg77
g4725
sg70
(lp4732
S'/admin/default/edit/ACES/models/menu.py'
p4733
asbasbasbasbasbasbasbag63
(g79
g65
NtRp4734
(dp4735
g68
(dp4736
sg77
g4406
sg70
(lp4737
g63
(g84
g65
NtRp4738
(dp4739
g68
(dp4740
sg77
g4734
sg70
(lp4741
g63
(g64
g65
NtRp4742
(dp4743
g68
(dp4744
g76
I2
ssg77
g4738
sg70
(lp4745
g63
(g72
g65
NtRp4746
(dp4747
g68
(dp4748
g76
I1
ssg77
Nsg70
(lp4749
g63
(g79
g65
NtRp4750
(dp4751
g68
(dp4752
sg77
g4746
sg70
(lp4753
g63
(g84
g65
NtRp4754
(dp4755
g68
(dp4756
sg77
g4750
sg70
(lp4757
g63
(g64
g65
NtRp4758
(dp4759
g68
(dp4760
g76
I1
ssg77
g4754
sg70
(lp4761
g4297
(S't\x08\x00\x00\x00Database'
tRp4762
asbasbasbag63
(g79
g65
NtRp4763
(dp4764
g68
(dp4765
sg77
g4746
sg70
(lp4766
g63
(g84
g65
NtRp4767
(dp4768
g68
(dp4769
sg77
g4763
sg70
(lp4770
g63
(g64
g65
NtRp4771
(dp4772
g68
(dp4773
g76
I1
ssg77
g4767
sg70
(lp4774
I00
asbasbasbag63
(g79
g65
NtRp4775
(dp4776
g68
(dp4777
sg77
g4746
sg70
(lp4778
g63
(g84
g65
NtRp4779
(dp4780
g68
(dp4781
sg77
g4775
sg70
(lp4782
g63
(g64
g65
NtRp4783
(dp4784
g68
(dp4785
g76
I1
ssg77
g4779
sg70
(lp4786
S'/ACES/appadmin/index'
p4787
asbasbasbasbasbasbasbag63
(g79
g65
NtRp4788
(dp4789
g68
(dp4790
sg77
g4406
sg70
(lp4791
g63
(g84
g65
NtRp4792
(dp4793
g68
(dp4794
sg77
g4788
sg70
(lp4795
g63
(g64
g65
NtRp4796
(dp4797
g68
(dp4798
g76
I2
ssg77
g4792
sg70
(lp4799
g63
(g72
g65
NtRp4800
(dp4801
g68
(dp4802
g76
I1
ssg77
Nsg70
(lp4803
g63
(g79
g65
NtRp4804
(dp4805
g68
(dp4806
sg77
g4800
sg70
(lp4807
g63
(g84
g65
NtRp4808
(dp4809
g68
(dp4810
sg77
g4804
sg70
(lp4811
g63
(g64
g65
NtRp4812
(dp4813
g68
(dp4814
g76
I1
ssg77
g4808
sg70
(lp4815
g4297
(S't\x06\x00\x00\x00Errors'
tRp4816
asbasbasbag63
(g79
g65
NtRp4817
(dp4818
g68
(dp4819
sg77
g4800
sg70
(lp4820
g63
(g84
g65
NtRp4821
(dp4822
g68
(dp4823
sg77
g4817
sg70
(lp4824
g63
(g64
g65
NtRp4825
(dp4826
g68
(dp4827
g76
I1
ssg77
g4821
sg70
(lp4828
I00
asbasbasbag63
(g79
g65
NtRp4829
(dp4830
g68
(dp4831
sg77
g4800
sg70
(lp4832
g63
(g84
g65
NtRp4833
(dp4834
g68
(dp4835
sg77
g4829
sg70
(lp4836
g63
(g64
g65
NtRp4837
(dp4838
g68
(dp4839
g76
I1
ssg77
g4833
sg70
(lp4840
S'/admin/default/errors/ACES'
p4841
asbasbasbasbasbasbasbag63
(g79
g65
NtRp4842
(dp4843
g68
(dp4844
sg77
g4406
sg70
(lp4845
g63
(g84
g65
NtRp4846
(dp4847
g68
(dp4848
sg77
g4842
sg70
(lp4849
g63
(g64
g65
NtRp4850
(dp4851
g68
(dp4852
g76
I2
ssg77
g4846
sg70
(lp4853
g63
(g72
g65
NtRp4854
(dp4855
g68
(dp4856
g76
I1
ssg77
Nsg70
(lp4857
g63
(g79
g65
NtRp4858
(dp4859
g68
(dp4860
sg77
g4854
sg70
(lp4861
g63
(g84
g65
NtRp4862
(dp4863
g68
(dp4864
sg77
g4858
sg70
(lp4865
g63
(g64
g65
NtRp4866
(dp4867
g68
(dp4868
g76
I1
ssg77
g4862
sg70
(lp4869
g4297
(S't\x05\x00\x00\x00About'
tRp4870
asbasbasbag63
(g79
g65
NtRp4871
(dp4872
g68
(dp4873
sg77
g4854
sg70
(lp4874
g63
(g84
g65
NtRp4875
(dp4876
g68
(dp4877
sg77
g4871
sg70
(lp4878
g63
(g64
g65
NtRp4879
(dp4880
g68
(dp4881
g76
I1
ssg77
g4875
sg70
(lp4882
I00
asbasbasbag63
(g79
g65
NtRp4883
(dp4884
g68
(dp4885
sg77
g4854
sg70
(lp4886
g63
(g84
g65
NtRp4887
(dp4888
g68
(dp4889
sg77
g4883
sg70
(lp4890
g63
(g64
g65
NtRp4891
(dp4892
g68
(dp4893
g76
I1
ssg77
g4887
sg70
(lp4894
S'/admin/default/about/ACES'
p4895
asbasbasbasbasbasbasbasbasbasbasbasbasbasbasbag63
(g79
g65
NtRp4896
(dp4897
g68
(dp4898
sg77
g4265
sg70
(lp4899
g63
(g84
g65
NtRp4900
(dp4901
g68
(dp4902
sg77
g4896
sg70
(lp4903
g63
(g64
g65
NtRp4904
(dp4905
g68
(dp4906
g76
I4
ssg77
g4900
sg70
(lp4907
g63
(g72
g65
NtRp4908
(dp4909
g68
(dp4910
g76
I3
ssg77
Nsg70
(lp4911
g63
(g79
g65
NtRp4912
(dp4913
g68
(dp4914
sg77
g4908
sg70
(lp4915
g63
(g84
g65
NtRp4916
(dp4917
g68
(dp4918
sg77
g4912
sg70
(lp4919
g63
(g64
g65
NtRp4920
(dp4921
g68
(dp4922
g76
I3
ssg77
g4916
sg70
(lp4923
g4297
(S't\t\x00\x00\x00Resources'
tRp4924
asbasbasbag63
(g79
g65
NtRp4925
(dp4926
g68
(dp4927
sg77
g4908
sg70
(lp4928
g63
(g84
g65
NtRp4929
(dp4930
g68
(dp4931
sg77
g4925
sg70
(lp4932
g63
(g64
g65
NtRp4933
(dp4934
g68
(dp4935
g76
I3
ssg77
g4929
sg70
(lp4936
g106
asbasbasbag63
(g79
g65
NtRp4937
(dp4938
g68
(dp4939
sg77
g4908
sg70
(lp4940
g63
(g84
g65
NtRp4941
(dp4942
g68
(dp4943
sg77
g4937
sg70
(lp4944
g63
(g64
g65
NtRp4945
(dp4946
g68
(dp4947
g76
I3
ssg77
g4941
sg70
(lp4948
S'None'
p4949
asbasbasbag63
(g79
g65
NtRp4950
(dp4951
g68
(dp4952
sg77
g4908
sg70
(lp4953
g63
(g84
g65
NtRp4954
(dp4955
g68
(dp4956
sg77
g4950
sg70
(lp4957
g63
(g64
g65
NtRp4958
(dp4959
g68
(dp4960
g76
I3
ssg77
g4954
sg70
(lp4961
g63
(g72
g65
NtRp4962
(dp4963
g68
(dp4964
g76
I2
ssg77
Nsg70
(lp4965
g63
(g79
g65
NtRp4966
(dp4967
g68
(dp4968
sg77
g4962
sg70
(lp4969
g63
(g84
g65
NtRp4970
(dp4971
g68
(dp4972
sg77
g4966
sg70
(lp4973
g63
(g64
g65
NtRp4974
(dp4975
g68
(dp4976
g76
I2
ssg77
g4970
sg70
(lp4977
g63
(g72
g65
NtRp4978
(dp4979
g68
(dp4980
g76
I1
ssg77
Nsg70
(lp4981
g63
(g79
g65
NtRp4982
(dp4983
g68
(dp4984
sg77
g4978
sg70
(lp4985
g63
(g84
g65
NtRp4986
(dp4987
g68
(dp4988
sg77
g4982
sg70
(lp4989
g63
(g64
g65
NtRp4990
(dp4991
g68
(dp4992
g76
I1
ssg77
g4986
sg70
(lp4993
g4297
(S't\r\x00\x00\x00Documentation'
tRp4994
asbasbasbag63
(g79
g65
NtRp4995
(dp4996
g68
(dp4997
sg77
g4978
sg70
(lp4998
g63
(g84
g65
NtRp4999
(dp5000
g68
(dp5001
sg77
g4995
sg70
(lp5002
g63
(g64
g65
NtRp5003
(dp5004
g68
(dp5005
g76
I1
ssg77
g4999
sg70
(lp5006
I00
asbasbasbag63
(g79
g65
NtRp5007
(dp5008
g68
(dp5009
sg77
g4978
sg70
(lp5010
g63
(g84
g65
NtRp5011
(dp5012
g68
(dp5013
sg77
g5007
sg70
(lp5014
g63
(g64
g65
NtRp5015
(dp5016
g68
(dp5017
g76
I1
ssg77
g5011
sg70
(lp5018
S'http://www.web2py.com/book'
p5019
asbasbasbag63
(g79
g65
NtRp5020
(dp5021
g68
(dp5022
sg77
g4978
sg70
(lp5023
g63
(g84
g65
NtRp5024
(dp5025
g68
(dp5026
sg77
g5020
sg70
(lp5027
g63
(g64
g65
NtRp5028
(dp5029
g68
(dp5030
g76
I1
ssg77
g5024
sg70
(lp5031
(lp5032
(g4297
(S't\x07\x00\x00\x00Preface'
tRp5033
I00
S'http://www.web2py.com/book/default/chapter/00'
p5034
tp5035
a(g4297
(S't\x0c\x00\x00\x00Introduction'
tRp5036
I00
S'http://www.web2py.com/book/default/chapter/01'
p5037
tp5038
a(g4297
(S't\x06\x00\x00\x00Python'
tRp5039
I00
S'http://www.web2py.com/book/default/chapter/02'
p5040
tp5041
a(g4297
(S't\x08\x00\x00\x00Overview'
tRp5042
I00
S'http://www.web2py.com/book/default/chapter/03'
p5043
tp5044
a(g4297
(S's\x08\x00\x00\x00The Core'
tRp5045
I00
S'http://www.web2py.com/book/default/chapter/04'
p5046
tp5047
a(g4297
(S's\t\x00\x00\x00The Views'
tRp5048
I00
S'http://www.web2py.com/book/default/chapter/05'
p5049
tp5050
a(g4297
(S't\x08\x00\x00\x00Database'
tRp5051
I00
S'http://www.web2py.com/book/default/chapter/06'
p5052
tp5053
a(g4297
(S's\x14\x00\x00\x00Forms and Validators'
tRp5054
I00
S'http://www.web2py.com/book/default/chapter/07'
p5055
tp5056
a(g4297
(S's\x0e\x00\x00\x00Access Control'
tRp5057
I00
S'http://www.web2py.com/book/default/chapter/08'
p5058
tp5059
a(g4297
(S't\x08\x00\x00\x00Services'
tRp5060
I00
S'http://www.web2py.com/book/default/chapter/09'
p5061
tp5062
a(g4297
(S's\x0c\x00\x00\x00Ajax Recipes'
tRp5063
I00
S'http://www.web2py.com/book/default/chapter/10'
p5064
tp5065
a(g4297
(S's\x12\x00\x00\x00Deployment Recipes'
tRp5066
I00
S'http://www.web2py.com/book/default/chapter/11'
p5067
tp5068
a(g4297
(S's\r\x00\x00\x00Other Recipes'
tRp5069
I00
S'http://www.web2py.com/book/default/chapter/12'
p5070
tp5071
a(g4297
(S's\r\x00\x00\x00Buy this book'
tRp5072
I00
S'http://stores.lulu.com/web2py'
p5073
tp5074
aasbasbasbasbasbasbasbag63
(g79
g65
NtRp5075
(dp5076
g68
(dp5077
sg77
g4962
sg70
(lp5078
g63
(g84
g65
NtRp5079
(dp5080
g68
(dp5081
sg77
g5075
sg70
(lp5082
g63
(g64
g65
NtRp5083
(dp5084
g68
(dp5085
g76
I2
ssg77
g5079
sg70
(lp5086
g63
(g72
g65
NtRp5087
(dp5088
g68
(dp5089
g76
I1
ssg77
Nsg70
(lp5090
g63
(g79
g65
NtRp5091
(dp5092
g68
(dp5093
sg77
g5087
sg70
(lp5094
g63
(g84
g65
NtRp5095
(dp5096
g68
(dp5097
sg77
g5091
sg70
(lp5098
g63
(g64
g65
NtRp5099
(dp5100
g68
(dp5101
g76
I1
ssg77
g5095
sg70
(lp5102
g4297
(S't\t\x00\x00\x00Community'
tRp5103
asbasbasbag63
(g79
g65
NtRp5104
(dp5105
g68
(dp5106
sg77
g5087
sg70
(lp5107
g63
(g84
g65
NtRp5108
(dp5109
g68
(dp5110
sg77
g5104
sg70
(lp5111
g63
(g64
g65
NtRp5112
(dp5113
g68
(dp5114
g76
I1
ssg77
g5108
sg70
(lp5115
I00
asbasbasbag63
(g79
g65
NtRp5116
(dp5117
g68
(dp5118
sg77
g5087
sg70
(lp5119
g63
(g84
g65
NtRp5120
(dp5121
g68
(dp5122
sg77
g5116
sg70
(lp5123
g63
(g64
g65
NtRp5124
(dp5125
g68
(dp5126
g76
I1
ssg77
g5120
sg70
(lp5127
Nasbasbasbag63
(g79
g65
NtRp5128
(dp5129
g68
(dp5130
sg77
g5087
sg70
(lp5131
g63
(g84
g65
NtRp5132
(dp5133
g68
(dp5134
sg77
g5128
sg70
(lp5135
g63
(g64
g65
NtRp5136
(dp5137
g68
(dp5138
g76
I1
ssg77
g5132
sg70
(lp5139
(lp5140
(g4297
(S't\x06\x00\x00\x00Groups'
tRp5141
I00
S'http://www.web2py.com/examples/default/usergroups'
p5142
tp5143
a(g4297
(S't\x07\x00\x00\x00Twitter'
tRp5144
I00
S'http://twitter.com/web2py'
p5145
tp5146
a(g4297
(S's\t\x00\x00\x00Live chat'
tRp5147
I00
S'http://mibbit.com/?channel=%23web2py&server=irc.mibbit.net'
p5148
tp5149
a(g4297
(S's\n\x00\x00\x00User Voice'
tRp5150
I00
S'http://web2py.uservoice.com/'
p5151
tp5152
aasbasbasbasbasbasbasbag63
(g79
g65
NtRp5153
(dp5154
g68
(dp5155
sg77
g4962
sg70
(lp5156
g63
(g84
g65
NtRp5157
(dp5158
g68
(dp5159
sg77
g5153
sg70
(lp5160
g63
(g64
g65
NtRp5161
(dp5162
g68
(dp5163
g76
I2
ssg77
g5157
sg70
(lp5164
g63
(g72
g65
NtRp5165
(dp5166
g68
(dp5167
g76
I1
ssg77
Nsg70
(lp5168
g63
(g79
g65
NtRp5169
(dp5170
g68
(dp5171
sg77
g5165
sg70
(lp5172
g63
(g84
g65
NtRp5173
(dp5174
g68
(dp5175
sg77
g5169
sg70
(lp5176
g63
(g64
g65
NtRp5177
(dp5178
g68
(dp5179
g76
I1
ssg77
g5173
sg70
(lp5180
g4297
(S't\x06\x00\x00\x00Web2py'
tRp5181
asbasbasbag63
(g79
g65
NtRp5182
(dp5183
g68
(dp5184
sg77
g5165
sg70
(lp5185
g63
(g84
g65
NtRp5186
(dp5187
g68
(dp5188
sg77
g5182
sg70
(lp5189
g63
(g64
g65
NtRp5190
(dp5191
g68
(dp5192
g76
I1
ssg77
g5186
sg70
(lp5193
I00
asbasbasbag63
(g79
g65
NtRp5194
(dp5195
g68
(dp5196
sg77
g5165
sg70
(lp5197
g63
(g84
g65
NtRp5198
(dp5199
g68
(dp5200
sg77
g5194
sg70
(lp5201
g63
(g64
g65
NtRp5202
(dp5203
g68
(dp5204
g76
I1
ssg77
g5198
sg70
(lp5205
S'http://www.web2py.com'
p5206
asbasbasbag63
(g79
g65
NtRp5207
(dp5208
g68
(dp5209
sg77
g5165
sg70
(lp5210
g63
(g84
g65
NtRp5211
(dp5212
g68
(dp5213
sg77
g5207
sg70
(lp5214
g63
(g64
g65
NtRp5215
(dp5216
g68
(dp5217
g76
I1
ssg77
g5211
sg70
(lp5218
(lp5219
(g4297
(S't\x08\x00\x00\x00Download'
tRp5220
I00
S'http://www.web2py.com/examples/default/download'
p5221
tp5222
a(g4297
(S't\x07\x00\x00\x00Support'
tRp5223
I00
S'http://www.web2py.com/examples/default/support'
p5224
tp5225
a(g4297
(S's\x0e\x00\x00\x00Quick Examples'
tRp5226
I00
S'http://web2py.com/examples/default/examples'
p5227
tp5228
a(g4297
(S't\x03\x00\x00\x00FAQ'
tRp5229
I00
S'http://web2py.com/AlterEgo'
p5230
tp5231
a(g4297
(S's\x11\x00\x00\x00Free Applications'
tRp5232
I00
S'http://web2py.com/appliances'
p5233
tp5234
a(g4297
(S't\x07\x00\x00\x00Plugins'
tRp5235
I00
S'http://web2py.com/plugins'
p5236
tp5237
a(g4297
(S't\x07\x00\x00\x00Recipes'
tRp5238
I00
S'http://web2pyslices.com/'
p5239
tp5240
a(g4297
(S't\x04\x00\x00\x00Demo'
tRp5241
I00
S'http://web2py.com/demo_admin'
p5242
tp5243
a(g4297
(S't\x08\x00\x00\x00Semantic'
tRp5244
I00
S'http://web2py.com/semantic'
p5245
tp5246
a(g4297
(S't\x07\x00\x00\x00Layouts'
tRp5247
I00
S'http://web2py.com/layouts'
p5248
tp5249
a(g4297
(S't\x06\x00\x00\x00Videos'
tRp5250
I00
S'http://www.web2py.com/examples/default/videos/'
p5251
tp5252
aasbasbasbasbasbasbasbasbasbasbasbasbasbasbasbasbasbasbasbag63
(g79
g65
NtRp5253
(dp5254
g68
(dp5255
sg77
g3792
sg70
(lp5256
g63
(g84
g65
NtRp5257
(dp5258
g68
(dp5259
g88
g89
ssg77
g5253
sg70
(lp5260
S'meta'
p5261
asbag63
(g84
g65
NtRp5262
(dp5263
g68
(dp5264
g95
g96
ssg77
g5253
sg70
(lp5265
S':'
asbag63
(g84
g65
NtRp5266
(dp5267
g68
(dp5268
sg77
g5253
sg70
(lp5269
g63
(g64
g65
NtRp5270
(dp5271
g68
(dp5272
g76
I5
ssg77
g5266
sg70
(lp5273
g63
(g72
g65
NtRp5274
(dp5275
g68
(dp5276
g76
I4
ssg77
Nsg70
(lp5277
g63
(g79
g65
NtRp5278
(dp5279
g68
(dp5280
sg77
g5274
sg70
(lp5281
g63
(g84
g65
NtRp5282
(dp5283
g68
(dp5284
g88
g89
ssg77
g5278
sg70
(lp5285
S'author'
p5286
asbag63
(g84
g65
NtRp5287
(dp5288
g68
(dp5289
g95
g96
ssg77
g5278
sg70
(lp5290
S':'
asbag63
(g84
g65
NtRp5291
(dp5292
g68
(dp5293
sg77
g5278
sg70
(lp5294
g63
(g64
g65
NtRp5295
(dp5296
g68
(dp5297
g76
I4
ssg77
g5291
sg70
(lp5298
S'Your Name <you@example.com>'
p5299
asbasbasbag63
(g79
g65
NtRp5300
(dp5301
g68
(dp5302
sg77
g5274
sg70
(lp5303
g63
(g84
g65
NtRp5304
(dp5305
g68
(dp5306
g88
g89
ssg77
g5300
sg70
(lp5307
S'copyright'
p5308
asbag63
(g84
g65
NtRp5309
(dp5310
g68
(dp5311
g95
g96
ssg77
g5300
sg70
(lp5312
S':'
asbag63
(g84
g65
NtRp5313
(dp5314
g68
(dp5315
sg77
g5300
sg70
(lp5316
g63
(g64
g65
NtRp5317
(dp5318
g68
(dp5319
g76
I4
ssg77
g5313
sg70
(lp5320
S'Copyright 2011'
p5321
asbasbasbag63
(g79
g65
NtRp5322
(dp5323
g68
(dp5324
sg77
g5274
sg70
(lp5325
g63
(g84
g65
NtRp5326
(dp5327
g68
(dp5328
g88
g89
ssg77
g5322
sg70
(lp5329
S'description'
p5330
asbag63
(g84
g65
NtRp5331
(dp5332
g68
(dp5333
g95
g96
ssg77
g5322
sg70
(lp5334
S':'
asbag63
(g84
g65
NtRp5335
(dp5336
g68
(dp5337
sg77
g5322
sg70
(lp5338
g63
(g64
g65
NtRp5339
(dp5340
g68
(dp5341
g76
I4
ssg77
g5335
sg70
(lp5342
S'a cool new app'
p5343
asbasbasbag63
(g79
g65
NtRp5344
(dp5345
g68
(dp5346
sg77
g5274
sg70
(lp5347
g63
(g84
g65
NtRp5348
(dp5349
g68
(dp5350
g88
g89
ssg77
g5344
sg70
(lp5351
S'generator'
p5352
asbag63
(g84
g65
NtRp5353
(dp5354
g68
(dp5355
g95
g96
ssg77
g5344
sg70
(lp5356
S':'
asbag63
(g84
g65
NtRp5357
(dp5358
g68
(dp5359
sg77
g5344
sg70
(lp5360
g63
(g64
g65
NtRp5361
(dp5362
g68
(dp5363
g76
I4
ssg77
g5357
sg70
(lp5364
S'Web2py Web Framework'
p5365
asbasbasbag63
(g79
g65
NtRp5366
(dp5367
g68
(dp5368
sg77
g5274
sg70
(lp5369
g63
(g84
g65
NtRp5370
(dp5371
g68
(dp5372
g88
g89
ssg77
g5366
sg70
(lp5373
S'keywords'
p5374
asbag63
(g84
g65
NtRp5375
(dp5376
g68
(dp5377
g95
g96
ssg77
g5366
sg70
(lp5378
S':'
asbag63
(g84
g65
NtRp5379
(dp5380
g68
(dp5381
sg77
g5366
sg70
(lp5382
g63
(g64
g65
NtRp5383
(dp5384
g68
(dp5385
g76
I4
ssg77
g5379
sg70
(lp5386
S'web2py, python, framework'
p5387
asbasbasbasbasbasbasbag63
(g79
g65
NtRp5388
(dp5389
g68
(dp5390
sg77
g3792
sg70
(lp5391
g63
(g84
g65
NtRp5392
(dp5393
g68
(dp5394
g88
g89
ssg77
g5388
sg70
(lp5395
S'postprocessing'
p5396
asbag63
(g84
g65
NtRp5397
(dp5398
g68
(dp5399
g95
g96
ssg77
g5388
sg70
(lp5400
S':'
asbag63
(g84
g65
NtRp5401
(dp5402
g68
(dp5403
sg77
g5388
sg70
(lp5404
g63
(g64
g65
NtRp5405
(dp5406
g68
(dp5407
g76
I5
ssg77
g5401
sg70
(lp5408
g63
(g72
g65
NtRp5409
(dp5410
g68
(dp5411
g76
I4
ssg77
Nsg70
(lp5412
sbasbasbasbag63
(g79
g65
NtRp5413
(dp5414
g68
(dp5415
sg77
g3792
sg70
(lp5416
g63
(g84
g65
NtRp5417
(dp5418
g68
(dp5419
g88
g89
ssg77
g5413
sg70
(lp5420
S'session_file'
p5421
asbag63
(g84
g65
NtRp5422
(dp5423
g68
(dp5424
g95
g96
ssg77
g5413
sg70
(lp5425
S':'
asbag63
(g84
g65
NtRp5426
(dp5427
g68
(dp5428
sg77
g5413
sg70
(lp5429
g63
(g64
g65
NtRp5430
(dp5431
g68
(dp5432
g76
I5
ssg77
g5426
sg70
(lp5433
S"<open file '/home/u4hcsdaw/Python/web2py/applications/ACES/sessions/127.0.0.1-41cac65c-3668-453b-9ecc-c26f12d379cc', mode 'rb+' at 0xafffb20>"
p5434
asbasbasbag63
(g79
g65
NtRp5435
(dp5436
g68
(dp5437
sg77
g3792
sg70
(lp5438
g63
(g84
g65
NtRp5439
(dp5440
g68
(dp5441
g88
g89
ssg77
g5435
sg70
(lp5442
S'session_filename'
p5443
asbag63
(g84
g65
NtRp5444
(dp5445
g68
(dp5446
g95
g96
ssg77
g5435
sg70
(lp5447
S':'
asbag63
(g84
g65
NtRp5448
(dp5449
g68
(dp5450
sg77
g5435
sg70
(lp5451
g63
(g64
g65
NtRp5452
(dp5453
g68
(dp5454
g76
I5
ssg77
g5448
sg70
(lp5455
S'/home/u4hcsdaw/Python/web2py/applications/ACES/sessions/127.0.0.1-41cac65c-3668-453b-9ecc-c26f12d379cc'
p5456
asbasbasbag63
(g79
g65
NtRp5457
(dp5458
g68
(dp5459
sg77
g3792
sg70
(lp5460
g63
(g84
g65
NtRp5461
(dp5462
g68
(dp5463
g88
g89
ssg77
g5457
sg70
(lp5464
S'session_id'
p5465
asbag63
(g84
g65
NtRp5466
(dp5467
g68
(dp5468
g95
g96
ssg77
g5457
sg70
(lp5469
S':'
asbag63
(g84
g65
NtRp5470
(dp5471
g68
(dp5472
sg77
g5457
sg70
(lp5473
g63
(g64
g65
NtRp5474
(dp5475
g68
(dp5476
g76
I5
ssg77
g5470
sg70
(lp5477
S'127.0.0.1-41cac65c-3668-453b-9ecc-c26f12d379cc'
p5478
asbasbasbag63
(g79
g65
NtRp5479
(dp5480
g68
(dp5481
sg77
g3792
sg70
(lp5482
g63
(g84
g65
NtRp5483
(dp5484
g68
(dp5485
g88
g89
ssg77
g5479
sg70
(lp5486
S'session_id_name'
p5487
asbag63
(g84
g65
NtRp5488
(dp5489
g68
(dp5490
g95
g96
ssg77
g5479
sg70
(lp5491
S':'
asbag63
(g84
g65
NtRp5492
(dp5493
g68
(dp5494
sg77
g5479
sg70
(lp5495
g63
(g64
g65
NtRp5496
(dp5497
g68
(dp5498
g76
I5
ssg77
g5492
sg70
(lp5499
g3849
asbasbasbag63
(g79
g65
NtRp5500
(dp5501
g68
(dp5502
sg77
g3792
sg70
(lp5503
g63
(g84
g65
NtRp5504
(dp5505
g68
(dp5506
g88
g89
ssg77
g5500
sg70
(lp5507
S'session_locked'
p5508
asbag63
(g84
g65
NtRp5509
(dp5510
g68
(dp5511
g95
g96
ssg77
g5500
sg70
(lp5512
S':'
asbag63
(g84
g65
NtRp5513
(dp5514
g68
(dp5515
sg77
g5500
sg70
(lp5516
g63
(g64
g65
NtRp5517
(dp5518
g68
(dp5519
g76
I5
ssg77
g5513
sg70
(lp5520
g2097
asbasbasbag63
(g79
g65
NtRp5521
(dp5522
g68
(dp5523
sg77
g3792
sg70
(lp5524
g63
(g84
g65
NtRp5525
(dp5526
g68
(dp5527
g88
g89
ssg77
g5521
sg70
(lp5528
S'session_new'
p5529
asbag63
(g84
g65
NtRp5530
(dp5531
g68
(dp5532
g95
g96
ssg77
g5521
sg70
(lp5533
S':'
asbag63
(g84
g65
NtRp5534
(dp5535
g68
(dp5536
sg77
g5521
sg70
(lp5537
g63
(g64
g65
NtRp5538
(dp5539
g68
(dp5540
g76
I5
ssg77
g5534
sg70
(lp5541
g106
asbasbasbag63
(g79
g65
NtRp5542
(dp5543
g68
(dp5544
sg77
g3792
sg70
(lp5545
g63
(g84
g65
NtRp5546
(dp5547
g68
(dp5548
g88
g89
ssg77
g5542
sg70
(lp5549
S'status'
p5550
asbag63
(g84
g65
NtRp5551
(dp5552
g68
(dp5553
g95
g96
ssg77
g5542
sg70
(lp5554
S':'
asbag63
(g84
g65
NtRp5555
(dp5556
g68
(dp5557
sg77
g5542
sg70
(lp5558
g63
(g64
g65
NtRp5559
(dp5560
g68
(dp5561
g76
I5
ssg77
g5555
sg70
(lp5562
S'200'
p5563
asbasbasbag63
(g79
g65
NtRp5564
(dp5565
g68
(dp5566
sg77
g3792
sg70
(lp5567
g63
(g84
g65
NtRp5568
(dp5569
g68
(dp5570
g88
g89
ssg77
g5564
sg70
(lp5571
S'subtitle'
p5572
asbag63
(g84
g65
NtRp5573
(dp5574
g68
(dp5575
g95
g96
ssg77
g5564
sg70
(lp5576
S':'
asbag63
(g84
g65
NtRp5577
(dp5578
g68
(dp5579
sg77
g5564
sg70
(lp5580
g63
(g64
g65
NtRp5581
(dp5582
g68
(dp5583
g76
I5
ssg77
g5577
sg70
(lp5584
g4297
(S's\r\x00\x00\x00customize me!'
tRp5585
asbasbasbag63
(g79
g65
NtRp5586
(dp5587
g68
(dp5588
sg77
g3792
sg70
(lp5589
g63
(g84
g65
NtRp5590
(dp5591
g68
(dp5592
g88
g89
ssg77
g5586
sg70
(lp5593
S'title'
p5594
asbag63
(g84
g65
NtRp5595
(dp5596
g68
(dp5597
g95
g96
ssg77
g5586
sg70
(lp5598
S':'
asbag63
(g84
g65
NtRp5599
(dp5600
g68
(dp5601
sg77
g5586
sg70
(lp5602
g63
(g64
g65
NtRp5603
(dp5604
g68
(dp5605
g76
I5
ssg77
g5599
sg70
(lp5606
g128
asbasbasbag63
(g79
g65
NtRp5607
(dp5608
g68
(dp5609
sg77
g3792
sg70
(lp5610
g63
(g84
g65
NtRp5611
(dp5612
g68
(dp5613
g88
g89
ssg77
g5607
sg70
(lp5614
g2785
asbag63
(g84
g65
NtRp5615
(dp5616
g68
(dp5617
g95
g96
ssg77
g5607
sg70
(lp5618
S':'
asbag63
(g84
g65
NtRp5619
(dp5620
g68
(dp5621
sg77
g5607
sg70
(lp5622
g63
(g64
g65
NtRp5623
(dp5624
g68
(dp5625
g76
I5
ssg77
g5619
sg70
(lp5626
g2798
asbasbasbag63
(g79
g65
NtRp5627
(dp5628
g68
(dp5629
sg77
g3792
sg70
(lp5630
g63
(g84
g65
NtRp5631
(dp5632
g68
(dp5633
g88
g89
ssg77
g5627
sg70
(lp5634
S'view'
p5635
asbag63
(g84
g65
NtRp5636
(dp5637
g68
(dp5638
g95
g96
ssg77
g5627
sg70
(lp5639
S':'
asbag63
(g84
g65
NtRp5640
(dp5641
g68
(dp5642
sg77
g5627
sg70
(lp5643
g63
(g64
g65
NtRp5644
(dp5645
g68
(dp5646
g76
I5
ssg77
g5640
sg70
(lp5647
S'default/index.html'
p5648
asbasbasbasbasbsS'locals'
p5649
(dp5650
S'errread'
p5651
S'None'
p5652
sS'c2pread'
p5653
S'None'
p5654
sS'gc_was_enabled'
p5655
g2097
sS'errwrite'
p5656
S'None'
p5657
sS'child_exception'
p5658
S"OSError(2, 'No such file or directory')"
p5659
sS'errpipe_write'
p5660
S'12'
p5661
sS'executable'
p5662
S'\'octave -q --eval "H=0.85" \''
p5663
sS'close_fds'
p5664
g106
sS'self'
p5665
S'<subprocess.Popen object>'
p5666
sg1185
S'None'
p5667
sS'cwd'
p5668
S'None'
p5669
sS'shell'
p5670
g106
sg46
S'[\'octave -q --eval "H=0.85" \', \'applications/ACES/Waves/linear_wave_theory.m\']'
p5671
sS'fd'
p5672
S'None'
p5673
sS'c2pwrite'
p5674
S'None'
p5675
sS'data'
p5676
S'"cexceptions\\nOSError\\np0\\n(I2\\nS\'No such file or dir...or: [Errno 2] No such file or directory\\\\n\'\\np6\\nsb."'
p5677
sS'creationflags'
p5678
S'0'
sS'errpipe_read'
p5679
S'11'
p5680
sS'preexec_fn'
p5681
S'None'
p5682
sS'p2cread'
p5683
S'None'
p5684
sS'startupinfo'
p5685
S'None'
p5686
sS'p2cwrite'
p5687
S'None'
p5688
sS'universal_newlines'
p5689
g106
sssS'traceback'
p5690
S'Traceback (most recent call last):\n  File "/home/u4hcsdaw/Python/web2py/gluon/restricted.py", line 194, in restricted\n    exec ccode in environment\n  File "/home/u4hcsdaw/Python/web2py/applications/ACES/controllers/default.py", line 83, in <module>\n  File "/home/u4hcsdaw/Python/web2py/gluon/globals.py", line 149, in <lambda>\n    self._caller = lambda f: f()\n  File "/home/u4hcsdaw/Python/web2py/applications/ACES/controllers/default.py", line 27, in index\n    t0=AcesCall(f1.vars)\n  File "/home/u4hcsdaw/Python/web2py/applications/ACES/models/functionsAces.py", line 9, in AcesCall\n    res=subprocess.call(comm)\n  File "/home/u4hcsdaw/Python/epd/lib/python2.7/subprocess.py", line 493, in call\n    return Popen(*popenargs, **kwargs).wait()\n  File "/home/u4hcsdaw/Python/epd/lib/python2.7/subprocess.py", line 679, in __init__\n    errread, errwrite)\n  File "/home/u4hcsdaw/Python/epd/lib/python2.7/subprocess.py", line 1249, in _execute_child\n    raise child_exception\nOSError: [Errno 2] No such file or directory\n'
p5691
s.