(dp1
S'output'
p2
S''
sS'layer'
p3
S'/home/u4hcsdaw/Python/web2py/applications/ACES/controllers/default.py'
p4
sS'code'
p5
S'# -*- coding: utf-8 -*-\n# this file is released under public domain and you can use without limitations\n\n#########################################################################\n## This is a samples controller\n## - index is the default action of any application\n## - user is required for authentication and authorization\n## - download is for downloading files uploaded in the db (does streaming)\n## - call exposes all registered services (none by default)\n#########################################################################\n\ndef index():\n    """\n    example action using the internationalization operator T and flash\n    rendered by views/default/index.html or views/generic.html\n    """\n    import datetime\n    now=datetime.datetime.now()\n    nowS=now.strftime(\'%s\')\n    t0=\'\'\n    img1=\'\'\n    ip1=INPUT(_type=\'text\', _name=\'waveHeight\', _value=\'0.85\')\n    sub1=INPUT(_type=\'submit\',_name=\'subButton\')\n    f1=FORM(\'wave\',ip1,sub1,_name=\'Form1\',_action=\'\')\n    if f1.accepts(request.vars,session):\n        session.formVars=f1.vars\n        t0=AcesCall(f1.vars)\n        img1=IMG(_src=URL(\'static\',\'images/Waves.svg?\'+nowS))\n    return dict(form=f1,t0=t0,img1=img1)\n\ndef user():\n    """\n    exposes:\n    http://..../[app]/default/user/login\n    http://..../[app]/default/user/logout\n    http://..../[app]/default/user/register\n    http://..../[app]/default/user/profile\n    http://..../[app]/default/user/retrieve_password\n    http://..../[app]/default/user/change_password\n    use @auth.requires_login()\n        @auth.requires_membership(\'group name\')\n        @auth.requires_permission(\'read\',\'table name\',record_id)\n    to decorate functions that need access control\n    """\n    return dict(form=auth())\n\n\ndef download():\n    """\n    allows downloading of uploaded files\n    http://..../[app]/default/download/[filename]\n    """\n    return response.download(request,db)\n\n\ndef call():\n    """\n    exposes services. for example:\n    http://..../[app]/default/call/jsonrpc\n    decorate with @services.jsonrpc the functions to expose\n    supports xml, json, xmlrpc, jsonrpc, amfrpc, rss, csv\n    """\n    return service()\n\n\n@auth.requires_signature()\ndef data():\n    """\n    http://..../[app]/default/data/tables\n    http://..../[app]/default/data/create/[table]\n    http://..../[app]/default/data/read/[table]/[id]\n    http://..../[app]/default/data/update/[table]/[id]\n    http://..../[app]/default/data/delete/[table]/[id]\n    http://..../[app]/default/data/select/[table]\n    http://..../[app]/default/data/search/[table]\n    but URLs bust be signed, i.e. linked with\n      A(\'table\',_href=URL(\'data/tables\',user_signature=True))\n    or with the signed load operator\n      LOAD(\'default\',\'data.load\',args=\'tables\',ajax=True,user_signature=True)\n    """\n    return dict(form=crud())\n\nresponse._vars=response._caller(index)\n'
p6
sS'snapshot'
p7
(dp8
S'exception'
p9
(dp10
S'__getslice__'
p11
S"<method-wrapper '__getslice__' of exceptions.OSError object>"
p12
sS'__str__'
p13
S"<method-wrapper '__str__' of exceptions.OSError object>"
p14
sS'__reduce__'
p15
S'<built-in method __reduce__ of exceptions.OSError object>'
p16
sS'__dict__'
p17
S'{\'child_traceback\': \'Traceback (most recent call last):\\n  File "/usr/...st)\\nOSError: [Errno 2] No such file or directory\\n\'}'
p18
sS'__sizeof__'
p19
S'<built-in method __sizeof__ of exceptions.OSError object>'
p20
sS'__init__'
p21
S"<method-wrapper '__init__' of exceptions.OSError object>"
p22
sS'__setattr__'
p23
S"<method-wrapper '__setattr__' of exceptions.OSError object>"
p24
sS'__reduce_ex__'
p25
S'<built-in method __reduce_ex__ of exceptions.OSError object>'
p26
sS'__new__'
p27
S'<built-in method __new__ of type object>'
p28
sS'child_traceback'
p29
S'\'Traceback (most recent call last):\\n  File "/usr/...st)\\nOSError: [Errno 2] No such file or directory\\n\''
p30
sS'errno'
p31
S'2'
sS'__format__'
p32
S'<built-in method __format__ of exceptions.OSError object>'
p33
sS'__class__'
p34
S"<type 'exceptions.OSError'>"
p35
sS'filename'
p36
S'None'
p37
sS'__doc__'
p38
S"'OS system call failed.'"
p39
sS'__getitem__'
p40
S"<method-wrapper '__getitem__' of exceptions.OSError object>"
p41
sS'__setstate__'
p42
S'<built-in method __setstate__ of exceptions.OSError object>'
p43
sS'__getattribute__'
p44
S"<method-wrapper '__getattribute__' of exceptions.OSError object>"
p45
sS'args'
p46
S"(2, 'No such file or directory')"
p47
sS'__subclasshook__'
p48
S'<built-in method __subclasshook__ of type object>'
p49
sS'__unicode__'
p50
S'<built-in method __unicode__ of exceptions.OSError object>'
p51
sS'strerror'
p52
S"'No such file or directory'"
p53
sS'__delattr__'
p54
S"<method-wrapper '__delattr__' of exceptions.OSError object>"
p55
sS'__repr__'
p56
S"<method-wrapper '__repr__' of exceptions.OSError object>"
p57
sS'__hash__'
p58
S"<method-wrapper '__hash__' of exceptions.OSError object>"
p59
ssS'evalue'
p60
S'[Errno 2] No such file or directory'
p61
sS'request'
p62
ccopy_reg
_reconstructor
p63
(cgluon.html
BEAUTIFY
p64
c__builtin__
object
p65
NtRp66
(dp67
S'attributes'
p68
(dp69
sS'components'
p70
(lp71
g63
(cgluon.html
TABLE
p72
g65
NtRp73
(dp74
g68
(dp75
S'level'
p76
I5
ssS'parent'
p77
Nsg70
(lp78
g63
(cgluon.html
TR
p79
g65
NtRp80
(dp81
g68
(dp82
sg77
g73
sg70
(lp83
g63
(cgluon.html
TD
p84
g65
NtRp85
(dp86
g68
(dp87
S'_style'
p88
S'font-weight:bold;'
p89
ssg77
g80
sg70
(lp90
S'ajax'
p91
asbag63
(g84
g65
NtRp92
(dp93
g68
(dp94
S'_valign'
p95
S'top'
p96
ssg77
g80
sg70
(lp97
S':'
asbag63
(g84
g65
NtRp98
(dp99
g68
(dp100
sg77
g80
sg70
(lp101
g63
(g64
g65
NtRp102
(dp103
g68
(dp104
g76
I5
ssg77
g98
sg70
(lp105
S'False'
p106
asbasbasbag63
(g79
g65
NtRp107
(dp108
g68
(dp109
sg77
g73
sg70
(lp110
g63
(g84
g65
NtRp111
(dp112
g68
(dp113
g88
g89
ssg77
g107
sg70
(lp114
S'application'
p115
asbag63
(g84
g65
NtRp116
(dp117
g68
(dp118
g95
g96
ssg77
g107
sg70
(lp119
S':'
asbag63
(g84
g65
NtRp120
(dp121
g68
(dp122
sg77
g107
sg70
(lp123
g63
(g64
g65
NtRp124
(dp125
g68
(dp126
g76
I5
ssg77
g120
sg70
(lp127
S'ACES'
p128
asbasbasbag63
(g79
g65
NtRp129
(dp130
g68
(dp131
sg77
g73
sg70
(lp132
g63
(g84
g65
NtRp133
(dp134
g68
(dp135
g88
g89
ssg77
g129
sg70
(lp136
g46
asbag63
(g84
g65
NtRp137
(dp138
g68
(dp139
g95
g96
ssg77
g129
sg70
(lp140
S':'
asbag63
(g84
g65
NtRp141
(dp142
g68
(dp143
sg77
g129
sg70
(lp144
g63
(g64
g65
NtRp145
(dp146
g68
(dp147
g76
I5
ssg77
g141
sg70
(lp148
g63
(g72
g65
NtRp149
(dp150
g68
(dp151
g76
I4
ssg77
Nsg70
(lp152
sbasbasbasbag63
(g79
g65
NtRp153
(dp154
g68
(dp155
sg77
g73
sg70
(lp156
g63
(g84
g65
NtRp157
(dp158
g68
(dp159
g88
g89
ssg77
g153
sg70
(lp160
S'body'
p161
asbag63
(g84
g65
NtRp162
(dp163
g68
(dp164
g95
g96
ssg77
g153
sg70
(lp165
S':'
asbag63
(g84
g65
NtRp166
(dp167
g68
(dp168
sg77
g153
sg70
(lp169
g63
(g64
g65
NtRp170
(dp171
g68
(dp172
g76
I5
ssg77
g166
sg70
(lp173
S"<open file '<fdopen>', mode 'w+b' at 0x8b969c0>"
p174
asbasbasbag63
(g79
g65
NtRp175
(dp176
g68
(dp177
sg77
g73
sg70
(lp178
g63
(g84
g65
NtRp179
(dp180
g68
(dp181
g88
g89
ssg77
g175
sg70
(lp182
S'client'
p183
asbag63
(g84
g65
NtRp184
(dp185
g68
(dp186
g95
g96
ssg77
g175
sg70
(lp187
S':'
asbag63
(g84
g65
NtRp188
(dp189
g68
(dp190
sg77
g175
sg70
(lp191
g63
(g64
g65
NtRp192
(dp193
g68
(dp194
g76
I5
ssg77
g188
sg70
(lp195
S'127.0.0.1'
p196
asbasbasbag63
(g79
g65
NtRp197
(dp198
g68
(dp199
sg77
g73
sg70
(lp200
g63
(g84
g65
NtRp201
(dp202
g68
(dp203
g88
g89
ssg77
g197
sg70
(lp204
S'controller'
p205
asbag63
(g84
g65
NtRp206
(dp207
g68
(dp208
g95
g96
ssg77
g197
sg70
(lp209
S':'
asbag63
(g84
g65
NtRp210
(dp211
g68
(dp212
sg77
g197
sg70
(lp213
g63
(g64
g65
NtRp214
(dp215
g68
(dp216
g76
I5
ssg77
g210
sg70
(lp217
S'default'
p218
asbasbasbag63
(g79
g65
NtRp219
(dp220
g68
(dp221
sg77
g73
sg70
(lp222
g63
(g84
g65
NtRp223
(dp224
g68
(dp225
g88
g89
ssg77
g219
sg70
(lp226
S'cookies'
p227
asbag63
(g84
g65
NtRp228
(dp229
g68
(dp230
g95
g96
ssg77
g219
sg70
(lp231
S':'
asbag63
(g84
g65
NtRp232
(dp233
g68
(dp234
sg77
g219
sg70
(lp235
g63
(g64
g65
NtRp236
(dp237
g68
(dp238
g76
I5
ssg77
g232
sg70
(lp239
g63
(g72
g65
NtRp240
(dp241
g68
(dp242
g76
I4
ssg77
Nsg70
(lp243
g63
(g79
g65
NtRp244
(dp245
g68
(dp246
sg77
g240
sg70
(lp247
g63
(g84
g65
NtRp248
(dp249
g68
(dp250
g88
g89
ssg77
g244
sg70
(lp251
S'session_id_aces'
p252
asbag63
(g84
g65
NtRp253
(dp254
g68
(dp255
g95
g96
ssg77
g244
sg70
(lp256
S':'
asbag63
(g84
g65
NtRp257
(dp258
g68
(dp259
sg77
g244
sg70
(lp260
g63
(g64
g65
NtRp261
(dp262
g68
(dp263
g76
I4
ssg77
g257
sg70
(lp264
g63
(g72
g65
NtRp265
(dp266
g68
(dp267
g76
I3
ssg77
Nsg70
(lp268
g63
(g79
g65
NtRp269
(dp270
g68
(dp271
sg77
g265
sg70
(lp272
g63
(g84
g65
NtRp273
(dp274
g68
(dp275
g88
g89
ssg77
g269
sg70
(lp276
S'comment'
p277
asbag63
(g84
g65
NtRp278
(dp279
g68
(dp280
g95
g96
ssg77
g269
sg70
(lp281
S':'
asbag63
(g84
g65
NtRp282
(dp283
g68
(dp284
sg77
g269
sg70
(lp285
g63
(g64
g65
NtRp286
(dp287
g68
(dp288
g76
I3
ssg77
g282
sg70
(lp289
S''
asbasbasbag63
(g79
g65
NtRp290
(dp291
g68
(dp292
sg77
g265
sg70
(lp293
g63
(g84
g65
NtRp294
(dp295
g68
(dp296
g88
g89
ssg77
g290
sg70
(lp297
S'domain'
p298
asbag63
(g84
g65
NtRp299
(dp300
g68
(dp301
g95
g96
ssg77
g290
sg70
(lp302
S':'
asbag63
(g84
g65
NtRp303
(dp304
g68
(dp305
sg77
g290
sg70
(lp306
g63
(g64
g65
NtRp307
(dp308
g68
(dp309
g76
I3
ssg77
g303
sg70
(lp310
S''
asbasbasbag63
(g79
g65
NtRp311
(dp312
g68
(dp313
sg77
g265
sg70
(lp314
g63
(g84
g65
NtRp315
(dp316
g68
(dp317
g88
g89
ssg77
g311
sg70
(lp318
S'expires'
p319
asbag63
(g84
g65
NtRp320
(dp321
g68
(dp322
g95
g96
ssg77
g311
sg70
(lp323
S':'
asbag63
(g84
g65
NtRp324
(dp325
g68
(dp326
sg77
g311
sg70
(lp327
g63
(g64
g65
NtRp328
(dp329
g68
(dp330
g76
I3
ssg77
g324
sg70
(lp331
S''
asbasbasbag63
(g79
g65
NtRp332
(dp333
g68
(dp334
sg77
g265
sg70
(lp335
g63
(g84
g65
NtRp336
(dp337
g68
(dp338
g88
g89
ssg77
g332
sg70
(lp339
S'httponly'
p340
asbag63
(g84
g65
NtRp341
(dp342
g68
(dp343
g95
g96
ssg77
g332
sg70
(lp344
S':'
asbag63
(g84
g65
NtRp345
(dp346
g68
(dp347
sg77
g332
sg70
(lp348
g63
(g64
g65
NtRp349
(dp350
g68
(dp351
g76
I3
ssg77
g345
sg70
(lp352
S''
asbasbasbag63
(g79
g65
NtRp353
(dp354
g68
(dp355
sg77
g265
sg70
(lp356
g63
(g84
g65
NtRp357
(dp358
g68
(dp359
g88
g89
ssg77
g353
sg70
(lp360
S'max-age'
p361
asbag63
(g84
g65
NtRp362
(dp363
g68
(dp364
g95
g96
ssg77
g353
sg70
(lp365
S':'
asbag63
(g84
g65
NtRp366
(dp367
g68
(dp368
sg77
g353
sg70
(lp369
g63
(g64
g65
NtRp370
(dp371
g68
(dp372
g76
I3
ssg77
g366
sg70
(lp373
S''
asbasbasbag63
(g79
g65
NtRp374
(dp375
g68
(dp376
sg77
g265
sg70
(lp377
g63
(g84
g65
NtRp378
(dp379
g68
(dp380
g88
g89
ssg77
g374
sg70
(lp381
S'path'
p382
asbag63
(g84
g65
NtRp383
(dp384
g68
(dp385
g95
g96
ssg77
g374
sg70
(lp386
S':'
asbag63
(g84
g65
NtRp387
(dp388
g68
(dp389
sg77
g374
sg70
(lp390
g63
(g64
g65
NtRp391
(dp392
g68
(dp393
g76
I3
ssg77
g387
sg70
(lp394
S''
asbasbasbag63
(g79
g65
NtRp395
(dp396
g68
(dp397
sg77
g265
sg70
(lp398
g63
(g84
g65
NtRp399
(dp400
g68
(dp401
g88
g89
ssg77
g395
sg70
(lp402
S'secure'
p403
asbag63
(g84
g65
NtRp404
(dp405
g68
(dp406
g95
g96
ssg77
g395
sg70
(lp407
S':'
asbag63
(g84
g65
NtRp408
(dp409
g68
(dp410
sg77
g395
sg70
(lp411
g63
(g64
g65
NtRp412
(dp413
g68
(dp414
g76
I3
ssg77
g408
sg70
(lp415
S''
asbasbasbag63
(g79
g65
NtRp416
(dp417
g68
(dp418
sg77
g265
sg70
(lp419
g63
(g84
g65
NtRp420
(dp421
g68
(dp422
g88
g89
ssg77
g416
sg70
(lp423
S'version'
p424
asbag63
(g84
g65
NtRp425
(dp426
g68
(dp427
g95
g96
ssg77
g416
sg70
(lp428
S':'
asbag63
(g84
g65
NtRp429
(dp430
g68
(dp431
sg77
g416
sg70
(lp432
g63
(g64
g65
NtRp433
(dp434
g68
(dp435
g76
I3
ssg77
g429
sg70
(lp436
S''
asbasbasbasbasbasbasbag63
(g79
g65
NtRp437
(dp438
g68
(dp439
sg77
g240
sg70
(lp440
g63
(g84
g65
NtRp441
(dp442
g68
(dp443
g88
g89
ssg77
g437
sg70
(lp444
S'session_id_admin'
p445
asbag63
(g84
g65
NtRp446
(dp447
g68
(dp448
g95
g96
ssg77
g437
sg70
(lp449
S':'
asbag63
(g84
g65
NtRp450
(dp451
g68
(dp452
sg77
g437
sg70
(lp453
g63
(g64
g65
NtRp454
(dp455
g68
(dp456
g76
I4
ssg77
g450
sg70
(lp457
g63
(g72
g65
NtRp458
(dp459
g68
(dp460
g76
I3
ssg77
Nsg70
(lp461
g63
(g79
g65
NtRp462
(dp463
g68
(dp464
sg77
g458
sg70
(lp465
g63
(g84
g65
NtRp466
(dp467
g68
(dp468
g88
g89
ssg77
g462
sg70
(lp469
g277
asbag63
(g84
g65
NtRp470
(dp471
g68
(dp472
g95
g96
ssg77
g462
sg70
(lp473
S':'
asbag63
(g84
g65
NtRp474
(dp475
g68
(dp476
sg77
g462
sg70
(lp477
g63
(g64
g65
NtRp478
(dp479
g68
(dp480
g76
I3
ssg77
g474
sg70
(lp481
S''
asbasbasbag63
(g79
g65
NtRp482
(dp483
g68
(dp484
sg77
g458
sg70
(lp485
g63
(g84
g65
NtRp486
(dp487
g68
(dp488
g88
g89
ssg77
g482
sg70
(lp489
g298
asbag63
(g84
g65
NtRp490
(dp491
g68
(dp492
g95
g96
ssg77
g482
sg70
(lp493
S':'
asbag63
(g84
g65
NtRp494
(dp495
g68
(dp496
sg77
g482
sg70
(lp497
g63
(g64
g65
NtRp498
(dp499
g68
(dp500
g76
I3
ssg77
g494
sg70
(lp501
S''
asbasbasbag63
(g79
g65
NtRp502
(dp503
g68
(dp504
sg77
g458
sg70
(lp505
g63
(g84
g65
NtRp506
(dp507
g68
(dp508
g88
g89
ssg77
g502
sg70
(lp509
g319
asbag63
(g84
g65
NtRp510
(dp511
g68
(dp512
g95
g96
ssg77
g502
sg70
(lp513
S':'
asbag63
(g84
g65
NtRp514
(dp515
g68
(dp516
sg77
g502
sg70
(lp517
g63
(g64
g65
NtRp518
(dp519
g68
(dp520
g76
I3
ssg77
g514
sg70
(lp521
S''
asbasbasbag63
(g79
g65
NtRp522
(dp523
g68
(dp524
sg77
g458
sg70
(lp525
g63
(g84
g65
NtRp526
(dp527
g68
(dp528
g88
g89
ssg77
g522
sg70
(lp529
g340
asbag63
(g84
g65
NtRp530
(dp531
g68
(dp532
g95
g96
ssg77
g522
sg70
(lp533
S':'
asbag63
(g84
g65
NtRp534
(dp535
g68
(dp536
sg77
g522
sg70
(lp537
g63
(g64
g65
NtRp538
(dp539
g68
(dp540
g76
I3
ssg77
g534
sg70
(lp541
S''
asbasbasbag63
(g79
g65
NtRp542
(dp543
g68
(dp544
sg77
g458
sg70
(lp545
g63
(g84
g65
NtRp546
(dp547
g68
(dp548
g88
g89
ssg77
g542
sg70
(lp549
g361
asbag63
(g84
g65
NtRp550
(dp551
g68
(dp552
g95
g96
ssg77
g542
sg70
(lp553
S':'
asbag63
(g84
g65
NtRp554
(dp555
g68
(dp556
sg77
g542
sg70
(lp557
g63
(g64
g65
NtRp558
(dp559
g68
(dp560
g76
I3
ssg77
g554
sg70
(lp561
S''
asbasbasbag63
(g79
g65
NtRp562
(dp563
g68
(dp564
sg77
g458
sg70
(lp565
g63
(g84
g65
NtRp566
(dp567
g68
(dp568
g88
g89
ssg77
g562
sg70
(lp569
g382
asbag63
(g84
g65
NtRp570
(dp571
g68
(dp572
g95
g96
ssg77
g562
sg70
(lp573
S':'
asbag63
(g84
g65
NtRp574
(dp575
g68
(dp576
sg77
g562
sg70
(lp577
g63
(g64
g65
NtRp578
(dp579
g68
(dp580
g76
I3
ssg77
g574
sg70
(lp581
S''
asbasbasbag63
(g79
g65
NtRp582
(dp583
g68
(dp584
sg77
g458
sg70
(lp585
g63
(g84
g65
NtRp586
(dp587
g68
(dp588
g88
g89
ssg77
g582
sg70
(lp589
g403
asbag63
(g84
g65
NtRp590
(dp591
g68
(dp592
g95
g96
ssg77
g582
sg70
(lp593
S':'
asbag63
(g84
g65
NtRp594
(dp595
g68
(dp596
sg77
g582
sg70
(lp597
g63
(g64
g65
NtRp598
(dp599
g68
(dp600
g76
I3
ssg77
g594
sg70
(lp601
S''
asbasbasbag63
(g79
g65
NtRp602
(dp603
g68
(dp604
sg77
g458
sg70
(lp605
g63
(g84
g65
NtRp606
(dp607
g68
(dp608
g88
g89
ssg77
g602
sg70
(lp609
g424
asbag63
(g84
g65
NtRp610
(dp611
g68
(dp612
g95
g96
ssg77
g602
sg70
(lp613
S':'
asbag63
(g84
g65
NtRp614
(dp615
g68
(dp616
sg77
g602
sg70
(lp617
g63
(g64
g65
NtRp618
(dp619
g68
(dp620
g76
I3
ssg77
g614
sg70
(lp621
S''
asbasbasbasbasbasbasbag63
(g79
g65
NtRp622
(dp623
g68
(dp624
sg77
g240
sg70
(lp625
g63
(g84
g65
NtRp626
(dp627
g68
(dp628
g88
g89
ssg77
g622
sg70
(lp629
S'session_id_welcome'
p630
asbag63
(g84
g65
NtRp631
(dp632
g68
(dp633
g95
g96
ssg77
g622
sg70
(lp634
S':'
asbag63
(g84
g65
NtRp635
(dp636
g68
(dp637
sg77
g622
sg70
(lp638
g63
(g64
g65
NtRp639
(dp640
g68
(dp641
g76
I4
ssg77
g635
sg70
(lp642
g63
(g72
g65
NtRp643
(dp644
g68
(dp645
g76
I3
ssg77
Nsg70
(lp646
g63
(g79
g65
NtRp647
(dp648
g68
(dp649
sg77
g643
sg70
(lp650
g63
(g84
g65
NtRp651
(dp652
g68
(dp653
g88
g89
ssg77
g647
sg70
(lp654
g277
asbag63
(g84
g65
NtRp655
(dp656
g68
(dp657
g95
g96
ssg77
g647
sg70
(lp658
S':'
asbag63
(g84
g65
NtRp659
(dp660
g68
(dp661
sg77
g647
sg70
(lp662
g63
(g64
g65
NtRp663
(dp664
g68
(dp665
g76
I3
ssg77
g659
sg70
(lp666
S''
asbasbasbag63
(g79
g65
NtRp667
(dp668
g68
(dp669
sg77
g643
sg70
(lp670
g63
(g84
g65
NtRp671
(dp672
g68
(dp673
g88
g89
ssg77
g667
sg70
(lp674
g298
asbag63
(g84
g65
NtRp675
(dp676
g68
(dp677
g95
g96
ssg77
g667
sg70
(lp678
S':'
asbag63
(g84
g65
NtRp679
(dp680
g68
(dp681
sg77
g667
sg70
(lp682
g63
(g64
g65
NtRp683
(dp684
g68
(dp685
g76
I3
ssg77
g679
sg70
(lp686
S''
asbasbasbag63
(g79
g65
NtRp687
(dp688
g68
(dp689
sg77
g643
sg70
(lp690
g63
(g84
g65
NtRp691
(dp692
g68
(dp693
g88
g89
ssg77
g687
sg70
(lp694
g319
asbag63
(g84
g65
NtRp695
(dp696
g68
(dp697
g95
g96
ssg77
g687
sg70
(lp698
S':'
asbag63
(g84
g65
NtRp699
(dp700
g68
(dp701
sg77
g687
sg70
(lp702
g63
(g64
g65
NtRp703
(dp704
g68
(dp705
g76
I3
ssg77
g699
sg70
(lp706
S''
asbasbasbag63
(g79
g65
NtRp707
(dp708
g68
(dp709
sg77
g643
sg70
(lp710
g63
(g84
g65
NtRp711
(dp712
g68
(dp713
g88
g89
ssg77
g707
sg70
(lp714
g340
asbag63
(g84
g65
NtRp715
(dp716
g68
(dp717
g95
g96
ssg77
g707
sg70
(lp718
S':'
asbag63
(g84
g65
NtRp719
(dp720
g68
(dp721
sg77
g707
sg70
(lp722
g63
(g64
g65
NtRp723
(dp724
g68
(dp725
g76
I3
ssg77
g719
sg70
(lp726
S''
asbasbasbag63
(g79
g65
NtRp727
(dp728
g68
(dp729
sg77
g643
sg70
(lp730
g63
(g84
g65
NtRp731
(dp732
g68
(dp733
g88
g89
ssg77
g727
sg70
(lp734
g361
asbag63
(g84
g65
NtRp735
(dp736
g68
(dp737
g95
g96
ssg77
g727
sg70
(lp738
S':'
asbag63
(g84
g65
NtRp739
(dp740
g68
(dp741
sg77
g727
sg70
(lp742
g63
(g64
g65
NtRp743
(dp744
g68
(dp745
g76
I3
ssg77
g739
sg70
(lp746
S''
asbasbasbag63
(g79
g65
NtRp747
(dp748
g68
(dp749
sg77
g643
sg70
(lp750
g63
(g84
g65
NtRp751
(dp752
g68
(dp753
g88
g89
ssg77
g747
sg70
(lp754
g382
asbag63
(g84
g65
NtRp755
(dp756
g68
(dp757
g95
g96
ssg77
g747
sg70
(lp758
S':'
asbag63
(g84
g65
NtRp759
(dp760
g68
(dp761
sg77
g747
sg70
(lp762
g63
(g64
g65
NtRp763
(dp764
g68
(dp765
g76
I3
ssg77
g759
sg70
(lp766
S''
asbasbasbag63
(g79
g65
NtRp767
(dp768
g68
(dp769
sg77
g643
sg70
(lp770
g63
(g84
g65
NtRp771
(dp772
g68
(dp773
g88
g89
ssg77
g767
sg70
(lp774
g403
asbag63
(g84
g65
NtRp775
(dp776
g68
(dp777
g95
g96
ssg77
g767
sg70
(lp778
S':'
asbag63
(g84
g65
NtRp779
(dp780
g68
(dp781
sg77
g767
sg70
(lp782
g63
(g64
g65
NtRp783
(dp784
g68
(dp785
g76
I3
ssg77
g779
sg70
(lp786
S''
asbasbasbag63
(g79
g65
NtRp787
(dp788
g68
(dp789
sg77
g643
sg70
(lp790
g63
(g84
g65
NtRp791
(dp792
g68
(dp793
g88
g89
ssg77
g787
sg70
(lp794
g424
asbag63
(g84
g65
NtRp795
(dp796
g68
(dp797
g95
g96
ssg77
g787
sg70
(lp798
S':'
asbag63
(g84
g65
NtRp799
(dp800
g68
(dp801
sg77
g787
sg70
(lp802
g63
(g64
g65
NtRp803
(dp804
g68
(dp805
g76
I3
ssg77
g799
sg70
(lp806
S''
asbasbasbasbasbasbasbasbasbasbasbag63
(g79
g65
NtRp807
(dp808
g68
(dp809
sg77
g73
sg70
(lp810
g63
(g84
g65
NtRp811
(dp812
g68
(dp813
g88
g89
ssg77
g807
sg70
(lp814
S'env'
p815
asbag63
(g84
g65
NtRp816
(dp817
g68
(dp818
g95
g96
ssg77
g807
sg70
(lp819
S':'
asbag63
(g84
g65
NtRp820
(dp821
g68
(dp822
sg77
g807
sg70
(lp823
g63
(g64
g65
NtRp824
(dp825
g68
(dp826
g76
I5
ssg77
g820
sg70
(lp827
g63
(g72
g65
NtRp828
(dp829
g68
(dp830
g76
I4
ssg77
Nsg70
(lp831
g63
(g79
g65
NtRp832
(dp833
g68
(dp834
sg77
g828
sg70
(lp835
g63
(g84
g65
NtRp836
(dp837
g68
(dp838
g88
g89
ssg77
g832
sg70
(lp839
S'app_folders'
p840
asbag63
(g84
g65
NtRp841
(dp842
g68
(dp843
g95
g96
ssg77
g832
sg70
(lp844
S':'
asbag63
(g84
g65
NtRp845
(dp846
g68
(dp847
sg77
g832
sg70
(lp848
g63
(g64
g65
NtRp849
(dp850
g68
(dp851
g76
I4
ssg77
g845
sg70
(lp852
S"set(['/home/u4hcsdaw/Python/web2py/applications/ACES/', '/home/u4hcsdaw/Python/web2py/applications/admin/', '/home/u4hcsdaw/Python/web2py/applications/welcome/'])"
p853
asbasbasbag63
(g79
g65
NtRp854
(dp855
g68
(dp856
sg77
g828
sg70
(lp857
g63
(g84
g65
NtRp858
(dp859
g68
(dp860
g88
g89
ssg77
g854
sg70
(lp861
S'applications_parent'
p862
asbag63
(g84
g65
NtRp863
(dp864
g68
(dp865
g95
g96
ssg77
g854
sg70
(lp866
S':'
asbag63
(g84
g65
NtRp867
(dp868
g68
(dp869
sg77
g854
sg70
(lp870
g63
(g64
g65
NtRp871
(dp872
g68
(dp873
g76
I4
ssg77
g867
sg70
(lp874
S'/home/u4hcsdaw/Python/web2py'
p875
asbasbasbag63
(g79
g65
NtRp876
(dp877
g68
(dp878
sg77
g828
sg70
(lp879
g63
(g84
g65
NtRp880
(dp881
g68
(dp882
g88
g89
ssg77
g876
sg70
(lp883
S'cmd_args'
p884
asbag63
(g84
g65
NtRp885
(dp886
g68
(dp887
g95
g96
ssg77
g876
sg70
(lp888
S':'
asbag63
(g84
g65
NtRp889
(dp890
g68
(dp891
sg77
g876
sg70
(lp892
g63
(g64
g65
NtRp893
(dp894
g68
(dp895
g76
I4
ssg77
g889
sg70
(lp896
g63
(g72
g65
NtRp897
(dp898
g68
(dp899
g76
I3
ssg77
Nsg70
(lp900
sbasbasbasbag63
(g79
g65
NtRp901
(dp902
g68
(dp903
sg77
g828
sg70
(lp904
g63
(g84
g65
NtRp905
(dp906
g68
(dp907
g88
g89
ssg77
g901
sg70
(lp908
S'cmd_options'
p909
asbag63
(g84
g65
NtRp910
(dp911
g68
(dp912
g95
g96
ssg77
g901
sg70
(lp913
S':'
asbag63
(g84
g65
NtRp914
(dp915
g68
(dp916
sg77
g901
sg70
(lp917
g63
(g64
g65
NtRp918
(dp919
g68
(dp920
g76
I4
ssg77
g914
sg70
(lp921
S"<Values at 0x8bd702c: {'verbose': False, 'ip': '127.0.0.1', 'shutdown_timeout': 5, 'taskbar': False, 'nocron': False, 'pid_filename': 'httpserver.pid', 'maxthreads': None, 'softcron': False, 'server_name': 'chl-5833E', 'bpython': False, 'nogui': False, 'port': 8000, 'extcron': False, 'debuglevel': 30, 'test': None, 'folder': '/home/u4hcsdaw/Python/web2py', 'config': '', 'import_models': False, 'winservice': '', 'shell': None, 'run': '', 'log_filename': 'httpserver.log', 'args': [''], 'ssl_ca_certificate': None, 'scheduler': None, 'profiler_filename': None, 'ssl_private_key': '', 'password': '<ask>', 'request_queue_size': 5, 'ssl_certificate': '', 'cronjob': False, 'plain': False, 'quiet': False, 'interfaces': None, 'minthreads': None, 'timeout': 10, 'numthreads': None, 'nobanner': False}>"
p922
asbasbasbag63
(g79
g65
NtRp923
(dp924
g68
(dp925
sg77
g828
sg70
(lp926
g63
(g84
g65
NtRp927
(dp928
g68
(dp929
g88
g89
ssg77
g923
sg70
(lp930
S'content_length'
p931
asbag63
(g84
g65
NtRp932
(dp933
g68
(dp934
g95
g96
ssg77
g923
sg70
(lp935
S':'
asbag63
(g84
g65
NtRp936
(dp937
g68
(dp938
sg77
g923
sg70
(lp939
g63
(g64
g65
NtRp940
(dp941
g68
(dp942
g76
I4
ssg77
g936
sg70
(lp943
S'582'
p944
asbasbasbag63
(g79
g65
NtRp945
(dp946
g68
(dp947
sg77
g828
sg70
(lp948
g63
(g84
g65
NtRp949
(dp950
g68
(dp951
g88
g89
ssg77
g945
sg70
(lp952
S'content_type'
p953
asbag63
(g84
g65
NtRp954
(dp955
g68
(dp956
g95
g96
ssg77
g945
sg70
(lp957
S':'
asbag63
(g84
g65
NtRp958
(dp959
g68
(dp960
sg77
g945
sg70
(lp961
g63
(g64
g65
NtRp962
(dp963
g68
(dp964
g76
I4
ssg77
g958
sg70
(lp965
S'multipart/form-data; boundary=---------------------------208069581611378482031955324845'
p966
asbasbasbag63
(g79
g65
NtRp967
(dp968
g68
(dp969
sg77
g828
sg70
(lp970
g63
(g84
g65
NtRp971
(dp972
g68
(dp973
g88
g89
ssg77
g967
sg70
(lp974
S'db_sessions'
p975
asbag63
(g84
g65
NtRp976
(dp977
g68
(dp978
g95
g96
ssg77
g967
sg70
(lp979
S':'
asbag63
(g84
g65
NtRp980
(dp981
g68
(dp982
sg77
g967
sg70
(lp983
g63
(g64
g65
NtRp984
(dp985
g68
(dp986
g76
I4
ssg77
g980
sg70
(lp987
S'set([])'
p988
asbasbasbag63
(g79
g65
NtRp989
(dp990
g68
(dp991
sg77
g828
sg70
(lp992
g63
(g84
g65
NtRp993
(dp994
g68
(dp995
g88
g89
ssg77
g989
sg70
(lp996
S'debugging'
p997
asbag63
(g84
g65
NtRp998
(dp999
g68
(dp1000
g95
g96
ssg77
g989
sg70
(lp1001
S':'
asbag63
(g84
g65
NtRp1002
(dp1003
g68
(dp1004
sg77
g989
sg70
(lp1005
g63
(g64
g65
NtRp1006
(dp1007
g68
(dp1008
g76
I4
ssg77
g1002
sg70
(lp1009
g106
asbasbasbag63
(g79
g65
NtRp1010
(dp1011
g68
(dp1012
sg77
g828
sg70
(lp1013
g63
(g84
g65
NtRp1014
(dp1015
g68
(dp1016
g88
g89
ssg77
g1010
sg70
(lp1017
S'gluon_parent'
p1018
asbag63
(g84
g65
NtRp1019
(dp1020
g68
(dp1021
g95
g96
ssg77
g1010
sg70
(lp1022
S':'
asbag63
(g84
g65
NtRp1023
(dp1024
g68
(dp1025
sg77
g1010
sg70
(lp1026
g63
(g64
g65
NtRp1027
(dp1028
g68
(dp1029
g76
I4
ssg77
g1023
sg70
(lp1030
S'/home/u4hcsdaw/Python/web2py'
p1031
asbasbasbag63
(g79
g65
NtRp1032
(dp1033
g68
(dp1034
sg77
g828
sg70
(lp1035
g63
(g84
g65
NtRp1036
(dp1037
g68
(dp1038
g88
g89
ssg77
g1032
sg70
(lp1039
S'http_accept'
p1040
asbag63
(g84
g65
NtRp1041
(dp1042
g68
(dp1043
g95
g96
ssg77
g1032
sg70
(lp1044
S':'
asbag63
(g84
g65
NtRp1045
(dp1046
g68
(dp1047
sg77
g1032
sg70
(lp1048
g63
(g64
g65
NtRp1049
(dp1050
g68
(dp1051
g76
I4
ssg77
g1045
sg70
(lp1052
S'text/html,application/xhtml+xml,application/xml;q=0.9,*/*;q=0.8'
p1053
asbasbasbag63
(g79
g65
NtRp1054
(dp1055
g68
(dp1056
sg77
g828
sg70
(lp1057
g63
(g84
g65
NtRp1058
(dp1059
g68
(dp1060
g88
g89
ssg77
g1054
sg70
(lp1061
S'http_accept_encoding'
p1062
asbag63
(g84
g65
NtRp1063
(dp1064
g68
(dp1065
g95
g96
ssg77
g1054
sg70
(lp1066
S':'
asbag63
(g84
g65
NtRp1067
(dp1068
g68
(dp1069
sg77
g1054
sg70
(lp1070
g63
(g64
g65
NtRp1071
(dp1072
g68
(dp1073
g76
I4
ssg77
g1067
sg70
(lp1074
S'gzip, deflate'
p1075
asbasbasbag63
(g79
g65
NtRp1076
(dp1077
g68
(dp1078
sg77
g828
sg70
(lp1079
g63
(g84
g65
NtRp1080
(dp1081
g68
(dp1082
g88
g89
ssg77
g1076
sg70
(lp1083
S'http_accept_language'
p1084
asbag63
(g84
g65
NtRp1085
(dp1086
g68
(dp1087
g95
g96
ssg77
g1076
sg70
(lp1088
S':'
asbag63
(g84
g65
NtRp1089
(dp1090
g68
(dp1091
sg77
g1076
sg70
(lp1092
g63
(g64
g65
NtRp1093
(dp1094
g68
(dp1095
g76
I4
ssg77
g1089
sg70
(lp1096
S'en-us,en;q=0.5'
p1097
asbasbasbag63
(g79
g65
NtRp1098
(dp1099
g68
(dp1100
sg77
g828
sg70
(lp1101
g63
(g84
g65
NtRp1102
(dp1103
g68
(dp1104
g88
g89
ssg77
g1098
sg70
(lp1105
S'http_connection'
p1106
asbag63
(g84
g65
NtRp1107
(dp1108
g68
(dp1109
g95
g96
ssg77
g1098
sg70
(lp1110
S':'
asbag63
(g84
g65
NtRp1111
(dp1112
g68
(dp1113
sg77
g1098
sg70
(lp1114
g63
(g64
g65
NtRp1115
(dp1116
g68
(dp1117
g76
I4
ssg77
g1111
sg70
(lp1118
S'keep-alive'
p1119
asbasbasbag63
(g79
g65
NtRp1120
(dp1121
g68
(dp1122
sg77
g828
sg70
(lp1123
g63
(g84
g65
NtRp1124
(dp1125
g68
(dp1126
g88
g89
ssg77
g1120
sg70
(lp1127
S'http_content_length'
p1128
asbag63
(g84
g65
NtRp1129
(dp1130
g68
(dp1131
g95
g96
ssg77
g1120
sg70
(lp1132
S':'
asbag63
(g84
g65
NtRp1133
(dp1134
g68
(dp1135
sg77
g1120
sg70
(lp1136
g63
(g64
g65
NtRp1137
(dp1138
g68
(dp1139
g76
I4
ssg77
g1133
sg70
(lp1140
g944
asbasbasbag63
(g79
g65
NtRp1141
(dp1142
g68
(dp1143
sg77
g828
sg70
(lp1144
g63
(g84
g65
NtRp1145
(dp1146
g68
(dp1147
g88
g89
ssg77
g1141
sg70
(lp1148
S'http_content_type'
p1149
asbag63
(g84
g65
NtRp1150
(dp1151
g68
(dp1152
g95
g96
ssg77
g1141
sg70
(lp1153
S':'
asbag63
(g84
g65
NtRp1154
(dp1155
g68
(dp1156
sg77
g1141
sg70
(lp1157
g63
(g64
g65
NtRp1158
(dp1159
g68
(dp1160
g76
I4
ssg77
g1154
sg70
(lp1161
g966
asbasbasbag63
(g79
g65
NtRp1162
(dp1163
g68
(dp1164
sg77
g828
sg70
(lp1165
g63
(g84
g65
NtRp1166
(dp1167
g68
(dp1168
g88
g89
ssg77
g1162
sg70
(lp1169
S'http_cookie'
p1170
asbag63
(g84
g65
NtRp1171
(dp1172
g68
(dp1173
g95
g96
ssg77
g1162
sg70
(lp1174
S':'
asbag63
(g84
g65
NtRp1175
(dp1176
g68
(dp1177
sg77
g1162
sg70
(lp1178
g63
(g64
g65
NtRp1179
(dp1180
g68
(dp1181
g76
I4
ssg77
g1175
sg70
(lp1182
S'session_id_welcome=127.0.0.1-e0fb68d7-6023-4232-ae5a-449200fdf2e4; session_id_admin=127.0.0.1-40bbef4e-e6af-4e22-a3b0-b45e6ccce96a; session_id_aces=127.0.0.1-c914d549-bd8c-4d4b-80c4-72a1e6cf8099'
p1183
asbasbasbag63
(g79
g65
NtRp1184
(dp1185
g68
(dp1186
sg77
g828
sg70
(lp1187
g63
(g84
g65
NtRp1188
(dp1189
g68
(dp1190
g88
g89
ssg77
g1184
sg70
(lp1191
S'http_host'
p1192
asbag63
(g84
g65
NtRp1193
(dp1194
g68
(dp1195
g95
g96
ssg77
g1184
sg70
(lp1196
S':'
asbag63
(g84
g65
NtRp1197
(dp1198
g68
(dp1199
sg77
g1184
sg70
(lp1200
g63
(g64
g65
NtRp1201
(dp1202
g68
(dp1203
g76
I4
ssg77
g1197
sg70
(lp1204
S'127.0.0.1:8000'
p1205
asbasbasbag63
(g79
g65
NtRp1206
(dp1207
g68
(dp1208
sg77
g828
sg70
(lp1209
g63
(g84
g65
NtRp1210
(dp1211
g68
(dp1212
g88
g89
ssg77
g1206
sg70
(lp1213
S'http_referer'
p1214
asbag63
(g84
g65
NtRp1215
(dp1216
g68
(dp1217
g95
g96
ssg77
g1206
sg70
(lp1218
S':'
asbag63
(g84
g65
NtRp1219
(dp1220
g68
(dp1221
sg77
g1206
sg70
(lp1222
g63
(g64
g65
NtRp1223
(dp1224
g68
(dp1225
g76
I4
ssg77
g1219
sg70
(lp1226
S'http://127.0.0.1:8000/ACES/default/index'
p1227
asbasbasbag63
(g79
g65
NtRp1228
(dp1229
g68
(dp1230
sg77
g828
sg70
(lp1231
g63
(g84
g65
NtRp1232
(dp1233
g68
(dp1234
g88
g89
ssg77
g1228
sg70
(lp1235
S'http_user_agent'
p1236
asbag63
(g84
g65
NtRp1237
(dp1238
g68
(dp1239
g95
g96
ssg77
g1228
sg70
(lp1240
S':'
asbag63
(g84
g65
NtRp1241
(dp1242
g68
(dp1243
sg77
g1228
sg70
(lp1244
g63
(g64
g65
NtRp1245
(dp1246
g68
(dp1247
g76
I4
ssg77
g1241
sg70
(lp1248
S'Mozilla/5.0 (X11; Ubuntu; Linux i686; rv:13.0) Gecko/20100101 Firefox/13.0.1'
p1249
asbasbasbag63
(g79
g65
NtRp1250
(dp1251
g68
(dp1252
sg77
g828
sg70
(lp1253
g63
(g84
g65
NtRp1254
(dp1255
g68
(dp1256
g88
g89
ssg77
g1250
sg70
(lp1257
S'is_jython'
p1258
asbag63
(g84
g65
NtRp1259
(dp1260
g68
(dp1261
g95
g96
ssg77
g1250
sg70
(lp1262
S':'
asbag63
(g84
g65
NtRp1263
(dp1264
g68
(dp1265
sg77
g1250
sg70
(lp1266
g63
(g64
g65
NtRp1267
(dp1268
g68
(dp1269
g76
I4
ssg77
g1263
sg70
(lp1270
g106
asbasbasbag63
(g79
g65
NtRp1271
(dp1272
g68
(dp1273
sg77
g828
sg70
(lp1274
g63
(g84
g65
NtRp1275
(dp1276
g68
(dp1277
g88
g89
ssg77
g1271
sg70
(lp1278
S'path_info'
p1279
asbag63
(g84
g65
NtRp1280
(dp1281
g68
(dp1282
g95
g96
ssg77
g1271
sg70
(lp1283
S':'
asbag63
(g84
g65
NtRp1284
(dp1285
g68
(dp1286
sg77
g1271
sg70
(lp1287
g63
(g64
g65
NtRp1288
(dp1289
g68
(dp1290
g76
I4
ssg77
g1284
sg70
(lp1291
S'/ACES/default/index'
p1292
asbasbasbag63
(g79
g65
NtRp1293
(dp1294
g68
(dp1295
sg77
g828
sg70
(lp1296
g63
(g84
g65
NtRp1297
(dp1298
g68
(dp1299
g88
g89
ssg77
g1293
sg70
(lp1300
S'query_string'
p1301
asbag63
(g84
g65
NtRp1302
(dp1303
g68
(dp1304
g95
g96
ssg77
g1293
sg70
(lp1305
S':'
asbag63
(g84
g65
NtRp1306
(dp1307
g68
(dp1308
sg77
g1293
sg70
(lp1309
g63
(g64
g65
NtRp1310
(dp1311
g68
(dp1312
g76
I4
ssg77
g1306
sg70
(lp1313
S''
asbasbasbag63
(g79
g65
NtRp1314
(dp1315
g68
(dp1316
sg77
g828
sg70
(lp1317
g63
(g84
g65
NtRp1318
(dp1319
g68
(dp1320
g88
g89
ssg77
g1314
sg70
(lp1321
S'remote_addr'
p1322
asbag63
(g84
g65
NtRp1323
(dp1324
g68
(dp1325
g95
g96
ssg77
g1314
sg70
(lp1326
S':'
asbag63
(g84
g65
NtRp1327
(dp1328
g68
(dp1329
sg77
g1314
sg70
(lp1330
g63
(g64
g65
NtRp1331
(dp1332
g68
(dp1333
g76
I4
ssg77
g1327
sg70
(lp1334
g196
asbasbasbag63
(g79
g65
NtRp1335
(dp1336
g68
(dp1337
sg77
g828
sg70
(lp1338
g63
(g84
g65
NtRp1339
(dp1340
g68
(dp1341
g88
g89
ssg77
g1335
sg70
(lp1342
S'remote_port'
p1343
asbag63
(g84
g65
NtRp1344
(dp1345
g68
(dp1346
g95
g96
ssg77
g1335
sg70
(lp1347
S':'
asbag63
(g84
g65
NtRp1348
(dp1349
g68
(dp1350
sg77
g1335
sg70
(lp1351
g63
(g64
g65
NtRp1352
(dp1353
g68
(dp1354
g76
I4
ssg77
g1348
sg70
(lp1355
S'51725'
p1356
asbasbasbag63
(g79
g65
NtRp1357
(dp1358
g68
(dp1359
sg77
g828
sg70
(lp1360
g63
(g84
g65
NtRp1361
(dp1362
g68
(dp1363
g88
g89
ssg77
g1357
sg70
(lp1364
S'request_method'
p1365
asbag63
(g84
g65
NtRp1366
(dp1367
g68
(dp1368
g95
g96
ssg77
g1357
sg70
(lp1369
S':'
asbag63
(g84
g65
NtRp1370
(dp1371
g68
(dp1372
sg77
g1357
sg70
(lp1373
g63
(g64
g65
NtRp1374
(dp1375
g68
(dp1376
g76
I4
ssg77
g1370
sg70
(lp1377
S'POST'
p1378
asbasbasbag63
(g79
g65
NtRp1379
(dp1380
g68
(dp1381
sg77
g828
sg70
(lp1382
g63
(g84
g65
NtRp1383
(dp1384
g68
(dp1385
g88
g89
ssg77
g1379
sg70
(lp1386
S'script_name'
p1387
asbag63
(g84
g65
NtRp1388
(dp1389
g68
(dp1390
g95
g96
ssg77
g1379
sg70
(lp1391
S':'
asbag63
(g84
g65
NtRp1392
(dp1393
g68
(dp1394
sg77
g1379
sg70
(lp1395
g63
(g64
g65
NtRp1396
(dp1397
g68
(dp1398
g76
I4
ssg77
g1392
sg70
(lp1399
S''
asbasbasbag63
(g79
g65
NtRp1400
(dp1401
g68
(dp1402
sg77
g828
sg70
(lp1403
g63
(g84
g65
NtRp1404
(dp1405
g68
(dp1406
g88
g89
ssg77
g1400
sg70
(lp1407
S'server_name'
p1408
asbag63
(g84
g65
NtRp1409
(dp1410
g68
(dp1411
g95
g96
ssg77
g1400
sg70
(lp1412
S':'
asbag63
(g84
g65
NtRp1413
(dp1414
g68
(dp1415
sg77
g1400
sg70
(lp1416
g63
(g64
g65
NtRp1417
(dp1418
g68
(dp1419
g76
I4
ssg77
g1413
sg70
(lp1420
S'chl-5833E'
p1421
asbasbasbag63
(g79
g65
NtRp1422
(dp1423
g68
(dp1424
sg77
g828
sg70
(lp1425
g63
(g84
g65
NtRp1426
(dp1427
g68
(dp1428
g88
g89
ssg77
g1422
sg70
(lp1429
S'server_port'
p1430
asbag63
(g84
g65
NtRp1431
(dp1432
g68
(dp1433
g95
g96
ssg77
g1422
sg70
(lp1434
S':'
asbag63
(g84
g65
NtRp1435
(dp1436
g68
(dp1437
sg77
g1422
sg70
(lp1438
g63
(g64
g65
NtRp1439
(dp1440
g68
(dp1441
g76
I4
ssg77
g1435
sg70
(lp1442
S'8000'
p1443
asbasbasbag63
(g79
g65
NtRp1444
(dp1445
g68
(dp1446
sg77
g828
sg70
(lp1447
g63
(g84
g65
NtRp1448
(dp1449
g68
(dp1450
g88
g89
ssg77
g1444
sg70
(lp1451
S'server_protocol'
p1452
asbag63
(g84
g65
NtRp1453
(dp1454
g68
(dp1455
g95
g96
ssg77
g1444
sg70
(lp1456
S':'
asbag63
(g84
g65
NtRp1457
(dp1458
g68
(dp1459
sg77
g1444
sg70
(lp1460
g63
(g64
g65
NtRp1461
(dp1462
g68
(dp1463
g76
I4
ssg77
g1457
sg70
(lp1464
S'HTTP/1.1'
p1465
asbasbasbag63
(g79
g65
NtRp1466
(dp1467
g68
(dp1468
sg77
g828
sg70
(lp1469
g63
(g84
g65
NtRp1470
(dp1471
g68
(dp1472
g88
g89
ssg77
g1466
sg70
(lp1473
S'server_software'
p1474
asbag63
(g84
g65
NtRp1475
(dp1476
g68
(dp1477
g95
g96
ssg77
g1466
sg70
(lp1478
S':'
asbag63
(g84
g65
NtRp1479
(dp1480
g68
(dp1481
sg77
g1466
sg70
(lp1482
g63
(g64
g65
NtRp1483
(dp1484
g68
(dp1485
g76
I4
ssg77
g1479
sg70
(lp1486
S'Rocket 1.2.4'
p1487
asbasbasbag63
(g79
g65
NtRp1488
(dp1489
g68
(dp1490
sg77
g828
sg70
(lp1491
g63
(g84
g65
NtRp1492
(dp1493
g68
(dp1494
g88
g89
ssg77
g1488
sg70
(lp1495
S'web2py_crontype'
p1496
asbag63
(g84
g65
NtRp1497
(dp1498
g68
(dp1499
g95
g96
ssg77
g1488
sg70
(lp1500
S':'
asbag63
(g84
g65
NtRp1501
(dp1502
g68
(dp1503
sg77
g1488
sg70
(lp1504
g63
(g64
g65
NtRp1505
(dp1506
g68
(dp1507
g76
I4
ssg77
g1501
sg70
(lp1508
S'hard'
p1509
asbasbasbag63
(g79
g65
NtRp1510
(dp1511
g68
(dp1512
sg77
g828
sg70
(lp1513
g63
(g84
g65
NtRp1514
(dp1515
g68
(dp1516
g88
g89
ssg77
g1510
sg70
(lp1517
S'web2py_path'
p1518
asbag63
(g84
g65
NtRp1519
(dp1520
g68
(dp1521
g95
g96
ssg77
g1510
sg70
(lp1522
S':'
asbag63
(g84
g65
NtRp1523
(dp1524
g68
(dp1525
sg77
g1510
sg70
(lp1526
g63
(g64
g65
NtRp1527
(dp1528
g68
(dp1529
g76
I4
ssg77
g1523
sg70
(lp1530
g875
asbasbasbag63
(g79
g65
NtRp1531
(dp1532
g68
(dp1533
sg77
g828
sg70
(lp1534
g63
(g84
g65
NtRp1535
(dp1536
g68
(dp1537
g88
g89
ssg77
g1531
sg70
(lp1538
S'web2py_version'
p1539
asbag63
(g84
g65
NtRp1540
(dp1541
g68
(dp1542
g95
g96
ssg77
g1531
sg70
(lp1543
S':'
asbag63
(g84
g65
NtRp1544
(dp1545
g68
(dp1546
sg77
g1531
sg70
(lp1547
g63
(g64
g65
NtRp1548
(dp1549
g68
(dp1550
g76
I4
ssg77
g1544
sg70
(lp1551
g63
(g72
g65
NtRp1552
(dp1553
g68
(dp1554
g76
I3
ssg77
Nsg70
(lp1555
g63
(g79
g65
NtRp1556
(dp1557
g68
(dp1558
sg77
g1552
sg70
(lp1559
g63
(g84
g65
NtRp1560
(dp1561
g68
(dp1562
sg77
g1556
sg70
(lp1563
g63
(g64
g65
NtRp1564
(dp1565
g68
(dp1566
g76
I3
ssg77
g1560
sg70
(lp1567
S'1'
asbasbasbag63
(g79
g65
NtRp1568
(dp1569
g68
(dp1570
sg77
g1552
sg70
(lp1571
g63
(g84
g65
NtRp1572
(dp1573
g68
(dp1574
sg77
g1568
sg70
(lp1575
g63
(g64
g65
NtRp1576
(dp1577
g68
(dp1578
g76
I3
ssg77
g1572
sg70
(lp1579
S'99'
p1580
asbasbasbag63
(g79
g65
NtRp1581
(dp1582
g68
(dp1583
sg77
g1552
sg70
(lp1584
g63
(g84
g65
NtRp1585
(dp1586
g68
(dp1587
sg77
g1581
sg70
(lp1588
g63
(g64
g65
NtRp1589
(dp1590
g68
(dp1591
g76
I3
ssg77
g1585
sg70
(lp1592
S'2'
asbasbasbag63
(g79
g65
NtRp1593
(dp1594
g68
(dp1595
sg77
g1552
sg70
(lp1596
g63
(g84
g65
NtRp1597
(dp1598
g68
(dp1599
sg77
g1593
sg70
(lp1600
g63
(g64
g65
NtRp1601
(dp1602
g68
(dp1603
g76
I3
ssg77
g1597
sg70
(lp1604
S'datetime.datetime(2011, 9, 26, 6, 55, 33)'
p1605
asbasbasbag63
(g79
g65
NtRp1606
(dp1607
g68
(dp1608
sg77
g1552
sg70
(lp1609
g63
(g84
g65
NtRp1610
(dp1611
g68
(dp1612
sg77
g1606
sg70
(lp1613
g63
(g64
g65
NtRp1614
(dp1615
g68
(dp1616
g76
I3
ssg77
g1610
sg70
(lp1617
S'stable'
p1618
asbasbasbasbasbasbasbag63
(g79
g65
NtRp1619
(dp1620
g68
(dp1621
sg77
g828
sg70
(lp1622
g63
(g84
g65
NtRp1623
(dp1624
g68
(dp1625
g88
g89
ssg77
g1619
sg70
(lp1626
S'wsgi_errors'
p1627
asbag63
(g84
g65
NtRp1628
(dp1629
g68
(dp1630
g95
g96
ssg77
g1619
sg70
(lp1631
S':'
asbag63
(g84
g65
NtRp1632
(dp1633
g68
(dp1634
sg77
g1619
sg70
(lp1635
g63
(g64
g65
NtRp1636
(dp1637
g68
(dp1638
g76
I4
ssg77
g1632
sg70
(lp1639
S"<open file '<stderr>', mode 'w' at 0xb73810d0>"
p1640
asbasbasbag63
(g79
g65
NtRp1641
(dp1642
g68
(dp1643
sg77
g828
sg70
(lp1644
g63
(g84
g65
NtRp1645
(dp1646
g68
(dp1647
g88
g89
ssg77
g1641
sg70
(lp1648
S'wsgi_file_wrapper'
p1649
asbag63
(g84
g65
NtRp1650
(dp1651
g68
(dp1652
g95
g96
ssg77
g1641
sg70
(lp1653
S':'
asbag63
(g84
g65
NtRp1654
(dp1655
g68
(dp1656
sg77
g1641
sg70
(lp1657
g63
(g64
g65
NtRp1658
(dp1659
g68
(dp1660
g76
I4
ssg77
g1654
sg70
(lp1661
S'<class wsgiref.util.FileWrapper at 0x8b168fc>'
p1662
asbasbasbag63
(g79
g65
NtRp1663
(dp1664
g68
(dp1665
sg77
g828
sg70
(lp1666
g63
(g84
g65
NtRp1667
(dp1668
g68
(dp1669
g88
g89
ssg77
g1663
sg70
(lp1670
S'wsgi_input'
p1671
asbag63
(g84
g65
NtRp1672
(dp1673
g68
(dp1674
g95
g96
ssg77
g1663
sg70
(lp1675
S':'
asbag63
(g84
g65
NtRp1676
(dp1677
g68
(dp1678
sg77
g1663
sg70
(lp1679
g63
(g64
g65
NtRp1680
(dp1681
g68
(dp1682
g76
I4
ssg77
g1676
sg70
(lp1683
S'<socket._fileobject object at 0xae21662c>'
p1684
asbasbasbag63
(g79
g65
NtRp1685
(dp1686
g68
(dp1687
sg77
g828
sg70
(lp1688
g63
(g84
g65
NtRp1689
(dp1690
g68
(dp1691
g88
g89
ssg77
g1685
sg70
(lp1692
S'wsgi_multiprocess'
p1693
asbag63
(g84
g65
NtRp1694
(dp1695
g68
(dp1696
g95
g96
ssg77
g1685
sg70
(lp1697
S':'
asbag63
(g84
g65
NtRp1698
(dp1699
g68
(dp1700
sg77
g1685
sg70
(lp1701
g63
(g64
g65
NtRp1702
(dp1703
g68
(dp1704
g76
I4
ssg77
g1698
sg70
(lp1705
g106
asbasbasbag63
(g79
g65
NtRp1706
(dp1707
g68
(dp1708
sg77
g828
sg70
(lp1709
g63
(g84
g65
NtRp1710
(dp1711
g68
(dp1712
g88
g89
ssg77
g1706
sg70
(lp1713
S'wsgi_multithread'
p1714
asbag63
(g84
g65
NtRp1715
(dp1716
g68
(dp1717
g95
g96
ssg77
g1706
sg70
(lp1718
S':'
asbag63
(g84
g65
NtRp1719
(dp1720
g68
(dp1721
sg77
g1706
sg70
(lp1722
g63
(g64
g65
NtRp1723
(dp1724
g68
(dp1725
g76
I4
ssg77
g1719
sg70
(lp1726
S'True'
p1727
asbasbasbag63
(g79
g65
NtRp1728
(dp1729
g68
(dp1730
sg77
g828
sg70
(lp1731
g63
(g84
g65
NtRp1732
(dp1733
g68
(dp1734
g88
g89
ssg77
g1728
sg70
(lp1735
S'wsgi_run_once'
p1736
asbag63
(g84
g65
NtRp1737
(dp1738
g68
(dp1739
g95
g96
ssg77
g1728
sg70
(lp1740
S':'
asbag63
(g84
g65
NtRp1741
(dp1742
g68
(dp1743
sg77
g1728
sg70
(lp1744
g63
(g64
g65
NtRp1745
(dp1746
g68
(dp1747
g76
I4
ssg77
g1741
sg70
(lp1748
g106
asbasbasbag63
(g79
g65
NtRp1749
(dp1750
g68
(dp1751
sg77
g828
sg70
(lp1752
g63
(g84
g65
NtRp1753
(dp1754
g68
(dp1755
g88
g89
ssg77
g1749
sg70
(lp1756
S'wsgi_url_scheme'
p1757
asbag63
(g84
g65
NtRp1758
(dp1759
g68
(dp1760
g95
g96
ssg77
g1749
sg70
(lp1761
S':'
asbag63
(g84
g65
NtRp1762
(dp1763
g68
(dp1764
sg77
g1749
sg70
(lp1765
g63
(g64
g65
NtRp1766
(dp1767
g68
(dp1768
g76
I4
ssg77
g1762
sg70
(lp1769
S'http'
p1770
asbasbasbag63
(g79
g65
NtRp1771
(dp1772
g68
(dp1773
sg77
g828
sg70
(lp1774
g63
(g84
g65
NtRp1775
(dp1776
g68
(dp1777
g88
g89
ssg77
g1771
sg70
(lp1778
S'wsgi_version'
p1779
asbag63
(g84
g65
NtRp1780
(dp1781
g68
(dp1782
g95
g96
ssg77
g1771
sg70
(lp1783
S':'
asbag63
(g84
g65
NtRp1784
(dp1785
g68
(dp1786
sg77
g1771
sg70
(lp1787
g63
(g64
g65
NtRp1788
(dp1789
g68
(dp1790
g76
I4
ssg77
g1784
sg70
(lp1791
g63
(g72
g65
NtRp1792
(dp1793
g68
(dp1794
g76
I3
ssg77
Nsg70
(lp1795
g63
(g79
g65
NtRp1796
(dp1797
g68
(dp1798
sg77
g1792
sg70
(lp1799
g63
(g84
g65
NtRp1800
(dp1801
g68
(dp1802
sg77
g1796
sg70
(lp1803
g63
(g64
g65
NtRp1804
(dp1805
g68
(dp1806
g76
I3
ssg77
g1800
sg70
(lp1807
S'1'
asbasbasbag63
(g79
g65
NtRp1808
(dp1809
g68
(dp1810
sg77
g1792
sg70
(lp1811
g63
(g84
g65
NtRp1812
(dp1813
g68
(dp1814
sg77
g1808
sg70
(lp1815
g63
(g64
g65
NtRp1816
(dp1817
g68
(dp1818
g76
I3
ssg77
g1812
sg70
(lp1819
S'0'
asbasbasbasbasbasbasbasbasbasbasbag63
(g79
g65
NtRp1820
(dp1821
g68
(dp1822
sg77
g73
sg70
(lp1823
g63
(g84
g65
NtRp1824
(dp1825
g68
(dp1826
g88
g89
ssg77
g1820
sg70
(lp1827
S'extension'
p1828
asbag63
(g84
g65
NtRp1829
(dp1830
g68
(dp1831
g95
g96
ssg77
g1820
sg70
(lp1832
S':'
asbag63
(g84
g65
NtRp1833
(dp1834
g68
(dp1835
sg77
g1820
sg70
(lp1836
g63
(g64
g65
NtRp1837
(dp1838
g68
(dp1839
g76
I5
ssg77
g1833
sg70
(lp1840
S'html'
p1841
asbasbasbag63
(g79
g65
NtRp1842
(dp1843
g68
(dp1844
sg77
g73
sg70
(lp1845
g63
(g84
g65
NtRp1846
(dp1847
g68
(dp1848
g88
g89
ssg77
g1842
sg70
(lp1849
S'folder'
p1850
asbag63
(g84
g65
NtRp1851
(dp1852
g68
(dp1853
g95
g96
ssg77
g1842
sg70
(lp1854
S':'
asbag63
(g84
g65
NtRp1855
(dp1856
g68
(dp1857
sg77
g1842
sg70
(lp1858
g63
(g64
g65
NtRp1859
(dp1860
g68
(dp1861
g76
I5
ssg77
g1855
sg70
(lp1862
S'/home/u4hcsdaw/Python/web2py/applications/ACES/'
p1863
asbasbasbag63
(g79
g65
NtRp1864
(dp1865
g68
(dp1866
sg77
g73
sg70
(lp1867
g63
(g84
g65
NtRp1868
(dp1869
g68
(dp1870
g88
g89
ssg77
g1864
sg70
(lp1871
S'function'
p1872
asbag63
(g84
g65
NtRp1873
(dp1874
g68
(dp1875
g95
g96
ssg77
g1864
sg70
(lp1876
S':'
asbag63
(g84
g65
NtRp1877
(dp1878
g68
(dp1879
sg77
g1864
sg70
(lp1880
g63
(g64
g65
NtRp1881
(dp1882
g68
(dp1883
g76
I5
ssg77
g1877
sg70
(lp1884
S'index'
p1885
asbasbasbag63
(g79
g65
NtRp1886
(dp1887
g68
(dp1888
sg77
g73
sg70
(lp1889
g63
(g84
g65
NtRp1890
(dp1891
g68
(dp1892
g88
g89
ssg77
g1886
sg70
(lp1893
S'get_vars'
p1894
asbag63
(g84
g65
NtRp1895
(dp1896
g68
(dp1897
g95
g96
ssg77
g1886
sg70
(lp1898
S':'
asbag63
(g84
g65
NtRp1899
(dp1900
g68
(dp1901
sg77
g1886
sg70
(lp1902
g63
(g64
g65
NtRp1903
(dp1904
g68
(dp1905
g76
I5
ssg77
g1899
sg70
(lp1906
g63
(g72
g65
NtRp1907
(dp1908
g68
(dp1909
g76
I4
ssg77
Nsg70
(lp1910
sbasbasbasbag63
(g79
g65
NtRp1911
(dp1912
g68
(dp1913
sg77
g73
sg70
(lp1914
g63
(g84
g65
NtRp1915
(dp1916
g68
(dp1917
g88
g89
ssg77
g1911
sg70
(lp1918
S'global_settings'
p1919
asbag63
(g84
g65
NtRp1920
(dp1921
g68
(dp1922
g95
g96
ssg77
g1911
sg70
(lp1923
S':'
asbag63
(g84
g65
NtRp1924
(dp1925
g68
(dp1926
sg77
g1911
sg70
(lp1927
g63
(g64
g65
NtRp1928
(dp1929
g68
(dp1930
g76
I5
ssg77
g1924
sg70
(lp1931
g63
(g72
g65
NtRp1932
(dp1933
g68
(dp1934
g76
I4
ssg77
Nsg70
(lp1935
g63
(g79
g65
NtRp1936
(dp1937
g68
(dp1938
sg77
g1932
sg70
(lp1939
g63
(g84
g65
NtRp1940
(dp1941
g68
(dp1942
g88
g89
ssg77
g1936
sg70
(lp1943
g840
asbag63
(g84
g65
NtRp1944
(dp1945
g68
(dp1946
g95
g96
ssg77
g1936
sg70
(lp1947
S':'
asbag63
(g84
g65
NtRp1948
(dp1949
g68
(dp1950
sg77
g1936
sg70
(lp1951
g63
(g64
g65
NtRp1952
(dp1953
g68
(dp1954
g76
I4
ssg77
g1948
sg70
(lp1955
S"set(['/home/u4hcsdaw/Python/web2py/applications/ACES/', '/home/u4hcsdaw/Python/web2py/applications/admin/', '/home/u4hcsdaw/Python/web2py/applications/welcome/'])"
p1956
asbasbasbag63
(g79
g65
NtRp1957
(dp1958
g68
(dp1959
sg77
g1932
sg70
(lp1960
g63
(g84
g65
NtRp1961
(dp1962
g68
(dp1963
g88
g89
ssg77
g1957
sg70
(lp1964
g862
asbag63
(g84
g65
NtRp1965
(dp1966
g68
(dp1967
g95
g96
ssg77
g1957
sg70
(lp1968
S':'
asbag63
(g84
g65
NtRp1969
(dp1970
g68
(dp1971
sg77
g1957
sg70
(lp1972
g63
(g64
g65
NtRp1973
(dp1974
g68
(dp1975
g76
I4
ssg77
g1969
sg70
(lp1976
g875
asbasbasbag63
(g79
g65
NtRp1977
(dp1978
g68
(dp1979
sg77
g1932
sg70
(lp1980
g63
(g84
g65
NtRp1981
(dp1982
g68
(dp1983
g88
g89
ssg77
g1977
sg70
(lp1984
g884
asbag63
(g84
g65
NtRp1985
(dp1986
g68
(dp1987
g95
g96
ssg77
g1977
sg70
(lp1988
S':'
asbag63
(g84
g65
NtRp1989
(dp1990
g68
(dp1991
sg77
g1977
sg70
(lp1992
g63
(g64
g65
NtRp1993
(dp1994
g68
(dp1995
g76
I4
ssg77
g1989
sg70
(lp1996
g63
(g72
g65
NtRp1997
(dp1998
g68
(dp1999
g76
I3
ssg77
Nsg70
(lp2000
sbasbasbasbag63
(g79
g65
NtRp2001
(dp2002
g68
(dp2003
sg77
g1932
sg70
(lp2004
g63
(g84
g65
NtRp2005
(dp2006
g68
(dp2007
g88
g89
ssg77
g2001
sg70
(lp2008
g909
asbag63
(g84
g65
NtRp2009
(dp2010
g68
(dp2011
g95
g96
ssg77
g2001
sg70
(lp2012
S':'
asbag63
(g84
g65
NtRp2013
(dp2014
g68
(dp2015
sg77
g2001
sg70
(lp2016
g63
(g64
g65
NtRp2017
(dp2018
g68
(dp2019
g76
I4
ssg77
g2013
sg70
(lp2020
S"<Values at 0x8bd702c: {'verbose': False, 'ip': '127.0.0.1', 'shutdown_timeout': 5, 'taskbar': False, 'nocron': False, 'pid_filename': 'httpserver.pid', 'maxthreads': None, 'softcron': False, 'server_name': 'chl-5833E', 'bpython': False, 'nogui': False, 'port': 8000, 'extcron': False, 'debuglevel': 30, 'test': None, 'folder': '/home/u4hcsdaw/Python/web2py', 'config': '', 'import_models': False, 'winservice': '', 'shell': None, 'run': '', 'log_filename': 'httpserver.log', 'args': [''], 'ssl_ca_certificate': None, 'scheduler': None, 'profiler_filename': None, 'ssl_private_key': '', 'password': '<ask>', 'request_queue_size': 5, 'ssl_certificate': '', 'cronjob': False, 'plain': False, 'quiet': False, 'interfaces': None, 'minthreads': None, 'timeout': 10, 'numthreads': None, 'nobanner': False}>"
p2021
asbasbasbag63
(g79
g65
NtRp2022
(dp2023
g68
(dp2024
sg77
g1932
sg70
(lp2025
g63
(g84
g65
NtRp2026
(dp2027
g68
(dp2028
g88
g89
ssg77
g2022
sg70
(lp2029
g975
asbag63
(g84
g65
NtRp2030
(dp2031
g68
(dp2032
g95
g96
ssg77
g2022
sg70
(lp2033
S':'
asbag63
(g84
g65
NtRp2034
(dp2035
g68
(dp2036
sg77
g2022
sg70
(lp2037
g63
(g64
g65
NtRp2038
(dp2039
g68
(dp2040
g76
I4
ssg77
g2034
sg70
(lp2041
S'set([])'
p2042
asbasbasbag63
(g79
g65
NtRp2043
(dp2044
g68
(dp2045
sg77
g1932
sg70
(lp2046
g63
(g84
g65
NtRp2047
(dp2048
g68
(dp2049
g88
g89
ssg77
g2043
sg70
(lp2050
g997
asbag63
(g84
g65
NtRp2051
(dp2052
g68
(dp2053
g95
g96
ssg77
g2043
sg70
(lp2054
S':'
asbag63
(g84
g65
NtRp2055
(dp2056
g68
(dp2057
sg77
g2043
sg70
(lp2058
g63
(g64
g65
NtRp2059
(dp2060
g68
(dp2061
g76
I4
ssg77
g2055
sg70
(lp2062
g106
asbasbasbag63
(g79
g65
NtRp2063
(dp2064
g68
(dp2065
sg77
g1932
sg70
(lp2066
g63
(g84
g65
NtRp2067
(dp2068
g68
(dp2069
g88
g89
ssg77
g2063
sg70
(lp2070
g1018
asbag63
(g84
g65
NtRp2071
(dp2072
g68
(dp2073
g95
g96
ssg77
g2063
sg70
(lp2074
S':'
asbag63
(g84
g65
NtRp2075
(dp2076
g68
(dp2077
sg77
g2063
sg70
(lp2078
g63
(g64
g65
NtRp2079
(dp2080
g68
(dp2081
g76
I4
ssg77
g2075
sg70
(lp2082
g1031
asbasbasbag63
(g79
g65
NtRp2083
(dp2084
g68
(dp2085
sg77
g1932
sg70
(lp2086
g63
(g84
g65
NtRp2087
(dp2088
g68
(dp2089
g88
g89
ssg77
g2083
sg70
(lp2090
g1258
asbag63
(g84
g65
NtRp2091
(dp2092
g68
(dp2093
g95
g96
ssg77
g2083
sg70
(lp2094
S':'
asbag63
(g84
g65
NtRp2095
(dp2096
g68
(dp2097
sg77
g2083
sg70
(lp2098
g63
(g64
g65
NtRp2099
(dp2100
g68
(dp2101
g76
I4
ssg77
g2095
sg70
(lp2102
g106
asbasbasbag63
(g79
g65
NtRp2103
(dp2104
g68
(dp2105
sg77
g1932
sg70
(lp2106
g63
(g84
g65
NtRp2107
(dp2108
g68
(dp2109
g88
g89
ssg77
g2103
sg70
(lp2110
g1496
asbag63
(g84
g65
NtRp2111
(dp2112
g68
(dp2113
g95
g96
ssg77
g2103
sg70
(lp2114
S':'
asbag63
(g84
g65
NtRp2115
(dp2116
g68
(dp2117
sg77
g2103
sg70
(lp2118
g63
(g64
g65
NtRp2119
(dp2120
g68
(dp2121
g76
I4
ssg77
g2115
sg70
(lp2122
g1509
asbasbasbag63
(g79
g65
NtRp2123
(dp2124
g68
(dp2125
sg77
g1932
sg70
(lp2126
g63
(g84
g65
NtRp2127
(dp2128
g68
(dp2129
g88
g89
ssg77
g2123
sg70
(lp2130
g1539
asbag63
(g84
g65
NtRp2131
(dp2132
g68
(dp2133
g95
g96
ssg77
g2123
sg70
(lp2134
S':'
asbag63
(g84
g65
NtRp2135
(dp2136
g68
(dp2137
sg77
g2123
sg70
(lp2138
g63
(g64
g65
NtRp2139
(dp2140
g68
(dp2141
g76
I4
ssg77
g2135
sg70
(lp2142
g63
(g72
g65
NtRp2143
(dp2144
g68
(dp2145
g76
I3
ssg77
Nsg70
(lp2146
g63
(g79
g65
NtRp2147
(dp2148
g68
(dp2149
sg77
g2143
sg70
(lp2150
g63
(g84
g65
NtRp2151
(dp2152
g68
(dp2153
sg77
g2147
sg70
(lp2154
g63
(g64
g65
NtRp2155
(dp2156
g68
(dp2157
g76
I3
ssg77
g2151
sg70
(lp2158
S'1'
asbasbasbag63
(g79
g65
NtRp2159
(dp2160
g68
(dp2161
sg77
g2143
sg70
(lp2162
g63
(g84
g65
NtRp2163
(dp2164
g68
(dp2165
sg77
g2159
sg70
(lp2166
g63
(g64
g65
NtRp2167
(dp2168
g68
(dp2169
g76
I3
ssg77
g2163
sg70
(lp2170
S'99'
p2171
asbasbasbag63
(g79
g65
NtRp2172
(dp2173
g68
(dp2174
sg77
g2143
sg70
(lp2175
g63
(g84
g65
NtRp2176
(dp2177
g68
(dp2178
sg77
g2172
sg70
(lp2179
g63
(g64
g65
NtRp2180
(dp2181
g68
(dp2182
g76
I3
ssg77
g2176
sg70
(lp2183
S'2'
asbasbasbag63
(g79
g65
NtRp2184
(dp2185
g68
(dp2186
sg77
g2143
sg70
(lp2187
g63
(g84
g65
NtRp2188
(dp2189
g68
(dp2190
sg77
g2184
sg70
(lp2191
g63
(g64
g65
NtRp2192
(dp2193
g68
(dp2194
g76
I3
ssg77
g2188
sg70
(lp2195
S'datetime.datetime(2011, 9, 26, 6, 55, 33)'
p2196
asbasbasbag63
(g79
g65
NtRp2197
(dp2198
g68
(dp2199
sg77
g2143
sg70
(lp2200
g63
(g84
g65
NtRp2201
(dp2202
g68
(dp2203
sg77
g2197
sg70
(lp2204
g63
(g64
g65
NtRp2205
(dp2206
g68
(dp2207
g76
I3
ssg77
g2201
sg70
(lp2208
g1618
asbasbasbasbasbasbasbasbasbasbasbag63
(g79
g65
NtRp2209
(dp2210
g68
(dp2211
sg77
g73
sg70
(lp2212
g63
(g84
g65
NtRp2213
(dp2214
g68
(dp2215
g88
g89
ssg77
g2209
sg70
(lp2216
S'is_https'
p2217
asbag63
(g84
g65
NtRp2218
(dp2219
g68
(dp2220
g95
g96
ssg77
g2209
sg70
(lp2221
S':'
asbag63
(g84
g65
NtRp2222
(dp2223
g68
(dp2224
sg77
g2209
sg70
(lp2225
g63
(g64
g65
NtRp2226
(dp2227
g68
(dp2228
g76
I5
ssg77
g2222
sg70
(lp2229
g106
asbasbasbag63
(g79
g65
NtRp2230
(dp2231
g68
(dp2232
sg77
g73
sg70
(lp2233
g63
(g84
g65
NtRp2234
(dp2235
g68
(dp2236
g88
g89
ssg77
g2230
sg70
(lp2237
S'is_local'
p2238
asbag63
(g84
g65
NtRp2239
(dp2240
g68
(dp2241
g95
g96
ssg77
g2230
sg70
(lp2242
S':'
asbag63
(g84
g65
NtRp2243
(dp2244
g68
(dp2245
sg77
g2230
sg70
(lp2246
g63
(g64
g65
NtRp2247
(dp2248
g68
(dp2249
g76
I5
ssg77
g2243
sg70
(lp2250
g1727
asbasbasbag63
(g79
g65
NtRp2251
(dp2252
g68
(dp2253
sg77
g73
sg70
(lp2254
g63
(g84
g65
NtRp2255
(dp2256
g68
(dp2257
g88
g89
ssg77
g2251
sg70
(lp2258
S'is_restful'
p2259
asbag63
(g84
g65
NtRp2260
(dp2261
g68
(dp2262
g95
g96
ssg77
g2251
sg70
(lp2263
S':'
asbag63
(g84
g65
NtRp2264
(dp2265
g68
(dp2266
sg77
g2251
sg70
(lp2267
g63
(g64
g65
NtRp2268
(dp2269
g68
(dp2270
g76
I5
ssg77
g2264
sg70
(lp2271
g106
asbasbasbag63
(g79
g65
NtRp2272
(dp2273
g68
(dp2274
sg77
g73
sg70
(lp2275
g63
(g84
g65
NtRp2276
(dp2277
g68
(dp2278
g88
g89
ssg77
g2272
sg70
(lp2279
S'now'
p2280
asbag63
(g84
g65
NtRp2281
(dp2282
g68
(dp2283
g95
g96
ssg77
g2272
sg70
(lp2284
S':'
asbag63
(g84
g65
NtRp2285
(dp2286
g68
(dp2287
sg77
g2272
sg70
(lp2288
g63
(g64
g65
NtRp2289
(dp2290
g68
(dp2291
g76
I5
ssg77
g2285
sg70
(lp2292
S'datetime.datetime(2012, 6, 29, 14, 24, 30, 880325)'
p2293
asbasbasbag63
(g79
g65
NtRp2294
(dp2295
g68
(dp2296
sg77
g73
sg70
(lp2297
g63
(g84
g65
NtRp2298
(dp2299
g68
(dp2300
g88
g89
ssg77
g2294
sg70
(lp2301
S'post_vars'
p2302
asbag63
(g84
g65
NtRp2303
(dp2304
g68
(dp2305
g95
g96
ssg77
g2294
sg70
(lp2306
S':'
asbag63
(g84
g65
NtRp2307
(dp2308
g68
(dp2309
sg77
g2294
sg70
(lp2310
g63
(g64
g65
NtRp2311
(dp2312
g68
(dp2313
g76
I5
ssg77
g2307
sg70
(lp2314
g63
(g72
g65
NtRp2315
(dp2316
g68
(dp2317
g76
I4
ssg77
Nsg70
(lp2318
g63
(g79
g65
NtRp2319
(dp2320
g68
(dp2321
sg77
g2315
sg70
(lp2322
g63
(g84
g65
NtRp2323
(dp2324
g68
(dp2325
g88
g89
ssg77
g2319
sg70
(lp2326
S'subButton'
p2327
asbag63
(g84
g65
NtRp2328
(dp2329
g68
(dp2330
g95
g96
ssg77
g2319
sg70
(lp2331
S':'
asbag63
(g84
g65
NtRp2332
(dp2333
g68
(dp2334
sg77
g2319
sg70
(lp2335
g63
(g64
g65
NtRp2336
(dp2337
g68
(dp2338
g76
I4
ssg77
g2332
sg70
(lp2339
S'Submit Query'
p2340
asbasbasbag63
(g79
g65
NtRp2341
(dp2342
g68
(dp2343
sg77
g2315
sg70
(lp2344
g63
(g84
g65
NtRp2345
(dp2346
g68
(dp2347
g88
g89
ssg77
g2341
sg70
(lp2348
S'waveHeight'
p2349
asbag63
(g84
g65
NtRp2350
(dp2351
g68
(dp2352
g95
g96
ssg77
g2341
sg70
(lp2353
S':'
asbag63
(g84
g65
NtRp2354
(dp2355
g68
(dp2356
sg77
g2341
sg70
(lp2357
g63
(g64
g65
NtRp2358
(dp2359
g68
(dp2360
g76
I4
ssg77
g2354
sg70
(lp2361
S'0.85'
p2362
asbasbasbasbasbasbasbag63
(g79
g65
NtRp2363
(dp2364
g68
(dp2365
sg77
g73
sg70
(lp2366
g63
(g84
g65
NtRp2367
(dp2368
g68
(dp2369
g88
g89
ssg77
g2363
sg70
(lp2370
S'url'
p2371
asbag63
(g84
g65
NtRp2372
(dp2373
g68
(dp2374
g95
g96
ssg77
g2363
sg70
(lp2375
S':'
asbag63
(g84
g65
NtRp2376
(dp2377
g68
(dp2378
sg77
g2363
sg70
(lp2379
g63
(g64
g65
NtRp2380
(dp2381
g68
(dp2382
g76
I5
ssg77
g2376
sg70
(lp2383
S'/ACES/default/index'
p2384
asbasbasbag63
(g79
g65
NtRp2385
(dp2386
g68
(dp2387
sg77
g73
sg70
(lp2388
g63
(g84
g65
NtRp2389
(dp2390
g68
(dp2391
g88
g89
ssg77
g2385
sg70
(lp2392
S'utcnow'
p2393
asbag63
(g84
g65
NtRp2394
(dp2395
g68
(dp2396
g95
g96
ssg77
g2385
sg70
(lp2397
S':'
asbag63
(g84
g65
NtRp2398
(dp2399
g68
(dp2400
sg77
g2385
sg70
(lp2401
g63
(g64
g65
NtRp2402
(dp2403
g68
(dp2404
g76
I5
ssg77
g2398
sg70
(lp2405
S'datetime.datetime(2012, 6, 29, 19, 24, 30, 880356)'
p2406
asbasbasbag63
(g79
g65
NtRp2407
(dp2408
g68
(dp2409
sg77
g73
sg70
(lp2410
g63
(g84
g65
NtRp2411
(dp2412
g68
(dp2413
g88
g89
ssg77
g2407
sg70
(lp2414
S'uuid'
p2415
asbag63
(g84
g65
NtRp2416
(dp2417
g68
(dp2418
g95
g96
ssg77
g2407
sg70
(lp2419
S':'
asbag63
(g84
g65
NtRp2420
(dp2421
g68
(dp2422
sg77
g2407
sg70
(lp2423
g63
(g64
g65
NtRp2424
(dp2425
g68
(dp2426
g76
I5
ssg77
g2420
sg70
(lp2427
S'ACES/127.0.0.1.2012-06-29.14-24-30.942572f3-aa6e-421b-835a-30c6d152e4de'
p2428
asbasbasbag63
(g79
g65
NtRp2429
(dp2430
g68
(dp2431
sg77
g73
sg70
(lp2432
g63
(g84
g65
NtRp2433
(dp2434
g68
(dp2435
g88
g89
ssg77
g2429
sg70
(lp2436
S'vars'
p2437
asbag63
(g84
g65
NtRp2438
(dp2439
g68
(dp2440
g95
g96
ssg77
g2429
sg70
(lp2441
S':'
asbag63
(g84
g65
NtRp2442
(dp2443
g68
(dp2444
sg77
g2429
sg70
(lp2445
g63
(g64
g65
NtRp2446
(dp2447
g68
(dp2448
g76
I5
ssg77
g2442
sg70
(lp2449
g63
(g72
g65
NtRp2450
(dp2451
g68
(dp2452
g76
I4
ssg77
Nsg70
(lp2453
g63
(g79
g65
NtRp2454
(dp2455
g68
(dp2456
sg77
g2450
sg70
(lp2457
g63
(g84
g65
NtRp2458
(dp2459
g68
(dp2460
g88
g89
ssg77
g2454
sg70
(lp2461
g2327
asbag63
(g84
g65
NtRp2462
(dp2463
g68
(dp2464
g95
g96
ssg77
g2454
sg70
(lp2465
S':'
asbag63
(g84
g65
NtRp2466
(dp2467
g68
(dp2468
sg77
g2454
sg70
(lp2469
g63
(g64
g65
NtRp2470
(dp2471
g68
(dp2472
g76
I4
ssg77
g2466
sg70
(lp2473
g2340
asbasbasbag63
(g79
g65
NtRp2474
(dp2475
g68
(dp2476
sg77
g2450
sg70
(lp2477
g63
(g84
g65
NtRp2478
(dp2479
g68
(dp2480
g88
g89
ssg77
g2474
sg70
(lp2481
g2349
asbag63
(g84
g65
NtRp2482
(dp2483
g68
(dp2484
g95
g96
ssg77
g2474
sg70
(lp2485
S':'
asbag63
(g84
g65
NtRp2486
(dp2487
g68
(dp2488
sg77
g2474
sg70
(lp2489
g63
(g64
g65
NtRp2490
(dp2491
g68
(dp2492
g76
I4
ssg77
g2486
sg70
(lp2493
g2362
asbasbasbasbasbasbasbag63
(g79
g65
NtRp2494
(dp2495
g68
(dp2496
sg77
g73
sg70
(lp2497
g63
(g84
g65
NtRp2498
(dp2499
g68
(dp2500
g88
g89
ssg77
g2494
sg70
(lp2501
S'wsgi'
p2502
asbag63
(g84
g65
NtRp2503
(dp2504
g68
(dp2505
g95
g96
ssg77
g2494
sg70
(lp2506
S':'
asbag63
(g84
g65
NtRp2507
(dp2508
g68
(dp2509
sg77
g2494
sg70
(lp2510
g63
(g64
g65
NtRp2511
(dp2512
g68
(dp2513
g76
I5
ssg77
g2507
sg70
(lp2514
g63
(g72
g65
NtRp2515
(dp2516
g68
(dp2517
g76
I4
ssg77
Nsg70
(lp2518
g63
(g79
g65
NtRp2519
(dp2520
g68
(dp2521
sg77
g2515
sg70
(lp2522
g63
(g84
g65
NtRp2523
(dp2524
g68
(dp2525
g88
g89
ssg77
g2519
sg70
(lp2526
S'environ'
p2527
asbag63
(g84
g65
NtRp2528
(dp2529
g68
(dp2530
g95
g96
ssg77
g2519
sg70
(lp2531
S':'
asbag63
(g84
g65
NtRp2532
(dp2533
g68
(dp2534
sg77
g2519
sg70
(lp2535
g63
(g64
g65
NtRp2536
(dp2537
g68
(dp2538
g76
I4
ssg77
g2532
sg70
(lp2539
g63
(g72
g65
NtRp2540
(dp2541
g68
(dp2542
g76
I3
ssg77
Nsg70
(lp2543
g63
(g79
g65
NtRp2544
(dp2545
g68
(dp2546
sg77
g2540
sg70
(lp2547
g63
(g84
g65
NtRp2548
(dp2549
g68
(dp2550
g88
g89
ssg77
g2544
sg70
(lp2551
S'CONTENT_LENGTH'
p2552
asbag63
(g84
g65
NtRp2553
(dp2554
g68
(dp2555
g95
g96
ssg77
g2544
sg70
(lp2556
S':'
asbag63
(g84
g65
NtRp2557
(dp2558
g68
(dp2559
sg77
g2544
sg70
(lp2560
g63
(g64
g65
NtRp2561
(dp2562
g68
(dp2563
g76
I3
ssg77
g2557
sg70
(lp2564
g944
asbasbasbag63
(g79
g65
NtRp2565
(dp2566
g68
(dp2567
sg77
g2540
sg70
(lp2568
g63
(g84
g65
NtRp2569
(dp2570
g68
(dp2571
g88
g89
ssg77
g2565
sg70
(lp2572
S'CONTENT_TYPE'
p2573
asbag63
(g84
g65
NtRp2574
(dp2575
g68
(dp2576
g95
g96
ssg77
g2565
sg70
(lp2577
S':'
asbag63
(g84
g65
NtRp2578
(dp2579
g68
(dp2580
sg77
g2565
sg70
(lp2581
g63
(g64
g65
NtRp2582
(dp2583
g68
(dp2584
g76
I3
ssg77
g2578
sg70
(lp2585
g966
asbasbasbag63
(g79
g65
NtRp2586
(dp2587
g68
(dp2588
sg77
g2540
sg70
(lp2589
g63
(g84
g65
NtRp2590
(dp2591
g68
(dp2592
g88
g89
ssg77
g2586
sg70
(lp2593
S'HTTP_ACCEPT'
p2594
asbag63
(g84
g65
NtRp2595
(dp2596
g68
(dp2597
g95
g96
ssg77
g2586
sg70
(lp2598
S':'
asbag63
(g84
g65
NtRp2599
(dp2600
g68
(dp2601
sg77
g2586
sg70
(lp2602
g63
(g64
g65
NtRp2603
(dp2604
g68
(dp2605
g76
I3
ssg77
g2599
sg70
(lp2606
g1053
asbasbasbag63
(g79
g65
NtRp2607
(dp2608
g68
(dp2609
sg77
g2540
sg70
(lp2610
g63
(g84
g65
NtRp2611
(dp2612
g68
(dp2613
g88
g89
ssg77
g2607
sg70
(lp2614
S'HTTP_ACCEPT_ENCODING'
p2615
asbag63
(g84
g65
NtRp2616
(dp2617
g68
(dp2618
g95
g96
ssg77
g2607
sg70
(lp2619
S':'
asbag63
(g84
g65
NtRp2620
(dp2621
g68
(dp2622
sg77
g2607
sg70
(lp2623
g63
(g64
g65
NtRp2624
(dp2625
g68
(dp2626
g76
I3
ssg77
g2620
sg70
(lp2627
g1075
asbasbasbag63
(g79
g65
NtRp2628
(dp2629
g68
(dp2630
sg77
g2540
sg70
(lp2631
g63
(g84
g65
NtRp2632
(dp2633
g68
(dp2634
g88
g89
ssg77
g2628
sg70
(lp2635
S'HTTP_ACCEPT_LANGUAGE'
p2636
asbag63
(g84
g65
NtRp2637
(dp2638
g68
(dp2639
g95
g96
ssg77
g2628
sg70
(lp2640
S':'
asbag63
(g84
g65
NtRp2641
(dp2642
g68
(dp2643
sg77
g2628
sg70
(lp2644
g63
(g64
g65
NtRp2645
(dp2646
g68
(dp2647
g76
I3
ssg77
g2641
sg70
(lp2648
g1097
asbasbasbag63
(g79
g65
NtRp2649
(dp2650
g68
(dp2651
sg77
g2540
sg70
(lp2652
g63
(g84
g65
NtRp2653
(dp2654
g68
(dp2655
g88
g89
ssg77
g2649
sg70
(lp2656
S'HTTP_CONNECTION'
p2657
asbag63
(g84
g65
NtRp2658
(dp2659
g68
(dp2660
g95
g96
ssg77
g2649
sg70
(lp2661
S':'
asbag63
(g84
g65
NtRp2662
(dp2663
g68
(dp2664
sg77
g2649
sg70
(lp2665
g63
(g64
g65
NtRp2666
(dp2667
g68
(dp2668
g76
I3
ssg77
g2662
sg70
(lp2669
g1119
asbasbasbag63
(g79
g65
NtRp2670
(dp2671
g68
(dp2672
sg77
g2540
sg70
(lp2673
g63
(g84
g65
NtRp2674
(dp2675
g68
(dp2676
g88
g89
ssg77
g2670
sg70
(lp2677
S'HTTP_CONTENT_LENGTH'
p2678
asbag63
(g84
g65
NtRp2679
(dp2680
g68
(dp2681
g95
g96
ssg77
g2670
sg70
(lp2682
S':'
asbag63
(g84
g65
NtRp2683
(dp2684
g68
(dp2685
sg77
g2670
sg70
(lp2686
g63
(g64
g65
NtRp2687
(dp2688
g68
(dp2689
g76
I3
ssg77
g2683
sg70
(lp2690
g944
asbasbasbag63
(g79
g65
NtRp2691
(dp2692
g68
(dp2693
sg77
g2540
sg70
(lp2694
g63
(g84
g65
NtRp2695
(dp2696
g68
(dp2697
g88
g89
ssg77
g2691
sg70
(lp2698
S'HTTP_CONTENT_TYPE'
p2699
asbag63
(g84
g65
NtRp2700
(dp2701
g68
(dp2702
g95
g96
ssg77
g2691
sg70
(lp2703
S':'
asbag63
(g84
g65
NtRp2704
(dp2705
g68
(dp2706
sg77
g2691
sg70
(lp2707
g63
(g64
g65
NtRp2708
(dp2709
g68
(dp2710
g76
I3
ssg77
g2704
sg70
(lp2711
g966
asbasbasbag63
(g79
g65
NtRp2712
(dp2713
g68
(dp2714
sg77
g2540
sg70
(lp2715
g63
(g84
g65
NtRp2716
(dp2717
g68
(dp2718
g88
g89
ssg77
g2712
sg70
(lp2719
S'HTTP_COOKIE'
p2720
asbag63
(g84
g65
NtRp2721
(dp2722
g68
(dp2723
g95
g96
ssg77
g2712
sg70
(lp2724
S':'
asbag63
(g84
g65
NtRp2725
(dp2726
g68
(dp2727
sg77
g2712
sg70
(lp2728
g63
(g64
g65
NtRp2729
(dp2730
g68
(dp2731
g76
I3
ssg77
g2725
sg70
(lp2732
g1183
asbasbasbag63
(g79
g65
NtRp2733
(dp2734
g68
(dp2735
sg77
g2540
sg70
(lp2736
g63
(g84
g65
NtRp2737
(dp2738
g68
(dp2739
g88
g89
ssg77
g2733
sg70
(lp2740
S'HTTP_HOST'
p2741
asbag63
(g84
g65
NtRp2742
(dp2743
g68
(dp2744
g95
g96
ssg77
g2733
sg70
(lp2745
S':'
asbag63
(g84
g65
NtRp2746
(dp2747
g68
(dp2748
sg77
g2733
sg70
(lp2749
g63
(g64
g65
NtRp2750
(dp2751
g68
(dp2752
g76
I3
ssg77
g2746
sg70
(lp2753
g1205
asbasbasbag63
(g79
g65
NtRp2754
(dp2755
g68
(dp2756
sg77
g2540
sg70
(lp2757
g63
(g84
g65
NtRp2758
(dp2759
g68
(dp2760
g88
g89
ssg77
g2754
sg70
(lp2761
S'HTTP_REFERER'
p2762
asbag63
(g84
g65
NtRp2763
(dp2764
g68
(dp2765
g95
g96
ssg77
g2754
sg70
(lp2766
S':'
asbag63
(g84
g65
NtRp2767
(dp2768
g68
(dp2769
sg77
g2754
sg70
(lp2770
g63
(g64
g65
NtRp2771
(dp2772
g68
(dp2773
g76
I3
ssg77
g2767
sg70
(lp2774
g1227
asbasbasbag63
(g79
g65
NtRp2775
(dp2776
g68
(dp2777
sg77
g2540
sg70
(lp2778
g63
(g84
g65
NtRp2779
(dp2780
g68
(dp2781
g88
g89
ssg77
g2775
sg70
(lp2782
S'HTTP_USER_AGENT'
p2783
asbag63
(g84
g65
NtRp2784
(dp2785
g68
(dp2786
g95
g96
ssg77
g2775
sg70
(lp2787
S':'
asbag63
(g84
g65
NtRp2788
(dp2789
g68
(dp2790
sg77
g2775
sg70
(lp2791
g63
(g64
g65
NtRp2792
(dp2793
g68
(dp2794
g76
I3
ssg77
g2788
sg70
(lp2795
g1249
asbasbasbag63
(g79
g65
NtRp2796
(dp2797
g68
(dp2798
sg77
g2540
sg70
(lp2799
g63
(g84
g65
NtRp2800
(dp2801
g68
(dp2802
g88
g89
ssg77
g2796
sg70
(lp2803
S'PATH_INFO'
p2804
asbag63
(g84
g65
NtRp2805
(dp2806
g68
(dp2807
g95
g96
ssg77
g2796
sg70
(lp2808
S':'
asbag63
(g84
g65
NtRp2809
(dp2810
g68
(dp2811
sg77
g2796
sg70
(lp2812
g63
(g64
g65
NtRp2813
(dp2814
g68
(dp2815
g76
I3
ssg77
g2809
sg70
(lp2816
g1292
asbasbasbag63
(g79
g65
NtRp2817
(dp2818
g68
(dp2819
sg77
g2540
sg70
(lp2820
g63
(g84
g65
NtRp2821
(dp2822
g68
(dp2823
g88
g89
ssg77
g2817
sg70
(lp2824
S'QUERY_STRING'
p2825
asbag63
(g84
g65
NtRp2826
(dp2827
g68
(dp2828
g95
g96
ssg77
g2817
sg70
(lp2829
S':'
asbag63
(g84
g65
NtRp2830
(dp2831
g68
(dp2832
sg77
g2817
sg70
(lp2833
g63
(g64
g65
NtRp2834
(dp2835
g68
(dp2836
g76
I3
ssg77
g2830
sg70
(lp2837
S''
asbasbasbag63
(g79
g65
NtRp2838
(dp2839
g68
(dp2840
sg77
g2540
sg70
(lp2841
g63
(g84
g65
NtRp2842
(dp2843
g68
(dp2844
g88
g89
ssg77
g2838
sg70
(lp2845
S'REMOTE_ADDR'
p2846
asbag63
(g84
g65
NtRp2847
(dp2848
g68
(dp2849
g95
g96
ssg77
g2838
sg70
(lp2850
S':'
asbag63
(g84
g65
NtRp2851
(dp2852
g68
(dp2853
sg77
g2838
sg70
(lp2854
g63
(g64
g65
NtRp2855
(dp2856
g68
(dp2857
g76
I3
ssg77
g2851
sg70
(lp2858
g196
asbasbasbag63
(g79
g65
NtRp2859
(dp2860
g68
(dp2861
sg77
g2540
sg70
(lp2862
g63
(g84
g65
NtRp2863
(dp2864
g68
(dp2865
g88
g89
ssg77
g2859
sg70
(lp2866
S'REMOTE_PORT'
p2867
asbag63
(g84
g65
NtRp2868
(dp2869
g68
(dp2870
g95
g96
ssg77
g2859
sg70
(lp2871
S':'
asbag63
(g84
g65
NtRp2872
(dp2873
g68
(dp2874
sg77
g2859
sg70
(lp2875
g63
(g64
g65
NtRp2876
(dp2877
g68
(dp2878
g76
I3
ssg77
g2872
sg70
(lp2879
g1356
asbasbasbag63
(g79
g65
NtRp2880
(dp2881
g68
(dp2882
sg77
g2540
sg70
(lp2883
g63
(g84
g65
NtRp2884
(dp2885
g68
(dp2886
g88
g89
ssg77
g2880
sg70
(lp2887
S'REQUEST_METHOD'
p2888
asbag63
(g84
g65
NtRp2889
(dp2890
g68
(dp2891
g95
g96
ssg77
g2880
sg70
(lp2892
S':'
asbag63
(g84
g65
NtRp2893
(dp2894
g68
(dp2895
sg77
g2880
sg70
(lp2896
g63
(g64
g65
NtRp2897
(dp2898
g68
(dp2899
g76
I3
ssg77
g2893
sg70
(lp2900
g1378
asbasbasbag63
(g79
g65
NtRp2901
(dp2902
g68
(dp2903
sg77
g2540
sg70
(lp2904
g63
(g84
g65
NtRp2905
(dp2906
g68
(dp2907
g88
g89
ssg77
g2901
sg70
(lp2908
S'SCRIPT_NAME'
p2909
asbag63
(g84
g65
NtRp2910
(dp2911
g68
(dp2912
g95
g96
ssg77
g2901
sg70
(lp2913
S':'
asbag63
(g84
g65
NtRp2914
(dp2915
g68
(dp2916
sg77
g2901
sg70
(lp2917
g63
(g64
g65
NtRp2918
(dp2919
g68
(dp2920
g76
I3
ssg77
g2914
sg70
(lp2921
S''
asbasbasbag63
(g79
g65
NtRp2922
(dp2923
g68
(dp2924
sg77
g2540
sg70
(lp2925
g63
(g84
g65
NtRp2926
(dp2927
g68
(dp2928
g88
g89
ssg77
g2922
sg70
(lp2929
S'SERVER_NAME'
p2930
asbag63
(g84
g65
NtRp2931
(dp2932
g68
(dp2933
g95
g96
ssg77
g2922
sg70
(lp2934
S':'
asbag63
(g84
g65
NtRp2935
(dp2936
g68
(dp2937
sg77
g2922
sg70
(lp2938
g63
(g64
g65
NtRp2939
(dp2940
g68
(dp2941
g76
I3
ssg77
g2935
sg70
(lp2942
g1421
asbasbasbag63
(g79
g65
NtRp2943
(dp2944
g68
(dp2945
sg77
g2540
sg70
(lp2946
g63
(g84
g65
NtRp2947
(dp2948
g68
(dp2949
g88
g89
ssg77
g2943
sg70
(lp2950
S'SERVER_PORT'
p2951
asbag63
(g84
g65
NtRp2952
(dp2953
g68
(dp2954
g95
g96
ssg77
g2943
sg70
(lp2955
S':'
asbag63
(g84
g65
NtRp2956
(dp2957
g68
(dp2958
sg77
g2943
sg70
(lp2959
g63
(g64
g65
NtRp2960
(dp2961
g68
(dp2962
g76
I3
ssg77
g2956
sg70
(lp2963
g1443
asbasbasbag63
(g79
g65
NtRp2964
(dp2965
g68
(dp2966
sg77
g2540
sg70
(lp2967
g63
(g84
g65
NtRp2968
(dp2969
g68
(dp2970
g88
g89
ssg77
g2964
sg70
(lp2971
S'SERVER_PROTOCOL'
p2972
asbag63
(g84
g65
NtRp2973
(dp2974
g68
(dp2975
g95
g96
ssg77
g2964
sg70
(lp2976
S':'
asbag63
(g84
g65
NtRp2977
(dp2978
g68
(dp2979
sg77
g2964
sg70
(lp2980
g63
(g64
g65
NtRp2981
(dp2982
g68
(dp2983
g76
I3
ssg77
g2977
sg70
(lp2984
g1465
asbasbasbag63
(g79
g65
NtRp2985
(dp2986
g68
(dp2987
sg77
g2540
sg70
(lp2988
g63
(g84
g65
NtRp2989
(dp2990
g68
(dp2991
g88
g89
ssg77
g2985
sg70
(lp2992
S'SERVER_SOFTWARE'
p2993
asbag63
(g84
g65
NtRp2994
(dp2995
g68
(dp2996
g95
g96
ssg77
g2985
sg70
(lp2997
S':'
asbag63
(g84
g65
NtRp2998
(dp2999
g68
(dp3000
sg77
g2985
sg70
(lp3001
g63
(g64
g65
NtRp3002
(dp3003
g68
(dp3004
g76
I3
ssg77
g2998
sg70
(lp3005
g1487
asbasbasbag63
(g79
g65
NtRp3006
(dp3007
g68
(dp3008
sg77
g2540
sg70
(lp3009
g63
(g84
g65
NtRp3010
(dp3011
g68
(dp3012
g88
g89
ssg77
g3006
sg70
(lp3013
S'wsgi.errors'
p3014
asbag63
(g84
g65
NtRp3015
(dp3016
g68
(dp3017
g95
g96
ssg77
g3006
sg70
(lp3018
S':'
asbag63
(g84
g65
NtRp3019
(dp3020
g68
(dp3021
sg77
g3006
sg70
(lp3022
g63
(g64
g65
NtRp3023
(dp3024
g68
(dp3025
g76
I3
ssg77
g3019
sg70
(lp3026
S"<open file '<stderr>', mode 'w' at 0xb73810d0>"
p3027
asbasbasbag63
(g79
g65
NtRp3028
(dp3029
g68
(dp3030
sg77
g2540
sg70
(lp3031
g63
(g84
g65
NtRp3032
(dp3033
g68
(dp3034
g88
g89
ssg77
g3028
sg70
(lp3035
S'wsgi.file_wrapper'
p3036
asbag63
(g84
g65
NtRp3037
(dp3038
g68
(dp3039
g95
g96
ssg77
g3028
sg70
(lp3040
S':'
asbag63
(g84
g65
NtRp3041
(dp3042
g68
(dp3043
sg77
g3028
sg70
(lp3044
g63
(g64
g65
NtRp3045
(dp3046
g68
(dp3047
g76
I3
ssg77
g3041
sg70
(lp3048
S'<class wsgiref.util.FileWrapper at 0x8b168fc>'
p3049
asbasbasbag63
(g79
g65
NtRp3050
(dp3051
g68
(dp3052
sg77
g2540
sg70
(lp3053
g63
(g84
g65
NtRp3054
(dp3055
g68
(dp3056
g88
g89
ssg77
g3050
sg70
(lp3057
S'wsgi.input'
p3058
asbag63
(g84
g65
NtRp3059
(dp3060
g68
(dp3061
g95
g96
ssg77
g3050
sg70
(lp3062
S':'
asbag63
(g84
g65
NtRp3063
(dp3064
g68
(dp3065
sg77
g3050
sg70
(lp3066
g63
(g64
g65
NtRp3067
(dp3068
g68
(dp3069
g76
I3
ssg77
g3063
sg70
(lp3070
S"<open file '<fdopen>', mode 'w+b' at 0x8b969c0>"
p3071
asbasbasbag63
(g79
g65
NtRp3072
(dp3073
g68
(dp3074
sg77
g2540
sg70
(lp3075
g63
(g84
g65
NtRp3076
(dp3077
g68
(dp3078
g88
g89
ssg77
g3072
sg70
(lp3079
S'wsgi.multiprocess'
p3080
asbag63
(g84
g65
NtRp3081
(dp3082
g68
(dp3083
g95
g96
ssg77
g3072
sg70
(lp3084
S':'
asbag63
(g84
g65
NtRp3085
(dp3086
g68
(dp3087
sg77
g3072
sg70
(lp3088
g63
(g64
g65
NtRp3089
(dp3090
g68
(dp3091
g76
I3
ssg77
g3085
sg70
(lp3092
g106
asbasbasbag63
(g79
g65
NtRp3093
(dp3094
g68
(dp3095
sg77
g2540
sg70
(lp3096
g63
(g84
g65
NtRp3097
(dp3098
g68
(dp3099
g88
g89
ssg77
g3093
sg70
(lp3100
S'wsgi.multithread'
p3101
asbag63
(g84
g65
NtRp3102
(dp3103
g68
(dp3104
g95
g96
ssg77
g3093
sg70
(lp3105
S':'
asbag63
(g84
g65
NtRp3106
(dp3107
g68
(dp3108
sg77
g3093
sg70
(lp3109
g63
(g64
g65
NtRp3110
(dp3111
g68
(dp3112
g76
I3
ssg77
g3106
sg70
(lp3113
g1727
asbasbasbag63
(g79
g65
NtRp3114
(dp3115
g68
(dp3116
sg77
g2540
sg70
(lp3117
g63
(g84
g65
NtRp3118
(dp3119
g68
(dp3120
g88
g89
ssg77
g3114
sg70
(lp3121
S'wsgi.run_once'
p3122
asbag63
(g84
g65
NtRp3123
(dp3124
g68
(dp3125
g95
g96
ssg77
g3114
sg70
(lp3126
S':'
asbag63
(g84
g65
NtRp3127
(dp3128
g68
(dp3129
sg77
g3114
sg70
(lp3130
g63
(g64
g65
NtRp3131
(dp3132
g68
(dp3133
g76
I3
ssg77
g3127
sg70
(lp3134
g106
asbasbasbag63
(g79
g65
NtRp3135
(dp3136
g68
(dp3137
sg77
g2540
sg70
(lp3138
g63
(g84
g65
NtRp3139
(dp3140
g68
(dp3141
g88
g89
ssg77
g3135
sg70
(lp3142
S'wsgi.url_scheme'
p3143
asbag63
(g84
g65
NtRp3144
(dp3145
g68
(dp3146
g95
g96
ssg77
g3135
sg70
(lp3147
S':'
asbag63
(g84
g65
NtRp3148
(dp3149
g68
(dp3150
sg77
g3135
sg70
(lp3151
g63
(g64
g65
NtRp3152
(dp3153
g68
(dp3154
g76
I3
ssg77
g3148
sg70
(lp3155
g1770
asbasbasbag63
(g79
g65
NtRp3156
(dp3157
g68
(dp3158
sg77
g2540
sg70
(lp3159
g63
(g84
g65
NtRp3160
(dp3161
g68
(dp3162
g88
g89
ssg77
g3156
sg70
(lp3163
S'wsgi.version'
p3164
asbag63
(g84
g65
NtRp3165
(dp3166
g68
(dp3167
g95
g96
ssg77
g3156
sg70
(lp3168
S':'
asbag63
(g84
g65
NtRp3169
(dp3170
g68
(dp3171
sg77
g3156
sg70
(lp3172
g63
(g64
g65
NtRp3173
(dp3174
g68
(dp3175
g76
I3
ssg77
g3169
sg70
(lp3176
S'1'
asbasbasbasbasbasbasbasbasbasbasbasbasbsS'frames'
p3177
(lp3178
(dp3179
S'file'
p3180
S'/home/u4hcsdaw/Python/web2py/gluon/restricted.py'
p3181
sS'dump'
p3182
(dp3183
S'environment'
p3184
S"{'A': <class 'gluon.html.A'>, 'AcesCall': <function AcesCall>, 'Auth': <class 'gluon.tools.Auth'>, 'B': <class 'gluon.html.B'>, 'BEAUTIFY': <class 'gluon.html.BEAUTIFY'>, 'BODY': <class 'gluon.html.BODY'>, 'BR': <class 'gluon.html.BR'>, 'BUTTON': <class 'gluon.html.BUTTON'>, 'CAT': <class 'gluon.html.CAT'>, 'CENTER': <class 'gluon.html.CENTER'>, ...}"
p3185
sS'ccode'
p3186
S'<code object <module> at 0xad973da0, file "/home...plications/ACES/controllers/default.py", line 12>'
p3187
ssS'lnum'
p3188
I194
sS'lines'
p3189
(dp3190
I192
S'        else:'
p3191
sI193
S'            ccode = compile2(code,layer)'
p3192
sI194
S'        exec ccode in environment'
p3193
sI195
S'    except HTTP:'
p3194
sI196
S'        raise'
p3195
sI197
S'    except Exception, error:'
p3196
sI198
S'        # XXX Show exception in Wing IDE if running in debugger'
p3197
sI189
S'    try:'
p3198
sI190
S'        if type(code) == types.CodeType:'
p3199
sI191
S'            ccode = code'
p3200
ssS'call'
p3201
S"(code='# -*- coding: utf-8 -*-\\n# this file is released ...=crud())\\n\\nresponse._vars=response._caller(index)\\n', environment={'A': <class 'gluon.html.A'>, 'AcesCall': <function AcesCall>, 'Auth': <class 'gluon.tools.Auth'>, 'B': <class 'gluon.html.B'>, 'BEAUTIFY': <class 'gluon.html.BEAUTIFY'>, 'BODY': <class 'gluon.html.BODY'>, 'BR': <class 'gluon.html.BR'>, 'BUTTON': <class 'gluon.html.BUTTON'>, 'CAT': <class 'gluon.html.CAT'>, 'CENTER': <class 'gluon.html.CENTER'>, ...}, layer='/home/u4hcsdaw/Python/web2py/applications/ACES/controllers/default.py')"
p3202
sS'func'
p3203
S'restricted'
p3204
sa(dp3205
g3180
S'/home/u4hcsdaw/Python/web2py/applications/ACES/controllers/default.py'
p3206
sg3182
(dp3207
sg3188
I83
sg3189
(dp3208
I72
S'    http://..../[app]/default/data/update/[table]/[id]'
p3209
sI73
S'    http://..../[app]/default/data/delete/[table]/[id]'
p3210
sI74
S'    http://..../[app]/default/data/select/[table]'
p3211
sI75
S'    http://..../[app]/default/data/search/[table]'
p3212
sI76
S'    but URLs bust be signed, i.e. linked with'
p3213
sI77
S"      A('table',_href=URL('data/tables',user_signature=True))"
p3214
sI78
S'    or with the signed load operator'
p3215
sI79
S"      LOAD('default','data.load',args='tables',ajax=True,user_signature=True)"
p3216
sI80
S'    """'
p3217
sI81
S'    return dict(form=crud())'
p3218
ssg3201
S'()'
p3219
sg3203
S'<module>'
p3220
sa(dp3221
g3180
S'/home/u4hcsdaw/Python/web2py/gluon/globals.py'
p3222
sg3182
(dp3223
S'self'
p3224
S'undefined'
p3225
sS'f'
S'<function index>'
p3226
ssg3188
I149
sg3189
(dp3227
I144
S'        self.meta = Storage()      # used by web2py_ajax.html'
p3228
sI145
S'        self.menu = []             # used by the default view layout'
p3229
sI146
S'        self.files = []            # used by web2py_ajax.html'
p3230
sI147
S'        self.generic_patterns = [] # patterns to allow generic views'
p3231
sI148
S'        self._vars = None'
p3232
sI149
S'        self._caller = lambda f: f()'
p3233
sI150
S'        self._view_environment = None'
p3234
sI151
S'        self._custom_commit = None'
p3235
sI152
S'        self._custom_rollback = None'
p3236
sI153
S''
ssg3201
S'(f=<function index>)'
p3237
sg3203
S'<lambda>'
p3238
sa(dp3239
g3180
S'/home/u4hcsdaw/Python/web2py/applications/ACES/controllers/default.py'
p3240
sg3182
(dp3241
S'global AcesCall'
p3242
S'<function AcesCall>'
p3243
sS'f1'
p3244
S'<gluon.html.FORM object>'
p3245
sS'f1.vars'
p3246
S"<Storage {'waveHeight': '0.85', 'subButton': 'Submit Query'}>"
p3247
sS't0'
p3248
S"''"
p3249
ssg3188
I27
sg3189
(dp3250
I22
S"    ip1=INPUT(_type='text', _name='waveHeight', _value='0.85')"
p3251
sI23
S"    sub1=INPUT(_type='submit',_name='subButton')"
p3252
sI24
S"    f1=FORM('wave',ip1,sub1,_name='Form1',_action='')"
p3253
sI25
S'    if f1.accepts(request.vars,session):'
p3254
sI26
S'        session.formVars=f1.vars'
p3255
sI27
S'        t0=AcesCall(f1.vars)'
p3256
sI28
S"        img1=IMG(_src=URL('static','images/Waves.svg?'+nowS))"
p3257
sI29
S'    return dict(form=f1,t0=t0,img1=img1)'
p3258
sI30
S''
sI31
S'def user():'
p3259
ssg3201
S'()'
p3260
sg3203
S'index'
p3261
sa(dp3262
g3180
S'/home/u4hcsdaw/Python/web2py/applications/ACES/models/functionsAces.py'
p3263
sg3182
(dp3264
S'res'
p3265
g3225
sS'comm'
p3266
S'[\'octave -q --eval "H=0.85" \', \'applications/ACES/models/Waves/linear_wave_theory.m\']'
p3267
sS'subprocess.call'
p3268
S'<function call>'
p3269
sS'subprocess'
p3270
S"<module 'subprocess' from '/usr/lib/python2.7/subprocess.pyc'>"
p3271
ssg3188
I9
sg3189
(dp3272
I3
S'    import subprocess'
p3273
sI4
S''
sI5
S"    WaveHeight=formVars['waveHeight']"
p3274
sI6
S"    ##WavePeriod=formVars['wavePeriod'] or 9.0"
p3275
sI7
S'    EvalString=\'octave -q --eval "H=%(H)s" \' % dict(H=WaveHeight)'
p3276
sI8
S"    comm=[EvalString,'applications/ACES/models/Waves/linear_wave_theory.m']"
p3277
sI9
S'    res=subprocess.call(comm)'
p3278
sI10
S"    retString='%s %s' %(WaveHeight,res)"
p3279
sI11
S''
sI12
S'    return retString'
p3280
ssg3201
S"(formVars=<Storage {'waveHeight': '0.85', 'subButton': 'Submit Query'}>)"
p3281
sg3203
S'AcesCall'
p3282
sa(dp3283
g3180
S'/usr/lib/python2.7/subprocess.py'
p3284
sg3182
(dp3285
S').wait'
p3286
g3225
sS'global Popen'
p3287
S"<class 'subprocess.Popen'>"
p3288
sS'popenargs'
p3289
S'([\'octave -q --eval "H=0.85" \', \'applications/ACES/models/Waves/linear_wave_theory.m\'],)'
p3290
sS'kwargs'
p3291
S'{}'
p3292
ssg3188
I486
sg3189
(dp3293
I481
S''
sI482
S'    The arguments are the same as for the Popen constructor.  Example:'
p3294
sI483
S''
sI484
S'    retcode = call(["ls", "-l"])'
p3295
sI485
S'    """'
p3296
sI486
S'    return Popen(*popenargs, **kwargs).wait()'
p3297
sI487
S''
sI488
S''
sI489
S'def check_call(*popenargs, **kwargs):'
p3298
sI490
S'    """Run command with arguments.  Wait for command to complete.  If'
p3299
ssg3201
S'(*popenargs=([\'octave -q --eval "H=0.85" \', \'applications/ACES/models/Waves/linear_wave_theory.m\'],), **kwargs={})'
p3300
sg3203
g3201
sa(dp3301
g3180
S'/usr/lib/python2.7/subprocess.py'
p3302
sg3182
(dp3303
S'errwrite'
p3304
S'None'
p3305
sS'errread'
p3306
S'None'
p3307
ssg3188
I672
sg3189
(dp3308
I672
S'                            errread, errwrite)'
p3309
sI673
S''
sI674
S'        if mswindows:'
p3310
sI675
S'            if p2cwrite is not None:'
p3311
sI676
S'                p2cwrite = msvcrt.open_osfhandle(p2cwrite.Detach(), 0)'
p3312
sI667
S'        self._execute_child(args, executable, preexec_fn, close_fds,'
p3313
sI668
S'                            cwd, env, universal_newlines,'
p3314
sI669
S'                            startupinfo, creationflags, shell,'
p3315
sI670
S'                            p2cread, p2cwrite,'
p3316
sI671
S'                            c2pread, c2pwrite,'
p3317
ssg3201
S'(self=<subprocess.Popen object>, args=[\'octave -q --eval "H=0.85" \', \'applications/ACES/models/Waves/linear_wave_theory.m\'], bufsize=0, executable=None, stdin=None, stdout=None, stderr=None, preexec_fn=None, close_fds=False, shell=False, cwd=None, env=None, universal_newlines=False, startupinfo=None, creationflags=0)'
p3318
sg3203
g21
sa(dp3319
g3180
S'/usr/lib/python2.7/subprocess.py'
p3320
sg3182
(dp3321
S'child_exception'
p3322
S"OSError(2, 'No such file or directory')"
p3323
ssg3188
I1213
sg3189
(dp3324
I1216
S'        def _handle_exitstatus(self, sts, _WIFSIGNALED=os.WIFSIGNALED,'
p3325
sI1217
S'                _WTERMSIG=os.WTERMSIG, _WIFEXITED=os.WIFEXITED,'
p3326
sI1208
S'                        raise'
p3327
sI1209
S'                child_exception = pickle.loads(data)'
p3328
sI1210
S'                for fd in (p2cwrite, c2pread, errread):'
p3329
sI1211
S'                    if fd is not None:'
p3330
sI1212
S'                        os.close(fd)'
p3331
sI1213
S'                raise child_exception'
p3332
sI1214
S''
sI1215
S''
ssg3201
S'(self=<subprocess.Popen object>, args=[\'octave -q --eval "H=0.85" \', \'applications/ACES/models/Waves/linear_wave_theory.m\'], executable=\'octave -q --eval "H=0.85" \', preexec_fn=None, close_fds=False, cwd=None, env=None, universal_newlines=False, startupinfo=None, creationflags=0, shell=False, p2cread=None, p2cwrite=None, c2pread=None, c2pwrite=None, errread=None, errwrite=None)'
p3333
sg3203
S'_execute_child'
p3334
sasS'pyver'
p3335
S'Python 2.7.1+: /usr/bin/python2.7'
p3336
sS'session'
p3337
g63
(g64
g65
NtRp3338
(dp3339
g68
(dp3340
sg70
(lp3341
g63
(g72
g65
NtRp3342
(dp3343
g68
(dp3344
g76
I5
ssg77
Nsg70
(lp3345
g63
(g79
g65
NtRp3346
(dp3347
g68
(dp3348
sg77
g3342
sg70
(lp3349
g63
(g84
g65
NtRp3350
(dp3351
g68
(dp3352
g88
g89
ssg77
g3346
sg70
(lp3353
S'formVars'
p3354
asbag63
(g84
g65
NtRp3355
(dp3356
g68
(dp3357
g95
g96
ssg77
g3346
sg70
(lp3358
S':'
asbag63
(g84
g65
NtRp3359
(dp3360
g68
(dp3361
sg77
g3346
sg70
(lp3362
g63
(g64
g65
NtRp3363
(dp3364
g68
(dp3365
g76
I5
ssg77
g3359
sg70
(lp3366
g63
(g72
g65
NtRp3367
(dp3368
g68
(dp3369
g76
I4
ssg77
Nsg70
(lp3370
g63
(g79
g65
NtRp3371
(dp3372
g68
(dp3373
sg77
g3367
sg70
(lp3374
g63
(g84
g65
NtRp3375
(dp3376
g68
(dp3377
g88
g89
ssg77
g3371
sg70
(lp3378
S'subButton'
p3379
asbag63
(g84
g65
NtRp3380
(dp3381
g68
(dp3382
g95
g96
ssg77
g3371
sg70
(lp3383
S':'
asbag63
(g84
g65
NtRp3384
(dp3385
g68
(dp3386
sg77
g3371
sg70
(lp3387
g63
(g64
g65
NtRp3388
(dp3389
g68
(dp3390
g76
I4
ssg77
g3384
sg70
(lp3391
g2340
asbasbasbag63
(g79
g65
NtRp3392
(dp3393
g68
(dp3394
sg77
g3367
sg70
(lp3395
g63
(g84
g65
NtRp3396
(dp3397
g68
(dp3398
g88
g89
ssg77
g3392
sg70
(lp3399
S'waveHeight'
p3400
asbag63
(g84
g65
NtRp3401
(dp3402
g68
(dp3403
g95
g96
ssg77
g3392
sg70
(lp3404
S':'
asbag63
(g84
g65
NtRp3405
(dp3406
g68
(dp3407
sg77
g3392
sg70
(lp3408
g63
(g64
g65
NtRp3409
(dp3410
g68
(dp3411
g76
I4
ssg77
g3405
sg70
(lp3412
g2362
asbasbasbasbasbasbasbasbasbsS'etype'
p3413
S"<type 'exceptions.OSError'>"
p3414
sS'date'
p3415
S'Fri Jun 29 14:24:30 2012'
p3416
sS'response'
p3417
g63
(g64
g65
NtRp3418
(dp3419
g68
(dp3420
sg70
(lp3421
g63
(g72
g65
NtRp3422
(dp3423
g68
(dp3424
g76
I5
ssg77
Nsg70
(lp3425
g63
(g79
g65
NtRp3426
(dp3427
g68
(dp3428
sg77
g3422
sg70
(lp3429
g63
(g84
g65
NtRp3430
(dp3431
g68
(dp3432
g88
g89
ssg77
g3426
sg70
(lp3433
g161
asbag63
(g84
g65
NtRp3434
(dp3435
g68
(dp3436
g95
g96
ssg77
g3426
sg70
(lp3437
S':'
asbag63
(g84
g65
NtRp3438
(dp3439
g68
(dp3440
sg77
g3426
sg70
(lp3441
g63
(g64
g65
NtRp3442
(dp3443
g68
(dp3444
g76
I5
ssg77
g3438
sg70
(lp3445
S'<cStringIO.StringO object at 0x907bca0>'
p3446
asbasbasbag63
(g79
g65
NtRp3447
(dp3448
g68
(dp3449
sg77
g3422
sg70
(lp3450
g63
(g84
g65
NtRp3451
(dp3452
g68
(dp3453
g88
g89
ssg77
g3447
sg70
(lp3454
g227
asbag63
(g84
g65
NtRp3455
(dp3456
g68
(dp3457
g95
g96
ssg77
g3447
sg70
(lp3458
S':'
asbag63
(g84
g65
NtRp3459
(dp3460
g68
(dp3461
sg77
g3447
sg70
(lp3462
g63
(g64
g65
NtRp3463
(dp3464
g68
(dp3465
g76
I5
ssg77
g3459
sg70
(lp3466
g63
(g72
g65
NtRp3467
(dp3468
g68
(dp3469
g76
I4
ssg77
Nsg70
(lp3470
g63
(g79
g65
NtRp3471
(dp3472
g68
(dp3473
sg77
g3467
sg70
(lp3474
g63
(g84
g65
NtRp3475
(dp3476
g68
(dp3477
g88
g89
ssg77
g3471
sg70
(lp3478
S'session_id_aces'
p3479
asbag63
(g84
g65
NtRp3480
(dp3481
g68
(dp3482
g95
g96
ssg77
g3471
sg70
(lp3483
S':'
asbag63
(g84
g65
NtRp3484
(dp3485
g68
(dp3486
sg77
g3471
sg70
(lp3487
g63
(g64
g65
NtRp3488
(dp3489
g68
(dp3490
g76
I4
ssg77
g3484
sg70
(lp3491
g63
(g72
g65
NtRp3492
(dp3493
g68
(dp3494
g76
I3
ssg77
Nsg70
(lp3495
g63
(g79
g65
NtRp3496
(dp3497
g68
(dp3498
sg77
g3492
sg70
(lp3499
g63
(g84
g65
NtRp3500
(dp3501
g68
(dp3502
g88
g89
ssg77
g3496
sg70
(lp3503
g277
asbag63
(g84
g65
NtRp3504
(dp3505
g68
(dp3506
g95
g96
ssg77
g3496
sg70
(lp3507
S':'
asbag63
(g84
g65
NtRp3508
(dp3509
g68
(dp3510
sg77
g3496
sg70
(lp3511
g63
(g64
g65
NtRp3512
(dp3513
g68
(dp3514
g76
I3
ssg77
g3508
sg70
(lp3515
S''
asbasbasbag63
(g79
g65
NtRp3516
(dp3517
g68
(dp3518
sg77
g3492
sg70
(lp3519
g63
(g84
g65
NtRp3520
(dp3521
g68
(dp3522
g88
g89
ssg77
g3516
sg70
(lp3523
g298
asbag63
(g84
g65
NtRp3524
(dp3525
g68
(dp3526
g95
g96
ssg77
g3516
sg70
(lp3527
S':'
asbag63
(g84
g65
NtRp3528
(dp3529
g68
(dp3530
sg77
g3516
sg70
(lp3531
g63
(g64
g65
NtRp3532
(dp3533
g68
(dp3534
g76
I3
ssg77
g3528
sg70
(lp3535
S''
asbasbasbag63
(g79
g65
NtRp3536
(dp3537
g68
(dp3538
sg77
g3492
sg70
(lp3539
g63
(g84
g65
NtRp3540
(dp3541
g68
(dp3542
g88
g89
ssg77
g3536
sg70
(lp3543
g319
asbag63
(g84
g65
NtRp3544
(dp3545
g68
(dp3546
g95
g96
ssg77
g3536
sg70
(lp3547
S':'
asbag63
(g84
g65
NtRp3548
(dp3549
g68
(dp3550
sg77
g3536
sg70
(lp3551
g63
(g64
g65
NtRp3552
(dp3553
g68
(dp3554
g76
I3
ssg77
g3548
sg70
(lp3555
S''
asbasbasbag63
(g79
g65
NtRp3556
(dp3557
g68
(dp3558
sg77
g3492
sg70
(lp3559
g63
(g84
g65
NtRp3560
(dp3561
g68
(dp3562
g88
g89
ssg77
g3556
sg70
(lp3563
g340
asbag63
(g84
g65
NtRp3564
(dp3565
g68
(dp3566
g95
g96
ssg77
g3556
sg70
(lp3567
S':'
asbag63
(g84
g65
NtRp3568
(dp3569
g68
(dp3570
sg77
g3556
sg70
(lp3571
g63
(g64
g65
NtRp3572
(dp3573
g68
(dp3574
g76
I3
ssg77
g3568
sg70
(lp3575
S''
asbasbasbag63
(g79
g65
NtRp3576
(dp3577
g68
(dp3578
sg77
g3492
sg70
(lp3579
g63
(g84
g65
NtRp3580
(dp3581
g68
(dp3582
g88
g89
ssg77
g3576
sg70
(lp3583
g361
asbag63
(g84
g65
NtRp3584
(dp3585
g68
(dp3586
g95
g96
ssg77
g3576
sg70
(lp3587
S':'
asbag63
(g84
g65
NtRp3588
(dp3589
g68
(dp3590
sg77
g3576
sg70
(lp3591
g63
(g64
g65
NtRp3592
(dp3593
g68
(dp3594
g76
I3
ssg77
g3588
sg70
(lp3595
S''
asbasbasbag63
(g79
g65
NtRp3596
(dp3597
g68
(dp3598
sg77
g3492
sg70
(lp3599
g63
(g84
g65
NtRp3600
(dp3601
g68
(dp3602
g88
g89
ssg77
g3596
sg70
(lp3603
g382
asbag63
(g84
g65
NtRp3604
(dp3605
g68
(dp3606
g95
g96
ssg77
g3596
sg70
(lp3607
S':'
asbag63
(g84
g65
NtRp3608
(dp3609
g68
(dp3610
sg77
g3596
sg70
(lp3611
g63
(g64
g65
NtRp3612
(dp3613
g68
(dp3614
g76
I3
ssg77
g3608
sg70
(lp3615
S'/'
asbasbasbag63
(g79
g65
NtRp3616
(dp3617
g68
(dp3618
sg77
g3492
sg70
(lp3619
g63
(g84
g65
NtRp3620
(dp3621
g68
(dp3622
g88
g89
ssg77
g3616
sg70
(lp3623
g403
asbag63
(g84
g65
NtRp3624
(dp3625
g68
(dp3626
g95
g96
ssg77
g3616
sg70
(lp3627
S':'
asbag63
(g84
g65
NtRp3628
(dp3629
g68
(dp3630
sg77
g3616
sg70
(lp3631
g63
(g64
g65
NtRp3632
(dp3633
g68
(dp3634
g76
I3
ssg77
g3628
sg70
(lp3635
S''
asbasbasbag63
(g79
g65
NtRp3636
(dp3637
g68
(dp3638
sg77
g3492
sg70
(lp3639
g63
(g84
g65
NtRp3640
(dp3641
g68
(dp3642
g88
g89
ssg77
g3636
sg70
(lp3643
g424
asbag63
(g84
g65
NtRp3644
(dp3645
g68
(dp3646
g95
g96
ssg77
g3636
sg70
(lp3647
S':'
asbag63
(g84
g65
NtRp3648
(dp3649
g68
(dp3650
sg77
g3636
sg70
(lp3651
g63
(g64
g65
NtRp3652
(dp3653
g68
(dp3654
g76
I3
ssg77
g3648
sg70
(lp3655
S''
asbasbasbasbasbasbasbasbasbasbasbag63
(g79
g65
NtRp3656
(dp3657
g68
(dp3658
sg77
g3422
sg70
(lp3659
g63
(g84
g65
NtRp3660
(dp3661
g68
(dp3662
g88
g89
ssg77
g3656
sg70
(lp3663
S'files'
p3664
asbag63
(g84
g65
NtRp3665
(dp3666
g68
(dp3667
g95
g96
ssg77
g3656
sg70
(lp3668
S':'
asbag63
(g84
g65
NtRp3669
(dp3670
g68
(dp3671
sg77
g3656
sg70
(lp3672
g63
(g64
g65
NtRp3673
(dp3674
g68
(dp3675
g76
I5
ssg77
g3669
sg70
(lp3676
g63
(g72
g65
NtRp3677
(dp3678
g68
(dp3679
g76
I4
ssg77
Nsg70
(lp3680
sbasbasbasbag63
(g79
g65
NtRp3681
(dp3682
g68
(dp3683
sg77
g3422
sg70
(lp3684
g63
(g84
g65
NtRp3685
(dp3686
g68
(dp3687
g88
g89
ssg77
g3681
sg70
(lp3688
S'flash'
p3689
asbag63
(g84
g65
NtRp3690
(dp3691
g68
(dp3692
g95
g96
ssg77
g3681
sg70
(lp3693
S':'
asbag63
(g84
g65
NtRp3694
(dp3695
g68
(dp3696
sg77
g3681
sg70
(lp3697
g63
(g64
g65
NtRp3698
(dp3699
g68
(dp3700
g76
I5
ssg77
g3694
sg70
(lp3701
S''
asbasbasbag63
(g79
g65
NtRp3702
(dp3703
g68
(dp3704
sg77
g3422
sg70
(lp3705
g63
(g84
g65
NtRp3706
(dp3707
g68
(dp3708
g88
g89
ssg77
g3702
sg70
(lp3709
S'generic_patterns'
p3710
asbag63
(g84
g65
NtRp3711
(dp3712
g68
(dp3713
g95
g96
ssg77
g3702
sg70
(lp3714
S':'
asbag63
(g84
g65
NtRp3715
(dp3716
g68
(dp3717
sg77
g3702
sg70
(lp3718
g63
(g64
g65
NtRp3719
(dp3720
g68
(dp3721
g76
I5
ssg77
g3715
sg70
(lp3722
g63
(g72
g65
NtRp3723
(dp3724
g68
(dp3725
g76
I4
ssg77
Nsg70
(lp3726
g63
(g79
g65
NtRp3727
(dp3728
g68
(dp3729
sg77
g3723
sg70
(lp3730
g63
(g84
g65
NtRp3731
(dp3732
g68
(dp3733
sg77
g3727
sg70
(lp3734
g63
(g64
g65
NtRp3735
(dp3736
g68
(dp3737
g76
I4
ssg77
g3731
sg70
(lp3738
S'*'
asbasbasbasbasbasbasbag63
(g79
g65
NtRp3739
(dp3740
g68
(dp3741
sg77
g3422
sg70
(lp3742
g63
(g84
g65
NtRp3743
(dp3744
g68
(dp3745
g88
g89
ssg77
g3739
sg70
(lp3746
S'headers'
p3747
asbag63
(g84
g65
NtRp3748
(dp3749
g68
(dp3750
g95
g96
ssg77
g3739
sg70
(lp3751
S':'
asbag63
(g84
g65
NtRp3752
(dp3753
g68
(dp3754
sg77
g3739
sg70
(lp3755
g63
(g64
g65
NtRp3756
(dp3757
g68
(dp3758
g76
I5
ssg77
g3752
sg70
(lp3759
g63
(g72
g65
NtRp3760
(dp3761
g68
(dp3762
g76
I4
ssg77
Nsg70
(lp3763
g63
(g79
g65
NtRp3764
(dp3765
g68
(dp3766
sg77
g3760
sg70
(lp3767
g63
(g84
g65
NtRp3768
(dp3769
g68
(dp3770
g88
g89
ssg77
g3764
sg70
(lp3771
S'Cache-Control'
p3772
asbag63
(g84
g65
NtRp3773
(dp3774
g68
(dp3775
g95
g96
ssg77
g3764
sg70
(lp3776
S':'
asbag63
(g84
g65
NtRp3777
(dp3778
g68
(dp3779
sg77
g3764
sg70
(lp3780
g63
(g64
g65
NtRp3781
(dp3782
g68
(dp3783
g76
I4
ssg77
g3777
sg70
(lp3784
S'no-store, no-cache, must-revalidate, post-check=0, pre-check=0'
p3785
asbasbasbag63
(g79
g65
NtRp3786
(dp3787
g68
(dp3788
sg77
g3760
sg70
(lp3789
g63
(g84
g65
NtRp3790
(dp3791
g68
(dp3792
g88
g89
ssg77
g3786
sg70
(lp3793
S'Content-Type'
p3794
asbag63
(g84
g65
NtRp3795
(dp3796
g68
(dp3797
g95
g96
ssg77
g3786
sg70
(lp3798
S':'
asbag63
(g84
g65
NtRp3799
(dp3800
g68
(dp3801
sg77
g3786
sg70
(lp3802
g63
(g64
g65
NtRp3803
(dp3804
g68
(dp3805
g76
I4
ssg77
g3799
sg70
(lp3806
S'text/html; charset=utf-8'
p3807
asbasbasbag63
(g79
g65
NtRp3808
(dp3809
g68
(dp3810
sg77
g3760
sg70
(lp3811
g63
(g84
g65
NtRp3812
(dp3813
g68
(dp3814
g88
g89
ssg77
g3808
sg70
(lp3815
S'Expires'
p3816
asbag63
(g84
g65
NtRp3817
(dp3818
g68
(dp3819
g95
g96
ssg77
g3808
sg70
(lp3820
S':'
asbag63
(g84
g65
NtRp3821
(dp3822
g68
(dp3823
sg77
g3808
sg70
(lp3824
g63
(g64
g65
NtRp3825
(dp3826
g68
(dp3827
g76
I4
ssg77
g3821
sg70
(lp3828
S'Fri, 29 Jun 2012 19:24:30 GMT'
p3829
asbasbasbag63
(g79
g65
NtRp3830
(dp3831
g68
(dp3832
sg77
g3760
sg70
(lp3833
g63
(g84
g65
NtRp3834
(dp3835
g68
(dp3836
g88
g89
ssg77
g3830
sg70
(lp3837
S'Pragma'
p3838
asbag63
(g84
g65
NtRp3839
(dp3840
g68
(dp3841
g95
g96
ssg77
g3830
sg70
(lp3842
S':'
asbag63
(g84
g65
NtRp3843
(dp3844
g68
(dp3845
sg77
g3830
sg70
(lp3846
g63
(g64
g65
NtRp3847
(dp3848
g68
(dp3849
g76
I4
ssg77
g3843
sg70
(lp3850
S'no-cache'
p3851
asbasbasbag63
(g79
g65
NtRp3852
(dp3853
g68
(dp3854
sg77
g3760
sg70
(lp3855
g63
(g84
g65
NtRp3856
(dp3857
g68
(dp3858
g88
g89
ssg77
g3852
sg70
(lp3859
S'X-Powered-By'
p3860
asbag63
(g84
g65
NtRp3861
(dp3862
g68
(dp3863
g95
g96
ssg77
g3852
sg70
(lp3864
S':'
asbag63
(g84
g65
NtRp3865
(dp3866
g68
(dp3867
sg77
g3852
sg70
(lp3868
g63
(g64
g65
NtRp3869
(dp3870
g68
(dp3871
g76
I4
ssg77
g3865
sg70
(lp3872
S'web2py'
p3873
asbasbasbasbasbasbasbag63
(g79
g65
NtRp3874
(dp3875
g68
(dp3876
sg77
g3422
sg70
(lp3877
g63
(g84
g65
NtRp3878
(dp3879
g68
(dp3880
g88
g89
ssg77
g3874
sg70
(lp3881
S'menu'
p3882
asbag63
(g84
g65
NtRp3883
(dp3884
g68
(dp3885
g95
g96
ssg77
g3874
sg70
(lp3886
S':'
asbag63
(g84
g65
NtRp3887
(dp3888
g68
(dp3889
sg77
g3874
sg70
(lp3890
g63
(g64
g65
NtRp3891
(dp3892
g68
(dp3893
g76
I5
ssg77
g3887
sg70
(lp3894
g63
(g72
g65
NtRp3895
(dp3896
g68
(dp3897
g76
I4
ssg77
Nsg70
(lp3898
g63
(g79
g65
NtRp3899
(dp3900
g68
(dp3901
sg77
g3895
sg70
(lp3902
g63
(g84
g65
NtRp3903
(dp3904
g68
(dp3905
sg77
g3899
sg70
(lp3906
g63
(g64
g65
NtRp3907
(dp3908
g68
(dp3909
g76
I4
ssg77
g3903
sg70
(lp3910
g63
(g72
g65
NtRp3911
(dp3912
g68
(dp3913
g76
I3
ssg77
Nsg70
(lp3914
g63
(g79
g65
NtRp3915
(dp3916
g68
(dp3917
sg77
g3911
sg70
(lp3918
g63
(g84
g65
NtRp3919
(dp3920
g68
(dp3921
sg77
g3915
sg70
(lp3922
g63
(g64
g65
NtRp3923
(dp3924
g68
(dp3925
g76
I3
ssg77
g3919
sg70
(lp3926
cgluon.languages
lazyT_unpickle
p3927
(S't\x04\x00\x00\x00Home'
tRp3928
asbasbasbag63
(g79
g65
NtRp3929
(dp3930
g68
(dp3931
sg77
g3911
sg70
(lp3932
g63
(g84
g65
NtRp3933
(dp3934
g68
(dp3935
sg77
g3929
sg70
(lp3936
g63
(g64
g65
NtRp3937
(dp3938
g68
(dp3939
g76
I3
ssg77
g3933
sg70
(lp3940
g106
asbasbasbag63
(g79
g65
NtRp3941
(dp3942
g68
(dp3943
sg77
g3911
sg70
(lp3944
g63
(g84
g65
NtRp3945
(dp3946
g68
(dp3947
sg77
g3941
sg70
(lp3948
g63
(g64
g65
NtRp3949
(dp3950
g68
(dp3951
g76
I3
ssg77
g3945
sg70
(lp3952
S'/ACES/default/index'
p3953
asbasbasbag63
(g79
g65
NtRp3954
(dp3955
g68
(dp3956
sg77
g3911
sg70
(lp3957
g63
(g84
g65
NtRp3958
(dp3959
g68
(dp3960
sg77
g3954
sg70
(lp3961
g63
(g64
g65
NtRp3962
(dp3963
g68
(dp3964
g76
I3
ssg77
g3958
sg70
(lp3965
g63
(g72
g65
NtRp3966
(dp3967
g68
(dp3968
g76
I2
ssg77
Nsg70
(lp3969
sbasbasbasbasbasbasbasbag63
(g79
g65
NtRp3970
(dp3971
g68
(dp3972
sg77
g3895
sg70
(lp3973
g63
(g84
g65
NtRp3974
(dp3975
g68
(dp3976
sg77
g3970
sg70
(lp3977
g63
(g64
g65
NtRp3978
(dp3979
g68
(dp3980
g76
I4
ssg77
g3974
sg70
(lp3981
g63
(g72
g65
NtRp3982
(dp3983
g68
(dp3984
g76
I3
ssg77
Nsg70
(lp3985
g63
(g79
g65
NtRp3986
(dp3987
g68
(dp3988
sg77
g3982
sg70
(lp3989
g63
(g84
g65
NtRp3990
(dp3991
g68
(dp3992
sg77
g3986
sg70
(lp3993
g63
(g64
g65
NtRp3994
(dp3995
g68
(dp3996
g76
I3
ssg77
g3990
sg70
(lp3997
g3927
(S's\x08\x00\x00\x00This App'
tRp3998
asbasbasbag63
(g79
g65
NtRp3999
(dp4000
g68
(dp4001
sg77
g3982
sg70
(lp4002
g63
(g84
g65
NtRp4003
(dp4004
g68
(dp4005
sg77
g3999
sg70
(lp4006
g63
(g64
g65
NtRp4007
(dp4008
g68
(dp4009
g76
I3
ssg77
g4003
sg70
(lp4010
g106
asbasbasbag63
(g79
g65
NtRp4011
(dp4012
g68
(dp4013
sg77
g3982
sg70
(lp4014
g63
(g84
g65
NtRp4015
(dp4016
g68
(dp4017
sg77
g4011
sg70
(lp4018
g63
(g64
g65
NtRp4019
(dp4020
g68
(dp4021
g76
I3
ssg77
g4015
sg70
(lp4022
S'/admin/default/design/ACES'
p4023
asbasbasbag63
(g79
g65
NtRp4024
(dp4025
g68
(dp4026
sg77
g3982
sg70
(lp4027
g63
(g84
g65
NtRp4028
(dp4029
g68
(dp4030
sg77
g4024
sg70
(lp4031
g63
(g64
g65
NtRp4032
(dp4033
g68
(dp4034
g76
I3
ssg77
g4028
sg70
(lp4035
g63
(g72
g65
NtRp4036
(dp4037
g68
(dp4038
g76
I2
ssg77
Nsg70
(lp4039
g63
(g79
g65
NtRp4040
(dp4041
g68
(dp4042
sg77
g4036
sg70
(lp4043
g63
(g84
g65
NtRp4044
(dp4045
g68
(dp4046
sg77
g4040
sg70
(lp4047
g63
(g64
g65
NtRp4048
(dp4049
g68
(dp4050
g76
I2
ssg77
g4044
sg70
(lp4051
g63
(g72
g65
NtRp4052
(dp4053
g68
(dp4054
g76
I1
ssg77
Nsg70
(lp4055
g63
(g79
g65
NtRp4056
(dp4057
g68
(dp4058
sg77
g4052
sg70
(lp4059
g63
(g84
g65
NtRp4060
(dp4061
g68
(dp4062
sg77
g4056
sg70
(lp4063
g63
(g64
g65
NtRp4064
(dp4065
g68
(dp4066
g76
I1
ssg77
g4060
sg70
(lp4067
g3927
(S't\n\x00\x00\x00Controller'
tRp4068
asbasbasbag63
(g79
g65
NtRp4069
(dp4070
g68
(dp4071
sg77
g4052
sg70
(lp4072
g63
(g84
g65
NtRp4073
(dp4074
g68
(dp4075
sg77
g4069
sg70
(lp4076
g63
(g64
g65
NtRp4077
(dp4078
g68
(dp4079
g76
I1
ssg77
g4073
sg70
(lp4080
I00
asbasbasbag63
(g79
g65
NtRp4081
(dp4082
g68
(dp4083
sg77
g4052
sg70
(lp4084
g63
(g84
g65
NtRp4085
(dp4086
g68
(dp4087
sg77
g4081
sg70
(lp4088
g63
(g64
g65
NtRp4089
(dp4090
g68
(dp4091
g76
I1
ssg77
g4085
sg70
(lp4092
S'/admin/default/edit/ACES/controllers/default.py'
p4093
asbasbasbasbasbasbasbag63
(g79
g65
NtRp4094
(dp4095
g68
(dp4096
sg77
g4036
sg70
(lp4097
g63
(g84
g65
NtRp4098
(dp4099
g68
(dp4100
sg77
g4094
sg70
(lp4101
g63
(g64
g65
NtRp4102
(dp4103
g68
(dp4104
g76
I2
ssg77
g4098
sg70
(lp4105
g63
(g72
g65
NtRp4106
(dp4107
g68
(dp4108
g76
I1
ssg77
Nsg70
(lp4109
g63
(g79
g65
NtRp4110
(dp4111
g68
(dp4112
sg77
g4106
sg70
(lp4113
g63
(g84
g65
NtRp4114
(dp4115
g68
(dp4116
sg77
g4110
sg70
(lp4117
g63
(g64
g65
NtRp4118
(dp4119
g68
(dp4120
g76
I1
ssg77
g4114
sg70
(lp4121
g3927
(S't\x04\x00\x00\x00View'
tRp4122
asbasbasbag63
(g79
g65
NtRp4123
(dp4124
g68
(dp4125
sg77
g4106
sg70
(lp4126
g63
(g84
g65
NtRp4127
(dp4128
g68
(dp4129
sg77
g4123
sg70
(lp4130
g63
(g64
g65
NtRp4131
(dp4132
g68
(dp4133
g76
I1
ssg77
g4127
sg70
(lp4134
I00
asbasbasbag63
(g79
g65
NtRp4135
(dp4136
g68
(dp4137
sg77
g4106
sg70
(lp4138
g63
(g84
g65
NtRp4139
(dp4140
g68
(dp4141
sg77
g4135
sg70
(lp4142
g63
(g64
g65
NtRp4143
(dp4144
g68
(dp4145
g76
I1
ssg77
g4139
sg70
(lp4146
S'/admin/default/edit/ACES/views/default/index.html'
p4147
asbasbasbasbasbasbasbag63
(g79
g65
NtRp4148
(dp4149
g68
(dp4150
sg77
g4036
sg70
(lp4151
g63
(g84
g65
NtRp4152
(dp4153
g68
(dp4154
sg77
g4148
sg70
(lp4155
g63
(g64
g65
NtRp4156
(dp4157
g68
(dp4158
g76
I2
ssg77
g4152
sg70
(lp4159
g63
(g72
g65
NtRp4160
(dp4161
g68
(dp4162
g76
I1
ssg77
Nsg70
(lp4163
g63
(g79
g65
NtRp4164
(dp4165
g68
(dp4166
sg77
g4160
sg70
(lp4167
g63
(g84
g65
NtRp4168
(dp4169
g68
(dp4170
sg77
g4164
sg70
(lp4171
g63
(g64
g65
NtRp4172
(dp4173
g68
(dp4174
g76
I1
ssg77
g4168
sg70
(lp4175
g3927
(S't\x06\x00\x00\x00Layout'
tRp4176
asbasbasbag63
(g79
g65
NtRp4177
(dp4178
g68
(dp4179
sg77
g4160
sg70
(lp4180
g63
(g84
g65
NtRp4181
(dp4182
g68
(dp4183
sg77
g4177
sg70
(lp4184
g63
(g64
g65
NtRp4185
(dp4186
g68
(dp4187
g76
I1
ssg77
g4181
sg70
(lp4188
I00
asbasbasbag63
(g79
g65
NtRp4189
(dp4190
g68
(dp4191
sg77
g4160
sg70
(lp4192
g63
(g84
g65
NtRp4193
(dp4194
g68
(dp4195
sg77
g4189
sg70
(lp4196
g63
(g64
g65
NtRp4197
(dp4198
g68
(dp4199
g76
I1
ssg77
g4193
sg70
(lp4200
S'/admin/default/edit/ACES/views/layout.html'
p4201
asbasbasbasbasbasbasbag63
(g79
g65
NtRp4202
(dp4203
g68
(dp4204
sg77
g4036
sg70
(lp4205
g63
(g84
g65
NtRp4206
(dp4207
g68
(dp4208
sg77
g4202
sg70
(lp4209
g63
(g64
g65
NtRp4210
(dp4211
g68
(dp4212
g76
I2
ssg77
g4206
sg70
(lp4213
g63
(g72
g65
NtRp4214
(dp4215
g68
(dp4216
g76
I1
ssg77
Nsg70
(lp4217
g63
(g79
g65
NtRp4218
(dp4219
g68
(dp4220
sg77
g4214
sg70
(lp4221
g63
(g84
g65
NtRp4222
(dp4223
g68
(dp4224
sg77
g4218
sg70
(lp4225
g63
(g64
g65
NtRp4226
(dp4227
g68
(dp4228
g76
I1
ssg77
g4222
sg70
(lp4229
g3927
(S't\n\x00\x00\x00Stylesheet'
tRp4230
asbasbasbag63
(g79
g65
NtRp4231
(dp4232
g68
(dp4233
sg77
g4214
sg70
(lp4234
g63
(g84
g65
NtRp4235
(dp4236
g68
(dp4237
sg77
g4231
sg70
(lp4238
g63
(g64
g65
NtRp4239
(dp4240
g68
(dp4241
g76
I1
ssg77
g4235
sg70
(lp4242
I00
asbasbasbag63
(g79
g65
NtRp4243
(dp4244
g68
(dp4245
sg77
g4214
sg70
(lp4246
g63
(g84
g65
NtRp4247
(dp4248
g68
(dp4249
sg77
g4243
sg70
(lp4250
g63
(g64
g65
NtRp4251
(dp4252
g68
(dp4253
g76
I1
ssg77
g4247
sg70
(lp4254
S'/admin/default/edit/ACES/static/base.css'
p4255
asbasbasbasbasbasbasbag63
(g79
g65
NtRp4256
(dp4257
g68
(dp4258
sg77
g4036
sg70
(lp4259
g63
(g84
g65
NtRp4260
(dp4261
g68
(dp4262
sg77
g4256
sg70
(lp4263
g63
(g64
g65
NtRp4264
(dp4265
g68
(dp4266
g76
I2
ssg77
g4260
sg70
(lp4267
g63
(g72
g65
NtRp4268
(dp4269
g68
(dp4270
g76
I1
ssg77
Nsg70
(lp4271
g63
(g79
g65
NtRp4272
(dp4273
g68
(dp4274
sg77
g4268
sg70
(lp4275
g63
(g84
g65
NtRp4276
(dp4277
g68
(dp4278
sg77
g4272
sg70
(lp4279
g63
(g64
g65
NtRp4280
(dp4281
g68
(dp4282
g76
I1
ssg77
g4276
sg70
(lp4283
g3927
(S's\x08\x00\x00\x00DB Model'
tRp4284
asbasbasbag63
(g79
g65
NtRp4285
(dp4286
g68
(dp4287
sg77
g4268
sg70
(lp4288
g63
(g84
g65
NtRp4289
(dp4290
g68
(dp4291
sg77
g4285
sg70
(lp4292
g63
(g64
g65
NtRp4293
(dp4294
g68
(dp4295
g76
I1
ssg77
g4289
sg70
(lp4296
I00
asbasbasbag63
(g79
g65
NtRp4297
(dp4298
g68
(dp4299
sg77
g4268
sg70
(lp4300
g63
(g84
g65
NtRp4301
(dp4302
g68
(dp4303
sg77
g4297
sg70
(lp4304
g63
(g64
g65
NtRp4305
(dp4306
g68
(dp4307
g76
I1
ssg77
g4301
sg70
(lp4308
S'/admin/default/edit/ACES/models/db.py'
p4309
asbasbasbasbasbasbasbag63
(g79
g65
NtRp4310
(dp4311
g68
(dp4312
sg77
g4036
sg70
(lp4313
g63
(g84
g65
NtRp4314
(dp4315
g68
(dp4316
sg77
g4310
sg70
(lp4317
g63
(g64
g65
NtRp4318
(dp4319
g68
(dp4320
g76
I2
ssg77
g4314
sg70
(lp4321
g63
(g72
g65
NtRp4322
(dp4323
g68
(dp4324
g76
I1
ssg77
Nsg70
(lp4325
g63
(g79
g65
NtRp4326
(dp4327
g68
(dp4328
sg77
g4322
sg70
(lp4329
g63
(g84
g65
NtRp4330
(dp4331
g68
(dp4332
sg77
g4326
sg70
(lp4333
g63
(g64
g65
NtRp4334
(dp4335
g68
(dp4336
g76
I1
ssg77
g4330
sg70
(lp4337
g3927
(S's\n\x00\x00\x00Menu Model'
tRp4338
asbasbasbag63
(g79
g65
NtRp4339
(dp4340
g68
(dp4341
sg77
g4322
sg70
(lp4342
g63
(g84
g65
NtRp4343
(dp4344
g68
(dp4345
sg77
g4339
sg70
(lp4346
g63
(g64
g65
NtRp4347
(dp4348
g68
(dp4349
g76
I1
ssg77
g4343
sg70
(lp4350
I00
asbasbasbag63
(g79
g65
NtRp4351
(dp4352
g68
(dp4353
sg77
g4322
sg70
(lp4354
g63
(g84
g65
NtRp4355
(dp4356
g68
(dp4357
sg77
g4351
sg70
(lp4358
g63
(g64
g65
NtRp4359
(dp4360
g68
(dp4361
g76
I1
ssg77
g4355
sg70
(lp4362
S'/admin/default/edit/ACES/models/menu.py'
p4363
asbasbasbasbasbasbasbag63
(g79
g65
NtRp4364
(dp4365
g68
(dp4366
sg77
g4036
sg70
(lp4367
g63
(g84
g65
NtRp4368
(dp4369
g68
(dp4370
sg77
g4364
sg70
(lp4371
g63
(g64
g65
NtRp4372
(dp4373
g68
(dp4374
g76
I2
ssg77
g4368
sg70
(lp4375
g63
(g72
g65
NtRp4376
(dp4377
g68
(dp4378
g76
I1
ssg77
Nsg70
(lp4379
g63
(g79
g65
NtRp4380
(dp4381
g68
(dp4382
sg77
g4376
sg70
(lp4383
g63
(g84
g65
NtRp4384
(dp4385
g68
(dp4386
sg77
g4380
sg70
(lp4387
g63
(g64
g65
NtRp4388
(dp4389
g68
(dp4390
g76
I1
ssg77
g4384
sg70
(lp4391
g3927
(S't\x08\x00\x00\x00Database'
tRp4392
asbasbasbag63
(g79
g65
NtRp4393
(dp4394
g68
(dp4395
sg77
g4376
sg70
(lp4396
g63
(g84
g65
NtRp4397
(dp4398
g68
(dp4399
sg77
g4393
sg70
(lp4400
g63
(g64
g65
NtRp4401
(dp4402
g68
(dp4403
g76
I1
ssg77
g4397
sg70
(lp4404
I00
asbasbasbag63
(g79
g65
NtRp4405
(dp4406
g68
(dp4407
sg77
g4376
sg70
(lp4408
g63
(g84
g65
NtRp4409
(dp4410
g68
(dp4411
sg77
g4405
sg70
(lp4412
g63
(g64
g65
NtRp4413
(dp4414
g68
(dp4415
g76
I1
ssg77
g4409
sg70
(lp4416
S'/ACES/appadmin/index'
p4417
asbasbasbasbasbasbasbag63
(g79
g65
NtRp4418
(dp4419
g68
(dp4420
sg77
g4036
sg70
(lp4421
g63
(g84
g65
NtRp4422
(dp4423
g68
(dp4424
sg77
g4418
sg70
(lp4425
g63
(g64
g65
NtRp4426
(dp4427
g68
(dp4428
g76
I2
ssg77
g4422
sg70
(lp4429
g63
(g72
g65
NtRp4430
(dp4431
g68
(dp4432
g76
I1
ssg77
Nsg70
(lp4433
g63
(g79
g65
NtRp4434
(dp4435
g68
(dp4436
sg77
g4430
sg70
(lp4437
g63
(g84
g65
NtRp4438
(dp4439
g68
(dp4440
sg77
g4434
sg70
(lp4441
g63
(g64
g65
NtRp4442
(dp4443
g68
(dp4444
g76
I1
ssg77
g4438
sg70
(lp4445
g3927
(S't\x06\x00\x00\x00Errors'
tRp4446
asbasbasbag63
(g79
g65
NtRp4447
(dp4448
g68
(dp4449
sg77
g4430
sg70
(lp4450
g63
(g84
g65
NtRp4451
(dp4452
g68
(dp4453
sg77
g4447
sg70
(lp4454
g63
(g64
g65
NtRp4455
(dp4456
g68
(dp4457
g76
I1
ssg77
g4451
sg70
(lp4458
I00
asbasbasbag63
(g79
g65
NtRp4459
(dp4460
g68
(dp4461
sg77
g4430
sg70
(lp4462
g63
(g84
g65
NtRp4463
(dp4464
g68
(dp4465
sg77
g4459
sg70
(lp4466
g63
(g64
g65
NtRp4467
(dp4468
g68
(dp4469
g76
I1
ssg77
g4463
sg70
(lp4470
S'/admin/default/errors/ACES'
p4471
asbasbasbasbasbasbasbag63
(g79
g65
NtRp4472
(dp4473
g68
(dp4474
sg77
g4036
sg70
(lp4475
g63
(g84
g65
NtRp4476
(dp4477
g68
(dp4478
sg77
g4472
sg70
(lp4479
g63
(g64
g65
NtRp4480
(dp4481
g68
(dp4482
g76
I2
ssg77
g4476
sg70
(lp4483
g63
(g72
g65
NtRp4484
(dp4485
g68
(dp4486
g76
I1
ssg77
Nsg70
(lp4487
g63
(g79
g65
NtRp4488
(dp4489
g68
(dp4490
sg77
g4484
sg70
(lp4491
g63
(g84
g65
NtRp4492
(dp4493
g68
(dp4494
sg77
g4488
sg70
(lp4495
g63
(g64
g65
NtRp4496
(dp4497
g68
(dp4498
g76
I1
ssg77
g4492
sg70
(lp4499
g3927
(S't\x05\x00\x00\x00About'
tRp4500
asbasbasbag63
(g79
g65
NtRp4501
(dp4502
g68
(dp4503
sg77
g4484
sg70
(lp4504
g63
(g84
g65
NtRp4505
(dp4506
g68
(dp4507
sg77
g4501
sg70
(lp4508
g63
(g64
g65
NtRp4509
(dp4510
g68
(dp4511
g76
I1
ssg77
g4505
sg70
(lp4512
I00
asbasbasbag63
(g79
g65
NtRp4513
(dp4514
g68
(dp4515
sg77
g4484
sg70
(lp4516
g63
(g84
g65
NtRp4517
(dp4518
g68
(dp4519
sg77
g4513
sg70
(lp4520
g63
(g64
g65
NtRp4521
(dp4522
g68
(dp4523
g76
I1
ssg77
g4517
sg70
(lp4524
S'/admin/default/about/ACES'
p4525
asbasbasbasbasbasbasbasbasbasbasbasbasbasbasbag63
(g79
g65
NtRp4526
(dp4527
g68
(dp4528
sg77
g3895
sg70
(lp4529
g63
(g84
g65
NtRp4530
(dp4531
g68
(dp4532
sg77
g4526
sg70
(lp4533
g63
(g64
g65
NtRp4534
(dp4535
g68
(dp4536
g76
I4
ssg77
g4530
sg70
(lp4537
g63
(g72
g65
NtRp4538
(dp4539
g68
(dp4540
g76
I3
ssg77
Nsg70
(lp4541
g63
(g79
g65
NtRp4542
(dp4543
g68
(dp4544
sg77
g4538
sg70
(lp4545
g63
(g84
g65
NtRp4546
(dp4547
g68
(dp4548
sg77
g4542
sg70
(lp4549
g63
(g64
g65
NtRp4550
(dp4551
g68
(dp4552
g76
I3
ssg77
g4546
sg70
(lp4553
g3927
(S't\t\x00\x00\x00Resources'
tRp4554
asbasbasbag63
(g79
g65
NtRp4555
(dp4556
g68
(dp4557
sg77
g4538
sg70
(lp4558
g63
(g84
g65
NtRp4559
(dp4560
g68
(dp4561
sg77
g4555
sg70
(lp4562
g63
(g64
g65
NtRp4563
(dp4564
g68
(dp4565
g76
I3
ssg77
g4559
sg70
(lp4566
g106
asbasbasbag63
(g79
g65
NtRp4567
(dp4568
g68
(dp4569
sg77
g4538
sg70
(lp4570
g63
(g84
g65
NtRp4571
(dp4572
g68
(dp4573
sg77
g4567
sg70
(lp4574
g63
(g64
g65
NtRp4575
(dp4576
g68
(dp4577
g76
I3
ssg77
g4571
sg70
(lp4578
S'None'
p4579
asbasbasbag63
(g79
g65
NtRp4580
(dp4581
g68
(dp4582
sg77
g4538
sg70
(lp4583
g63
(g84
g65
NtRp4584
(dp4585
g68
(dp4586
sg77
g4580
sg70
(lp4587
g63
(g64
g65
NtRp4588
(dp4589
g68
(dp4590
g76
I3
ssg77
g4584
sg70
(lp4591
g63
(g72
g65
NtRp4592
(dp4593
g68
(dp4594
g76
I2
ssg77
Nsg70
(lp4595
g63
(g79
g65
NtRp4596
(dp4597
g68
(dp4598
sg77
g4592
sg70
(lp4599
g63
(g84
g65
NtRp4600
(dp4601
g68
(dp4602
sg77
g4596
sg70
(lp4603
g63
(g64
g65
NtRp4604
(dp4605
g68
(dp4606
g76
I2
ssg77
g4600
sg70
(lp4607
g63
(g72
g65
NtRp4608
(dp4609
g68
(dp4610
g76
I1
ssg77
Nsg70
(lp4611
g63
(g79
g65
NtRp4612
(dp4613
g68
(dp4614
sg77
g4608
sg70
(lp4615
g63
(g84
g65
NtRp4616
(dp4617
g68
(dp4618
sg77
g4612
sg70
(lp4619
g63
(g64
g65
NtRp4620
(dp4621
g68
(dp4622
g76
I1
ssg77
g4616
sg70
(lp4623
g3927
(S't\r\x00\x00\x00Documentation'
tRp4624
asbasbasbag63
(g79
g65
NtRp4625
(dp4626
g68
(dp4627
sg77
g4608
sg70
(lp4628
g63
(g84
g65
NtRp4629
(dp4630
g68
(dp4631
sg77
g4625
sg70
(lp4632
g63
(g64
g65
NtRp4633
(dp4634
g68
(dp4635
g76
I1
ssg77
g4629
sg70
(lp4636
I00
asbasbasbag63
(g79
g65
NtRp4637
(dp4638
g68
(dp4639
sg77
g4608
sg70
(lp4640
g63
(g84
g65
NtRp4641
(dp4642
g68
(dp4643
sg77
g4637
sg70
(lp4644
g63
(g64
g65
NtRp4645
(dp4646
g68
(dp4647
g76
I1
ssg77
g4641
sg70
(lp4648
S'http://www.web2py.com/book'
p4649
asbasbasbag63
(g79
g65
NtRp4650
(dp4651
g68
(dp4652
sg77
g4608
sg70
(lp4653
g63
(g84
g65
NtRp4654
(dp4655
g68
(dp4656
sg77
g4650
sg70
(lp4657
g63
(g64
g65
NtRp4658
(dp4659
g68
(dp4660
g76
I1
ssg77
g4654
sg70
(lp4661
(lp4662
(g3927
(S't\x07\x00\x00\x00Preface'
tRp4663
I00
S'http://www.web2py.com/book/default/chapter/00'
p4664
tp4665
a(g3927
(S't\x0c\x00\x00\x00Introduction'
tRp4666
I00
S'http://www.web2py.com/book/default/chapter/01'
p4667
tp4668
a(g3927
(S't\x06\x00\x00\x00Python'
tRp4669
I00
S'http://www.web2py.com/book/default/chapter/02'
p4670
tp4671
a(g3927
(S't\x08\x00\x00\x00Overview'
tRp4672
I00
S'http://www.web2py.com/book/default/chapter/03'
p4673
tp4674
a(g3927
(S's\x08\x00\x00\x00The Core'
tRp4675
I00
S'http://www.web2py.com/book/default/chapter/04'
p4676
tp4677
a(g3927
(S's\t\x00\x00\x00The Views'
tRp4678
I00
S'http://www.web2py.com/book/default/chapter/05'
p4679
tp4680
a(g3927
(S't\x08\x00\x00\x00Database'
tRp4681
I00
S'http://www.web2py.com/book/default/chapter/06'
p4682
tp4683
a(g3927
(S's\x14\x00\x00\x00Forms and Validators'
tRp4684
I00
S'http://www.web2py.com/book/default/chapter/07'
p4685
tp4686
a(g3927
(S's\x0e\x00\x00\x00Access Control'
tRp4687
I00
S'http://www.web2py.com/book/default/chapter/08'
p4688
tp4689
a(g3927
(S't\x08\x00\x00\x00Services'
tRp4690
I00
S'http://www.web2py.com/book/default/chapter/09'
p4691
tp4692
a(g3927
(S's\x0c\x00\x00\x00Ajax Recipes'
tRp4693
I00
S'http://www.web2py.com/book/default/chapter/10'
p4694
tp4695
a(g3927
(S's\x12\x00\x00\x00Deployment Recipes'
tRp4696
I00
S'http://www.web2py.com/book/default/chapter/11'
p4697
tp4698
a(g3927
(S's\r\x00\x00\x00Other Recipes'
tRp4699
I00
S'http://www.web2py.com/book/default/chapter/12'
p4700
tp4701
a(g3927
(S's\r\x00\x00\x00Buy this book'
tRp4702
I00
S'http://stores.lulu.com/web2py'
p4703
tp4704
aasbasbasbasbasbasbasbag63
(g79
g65
NtRp4705
(dp4706
g68
(dp4707
sg77
g4592
sg70
(lp4708
g63
(g84
g65
NtRp4709
(dp4710
g68
(dp4711
sg77
g4705
sg70
(lp4712
g63
(g64
g65
NtRp4713
(dp4714
g68
(dp4715
g76
I2
ssg77
g4709
sg70
(lp4716
g63
(g72
g65
NtRp4717
(dp4718
g68
(dp4719
g76
I1
ssg77
Nsg70
(lp4720
g63
(g79
g65
NtRp4721
(dp4722
g68
(dp4723
sg77
g4717
sg70
(lp4724
g63
(g84
g65
NtRp4725
(dp4726
g68
(dp4727
sg77
g4721
sg70
(lp4728
g63
(g64
g65
NtRp4729
(dp4730
g68
(dp4731
g76
I1
ssg77
g4725
sg70
(lp4732
g3927
(S't\t\x00\x00\x00Community'
tRp4733
asbasbasbag63
(g79
g65
NtRp4734
(dp4735
g68
(dp4736
sg77
g4717
sg70
(lp4737
g63
(g84
g65
NtRp4738
(dp4739
g68
(dp4740
sg77
g4734
sg70
(lp4741
g63
(g64
g65
NtRp4742
(dp4743
g68
(dp4744
g76
I1
ssg77
g4738
sg70
(lp4745
I00
asbasbasbag63
(g79
g65
NtRp4746
(dp4747
g68
(dp4748
sg77
g4717
sg70
(lp4749
g63
(g84
g65
NtRp4750
(dp4751
g68
(dp4752
sg77
g4746
sg70
(lp4753
g63
(g64
g65
NtRp4754
(dp4755
g68
(dp4756
g76
I1
ssg77
g4750
sg70
(lp4757
Nasbasbasbag63
(g79
g65
NtRp4758
(dp4759
g68
(dp4760
sg77
g4717
sg70
(lp4761
g63
(g84
g65
NtRp4762
(dp4763
g68
(dp4764
sg77
g4758
sg70
(lp4765
g63
(g64
g65
NtRp4766
(dp4767
g68
(dp4768
g76
I1
ssg77
g4762
sg70
(lp4769
(lp4770
(g3927
(S't\x06\x00\x00\x00Groups'
tRp4771
I00
S'http://www.web2py.com/examples/default/usergroups'
p4772
tp4773
a(g3927
(S't\x07\x00\x00\x00Twitter'
tRp4774
I00
S'http://twitter.com/web2py'
p4775
tp4776
a(g3927
(S's\t\x00\x00\x00Live chat'
tRp4777
I00
S'http://mibbit.com/?channel=%23web2py&server=irc.mibbit.net'
p4778
tp4779
a(g3927
(S's\n\x00\x00\x00User Voice'
tRp4780
I00
S'http://web2py.uservoice.com/'
p4781
tp4782
aasbasbasbasbasbasbasbag63
(g79
g65
NtRp4783
(dp4784
g68
(dp4785
sg77
g4592
sg70
(lp4786
g63
(g84
g65
NtRp4787
(dp4788
g68
(dp4789
sg77
g4783
sg70
(lp4790
g63
(g64
g65
NtRp4791
(dp4792
g68
(dp4793
g76
I2
ssg77
g4787
sg70
(lp4794
g63
(g72
g65
NtRp4795
(dp4796
g68
(dp4797
g76
I1
ssg77
Nsg70
(lp4798
g63
(g79
g65
NtRp4799
(dp4800
g68
(dp4801
sg77
g4795
sg70
(lp4802
g63
(g84
g65
NtRp4803
(dp4804
g68
(dp4805
sg77
g4799
sg70
(lp4806
g63
(g64
g65
NtRp4807
(dp4808
g68
(dp4809
g76
I1
ssg77
g4803
sg70
(lp4810
g3927
(S't\x06\x00\x00\x00Web2py'
tRp4811
asbasbasbag63
(g79
g65
NtRp4812
(dp4813
g68
(dp4814
sg77
g4795
sg70
(lp4815
g63
(g84
g65
NtRp4816
(dp4817
g68
(dp4818
sg77
g4812
sg70
(lp4819
g63
(g64
g65
NtRp4820
(dp4821
g68
(dp4822
g76
I1
ssg77
g4816
sg70
(lp4823
I00
asbasbasbag63
(g79
g65
NtRp4824
(dp4825
g68
(dp4826
sg77
g4795
sg70
(lp4827
g63
(g84
g65
NtRp4828
(dp4829
g68
(dp4830
sg77
g4824
sg70
(lp4831
g63
(g64
g65
NtRp4832
(dp4833
g68
(dp4834
g76
I1
ssg77
g4828
sg70
(lp4835
S'http://www.web2py.com'
p4836
asbasbasbag63
(g79
g65
NtRp4837
(dp4838
g68
(dp4839
sg77
g4795
sg70
(lp4840
g63
(g84
g65
NtRp4841
(dp4842
g68
(dp4843
sg77
g4837
sg70
(lp4844
g63
(g64
g65
NtRp4845
(dp4846
g68
(dp4847
g76
I1
ssg77
g4841
sg70
(lp4848
(lp4849
(g3927
(S't\x08\x00\x00\x00Download'
tRp4850
I00
S'http://www.web2py.com/examples/default/download'
p4851
tp4852
a(g3927
(S't\x07\x00\x00\x00Support'
tRp4853
I00
S'http://www.web2py.com/examples/default/support'
p4854
tp4855
a(g3927
(S's\x0e\x00\x00\x00Quick Examples'
tRp4856
I00
S'http://web2py.com/examples/default/examples'
p4857
tp4858
a(g3927
(S't\x03\x00\x00\x00FAQ'
tRp4859
I00
S'http://web2py.com/AlterEgo'
p4860
tp4861
a(g3927
(S's\x11\x00\x00\x00Free Applications'
tRp4862
I00
S'http://web2py.com/appliances'
p4863
tp4864
a(g3927
(S't\x07\x00\x00\x00Plugins'
tRp4865
I00
S'http://web2py.com/plugins'
p4866
tp4867
a(g3927
(S't\x07\x00\x00\x00Recipes'
tRp4868
I00
S'http://web2pyslices.com/'
p4869
tp4870
a(g3927
(S't\x04\x00\x00\x00Demo'
tRp4871
I00
S'http://web2py.com/demo_admin'
p4872
tp4873
a(g3927
(S't\x08\x00\x00\x00Semantic'
tRp4874
I00
S'http://web2py.com/semantic'
p4875
tp4876
a(g3927
(S't\x07\x00\x00\x00Layouts'
tRp4877
I00
S'http://web2py.com/layouts'
p4878
tp4879
a(g3927
(S't\x06\x00\x00\x00Videos'
tRp4880
I00
S'http://www.web2py.com/examples/default/videos/'
p4881
tp4882
aasbasbasbasbasbasbasbasbasbasbasbasbasbasbasbasbasbasbasbag63
(g79
g65
NtRp4883
(dp4884
g68
(dp4885
sg77
g3422
sg70
(lp4886
g63
(g84
g65
NtRp4887
(dp4888
g68
(dp4889
g88
g89
ssg77
g4883
sg70
(lp4890
S'meta'
p4891
asbag63
(g84
g65
NtRp4892
(dp4893
g68
(dp4894
g95
g96
ssg77
g4883
sg70
(lp4895
S':'
asbag63
(g84
g65
NtRp4896
(dp4897
g68
(dp4898
sg77
g4883
sg70
(lp4899
g63
(g64
g65
NtRp4900
(dp4901
g68
(dp4902
g76
I5
ssg77
g4896
sg70
(lp4903
g63
(g72
g65
NtRp4904
(dp4905
g68
(dp4906
g76
I4
ssg77
Nsg70
(lp4907
g63
(g79
g65
NtRp4908
(dp4909
g68
(dp4910
sg77
g4904
sg70
(lp4911
g63
(g84
g65
NtRp4912
(dp4913
g68
(dp4914
g88
g89
ssg77
g4908
sg70
(lp4915
S'author'
p4916
asbag63
(g84
g65
NtRp4917
(dp4918
g68
(dp4919
g95
g96
ssg77
g4908
sg70
(lp4920
S':'
asbag63
(g84
g65
NtRp4921
(dp4922
g68
(dp4923
sg77
g4908
sg70
(lp4924
g63
(g64
g65
NtRp4925
(dp4926
g68
(dp4927
g76
I4
ssg77
g4921
sg70
(lp4928
S'Your Name <you@example.com>'
p4929
asbasbasbag63
(g79
g65
NtRp4930
(dp4931
g68
(dp4932
sg77
g4904
sg70
(lp4933
g63
(g84
g65
NtRp4934
(dp4935
g68
(dp4936
g88
g89
ssg77
g4930
sg70
(lp4937
S'copyright'
p4938
asbag63
(g84
g65
NtRp4939
(dp4940
g68
(dp4941
g95
g96
ssg77
g4930
sg70
(lp4942
S':'
asbag63
(g84
g65
NtRp4943
(dp4944
g68
(dp4945
sg77
g4930
sg70
(lp4946
g63
(g64
g65
NtRp4947
(dp4948
g68
(dp4949
g76
I4
ssg77
g4943
sg70
(lp4950
S'Copyright 2011'
p4951
asbasbasbag63
(g79
g65
NtRp4952
(dp4953
g68
(dp4954
sg77
g4904
sg70
(lp4955
g63
(g84
g65
NtRp4956
(dp4957
g68
(dp4958
g88
g89
ssg77
g4952
sg70
(lp4959
S'description'
p4960
asbag63
(g84
g65
NtRp4961
(dp4962
g68
(dp4963
g95
g96
ssg77
g4952
sg70
(lp4964
S':'
asbag63
(g84
g65
NtRp4965
(dp4966
g68
(dp4967
sg77
g4952
sg70
(lp4968
g63
(g64
g65
NtRp4969
(dp4970
g68
(dp4971
g76
I4
ssg77
g4965
sg70
(lp4972
S'a cool new app'
p4973
asbasbasbag63
(g79
g65
NtRp4974
(dp4975
g68
(dp4976
sg77
g4904
sg70
(lp4977
g63
(g84
g65
NtRp4978
(dp4979
g68
(dp4980
g88
g89
ssg77
g4974
sg70
(lp4981
S'generator'
p4982
asbag63
(g84
g65
NtRp4983
(dp4984
g68
(dp4985
g95
g96
ssg77
g4974
sg70
(lp4986
S':'
asbag63
(g84
g65
NtRp4987
(dp4988
g68
(dp4989
sg77
g4974
sg70
(lp4990
g63
(g64
g65
NtRp4991
(dp4992
g68
(dp4993
g76
I4
ssg77
g4987
sg70
(lp4994
S'Web2py Web Framework'
p4995
asbasbasbag63
(g79
g65
NtRp4996
(dp4997
g68
(dp4998
sg77
g4904
sg70
(lp4999
g63
(g84
g65
NtRp5000
(dp5001
g68
(dp5002
g88
g89
ssg77
g4996
sg70
(lp5003
S'keywords'
p5004
asbag63
(g84
g65
NtRp5005
(dp5006
g68
(dp5007
g95
g96
ssg77
g4996
sg70
(lp5008
S':'
asbag63
(g84
g65
NtRp5009
(dp5010
g68
(dp5011
sg77
g4996
sg70
(lp5012
g63
(g64
g65
NtRp5013
(dp5014
g68
(dp5015
g76
I4
ssg77
g5009
sg70
(lp5016
S'web2py, python, framework'
p5017
asbasbasbasbasbasbasbag63
(g79
g65
NtRp5018
(dp5019
g68
(dp5020
sg77
g3422
sg70
(lp5021
g63
(g84
g65
NtRp5022
(dp5023
g68
(dp5024
g88
g89
ssg77
g5018
sg70
(lp5025
S'postprocessing'
p5026
asbag63
(g84
g65
NtRp5027
(dp5028
g68
(dp5029
g95
g96
ssg77
g5018
sg70
(lp5030
S':'
asbag63
(g84
g65
NtRp5031
(dp5032
g68
(dp5033
sg77
g5018
sg70
(lp5034
g63
(g64
g65
NtRp5035
(dp5036
g68
(dp5037
g76
I5
ssg77
g5031
sg70
(lp5038
g63
(g72
g65
NtRp5039
(dp5040
g68
(dp5041
g76
I4
ssg77
Nsg70
(lp5042
sbasbasbasbag63
(g79
g65
NtRp5043
(dp5044
g68
(dp5045
sg77
g3422
sg70
(lp5046
g63
(g84
g65
NtRp5047
(dp5048
g68
(dp5049
g88
g89
ssg77
g5043
sg70
(lp5050
S'session_file'
p5051
asbag63
(g84
g65
NtRp5052
(dp5053
g68
(dp5054
g95
g96
ssg77
g5043
sg70
(lp5055
S':'
asbag63
(g84
g65
NtRp5056
(dp5057
g68
(dp5058
sg77
g5043
sg70
(lp5059
g63
(g64
g65
NtRp5060
(dp5061
g68
(dp5062
g76
I5
ssg77
g5056
sg70
(lp5063
S"<open file '/home/u4hcsdaw/Python/web2py/applications/ACES/sessions/127.0.0.1-c914d549-bd8c-4d4b-80c4-72a1e6cf8099', mode 'rb+' at 0xae037808>"
p5064
asbasbasbag63
(g79
g65
NtRp5065
(dp5066
g68
(dp5067
sg77
g3422
sg70
(lp5068
g63
(g84
g65
NtRp5069
(dp5070
g68
(dp5071
g88
g89
ssg77
g5065
sg70
(lp5072
S'session_filename'
p5073
asbag63
(g84
g65
NtRp5074
(dp5075
g68
(dp5076
g95
g96
ssg77
g5065
sg70
(lp5077
S':'
asbag63
(g84
g65
NtRp5078
(dp5079
g68
(dp5080
sg77
g5065
sg70
(lp5081
g63
(g64
g65
NtRp5082
(dp5083
g68
(dp5084
g76
I5
ssg77
g5078
sg70
(lp5085
S'/home/u4hcsdaw/Python/web2py/applications/ACES/sessions/127.0.0.1-c914d549-bd8c-4d4b-80c4-72a1e6cf8099'
p5086
asbasbasbag63
(g79
g65
NtRp5087
(dp5088
g68
(dp5089
sg77
g3422
sg70
(lp5090
g63
(g84
g65
NtRp5091
(dp5092
g68
(dp5093
g88
g89
ssg77
g5087
sg70
(lp5094
S'session_id'
p5095
asbag63
(g84
g65
NtRp5096
(dp5097
g68
(dp5098
g95
g96
ssg77
g5087
sg70
(lp5099
S':'
asbag63
(g84
g65
NtRp5100
(dp5101
g68
(dp5102
sg77
g5087
sg70
(lp5103
g63
(g64
g65
NtRp5104
(dp5105
g68
(dp5106
g76
I5
ssg77
g5100
sg70
(lp5107
S'127.0.0.1-c914d549-bd8c-4d4b-80c4-72a1e6cf8099'
p5108
asbasbasbag63
(g79
g65
NtRp5109
(dp5110
g68
(dp5111
sg77
g3422
sg70
(lp5112
g63
(g84
g65
NtRp5113
(dp5114
g68
(dp5115
g88
g89
ssg77
g5109
sg70
(lp5116
S'session_id_name'
p5117
asbag63
(g84
g65
NtRp5118
(dp5119
g68
(dp5120
g95
g96
ssg77
g5109
sg70
(lp5121
S':'
asbag63
(g84
g65
NtRp5122
(dp5123
g68
(dp5124
sg77
g5109
sg70
(lp5125
g63
(g64
g65
NtRp5126
(dp5127
g68
(dp5128
g76
I5
ssg77
g5122
sg70
(lp5129
g3479
asbasbasbag63
(g79
g65
NtRp5130
(dp5131
g68
(dp5132
sg77
g3422
sg70
(lp5133
g63
(g84
g65
NtRp5134
(dp5135
g68
(dp5136
g88
g89
ssg77
g5130
sg70
(lp5137
S'session_locked'
p5138
asbag63
(g84
g65
NtRp5139
(dp5140
g68
(dp5141
g95
g96
ssg77
g5130
sg70
(lp5142
S':'
asbag63
(g84
g65
NtRp5143
(dp5144
g68
(dp5145
sg77
g5130
sg70
(lp5146
g63
(g64
g65
NtRp5147
(dp5148
g68
(dp5149
g76
I5
ssg77
g5143
sg70
(lp5150
g1727
asbasbasbag63
(g79
g65
NtRp5151
(dp5152
g68
(dp5153
sg77
g3422
sg70
(lp5154
g63
(g84
g65
NtRp5155
(dp5156
g68
(dp5157
g88
g89
ssg77
g5151
sg70
(lp5158
S'session_new'
p5159
asbag63
(g84
g65
NtRp5160
(dp5161
g68
(dp5162
g95
g96
ssg77
g5151
sg70
(lp5163
S':'
asbag63
(g84
g65
NtRp5164
(dp5165
g68
(dp5166
sg77
g5151
sg70
(lp5167
g63
(g64
g65
NtRp5168
(dp5169
g68
(dp5170
g76
I5
ssg77
g5164
sg70
(lp5171
g106
asbasbasbag63
(g79
g65
NtRp5172
(dp5173
g68
(dp5174
sg77
g3422
sg70
(lp5175
g63
(g84
g65
NtRp5176
(dp5177
g68
(dp5178
g88
g89
ssg77
g5172
sg70
(lp5179
S'status'
p5180
asbag63
(g84
g65
NtRp5181
(dp5182
g68
(dp5183
g95
g96
ssg77
g5172
sg70
(lp5184
S':'
asbag63
(g84
g65
NtRp5185
(dp5186
g68
(dp5187
sg77
g5172
sg70
(lp5188
g63
(g64
g65
NtRp5189
(dp5190
g68
(dp5191
g76
I5
ssg77
g5185
sg70
(lp5192
S'200'
p5193
asbasbasbag63
(g79
g65
NtRp5194
(dp5195
g68
(dp5196
sg77
g3422
sg70
(lp5197
g63
(g84
g65
NtRp5198
(dp5199
g68
(dp5200
g88
g89
ssg77
g5194
sg70
(lp5201
S'subtitle'
p5202
asbag63
(g84
g65
NtRp5203
(dp5204
g68
(dp5205
g95
g96
ssg77
g5194
sg70
(lp5206
S':'
asbag63
(g84
g65
NtRp5207
(dp5208
g68
(dp5209
sg77
g5194
sg70
(lp5210
g63
(g64
g65
NtRp5211
(dp5212
g68
(dp5213
g76
I5
ssg77
g5207
sg70
(lp5214
g3927
(S's\r\x00\x00\x00customize me!'
tRp5215
asbasbasbag63
(g79
g65
NtRp5216
(dp5217
g68
(dp5218
sg77
g3422
sg70
(lp5219
g63
(g84
g65
NtRp5220
(dp5221
g68
(dp5222
g88
g89
ssg77
g5216
sg70
(lp5223
S'title'
p5224
asbag63
(g84
g65
NtRp5225
(dp5226
g68
(dp5227
g95
g96
ssg77
g5216
sg70
(lp5228
S':'
asbag63
(g84
g65
NtRp5229
(dp5230
g68
(dp5231
sg77
g5216
sg70
(lp5232
g63
(g64
g65
NtRp5233
(dp5234
g68
(dp5235
g76
I5
ssg77
g5229
sg70
(lp5236
g128
asbasbasbag63
(g79
g65
NtRp5237
(dp5238
g68
(dp5239
sg77
g3422
sg70
(lp5240
g63
(g84
g65
NtRp5241
(dp5242
g68
(dp5243
g88
g89
ssg77
g5237
sg70
(lp5244
g2415
asbag63
(g84
g65
NtRp5245
(dp5246
g68
(dp5247
g95
g96
ssg77
g5237
sg70
(lp5248
S':'
asbag63
(g84
g65
NtRp5249
(dp5250
g68
(dp5251
sg77
g5237
sg70
(lp5252
g63
(g64
g65
NtRp5253
(dp5254
g68
(dp5255
g76
I5
ssg77
g5249
sg70
(lp5256
g2428
asbasbasbag63
(g79
g65
NtRp5257
(dp5258
g68
(dp5259
sg77
g3422
sg70
(lp5260
g63
(g84
g65
NtRp5261
(dp5262
g68
(dp5263
g88
g89
ssg77
g5257
sg70
(lp5264
S'view'
p5265
asbag63
(g84
g65
NtRp5266
(dp5267
g68
(dp5268
g95
g96
ssg77
g5257
sg70
(lp5269
S':'
asbag63
(g84
g65
NtRp5270
(dp5271
g68
(dp5272
sg77
g5257
sg70
(lp5273
g63
(g64
g65
NtRp5274
(dp5275
g68
(dp5276
g76
I5
ssg77
g5270
sg70
(lp5277
S'default/index.html'
p5278
asbasbasbasbasbsS'locals'
p5279
(dp5280
S'errread'
p5281
S'None'
p5282
sS'c2pread'
p5283
S'None'
p5284
sS'gc_was_enabled'
p5285
g1727
sS'errwrite'
p5286
S'None'
p5287
sS'child_exception'
p5288
S"OSError(2, 'No such file or directory')"
p5289
sS'errpipe_write'
p5290
S'19'
p5291
sS'executable'
p5292
S'\'octave -q --eval "H=0.85" \''
p5293
sS'close_fds'
p5294
g106
sS'self'
p5295
S'<subprocess.Popen object>'
p5296
sg815
S'None'
p5297
sS'cwd'
p5298
S'None'
p5299
sS'shell'
p5300
g106
sg46
S'[\'octave -q --eval "H=0.85" \', \'applications/ACES/models/Waves/linear_wave_theory.m\']'
p5301
sS'fd'
p5302
S'None'
p5303
sS'c2pwrite'
p5304
S'None'
p5305
sS'data'
p5306
S'"cexceptions\\nOSError\\np0\\n(I2\\nS\'No such file or dir...or: [Errno 2] No such file or directory\\\\n\'\\np6\\nsb."'
p5307
sS'creationflags'
p5308
S'0'
sS'errpipe_read'
p5309
S'18'
p5310
sS'preexec_fn'
p5311
S'None'
p5312
sS'p2cread'
p5313
S'None'
p5314
sS'startupinfo'
p5315
S'None'
p5316
sS'p2cwrite'
p5317
S'None'
p5318
sS'universal_newlines'
p5319
g106
sssS'traceback'
p5320
S'Traceback (most recent call last):\n  File "/home/u4hcsdaw/Python/web2py/gluon/restricted.py", line 194, in restricted\n    exec ccode in environment\n  File "/home/u4hcsdaw/Python/web2py/applications/ACES/controllers/default.py", line 83, in <module>\n  File "/home/u4hcsdaw/Python/web2py/gluon/globals.py", line 149, in <lambda>\n    self._caller = lambda f: f()\n  File "/home/u4hcsdaw/Python/web2py/applications/ACES/controllers/default.py", line 27, in index\n    t0=AcesCall(f1.vars)\n  File "/home/u4hcsdaw/Python/web2py/applications/ACES/models/functionsAces.py", line 9, in AcesCall\n    res=subprocess.call(comm)\n  File "/usr/lib/python2.7/subprocess.py", line 486, in call\n    return Popen(*popenargs, **kwargs).wait()\n  File "/usr/lib/python2.7/subprocess.py", line 672, in __init__\n    errread, errwrite)\n  File "/usr/lib/python2.7/subprocess.py", line 1213, in _execute_child\n    raise child_exception\nOSError: [Errno 2] No such file or directory\n'
p5321
s.