(dp1
S'output'
p2
S''
sS'layer'
p3
S'/home/u4hcsdaw/Python/web2py/applications/ACES/controllers/default.py'
p4
sS'code'
p5
S'# -*- coding: utf-8 -*-\n# this file is released under public domain and you can use without limitations\n\n#########################################################################\n## This is a samples controller\n## - index is the default action of any application\n## - user is required for authentication and authorization\n## - download is for downloading files uploaded in the db (does streaming)\n## - call exposes all registered services (none by default)\n#########################################################################\n\ndef index():\n    """\n    example action using the internationalization operator T and flash\n    rendered by views/default/index.html or views/generic.html\n    """\n    import datetime\n    now=datetime.datetime.now()\n    nowS=now.strftime(\'%s\')\n    pre1=\'\'\n    img1=\'\'\n    \n    \n    f1=linearWaveForm()\n    if session.has_key(\'formVars\'):\n        f1.vars=session.formVars\n    #f1[\'vars\']=dict(waveHeight=0.85,wavePeriod=8.00,waveBrk=0.78,waterDepth=4.1)\n    if f1.accepts(request.vars,session):\n        session[\'formVars\']=f1.vars\n        t0=AcesCall(f1.vars)\n        pre1=PRE(t0)\n        img1=IMG(_src=URL(\'static\',\'images/Waves.svg?\'+nowS))\n    return dict(form=f1,pre1=pre1,img1=img1)\n\ndef user():\n    """ \n    exposes:\n    http://..../[app]/default/user/login\n    http://..../[app]/default/user/logout\n    http://..../[app]/default/user/register\n    http://..../[app]/default/user/profile\n    http://..../[app]/default/user/retrieve_password\n    http://..../[app]/default/user/change_password\n    use @auth.requires_login()\n        @auth.requires_membership(\'group name\')\n        @auth.requires_permission(\'read\',\'table name\',record_id)\n    to decorate functions that need access control\n    """\n    return dict(form=auth())\n\n\ndef download():\n    """\n    allows downloading of uploaded files\n    http://..../[app]/default/download/[filename]\n    """\n    return response.download(request,db)\n\n\ndef call():\n    """\n    exposes services. for example:\n    http://..../[app]/default/call/jsonrpc\n    decorate with @services.jsonrpc the functions to expose\n    supports xml, json, xmlrpc, jsonrpc, amfrpc, rss, csv\n    """\n    return service()\n\n\n@auth.requires_signature()\ndef data():\n    """\n    http://..../[app]/default/data/tables\n    http://..../[app]/default/data/create/[table]\n    http://..../[app]/default/data/read/[table]/[id]\n    http://..../[app]/default/data/update/[table]/[id]\n    http://..../[app]/default/data/delete/[table]/[id]\n    http://..../[app]/default/data/select/[table]\n    http://..../[app]/default/data/search/[table]\n    but URLs bust be signed, i.e. linked with\n      A(\'table\',_href=URL(\'data/tables\',user_signature=True))\n    or with the signed load operator\n      LOAD(\'default\',\'data.load\',args=\'tables\',ajax=True,user_signature=True)\n    """\n    return dict(form=crud())\n\nresponse._vars=response._caller(index)\n'
p6
sS'snapshot'
p7
(dp8
S'exception'
p9
(dp10
S'__module__'
p11
S"'sqlite3'"
p12
sS'__getslice__'
p13
S"<method-wrapper '__getslice__' of IntegrityError object>"
p14
sS'__str__'
p15
S"<method-wrapper '__str__' of IntegrityError object>"
p16
sS'__reduce__'
p17
S'<built-in method __reduce__ of IntegrityError object>'
p18
sS'__dict__'
p19
S'{}'
p20
sS'__sizeof__'
p21
S'<built-in method __sizeof__ of IntegrityError object>'
p22
sS'__weakref__'
p23
S'None'
p24
sS'__init__'
p25
S"<method-wrapper '__init__' of IntegrityError object>"
p26
sS'__setattr__'
p27
S"<method-wrapper '__setattr__' of IntegrityError object>"
p28
sS'__reduce_ex__'
p29
S'<built-in method __reduce_ex__ of IntegrityError object>'
p30
sS'__new__'
p31
S'<built-in method __new__ of type object>'
p32
sS'__format__'
p33
S'<built-in method __format__ of IntegrityError object>'
p34
sS'__class__'
p35
S"<class 'sqlite3.IntegrityError'>"
p36
sS'__doc__'
p37
S'None'
p38
sS'__getitem__'
p39
S"<method-wrapper '__getitem__' of IntegrityError object>"
p40
sS'__setstate__'
p41
S'<built-in method __setstate__ of IntegrityError object>'
p42
sS'__getattribute__'
p43
S"<method-wrapper '__getattribute__' of IntegrityError object>"
p44
sS'args'
p45
S"('PRIMARY KEY must be unique',)"
p46
sS'__subclasshook__'
p47
S'<built-in method __subclasshook__ of type object>'
p48
sS'__unicode__'
p49
S'<built-in method __unicode__ of IntegrityError object>'
p50
sS'__delattr__'
p51
S"<method-wrapper '__delattr__' of IntegrityError object>"
p52
sS'__repr__'
p53
S"<method-wrapper '__repr__' of IntegrityError object>"
p54
sS'__hash__'
p55
S"<method-wrapper '__hash__' of IntegrityError object>"
p56
ssS'evalue'
p57
S'PRIMARY KEY must be unique'
p58
sS'request'
p59
ccopy_reg
_reconstructor
p60
(cgluon.html
BEAUTIFY
p61
c__builtin__
object
p62
NtRp63
(dp64
S'attributes'
p65
(dp66
sS'components'
p67
(lp68
g60
(cgluon.html
TABLE
p69
g62
NtRp70
(dp71
g65
(dp72
S'level'
p73
I5
ssS'parent'
p74
Nsg67
(lp75
g60
(cgluon.html
TR
p76
g62
NtRp77
(dp78
g65
(dp79
sg74
g70
sg67
(lp80
g60
(cgluon.html
TD
p81
g62
NtRp82
(dp83
g65
(dp84
S'_style'
p85
S'font-weight:bold;'
p86
ssg74
g77
sg67
(lp87
S'ajax'
p88
asbag60
(g81
g62
NtRp89
(dp90
g65
(dp91
S'_valign'
p92
S'top'
p93
ssg74
g77
sg67
(lp94
S':'
asbag60
(g81
g62
NtRp95
(dp96
g65
(dp97
sg74
g77
sg67
(lp98
g60
(g61
g62
NtRp99
(dp100
g65
(dp101
g73
I5
ssg74
g95
sg67
(lp102
S'False'
p103
asbasbasbag60
(g76
g62
NtRp104
(dp105
g65
(dp106
sg74
g70
sg67
(lp107
g60
(g81
g62
NtRp108
(dp109
g65
(dp110
g85
g86
ssg74
g104
sg67
(lp111
S'application'
p112
asbag60
(g81
g62
NtRp113
(dp114
g65
(dp115
g92
g93
ssg74
g104
sg67
(lp116
S':'
asbag60
(g81
g62
NtRp117
(dp118
g65
(dp119
sg74
g104
sg67
(lp120
g60
(g61
g62
NtRp121
(dp122
g65
(dp123
g73
I5
ssg74
g117
sg67
(lp124
S'ACES'
p125
asbasbasbag60
(g76
g62
NtRp126
(dp127
g65
(dp128
sg74
g70
sg67
(lp129
g60
(g81
g62
NtRp130
(dp131
g65
(dp132
g85
g86
ssg74
g126
sg67
(lp133
g45
asbag60
(g81
g62
NtRp134
(dp135
g65
(dp136
g92
g93
ssg74
g126
sg67
(lp137
S':'
asbag60
(g81
g62
NtRp138
(dp139
g65
(dp140
sg74
g126
sg67
(lp141
g60
(g61
g62
NtRp142
(dp143
g65
(dp144
g73
I5
ssg74
g138
sg67
(lp145
g60
(g69
g62
NtRp146
(dp147
g65
(dp148
g73
I4
ssg74
Nsg67
(lp149
sbasbasbasbag60
(g76
g62
NtRp150
(dp151
g65
(dp152
sg74
g70
sg67
(lp153
g60
(g81
g62
NtRp154
(dp155
g65
(dp156
g85
g86
ssg74
g150
sg67
(lp157
S'body'
p158
asbag60
(g81
g62
NtRp159
(dp160
g65
(dp161
g92
g93
ssg74
g150
sg67
(lp162
S':'
asbag60
(g81
g62
NtRp163
(dp164
g65
(dp165
sg74
g150
sg67
(lp166
g60
(g61
g62
NtRp167
(dp168
g65
(dp169
g73
I5
ssg74
g163
sg67
(lp170
S"<open file '<fdopen>', mode 'w+b' at 0xad1c9c80>"
p171
asbasbasbag60
(g76
g62
NtRp172
(dp173
g65
(dp174
sg74
g70
sg67
(lp175
g60
(g81
g62
NtRp176
(dp177
g65
(dp178
g85
g86
ssg74
g172
sg67
(lp179
S'client'
p180
asbag60
(g81
g62
NtRp181
(dp182
g65
(dp183
g92
g93
ssg74
g172
sg67
(lp184
S':'
asbag60
(g81
g62
NtRp185
(dp186
g65
(dp187
sg74
g172
sg67
(lp188
g60
(g61
g62
NtRp189
(dp190
g65
(dp191
g73
I5
ssg74
g185
sg67
(lp192
S'127.0.0.1'
p193
asbasbasbag60
(g76
g62
NtRp194
(dp195
g65
(dp196
sg74
g70
sg67
(lp197
g60
(g81
g62
NtRp198
(dp199
g65
(dp200
g85
g86
ssg74
g194
sg67
(lp201
S'controller'
p202
asbag60
(g81
g62
NtRp203
(dp204
g65
(dp205
g92
g93
ssg74
g194
sg67
(lp206
S':'
asbag60
(g81
g62
NtRp207
(dp208
g65
(dp209
sg74
g194
sg67
(lp210
g60
(g61
g62
NtRp211
(dp212
g65
(dp213
g73
I5
ssg74
g207
sg67
(lp214
S'default'
p215
asbasbasbag60
(g76
g62
NtRp216
(dp217
g65
(dp218
sg74
g70
sg67
(lp219
g60
(g81
g62
NtRp220
(dp221
g65
(dp222
g85
g86
ssg74
g216
sg67
(lp223
S'cookies'
p224
asbag60
(g81
g62
NtRp225
(dp226
g65
(dp227
g92
g93
ssg74
g216
sg67
(lp228
S':'
asbag60
(g81
g62
NtRp229
(dp230
g65
(dp231
sg74
g216
sg67
(lp232
g60
(g61
g62
NtRp233
(dp234
g65
(dp235
g73
I5
ssg74
g229
sg67
(lp236
g60
(g69
g62
NtRp237
(dp238
g65
(dp239
g73
I4
ssg74
Nsg67
(lp240
g60
(g76
g62
NtRp241
(dp242
g65
(dp243
sg74
g237
sg67
(lp244
g60
(g81
g62
NtRp245
(dp246
g65
(dp247
g85
g86
ssg74
g241
sg67
(lp248
S'session_id_aces'
p249
asbag60
(g81
g62
NtRp250
(dp251
g65
(dp252
g92
g93
ssg74
g241
sg67
(lp253
S':'
asbag60
(g81
g62
NtRp254
(dp255
g65
(dp256
sg74
g241
sg67
(lp257
g60
(g61
g62
NtRp258
(dp259
g65
(dp260
g73
I4
ssg74
g254
sg67
(lp261
g60
(g69
g62
NtRp262
(dp263
g65
(dp264
g73
I3
ssg74
Nsg67
(lp265
g60
(g76
g62
NtRp266
(dp267
g65
(dp268
sg74
g262
sg67
(lp269
g60
(g81
g62
NtRp270
(dp271
g65
(dp272
g85
g86
ssg74
g266
sg67
(lp273
S'comment'
p274
asbag60
(g81
g62
NtRp275
(dp276
g65
(dp277
g92
g93
ssg74
g266
sg67
(lp278
S':'
asbag60
(g81
g62
NtRp279
(dp280
g65
(dp281
sg74
g266
sg67
(lp282
g60
(g61
g62
NtRp283
(dp284
g65
(dp285
g73
I3
ssg74
g279
sg67
(lp286
S''
asbasbasbag60
(g76
g62
NtRp287
(dp288
g65
(dp289
sg74
g262
sg67
(lp290
g60
(g81
g62
NtRp291
(dp292
g65
(dp293
g85
g86
ssg74
g287
sg67
(lp294
S'domain'
p295
asbag60
(g81
g62
NtRp296
(dp297
g65
(dp298
g92
g93
ssg74
g287
sg67
(lp299
S':'
asbag60
(g81
g62
NtRp300
(dp301
g65
(dp302
sg74
g287
sg67
(lp303
g60
(g61
g62
NtRp304
(dp305
g65
(dp306
g73
I3
ssg74
g300
sg67
(lp307
S''
asbasbasbag60
(g76
g62
NtRp308
(dp309
g65
(dp310
sg74
g262
sg67
(lp311
g60
(g81
g62
NtRp312
(dp313
g65
(dp314
g85
g86
ssg74
g308
sg67
(lp315
S'expires'
p316
asbag60
(g81
g62
NtRp317
(dp318
g65
(dp319
g92
g93
ssg74
g308
sg67
(lp320
S':'
asbag60
(g81
g62
NtRp321
(dp322
g65
(dp323
sg74
g308
sg67
(lp324
g60
(g61
g62
NtRp325
(dp326
g65
(dp327
g73
I3
ssg74
g321
sg67
(lp328
S''
asbasbasbag60
(g76
g62
NtRp329
(dp330
g65
(dp331
sg74
g262
sg67
(lp332
g60
(g81
g62
NtRp333
(dp334
g65
(dp335
g85
g86
ssg74
g329
sg67
(lp336
S'httponly'
p337
asbag60
(g81
g62
NtRp338
(dp339
g65
(dp340
g92
g93
ssg74
g329
sg67
(lp341
S':'
asbag60
(g81
g62
NtRp342
(dp343
g65
(dp344
sg74
g329
sg67
(lp345
g60
(g61
g62
NtRp346
(dp347
g65
(dp348
g73
I3
ssg74
g342
sg67
(lp349
S''
asbasbasbag60
(g76
g62
NtRp350
(dp351
g65
(dp352
sg74
g262
sg67
(lp353
g60
(g81
g62
NtRp354
(dp355
g65
(dp356
g85
g86
ssg74
g350
sg67
(lp357
S'max-age'
p358
asbag60
(g81
g62
NtRp359
(dp360
g65
(dp361
g92
g93
ssg74
g350
sg67
(lp362
S':'
asbag60
(g81
g62
NtRp363
(dp364
g65
(dp365
sg74
g350
sg67
(lp366
g60
(g61
g62
NtRp367
(dp368
g65
(dp369
g73
I3
ssg74
g363
sg67
(lp370
S''
asbasbasbag60
(g76
g62
NtRp371
(dp372
g65
(dp373
sg74
g262
sg67
(lp374
g60
(g81
g62
NtRp375
(dp376
g65
(dp377
g85
g86
ssg74
g371
sg67
(lp378
S'path'
p379
asbag60
(g81
g62
NtRp380
(dp381
g65
(dp382
g92
g93
ssg74
g371
sg67
(lp383
S':'
asbag60
(g81
g62
NtRp384
(dp385
g65
(dp386
sg74
g371
sg67
(lp387
g60
(g61
g62
NtRp388
(dp389
g65
(dp390
g73
I3
ssg74
g384
sg67
(lp391
S''
asbasbasbag60
(g76
g62
NtRp392
(dp393
g65
(dp394
sg74
g262
sg67
(lp395
g60
(g81
g62
NtRp396
(dp397
g65
(dp398
g85
g86
ssg74
g392
sg67
(lp399
S'secure'
p400
asbag60
(g81
g62
NtRp401
(dp402
g65
(dp403
g92
g93
ssg74
g392
sg67
(lp404
S':'
asbag60
(g81
g62
NtRp405
(dp406
g65
(dp407
sg74
g392
sg67
(lp408
g60
(g61
g62
NtRp409
(dp410
g65
(dp411
g73
I3
ssg74
g405
sg67
(lp412
S''
asbasbasbag60
(g76
g62
NtRp413
(dp414
g65
(dp415
sg74
g262
sg67
(lp416
g60
(g81
g62
NtRp417
(dp418
g65
(dp419
g85
g86
ssg74
g413
sg67
(lp420
S'version'
p421
asbag60
(g81
g62
NtRp422
(dp423
g65
(dp424
g92
g93
ssg74
g413
sg67
(lp425
S':'
asbag60
(g81
g62
NtRp426
(dp427
g65
(dp428
sg74
g413
sg67
(lp429
g60
(g61
g62
NtRp430
(dp431
g65
(dp432
g73
I3
ssg74
g426
sg67
(lp433
S''
asbasbasbasbasbasbasbag60
(g76
g62
NtRp434
(dp435
g65
(dp436
sg74
g237
sg67
(lp437
g60
(g81
g62
NtRp438
(dp439
g65
(dp440
g85
g86
ssg74
g434
sg67
(lp441
S'session_id_admin'
p442
asbag60
(g81
g62
NtRp443
(dp444
g65
(dp445
g92
g93
ssg74
g434
sg67
(lp446
S':'
asbag60
(g81
g62
NtRp447
(dp448
g65
(dp449
sg74
g434
sg67
(lp450
g60
(g61
g62
NtRp451
(dp452
g65
(dp453
g73
I4
ssg74
g447
sg67
(lp454
g60
(g69
g62
NtRp455
(dp456
g65
(dp457
g73
I3
ssg74
Nsg67
(lp458
g60
(g76
g62
NtRp459
(dp460
g65
(dp461
sg74
g455
sg67
(lp462
g60
(g81
g62
NtRp463
(dp464
g65
(dp465
g85
g86
ssg74
g459
sg67
(lp466
g274
asbag60
(g81
g62
NtRp467
(dp468
g65
(dp469
g92
g93
ssg74
g459
sg67
(lp470
S':'
asbag60
(g81
g62
NtRp471
(dp472
g65
(dp473
sg74
g459
sg67
(lp474
g60
(g61
g62
NtRp475
(dp476
g65
(dp477
g73
I3
ssg74
g471
sg67
(lp478
S''
asbasbasbag60
(g76
g62
NtRp479
(dp480
g65
(dp481
sg74
g455
sg67
(lp482
g60
(g81
g62
NtRp483
(dp484
g65
(dp485
g85
g86
ssg74
g479
sg67
(lp486
g295
asbag60
(g81
g62
NtRp487
(dp488
g65
(dp489
g92
g93
ssg74
g479
sg67
(lp490
S':'
asbag60
(g81
g62
NtRp491
(dp492
g65
(dp493
sg74
g479
sg67
(lp494
g60
(g61
g62
NtRp495
(dp496
g65
(dp497
g73
I3
ssg74
g491
sg67
(lp498
S''
asbasbasbag60
(g76
g62
NtRp499
(dp500
g65
(dp501
sg74
g455
sg67
(lp502
g60
(g81
g62
NtRp503
(dp504
g65
(dp505
g85
g86
ssg74
g499
sg67
(lp506
g316
asbag60
(g81
g62
NtRp507
(dp508
g65
(dp509
g92
g93
ssg74
g499
sg67
(lp510
S':'
asbag60
(g81
g62
NtRp511
(dp512
g65
(dp513
sg74
g499
sg67
(lp514
g60
(g61
g62
NtRp515
(dp516
g65
(dp517
g73
I3
ssg74
g511
sg67
(lp518
S''
asbasbasbag60
(g76
g62
NtRp519
(dp520
g65
(dp521
sg74
g455
sg67
(lp522
g60
(g81
g62
NtRp523
(dp524
g65
(dp525
g85
g86
ssg74
g519
sg67
(lp526
g337
asbag60
(g81
g62
NtRp527
(dp528
g65
(dp529
g92
g93
ssg74
g519
sg67
(lp530
S':'
asbag60
(g81
g62
NtRp531
(dp532
g65
(dp533
sg74
g519
sg67
(lp534
g60
(g61
g62
NtRp535
(dp536
g65
(dp537
g73
I3
ssg74
g531
sg67
(lp538
S''
asbasbasbag60
(g76
g62
NtRp539
(dp540
g65
(dp541
sg74
g455
sg67
(lp542
g60
(g81
g62
NtRp543
(dp544
g65
(dp545
g85
g86
ssg74
g539
sg67
(lp546
g358
asbag60
(g81
g62
NtRp547
(dp548
g65
(dp549
g92
g93
ssg74
g539
sg67
(lp550
S':'
asbag60
(g81
g62
NtRp551
(dp552
g65
(dp553
sg74
g539
sg67
(lp554
g60
(g61
g62
NtRp555
(dp556
g65
(dp557
g73
I3
ssg74
g551
sg67
(lp558
S''
asbasbasbag60
(g76
g62
NtRp559
(dp560
g65
(dp561
sg74
g455
sg67
(lp562
g60
(g81
g62
NtRp563
(dp564
g65
(dp565
g85
g86
ssg74
g559
sg67
(lp566
g379
asbag60
(g81
g62
NtRp567
(dp568
g65
(dp569
g92
g93
ssg74
g559
sg67
(lp570
S':'
asbag60
(g81
g62
NtRp571
(dp572
g65
(dp573
sg74
g559
sg67
(lp574
g60
(g61
g62
NtRp575
(dp576
g65
(dp577
g73
I3
ssg74
g571
sg67
(lp578
S''
asbasbasbag60
(g76
g62
NtRp579
(dp580
g65
(dp581
sg74
g455
sg67
(lp582
g60
(g81
g62
NtRp583
(dp584
g65
(dp585
g85
g86
ssg74
g579
sg67
(lp586
g400
asbag60
(g81
g62
NtRp587
(dp588
g65
(dp589
g92
g93
ssg74
g579
sg67
(lp590
S':'
asbag60
(g81
g62
NtRp591
(dp592
g65
(dp593
sg74
g579
sg67
(lp594
g60
(g61
g62
NtRp595
(dp596
g65
(dp597
g73
I3
ssg74
g591
sg67
(lp598
S''
asbasbasbag60
(g76
g62
NtRp599
(dp600
g65
(dp601
sg74
g455
sg67
(lp602
g60
(g81
g62
NtRp603
(dp604
g65
(dp605
g85
g86
ssg74
g599
sg67
(lp606
g421
asbag60
(g81
g62
NtRp607
(dp608
g65
(dp609
g92
g93
ssg74
g599
sg67
(lp610
S':'
asbag60
(g81
g62
NtRp611
(dp612
g65
(dp613
sg74
g599
sg67
(lp614
g60
(g61
g62
NtRp615
(dp616
g65
(dp617
g73
I3
ssg74
g611
sg67
(lp618
S''
asbasbasbasbasbasbasbag60
(g76
g62
NtRp619
(dp620
g65
(dp621
sg74
g237
sg67
(lp622
g60
(g81
g62
NtRp623
(dp624
g65
(dp625
g85
g86
ssg74
g619
sg67
(lp626
S'session_id_dalex1'
p627
asbag60
(g81
g62
NtRp628
(dp629
g65
(dp630
g92
g93
ssg74
g619
sg67
(lp631
S':'
asbag60
(g81
g62
NtRp632
(dp633
g65
(dp634
sg74
g619
sg67
(lp635
g60
(g61
g62
NtRp636
(dp637
g65
(dp638
g73
I4
ssg74
g632
sg67
(lp639
g60
(g69
g62
NtRp640
(dp641
g65
(dp642
g73
I3
ssg74
Nsg67
(lp643
g60
(g76
g62
NtRp644
(dp645
g65
(dp646
sg74
g640
sg67
(lp647
g60
(g81
g62
NtRp648
(dp649
g65
(dp650
g85
g86
ssg74
g644
sg67
(lp651
g274
asbag60
(g81
g62
NtRp652
(dp653
g65
(dp654
g92
g93
ssg74
g644
sg67
(lp655
S':'
asbag60
(g81
g62
NtRp656
(dp657
g65
(dp658
sg74
g644
sg67
(lp659
g60
(g61
g62
NtRp660
(dp661
g65
(dp662
g73
I3
ssg74
g656
sg67
(lp663
S''
asbasbasbag60
(g76
g62
NtRp664
(dp665
g65
(dp666
sg74
g640
sg67
(lp667
g60
(g81
g62
NtRp668
(dp669
g65
(dp670
g85
g86
ssg74
g664
sg67
(lp671
g295
asbag60
(g81
g62
NtRp672
(dp673
g65
(dp674
g92
g93
ssg74
g664
sg67
(lp675
S':'
asbag60
(g81
g62
NtRp676
(dp677
g65
(dp678
sg74
g664
sg67
(lp679
g60
(g61
g62
NtRp680
(dp681
g65
(dp682
g73
I3
ssg74
g676
sg67
(lp683
S''
asbasbasbag60
(g76
g62
NtRp684
(dp685
g65
(dp686
sg74
g640
sg67
(lp687
g60
(g81
g62
NtRp688
(dp689
g65
(dp690
g85
g86
ssg74
g684
sg67
(lp691
g316
asbag60
(g81
g62
NtRp692
(dp693
g65
(dp694
g92
g93
ssg74
g684
sg67
(lp695
S':'
asbag60
(g81
g62
NtRp696
(dp697
g65
(dp698
sg74
g684
sg67
(lp699
g60
(g61
g62
NtRp700
(dp701
g65
(dp702
g73
I3
ssg74
g696
sg67
(lp703
S''
asbasbasbag60
(g76
g62
NtRp704
(dp705
g65
(dp706
sg74
g640
sg67
(lp707
g60
(g81
g62
NtRp708
(dp709
g65
(dp710
g85
g86
ssg74
g704
sg67
(lp711
g337
asbag60
(g81
g62
NtRp712
(dp713
g65
(dp714
g92
g93
ssg74
g704
sg67
(lp715
S':'
asbag60
(g81
g62
NtRp716
(dp717
g65
(dp718
sg74
g704
sg67
(lp719
g60
(g61
g62
NtRp720
(dp721
g65
(dp722
g73
I3
ssg74
g716
sg67
(lp723
S''
asbasbasbag60
(g76
g62
NtRp724
(dp725
g65
(dp726
sg74
g640
sg67
(lp727
g60
(g81
g62
NtRp728
(dp729
g65
(dp730
g85
g86
ssg74
g724
sg67
(lp731
g358
asbag60
(g81
g62
NtRp732
(dp733
g65
(dp734
g92
g93
ssg74
g724
sg67
(lp735
S':'
asbag60
(g81
g62
NtRp736
(dp737
g65
(dp738
sg74
g724
sg67
(lp739
g60
(g61
g62
NtRp740
(dp741
g65
(dp742
g73
I3
ssg74
g736
sg67
(lp743
S''
asbasbasbag60
(g76
g62
NtRp744
(dp745
g65
(dp746
sg74
g640
sg67
(lp747
g60
(g81
g62
NtRp748
(dp749
g65
(dp750
g85
g86
ssg74
g744
sg67
(lp751
g379
asbag60
(g81
g62
NtRp752
(dp753
g65
(dp754
g92
g93
ssg74
g744
sg67
(lp755
S':'
asbag60
(g81
g62
NtRp756
(dp757
g65
(dp758
sg74
g744
sg67
(lp759
g60
(g61
g62
NtRp760
(dp761
g65
(dp762
g73
I3
ssg74
g756
sg67
(lp763
S''
asbasbasbag60
(g76
g62
NtRp764
(dp765
g65
(dp766
sg74
g640
sg67
(lp767
g60
(g81
g62
NtRp768
(dp769
g65
(dp770
g85
g86
ssg74
g764
sg67
(lp771
g400
asbag60
(g81
g62
NtRp772
(dp773
g65
(dp774
g92
g93
ssg74
g764
sg67
(lp775
S':'
asbag60
(g81
g62
NtRp776
(dp777
g65
(dp778
sg74
g764
sg67
(lp779
g60
(g61
g62
NtRp780
(dp781
g65
(dp782
g73
I3
ssg74
g776
sg67
(lp783
S''
asbasbasbag60
(g76
g62
NtRp784
(dp785
g65
(dp786
sg74
g640
sg67
(lp787
g60
(g81
g62
NtRp788
(dp789
g65
(dp790
g85
g86
ssg74
g784
sg67
(lp791
g421
asbag60
(g81
g62
NtRp792
(dp793
g65
(dp794
g92
g93
ssg74
g784
sg67
(lp795
S':'
asbag60
(g81
g62
NtRp796
(dp797
g65
(dp798
sg74
g784
sg67
(lp799
g60
(g61
g62
NtRp800
(dp801
g65
(dp802
g73
I3
ssg74
g796
sg67
(lp803
S''
asbasbasbasbasbasbasbag60
(g76
g62
NtRp804
(dp805
g65
(dp806
sg74
g237
sg67
(lp807
g60
(g81
g62
NtRp808
(dp809
g65
(dp810
g85
g86
ssg74
g804
sg67
(lp811
S'session_id_welcome'
p812
asbag60
(g81
g62
NtRp813
(dp814
g65
(dp815
g92
g93
ssg74
g804
sg67
(lp816
S':'
asbag60
(g81
g62
NtRp817
(dp818
g65
(dp819
sg74
g804
sg67
(lp820
g60
(g61
g62
NtRp821
(dp822
g65
(dp823
g73
I4
ssg74
g817
sg67
(lp824
g60
(g69
g62
NtRp825
(dp826
g65
(dp827
g73
I3
ssg74
Nsg67
(lp828
g60
(g76
g62
NtRp829
(dp830
g65
(dp831
sg74
g825
sg67
(lp832
g60
(g81
g62
NtRp833
(dp834
g65
(dp835
g85
g86
ssg74
g829
sg67
(lp836
g274
asbag60
(g81
g62
NtRp837
(dp838
g65
(dp839
g92
g93
ssg74
g829
sg67
(lp840
S':'
asbag60
(g81
g62
NtRp841
(dp842
g65
(dp843
sg74
g829
sg67
(lp844
g60
(g61
g62
NtRp845
(dp846
g65
(dp847
g73
I3
ssg74
g841
sg67
(lp848
S''
asbasbasbag60
(g76
g62
NtRp849
(dp850
g65
(dp851
sg74
g825
sg67
(lp852
g60
(g81
g62
NtRp853
(dp854
g65
(dp855
g85
g86
ssg74
g849
sg67
(lp856
g295
asbag60
(g81
g62
NtRp857
(dp858
g65
(dp859
g92
g93
ssg74
g849
sg67
(lp860
S':'
asbag60
(g81
g62
NtRp861
(dp862
g65
(dp863
sg74
g849
sg67
(lp864
g60
(g61
g62
NtRp865
(dp866
g65
(dp867
g73
I3
ssg74
g861
sg67
(lp868
S''
asbasbasbag60
(g76
g62
NtRp869
(dp870
g65
(dp871
sg74
g825
sg67
(lp872
g60
(g81
g62
NtRp873
(dp874
g65
(dp875
g85
g86
ssg74
g869
sg67
(lp876
g316
asbag60
(g81
g62
NtRp877
(dp878
g65
(dp879
g92
g93
ssg74
g869
sg67
(lp880
S':'
asbag60
(g81
g62
NtRp881
(dp882
g65
(dp883
sg74
g869
sg67
(lp884
g60
(g61
g62
NtRp885
(dp886
g65
(dp887
g73
I3
ssg74
g881
sg67
(lp888
S''
asbasbasbag60
(g76
g62
NtRp889
(dp890
g65
(dp891
sg74
g825
sg67
(lp892
g60
(g81
g62
NtRp893
(dp894
g65
(dp895
g85
g86
ssg74
g889
sg67
(lp896
g337
asbag60
(g81
g62
NtRp897
(dp898
g65
(dp899
g92
g93
ssg74
g889
sg67
(lp900
S':'
asbag60
(g81
g62
NtRp901
(dp902
g65
(dp903
sg74
g889
sg67
(lp904
g60
(g61
g62
NtRp905
(dp906
g65
(dp907
g73
I3
ssg74
g901
sg67
(lp908
S''
asbasbasbag60
(g76
g62
NtRp909
(dp910
g65
(dp911
sg74
g825
sg67
(lp912
g60
(g81
g62
NtRp913
(dp914
g65
(dp915
g85
g86
ssg74
g909
sg67
(lp916
g358
asbag60
(g81
g62
NtRp917
(dp918
g65
(dp919
g92
g93
ssg74
g909
sg67
(lp920
S':'
asbag60
(g81
g62
NtRp921
(dp922
g65
(dp923
sg74
g909
sg67
(lp924
g60
(g61
g62
NtRp925
(dp926
g65
(dp927
g73
I3
ssg74
g921
sg67
(lp928
S''
asbasbasbag60
(g76
g62
NtRp929
(dp930
g65
(dp931
sg74
g825
sg67
(lp932
g60
(g81
g62
NtRp933
(dp934
g65
(dp935
g85
g86
ssg74
g929
sg67
(lp936
g379
asbag60
(g81
g62
NtRp937
(dp938
g65
(dp939
g92
g93
ssg74
g929
sg67
(lp940
S':'
asbag60
(g81
g62
NtRp941
(dp942
g65
(dp943
sg74
g929
sg67
(lp944
g60
(g61
g62
NtRp945
(dp946
g65
(dp947
g73
I3
ssg74
g941
sg67
(lp948
S''
asbasbasbag60
(g76
g62
NtRp949
(dp950
g65
(dp951
sg74
g825
sg67
(lp952
g60
(g81
g62
NtRp953
(dp954
g65
(dp955
g85
g86
ssg74
g949
sg67
(lp956
g400
asbag60
(g81
g62
NtRp957
(dp958
g65
(dp959
g92
g93
ssg74
g949
sg67
(lp960
S':'
asbag60
(g81
g62
NtRp961
(dp962
g65
(dp963
sg74
g949
sg67
(lp964
g60
(g61
g62
NtRp965
(dp966
g65
(dp967
g73
I3
ssg74
g961
sg67
(lp968
S''
asbasbasbag60
(g76
g62
NtRp969
(dp970
g65
(dp971
sg74
g825
sg67
(lp972
g60
(g81
g62
NtRp973
(dp974
g65
(dp975
g85
g86
ssg74
g969
sg67
(lp976
g421
asbag60
(g81
g62
NtRp977
(dp978
g65
(dp979
g92
g93
ssg74
g969
sg67
(lp980
S':'
asbag60
(g81
g62
NtRp981
(dp982
g65
(dp983
sg74
g969
sg67
(lp984
g60
(g61
g62
NtRp985
(dp986
g65
(dp987
g73
I3
ssg74
g981
sg67
(lp988
S''
asbasbasbasbasbasbasbasbasbasbasbag60
(g76
g62
NtRp989
(dp990
g65
(dp991
sg74
g70
sg67
(lp992
g60
(g81
g62
NtRp993
(dp994
g65
(dp995
g85
g86
ssg74
g989
sg67
(lp996
S'env'
p997
asbag60
(g81
g62
NtRp998
(dp999
g65
(dp1000
g92
g93
ssg74
g989
sg67
(lp1001
S':'
asbag60
(g81
g62
NtRp1002
(dp1003
g65
(dp1004
sg74
g989
sg67
(lp1005
g60
(g61
g62
NtRp1006
(dp1007
g65
(dp1008
g73
I5
ssg74
g1002
sg67
(lp1009
g60
(g69
g62
NtRp1010
(dp1011
g65
(dp1012
g73
I4
ssg74
Nsg67
(lp1013
g60
(g76
g62
NtRp1014
(dp1015
g65
(dp1016
sg74
g1010
sg67
(lp1017
g60
(g81
g62
NtRp1018
(dp1019
g65
(dp1020
g85
g86
ssg74
g1014
sg67
(lp1021
S'app_folders'
p1022
asbag60
(g81
g62
NtRp1023
(dp1024
g65
(dp1025
g92
g93
ssg74
g1014
sg67
(lp1026
S':'
asbag60
(g81
g62
NtRp1027
(dp1028
g65
(dp1029
sg74
g1014
sg67
(lp1030
g60
(g61
g62
NtRp1031
(dp1032
g65
(dp1033
g73
I4
ssg74
g1027
sg67
(lp1034
S"set(['/home/u4hcsdaw/Python/web2py/applications/ACES/', '/home/u4hcsdaw/Python/web2py/applications/admin/', '/home/u4hcsdaw/Python/web2py/applications/welcome/', '/home/u4hcsdaw/Python/web2py/applications/DALEX1/'])"
p1035
asbasbasbag60
(g76
g62
NtRp1036
(dp1037
g65
(dp1038
sg74
g1010
sg67
(lp1039
g60
(g81
g62
NtRp1040
(dp1041
g65
(dp1042
g85
g86
ssg74
g1036
sg67
(lp1043
S'applications_parent'
p1044
asbag60
(g81
g62
NtRp1045
(dp1046
g65
(dp1047
g92
g93
ssg74
g1036
sg67
(lp1048
S':'
asbag60
(g81
g62
NtRp1049
(dp1050
g65
(dp1051
sg74
g1036
sg67
(lp1052
g60
(g61
g62
NtRp1053
(dp1054
g65
(dp1055
g73
I4
ssg74
g1049
sg67
(lp1056
S'/home/u4hcsdaw/Python/web2py'
p1057
asbasbasbag60
(g76
g62
NtRp1058
(dp1059
g65
(dp1060
sg74
g1010
sg67
(lp1061
g60
(g81
g62
NtRp1062
(dp1063
g65
(dp1064
g85
g86
ssg74
g1058
sg67
(lp1065
S'cmd_args'
p1066
asbag60
(g81
g62
NtRp1067
(dp1068
g65
(dp1069
g92
g93
ssg74
g1058
sg67
(lp1070
S':'
asbag60
(g81
g62
NtRp1071
(dp1072
g65
(dp1073
sg74
g1058
sg67
(lp1074
g60
(g61
g62
NtRp1075
(dp1076
g65
(dp1077
g73
I4
ssg74
g1071
sg67
(lp1078
g60
(g69
g62
NtRp1079
(dp1080
g65
(dp1081
g73
I3
ssg74
Nsg67
(lp1082
sbasbasbasbag60
(g76
g62
NtRp1083
(dp1084
g65
(dp1085
sg74
g1010
sg67
(lp1086
g60
(g81
g62
NtRp1087
(dp1088
g65
(dp1089
g85
g86
ssg74
g1083
sg67
(lp1090
S'cmd_options'
p1091
asbag60
(g81
g62
NtRp1092
(dp1093
g65
(dp1094
g92
g93
ssg74
g1083
sg67
(lp1095
S':'
asbag60
(g81
g62
NtRp1096
(dp1097
g65
(dp1098
sg74
g1083
sg67
(lp1099
g60
(g61
g62
NtRp1100
(dp1101
g65
(dp1102
g73
I4
ssg74
g1096
sg67
(lp1103
S"<Values at 0xa7a4aec: {'verbose': False, 'ip': '127.0.0.1', 'shutdown_timeout': 5, 'taskbar': False, 'nocron': False, 'pid_filename': 'httpserver.pid', 'maxthreads': None, 'softcron': False, 'server_name': 'chl-5833E', 'bpython': False, 'nogui': False, 'port': 8000, 'extcron': False, 'debuglevel': 30, 'test': None, 'folder': '/home/u4hcsdaw/Python/web2py', 'config': '', 'import_models': False, 'winservice': '', 'shell': None, 'run': '', 'log_filename': 'httpserver.log', 'args': [''], 'ssl_ca_certificate': None, 'scheduler': None, 'profiler_filename': None, 'ssl_private_key': '', 'password': '<ask>', 'request_queue_size': 5, 'ssl_certificate': '', 'cronjob': False, 'plain': False, 'quiet': False, 'interfaces': None, 'minthreads': None, 'timeout': 10, 'numthreads': None, 'nobanner': False}>"
p1104
asbasbasbag60
(g76
g62
NtRp1105
(dp1106
g65
(dp1107
sg74
g1010
sg67
(lp1108
g60
(g81
g62
NtRp1109
(dp1110
g65
(dp1111
g85
g86
ssg74
g1105
sg67
(lp1112
S'content_length'
p1113
asbag60
(g81
g62
NtRp1114
(dp1115
g65
(dp1116
g92
g93
ssg74
g1105
sg67
(lp1117
S':'
asbag60
(g81
g62
NtRp1118
(dp1119
g65
(dp1120
sg74
g1105
sg67
(lp1121
g60
(g61
g62
NtRp1122
(dp1123
g65
(dp1124
g73
I4
ssg74
g1118
sg67
(lp1125
S'817'
p1126
asbasbasbag60
(g76
g62
NtRp1127
(dp1128
g65
(dp1129
sg74
g1010
sg67
(lp1130
g60
(g81
g62
NtRp1131
(dp1132
g65
(dp1133
g85
g86
ssg74
g1127
sg67
(lp1134
S'content_type'
p1135
asbag60
(g81
g62
NtRp1136
(dp1137
g65
(dp1138
g92
g93
ssg74
g1127
sg67
(lp1139
S':'
asbag60
(g81
g62
NtRp1140
(dp1141
g65
(dp1142
sg74
g1127
sg67
(lp1143
g60
(g61
g62
NtRp1144
(dp1145
g65
(dp1146
g73
I4
ssg74
g1140
sg67
(lp1147
S'multipart/form-data; boundary=---------------------------1321180293462798504504840915'
p1148
asbasbasbag60
(g76
g62
NtRp1149
(dp1150
g65
(dp1151
sg74
g1010
sg67
(lp1152
g60
(g81
g62
NtRp1153
(dp1154
g65
(dp1155
g85
g86
ssg74
g1149
sg67
(lp1156
S'db_sessions'
p1157
asbag60
(g81
g62
NtRp1158
(dp1159
g65
(dp1160
g92
g93
ssg74
g1149
sg67
(lp1161
S':'
asbag60
(g81
g62
NtRp1162
(dp1163
g65
(dp1164
sg74
g1149
sg67
(lp1165
g60
(g61
g62
NtRp1166
(dp1167
g65
(dp1168
g73
I4
ssg74
g1162
sg67
(lp1169
S'set([])'
p1170
asbasbasbag60
(g76
g62
NtRp1171
(dp1172
g65
(dp1173
sg74
g1010
sg67
(lp1174
g60
(g81
g62
NtRp1175
(dp1176
g65
(dp1177
g85
g86
ssg74
g1171
sg67
(lp1178
S'debugging'
p1179
asbag60
(g81
g62
NtRp1180
(dp1181
g65
(dp1182
g92
g93
ssg74
g1171
sg67
(lp1183
S':'
asbag60
(g81
g62
NtRp1184
(dp1185
g65
(dp1186
sg74
g1171
sg67
(lp1187
g60
(g61
g62
NtRp1188
(dp1189
g65
(dp1190
g73
I4
ssg74
g1184
sg67
(lp1191
g103
asbasbasbag60
(g76
g62
NtRp1192
(dp1193
g65
(dp1194
sg74
g1010
sg67
(lp1195
g60
(g81
g62
NtRp1196
(dp1197
g65
(dp1198
g85
g86
ssg74
g1192
sg67
(lp1199
S'gluon_parent'
p1200
asbag60
(g81
g62
NtRp1201
(dp1202
g65
(dp1203
g92
g93
ssg74
g1192
sg67
(lp1204
S':'
asbag60
(g81
g62
NtRp1205
(dp1206
g65
(dp1207
sg74
g1192
sg67
(lp1208
g60
(g61
g62
NtRp1209
(dp1210
g65
(dp1211
g73
I4
ssg74
g1205
sg67
(lp1212
S'/home/u4hcsdaw/Python/web2py'
p1213
asbasbasbag60
(g76
g62
NtRp1214
(dp1215
g65
(dp1216
sg74
g1010
sg67
(lp1217
g60
(g81
g62
NtRp1218
(dp1219
g65
(dp1220
g85
g86
ssg74
g1214
sg67
(lp1221
S'http_accept'
p1222
asbag60
(g81
g62
NtRp1223
(dp1224
g65
(dp1225
g92
g93
ssg74
g1214
sg67
(lp1226
S':'
asbag60
(g81
g62
NtRp1227
(dp1228
g65
(dp1229
sg74
g1214
sg67
(lp1230
g60
(g61
g62
NtRp1231
(dp1232
g65
(dp1233
g73
I4
ssg74
g1227
sg67
(lp1234
S'text/html,application/xhtml+xml,application/xml;q=0.9,*/*;q=0.8'
p1235
asbasbasbag60
(g76
g62
NtRp1236
(dp1237
g65
(dp1238
sg74
g1010
sg67
(lp1239
g60
(g81
g62
NtRp1240
(dp1241
g65
(dp1242
g85
g86
ssg74
g1236
sg67
(lp1243
S'http_accept_encoding'
p1244
asbag60
(g81
g62
NtRp1245
(dp1246
g65
(dp1247
g92
g93
ssg74
g1236
sg67
(lp1248
S':'
asbag60
(g81
g62
NtRp1249
(dp1250
g65
(dp1251
sg74
g1236
sg67
(lp1252
g60
(g61
g62
NtRp1253
(dp1254
g65
(dp1255
g73
I4
ssg74
g1249
sg67
(lp1256
S'gzip, deflate'
p1257
asbasbasbag60
(g76
g62
NtRp1258
(dp1259
g65
(dp1260
sg74
g1010
sg67
(lp1261
g60
(g81
g62
NtRp1262
(dp1263
g65
(dp1264
g85
g86
ssg74
g1258
sg67
(lp1265
S'http_accept_language'
p1266
asbag60
(g81
g62
NtRp1267
(dp1268
g65
(dp1269
g92
g93
ssg74
g1258
sg67
(lp1270
S':'
asbag60
(g81
g62
NtRp1271
(dp1272
g65
(dp1273
sg74
g1258
sg67
(lp1274
g60
(g61
g62
NtRp1275
(dp1276
g65
(dp1277
g73
I4
ssg74
g1271
sg67
(lp1278
S'en-us,en;q=0.5'
p1279
asbasbasbag60
(g76
g62
NtRp1280
(dp1281
g65
(dp1282
sg74
g1010
sg67
(lp1283
g60
(g81
g62
NtRp1284
(dp1285
g65
(dp1286
g85
g86
ssg74
g1280
sg67
(lp1287
S'http_cache_control'
p1288
asbag60
(g81
g62
NtRp1289
(dp1290
g65
(dp1291
g92
g93
ssg74
g1280
sg67
(lp1292
S':'
asbag60
(g81
g62
NtRp1293
(dp1294
g65
(dp1295
sg74
g1280
sg67
(lp1296
g60
(g61
g62
NtRp1297
(dp1298
g65
(dp1299
g73
I4
ssg74
g1293
sg67
(lp1300
S'max-age=0'
p1301
asbasbasbag60
(g76
g62
NtRp1302
(dp1303
g65
(dp1304
sg74
g1010
sg67
(lp1305
g60
(g81
g62
NtRp1306
(dp1307
g65
(dp1308
g85
g86
ssg74
g1302
sg67
(lp1309
S'http_connection'
p1310
asbag60
(g81
g62
NtRp1311
(dp1312
g65
(dp1313
g92
g93
ssg74
g1302
sg67
(lp1314
S':'
asbag60
(g81
g62
NtRp1315
(dp1316
g65
(dp1317
sg74
g1302
sg67
(lp1318
g60
(g61
g62
NtRp1319
(dp1320
g65
(dp1321
g73
I4
ssg74
g1315
sg67
(lp1322
S'keep-alive'
p1323
asbasbasbag60
(g76
g62
NtRp1324
(dp1325
g65
(dp1326
sg74
g1010
sg67
(lp1327
g60
(g81
g62
NtRp1328
(dp1329
g65
(dp1330
g85
g86
ssg74
g1324
sg67
(lp1331
S'http_content_length'
p1332
asbag60
(g81
g62
NtRp1333
(dp1334
g65
(dp1335
g92
g93
ssg74
g1324
sg67
(lp1336
S':'
asbag60
(g81
g62
NtRp1337
(dp1338
g65
(dp1339
sg74
g1324
sg67
(lp1340
g60
(g61
g62
NtRp1341
(dp1342
g65
(dp1343
g73
I4
ssg74
g1337
sg67
(lp1344
g1126
asbasbasbag60
(g76
g62
NtRp1345
(dp1346
g65
(dp1347
sg74
g1010
sg67
(lp1348
g60
(g81
g62
NtRp1349
(dp1350
g65
(dp1351
g85
g86
ssg74
g1345
sg67
(lp1352
S'http_content_type'
p1353
asbag60
(g81
g62
NtRp1354
(dp1355
g65
(dp1356
g92
g93
ssg74
g1345
sg67
(lp1357
S':'
asbag60
(g81
g62
NtRp1358
(dp1359
g65
(dp1360
sg74
g1345
sg67
(lp1361
g60
(g61
g62
NtRp1362
(dp1363
g65
(dp1364
g73
I4
ssg74
g1358
sg67
(lp1365
g1148
asbasbasbag60
(g76
g62
NtRp1366
(dp1367
g65
(dp1368
sg74
g1010
sg67
(lp1369
g60
(g81
g62
NtRp1370
(dp1371
g65
(dp1372
g85
g86
ssg74
g1366
sg67
(lp1373
S'http_cookie'
p1374
asbag60
(g81
g62
NtRp1375
(dp1376
g65
(dp1377
g92
g93
ssg74
g1366
sg67
(lp1378
S':'
asbag60
(g81
g62
NtRp1379
(dp1380
g65
(dp1381
sg74
g1366
sg67
(lp1382
g60
(g61
g62
NtRp1383
(dp1384
g65
(dp1385
g73
I4
ssg74
g1379
sg67
(lp1386
S'session_id_welcome=127.0.0.1-78623fe9-ce00-476c-927f-eafcf49cd1de; session_id_admin=127.0.0.1-3a2cfaf5-caac-46cf-9bb6-feec5e929e91; session_id_dalex1=127.0.0.1-9de07f4f-e749-4ea4-acf8-21d98c9698ae; session_id_aces=127.0.0.1-fa323a39-b4f7-4824-aae1-5c3174579522'
p1387
asbasbasbag60
(g76
g62
NtRp1388
(dp1389
g65
(dp1390
sg74
g1010
sg67
(lp1391
g60
(g81
g62
NtRp1392
(dp1393
g65
(dp1394
g85
g86
ssg74
g1388
sg67
(lp1395
S'http_host'
p1396
asbag60
(g81
g62
NtRp1397
(dp1398
g65
(dp1399
g92
g93
ssg74
g1388
sg67
(lp1400
S':'
asbag60
(g81
g62
NtRp1401
(dp1402
g65
(dp1403
sg74
g1388
sg67
(lp1404
g60
(g61
g62
NtRp1405
(dp1406
g65
(dp1407
g73
I4
ssg74
g1401
sg67
(lp1408
S'127.0.0.1:8000'
p1409
asbasbasbag60
(g76
g62
NtRp1410
(dp1411
g65
(dp1412
sg74
g1010
sg67
(lp1413
g60
(g81
g62
NtRp1414
(dp1415
g65
(dp1416
g85
g86
ssg74
g1410
sg67
(lp1417
S'http_referer'
p1418
asbag60
(g81
g62
NtRp1419
(dp1420
g65
(dp1421
g92
g93
ssg74
g1410
sg67
(lp1422
S':'
asbag60
(g81
g62
NtRp1423
(dp1424
g65
(dp1425
sg74
g1410
sg67
(lp1426
g60
(g61
g62
NtRp1427
(dp1428
g65
(dp1429
g73
I4
ssg74
g1423
sg67
(lp1430
S'http://127.0.0.1:8000/ACES/default/index'
p1431
asbasbasbag60
(g76
g62
NtRp1432
(dp1433
g65
(dp1434
sg74
g1010
sg67
(lp1435
g60
(g81
g62
NtRp1436
(dp1437
g65
(dp1438
g85
g86
ssg74
g1432
sg67
(lp1439
S'http_user_agent'
p1440
asbag60
(g81
g62
NtRp1441
(dp1442
g65
(dp1443
g92
g93
ssg74
g1432
sg67
(lp1444
S':'
asbag60
(g81
g62
NtRp1445
(dp1446
g65
(dp1447
sg74
g1432
sg67
(lp1448
g60
(g61
g62
NtRp1449
(dp1450
g65
(dp1451
g73
I4
ssg74
g1445
sg67
(lp1452
S'Mozilla/5.0 (X11; Ubuntu; Linux i686; rv:13.0) Gecko/20100101 Firefox/13.0.1'
p1453
asbasbasbag60
(g76
g62
NtRp1454
(dp1455
g65
(dp1456
sg74
g1010
sg67
(lp1457
g60
(g81
g62
NtRp1458
(dp1459
g65
(dp1460
g85
g86
ssg74
g1454
sg67
(lp1461
S'is_jython'
p1462
asbag60
(g81
g62
NtRp1463
(dp1464
g65
(dp1465
g92
g93
ssg74
g1454
sg67
(lp1466
S':'
asbag60
(g81
g62
NtRp1467
(dp1468
g65
(dp1469
sg74
g1454
sg67
(lp1470
g60
(g61
g62
NtRp1471
(dp1472
g65
(dp1473
g73
I4
ssg74
g1467
sg67
(lp1474
g103
asbasbasbag60
(g76
g62
NtRp1475
(dp1476
g65
(dp1477
sg74
g1010
sg67
(lp1478
g60
(g81
g62
NtRp1479
(dp1480
g65
(dp1481
g85
g86
ssg74
g1475
sg67
(lp1482
S'path_info'
p1483
asbag60
(g81
g62
NtRp1484
(dp1485
g65
(dp1486
g92
g93
ssg74
g1475
sg67
(lp1487
S':'
asbag60
(g81
g62
NtRp1488
(dp1489
g65
(dp1490
sg74
g1475
sg67
(lp1491
g60
(g61
g62
NtRp1492
(dp1493
g65
(dp1494
g73
I4
ssg74
g1488
sg67
(lp1495
S'/ACES/default/index'
p1496
asbasbasbag60
(g76
g62
NtRp1497
(dp1498
g65
(dp1499
sg74
g1010
sg67
(lp1500
g60
(g81
g62
NtRp1501
(dp1502
g65
(dp1503
g85
g86
ssg74
g1497
sg67
(lp1504
S'query_string'
p1505
asbag60
(g81
g62
NtRp1506
(dp1507
g65
(dp1508
g92
g93
ssg74
g1497
sg67
(lp1509
S':'
asbag60
(g81
g62
NtRp1510
(dp1511
g65
(dp1512
sg74
g1497
sg67
(lp1513
g60
(g61
g62
NtRp1514
(dp1515
g65
(dp1516
g73
I4
ssg74
g1510
sg67
(lp1517
S''
asbasbasbag60
(g76
g62
NtRp1518
(dp1519
g65
(dp1520
sg74
g1010
sg67
(lp1521
g60
(g81
g62
NtRp1522
(dp1523
g65
(dp1524
g85
g86
ssg74
g1518
sg67
(lp1525
S'remote_addr'
p1526
asbag60
(g81
g62
NtRp1527
(dp1528
g65
(dp1529
g92
g93
ssg74
g1518
sg67
(lp1530
S':'
asbag60
(g81
g62
NtRp1531
(dp1532
g65
(dp1533
sg74
g1518
sg67
(lp1534
g60
(g61
g62
NtRp1535
(dp1536
g65
(dp1537
g73
I4
ssg74
g1531
sg67
(lp1538
g193
asbasbasbag60
(g76
g62
NtRp1539
(dp1540
g65
(dp1541
sg74
g1010
sg67
(lp1542
g60
(g81
g62
NtRp1543
(dp1544
g65
(dp1545
g85
g86
ssg74
g1539
sg67
(lp1546
S'remote_port'
p1547
asbag60
(g81
g62
NtRp1548
(dp1549
g65
(dp1550
g92
g93
ssg74
g1539
sg67
(lp1551
S':'
asbag60
(g81
g62
NtRp1552
(dp1553
g65
(dp1554
sg74
g1539
sg67
(lp1555
g60
(g61
g62
NtRp1556
(dp1557
g65
(dp1558
g73
I4
ssg74
g1552
sg67
(lp1559
S'56243'
p1560
asbasbasbag60
(g76
g62
NtRp1561
(dp1562
g65
(dp1563
sg74
g1010
sg67
(lp1564
g60
(g81
g62
NtRp1565
(dp1566
g65
(dp1567
g85
g86
ssg74
g1561
sg67
(lp1568
S'request_method'
p1569
asbag60
(g81
g62
NtRp1570
(dp1571
g65
(dp1572
g92
g93
ssg74
g1561
sg67
(lp1573
S':'
asbag60
(g81
g62
NtRp1574
(dp1575
g65
(dp1576
sg74
g1561
sg67
(lp1577
g60
(g61
g62
NtRp1578
(dp1579
g65
(dp1580
g73
I4
ssg74
g1574
sg67
(lp1581
S'POST'
p1582
asbasbasbag60
(g76
g62
NtRp1583
(dp1584
g65
(dp1585
sg74
g1010
sg67
(lp1586
g60
(g81
g62
NtRp1587
(dp1588
g65
(dp1589
g85
g86
ssg74
g1583
sg67
(lp1590
S'script_name'
p1591
asbag60
(g81
g62
NtRp1592
(dp1593
g65
(dp1594
g92
g93
ssg74
g1583
sg67
(lp1595
S':'
asbag60
(g81
g62
NtRp1596
(dp1597
g65
(dp1598
sg74
g1583
sg67
(lp1599
g60
(g61
g62
NtRp1600
(dp1601
g65
(dp1602
g73
I4
ssg74
g1596
sg67
(lp1603
S''
asbasbasbag60
(g76
g62
NtRp1604
(dp1605
g65
(dp1606
sg74
g1010
sg67
(lp1607
g60
(g81
g62
NtRp1608
(dp1609
g65
(dp1610
g85
g86
ssg74
g1604
sg67
(lp1611
S'server_name'
p1612
asbag60
(g81
g62
NtRp1613
(dp1614
g65
(dp1615
g92
g93
ssg74
g1604
sg67
(lp1616
S':'
asbag60
(g81
g62
NtRp1617
(dp1618
g65
(dp1619
sg74
g1604
sg67
(lp1620
g60
(g61
g62
NtRp1621
(dp1622
g65
(dp1623
g73
I4
ssg74
g1617
sg67
(lp1624
S'chl-5833E'
p1625
asbasbasbag60
(g76
g62
NtRp1626
(dp1627
g65
(dp1628
sg74
g1010
sg67
(lp1629
g60
(g81
g62
NtRp1630
(dp1631
g65
(dp1632
g85
g86
ssg74
g1626
sg67
(lp1633
S'server_port'
p1634
asbag60
(g81
g62
NtRp1635
(dp1636
g65
(dp1637
g92
g93
ssg74
g1626
sg67
(lp1638
S':'
asbag60
(g81
g62
NtRp1639
(dp1640
g65
(dp1641
sg74
g1626
sg67
(lp1642
g60
(g61
g62
NtRp1643
(dp1644
g65
(dp1645
g73
I4
ssg74
g1639
sg67
(lp1646
S'8000'
p1647
asbasbasbag60
(g76
g62
NtRp1648
(dp1649
g65
(dp1650
sg74
g1010
sg67
(lp1651
g60
(g81
g62
NtRp1652
(dp1653
g65
(dp1654
g85
g86
ssg74
g1648
sg67
(lp1655
S'server_protocol'
p1656
asbag60
(g81
g62
NtRp1657
(dp1658
g65
(dp1659
g92
g93
ssg74
g1648
sg67
(lp1660
S':'
asbag60
(g81
g62
NtRp1661
(dp1662
g65
(dp1663
sg74
g1648
sg67
(lp1664
g60
(g61
g62
NtRp1665
(dp1666
g65
(dp1667
g73
I4
ssg74
g1661
sg67
(lp1668
S'HTTP/1.1'
p1669
asbasbasbag60
(g76
g62
NtRp1670
(dp1671
g65
(dp1672
sg74
g1010
sg67
(lp1673
g60
(g81
g62
NtRp1674
(dp1675
g65
(dp1676
g85
g86
ssg74
g1670
sg67
(lp1677
S'server_software'
p1678
asbag60
(g81
g62
NtRp1679
(dp1680
g65
(dp1681
g92
g93
ssg74
g1670
sg67
(lp1682
S':'
asbag60
(g81
g62
NtRp1683
(dp1684
g65
(dp1685
sg74
g1670
sg67
(lp1686
g60
(g61
g62
NtRp1687
(dp1688
g65
(dp1689
g73
I4
ssg74
g1683
sg67
(lp1690
S'Rocket 1.2.4'
p1691
asbasbasbag60
(g76
g62
NtRp1692
(dp1693
g65
(dp1694
sg74
g1010
sg67
(lp1695
g60
(g81
g62
NtRp1696
(dp1697
g65
(dp1698
g85
g86
ssg74
g1692
sg67
(lp1699
S'web2py_crontype'
p1700
asbag60
(g81
g62
NtRp1701
(dp1702
g65
(dp1703
g92
g93
ssg74
g1692
sg67
(lp1704
S':'
asbag60
(g81
g62
NtRp1705
(dp1706
g65
(dp1707
sg74
g1692
sg67
(lp1708
g60
(g61
g62
NtRp1709
(dp1710
g65
(dp1711
g73
I4
ssg74
g1705
sg67
(lp1712
S'hard'
p1713
asbasbasbag60
(g76
g62
NtRp1714
(dp1715
g65
(dp1716
sg74
g1010
sg67
(lp1717
g60
(g81
g62
NtRp1718
(dp1719
g65
(dp1720
g85
g86
ssg74
g1714
sg67
(lp1721
S'web2py_path'
p1722
asbag60
(g81
g62
NtRp1723
(dp1724
g65
(dp1725
g92
g93
ssg74
g1714
sg67
(lp1726
S':'
asbag60
(g81
g62
NtRp1727
(dp1728
g65
(dp1729
sg74
g1714
sg67
(lp1730
g60
(g61
g62
NtRp1731
(dp1732
g65
(dp1733
g73
I4
ssg74
g1727
sg67
(lp1734
g1057
asbasbasbag60
(g76
g62
NtRp1735
(dp1736
g65
(dp1737
sg74
g1010
sg67
(lp1738
g60
(g81
g62
NtRp1739
(dp1740
g65
(dp1741
g85
g86
ssg74
g1735
sg67
(lp1742
S'web2py_version'
p1743
asbag60
(g81
g62
NtRp1744
(dp1745
g65
(dp1746
g92
g93
ssg74
g1735
sg67
(lp1747
S':'
asbag60
(g81
g62
NtRp1748
(dp1749
g65
(dp1750
sg74
g1735
sg67
(lp1751
g60
(g61
g62
NtRp1752
(dp1753
g65
(dp1754
g73
I4
ssg74
g1748
sg67
(lp1755
g60
(g69
g62
NtRp1756
(dp1757
g65
(dp1758
g73
I3
ssg74
Nsg67
(lp1759
g60
(g76
g62
NtRp1760
(dp1761
g65
(dp1762
sg74
g1756
sg67
(lp1763
g60
(g81
g62
NtRp1764
(dp1765
g65
(dp1766
sg74
g1760
sg67
(lp1767
g60
(g61
g62
NtRp1768
(dp1769
g65
(dp1770
g73
I3
ssg74
g1764
sg67
(lp1771
S'1'
asbasbasbag60
(g76
g62
NtRp1772
(dp1773
g65
(dp1774
sg74
g1756
sg67
(lp1775
g60
(g81
g62
NtRp1776
(dp1777
g65
(dp1778
sg74
g1772
sg67
(lp1779
g60
(g61
g62
NtRp1780
(dp1781
g65
(dp1782
g73
I3
ssg74
g1776
sg67
(lp1783
S'99'
p1784
asbasbasbag60
(g76
g62
NtRp1785
(dp1786
g65
(dp1787
sg74
g1756
sg67
(lp1788
g60
(g81
g62
NtRp1789
(dp1790
g65
(dp1791
sg74
g1785
sg67
(lp1792
g60
(g61
g62
NtRp1793
(dp1794
g65
(dp1795
g73
I3
ssg74
g1789
sg67
(lp1796
S'2'
asbasbasbag60
(g76
g62
NtRp1797
(dp1798
g65
(dp1799
sg74
g1756
sg67
(lp1800
g60
(g81
g62
NtRp1801
(dp1802
g65
(dp1803
sg74
g1797
sg67
(lp1804
g60
(g61
g62
NtRp1805
(dp1806
g65
(dp1807
g73
I3
ssg74
g1801
sg67
(lp1808
S'datetime.datetime(2011, 9, 26, 6, 55, 33)'
p1809
asbasbasbag60
(g76
g62
NtRp1810
(dp1811
g65
(dp1812
sg74
g1756
sg67
(lp1813
g60
(g81
g62
NtRp1814
(dp1815
g65
(dp1816
sg74
g1810
sg67
(lp1817
g60
(g61
g62
NtRp1818
(dp1819
g65
(dp1820
g73
I3
ssg74
g1814
sg67
(lp1821
S'stable'
p1822
asbasbasbasbasbasbasbag60
(g76
g62
NtRp1823
(dp1824
g65
(dp1825
sg74
g1010
sg67
(lp1826
g60
(g81
g62
NtRp1827
(dp1828
g65
(dp1829
g85
g86
ssg74
g1823
sg67
(lp1830
S'wsgi_errors'
p1831
asbag60
(g81
g62
NtRp1832
(dp1833
g65
(dp1834
g92
g93
ssg74
g1823
sg67
(lp1835
S':'
asbag60
(g81
g62
NtRp1836
(dp1837
g65
(dp1838
sg74
g1823
sg67
(lp1839
g60
(g61
g62
NtRp1840
(dp1841
g65
(dp1842
g73
I4
ssg74
g1836
sg67
(lp1843
S"<open file '<stderr>', mode 'w' at 0xb73360d0>"
p1844
asbasbasbag60
(g76
g62
NtRp1845
(dp1846
g65
(dp1847
sg74
g1010
sg67
(lp1848
g60
(g81
g62
NtRp1849
(dp1850
g65
(dp1851
g85
g86
ssg74
g1845
sg67
(lp1852
S'wsgi_file_wrapper'
p1853
asbag60
(g81
g62
NtRp1854
(dp1855
g65
(dp1856
g92
g93
ssg74
g1845
sg67
(lp1857
S':'
asbag60
(g81
g62
NtRp1858
(dp1859
g65
(dp1860
sg74
g1845
sg67
(lp1861
g60
(g61
g62
NtRp1862
(dp1863
g65
(dp1864
g73
I4
ssg74
g1858
sg67
(lp1865
S'<class wsgiref.util.FileWrapper at 0xa6e1b3c>'
p1866
asbasbasbag60
(g76
g62
NtRp1867
(dp1868
g65
(dp1869
sg74
g1010
sg67
(lp1870
g60
(g81
g62
NtRp1871
(dp1872
g65
(dp1873
g85
g86
ssg74
g1867
sg67
(lp1874
S'wsgi_input'
p1875
asbag60
(g81
g62
NtRp1876
(dp1877
g65
(dp1878
g92
g93
ssg74
g1867
sg67
(lp1879
S':'
asbag60
(g81
g62
NtRp1880
(dp1881
g65
(dp1882
sg74
g1867
sg67
(lp1883
g60
(g61
g62
NtRp1884
(dp1885
g65
(dp1886
g73
I4
ssg74
g1880
sg67
(lp1887
S'<socket._fileobject object at 0xacc5a72c>'
p1888
asbasbasbag60
(g76
g62
NtRp1889
(dp1890
g65
(dp1891
sg74
g1010
sg67
(lp1892
g60
(g81
g62
NtRp1893
(dp1894
g65
(dp1895
g85
g86
ssg74
g1889
sg67
(lp1896
S'wsgi_multiprocess'
p1897
asbag60
(g81
g62
NtRp1898
(dp1899
g65
(dp1900
g92
g93
ssg74
g1889
sg67
(lp1901
S':'
asbag60
(g81
g62
NtRp1902
(dp1903
g65
(dp1904
sg74
g1889
sg67
(lp1905
g60
(g61
g62
NtRp1906
(dp1907
g65
(dp1908
g73
I4
ssg74
g1902
sg67
(lp1909
g103
asbasbasbag60
(g76
g62
NtRp1910
(dp1911
g65
(dp1912
sg74
g1010
sg67
(lp1913
g60
(g81
g62
NtRp1914
(dp1915
g65
(dp1916
g85
g86
ssg74
g1910
sg67
(lp1917
S'wsgi_multithread'
p1918
asbag60
(g81
g62
NtRp1919
(dp1920
g65
(dp1921
g92
g93
ssg74
g1910
sg67
(lp1922
S':'
asbag60
(g81
g62
NtRp1923
(dp1924
g65
(dp1925
sg74
g1910
sg67
(lp1926
g60
(g61
g62
NtRp1927
(dp1928
g65
(dp1929
g73
I4
ssg74
g1923
sg67
(lp1930
S'True'
p1931
asbasbasbag60
(g76
g62
NtRp1932
(dp1933
g65
(dp1934
sg74
g1010
sg67
(lp1935
g60
(g81
g62
NtRp1936
(dp1937
g65
(dp1938
g85
g86
ssg74
g1932
sg67
(lp1939
S'wsgi_run_once'
p1940
asbag60
(g81
g62
NtRp1941
(dp1942
g65
(dp1943
g92
g93
ssg74
g1932
sg67
(lp1944
S':'
asbag60
(g81
g62
NtRp1945
(dp1946
g65
(dp1947
sg74
g1932
sg67
(lp1948
g60
(g61
g62
NtRp1949
(dp1950
g65
(dp1951
g73
I4
ssg74
g1945
sg67
(lp1952
g103
asbasbasbag60
(g76
g62
NtRp1953
(dp1954
g65
(dp1955
sg74
g1010
sg67
(lp1956
g60
(g81
g62
NtRp1957
(dp1958
g65
(dp1959
g85
g86
ssg74
g1953
sg67
(lp1960
S'wsgi_url_scheme'
p1961
asbag60
(g81
g62
NtRp1962
(dp1963
g65
(dp1964
g92
g93
ssg74
g1953
sg67
(lp1965
S':'
asbag60
(g81
g62
NtRp1966
(dp1967
g65
(dp1968
sg74
g1953
sg67
(lp1969
g60
(g61
g62
NtRp1970
(dp1971
g65
(dp1972
g73
I4
ssg74
g1966
sg67
(lp1973
S'http'
p1974
asbasbasbag60
(g76
g62
NtRp1975
(dp1976
g65
(dp1977
sg74
g1010
sg67
(lp1978
g60
(g81
g62
NtRp1979
(dp1980
g65
(dp1981
g85
g86
ssg74
g1975
sg67
(lp1982
S'wsgi_version'
p1983
asbag60
(g81
g62
NtRp1984
(dp1985
g65
(dp1986
g92
g93
ssg74
g1975
sg67
(lp1987
S':'
asbag60
(g81
g62
NtRp1988
(dp1989
g65
(dp1990
sg74
g1975
sg67
(lp1991
g60
(g61
g62
NtRp1992
(dp1993
g65
(dp1994
g73
I4
ssg74
g1988
sg67
(lp1995
g60
(g69
g62
NtRp1996
(dp1997
g65
(dp1998
g73
I3
ssg74
Nsg67
(lp1999
g60
(g76
g62
NtRp2000
(dp2001
g65
(dp2002
sg74
g1996
sg67
(lp2003
g60
(g81
g62
NtRp2004
(dp2005
g65
(dp2006
sg74
g2000
sg67
(lp2007
g60
(g61
g62
NtRp2008
(dp2009
g65
(dp2010
g73
I3
ssg74
g2004
sg67
(lp2011
S'1'
asbasbasbag60
(g76
g62
NtRp2012
(dp2013
g65
(dp2014
sg74
g1996
sg67
(lp2015
g60
(g81
g62
NtRp2016
(dp2017
g65
(dp2018
sg74
g2012
sg67
(lp2019
g60
(g61
g62
NtRp2020
(dp2021
g65
(dp2022
g73
I3
ssg74
g2016
sg67
(lp2023
S'0'
asbasbasbasbasbasbasbasbasbasbasbag60
(g76
g62
NtRp2024
(dp2025
g65
(dp2026
sg74
g70
sg67
(lp2027
g60
(g81
g62
NtRp2028
(dp2029
g65
(dp2030
g85
g86
ssg74
g2024
sg67
(lp2031
S'extension'
p2032
asbag60
(g81
g62
NtRp2033
(dp2034
g65
(dp2035
g92
g93
ssg74
g2024
sg67
(lp2036
S':'
asbag60
(g81
g62
NtRp2037
(dp2038
g65
(dp2039
sg74
g2024
sg67
(lp2040
g60
(g61
g62
NtRp2041
(dp2042
g65
(dp2043
g73
I5
ssg74
g2037
sg67
(lp2044
S'html'
p2045
asbasbasbag60
(g76
g62
NtRp2046
(dp2047
g65
(dp2048
sg74
g70
sg67
(lp2049
g60
(g81
g62
NtRp2050
(dp2051
g65
(dp2052
g85
g86
ssg74
g2046
sg67
(lp2053
S'folder'
p2054
asbag60
(g81
g62
NtRp2055
(dp2056
g65
(dp2057
g92
g93
ssg74
g2046
sg67
(lp2058
S':'
asbag60
(g81
g62
NtRp2059
(dp2060
g65
(dp2061
sg74
g2046
sg67
(lp2062
g60
(g61
g62
NtRp2063
(dp2064
g65
(dp2065
g73
I5
ssg74
g2059
sg67
(lp2066
S'/home/u4hcsdaw/Python/web2py/applications/ACES/'
p2067
asbasbasbag60
(g76
g62
NtRp2068
(dp2069
g65
(dp2070
sg74
g70
sg67
(lp2071
g60
(g81
g62
NtRp2072
(dp2073
g65
(dp2074
g85
g86
ssg74
g2068
sg67
(lp2075
S'function'
p2076
asbag60
(g81
g62
NtRp2077
(dp2078
g65
(dp2079
g92
g93
ssg74
g2068
sg67
(lp2080
S':'
asbag60
(g81
g62
NtRp2081
(dp2082
g65
(dp2083
sg74
g2068
sg67
(lp2084
g60
(g61
g62
NtRp2085
(dp2086
g65
(dp2087
g73
I5
ssg74
g2081
sg67
(lp2088
S'index'
p2089
asbasbasbag60
(g76
g62
NtRp2090
(dp2091
g65
(dp2092
sg74
g70
sg67
(lp2093
g60
(g81
g62
NtRp2094
(dp2095
g65
(dp2096
g85
g86
ssg74
g2090
sg67
(lp2097
S'get_vars'
p2098
asbag60
(g81
g62
NtRp2099
(dp2100
g65
(dp2101
g92
g93
ssg74
g2090
sg67
(lp2102
S':'
asbag60
(g81
g62
NtRp2103
(dp2104
g65
(dp2105
sg74
g2090
sg67
(lp2106
g60
(g61
g62
NtRp2107
(dp2108
g65
(dp2109
g73
I5
ssg74
g2103
sg67
(lp2110
g60
(g69
g62
NtRp2111
(dp2112
g65
(dp2113
g73
I4
ssg74
Nsg67
(lp2114
sbasbasbasbag60
(g76
g62
NtRp2115
(dp2116
g65
(dp2117
sg74
g70
sg67
(lp2118
g60
(g81
g62
NtRp2119
(dp2120
g65
(dp2121
g85
g86
ssg74
g2115
sg67
(lp2122
S'global_settings'
p2123
asbag60
(g81
g62
NtRp2124
(dp2125
g65
(dp2126
g92
g93
ssg74
g2115
sg67
(lp2127
S':'
asbag60
(g81
g62
NtRp2128
(dp2129
g65
(dp2130
sg74
g2115
sg67
(lp2131
g60
(g61
g62
NtRp2132
(dp2133
g65
(dp2134
g73
I5
ssg74
g2128
sg67
(lp2135
g60
(g69
g62
NtRp2136
(dp2137
g65
(dp2138
g73
I4
ssg74
Nsg67
(lp2139
g60
(g76
g62
NtRp2140
(dp2141
g65
(dp2142
sg74
g2136
sg67
(lp2143
g60
(g81
g62
NtRp2144
(dp2145
g65
(dp2146
g85
g86
ssg74
g2140
sg67
(lp2147
g1022
asbag60
(g81
g62
NtRp2148
(dp2149
g65
(dp2150
g92
g93
ssg74
g2140
sg67
(lp2151
S':'
asbag60
(g81
g62
NtRp2152
(dp2153
g65
(dp2154
sg74
g2140
sg67
(lp2155
g60
(g61
g62
NtRp2156
(dp2157
g65
(dp2158
g73
I4
ssg74
g2152
sg67
(lp2159
S"set(['/home/u4hcsdaw/Python/web2py/applications/ACES/', '/home/u4hcsdaw/Python/web2py/applications/admin/', '/home/u4hcsdaw/Python/web2py/applications/welcome/', '/home/u4hcsdaw/Python/web2py/applications/DALEX1/'])"
p2160
asbasbasbag60
(g76
g62
NtRp2161
(dp2162
g65
(dp2163
sg74
g2136
sg67
(lp2164
g60
(g81
g62
NtRp2165
(dp2166
g65
(dp2167
g85
g86
ssg74
g2161
sg67
(lp2168
g1044
asbag60
(g81
g62
NtRp2169
(dp2170
g65
(dp2171
g92
g93
ssg74
g2161
sg67
(lp2172
S':'
asbag60
(g81
g62
NtRp2173
(dp2174
g65
(dp2175
sg74
g2161
sg67
(lp2176
g60
(g61
g62
NtRp2177
(dp2178
g65
(dp2179
g73
I4
ssg74
g2173
sg67
(lp2180
g1057
asbasbasbag60
(g76
g62
NtRp2181
(dp2182
g65
(dp2183
sg74
g2136
sg67
(lp2184
g60
(g81
g62
NtRp2185
(dp2186
g65
(dp2187
g85
g86
ssg74
g2181
sg67
(lp2188
g1066
asbag60
(g81
g62
NtRp2189
(dp2190
g65
(dp2191
g92
g93
ssg74
g2181
sg67
(lp2192
S':'
asbag60
(g81
g62
NtRp2193
(dp2194
g65
(dp2195
sg74
g2181
sg67
(lp2196
g60
(g61
g62
NtRp2197
(dp2198
g65
(dp2199
g73
I4
ssg74
g2193
sg67
(lp2200
g60
(g69
g62
NtRp2201
(dp2202
g65
(dp2203
g73
I3
ssg74
Nsg67
(lp2204
sbasbasbasbag60
(g76
g62
NtRp2205
(dp2206
g65
(dp2207
sg74
g2136
sg67
(lp2208
g60
(g81
g62
NtRp2209
(dp2210
g65
(dp2211
g85
g86
ssg74
g2205
sg67
(lp2212
g1091
asbag60
(g81
g62
NtRp2213
(dp2214
g65
(dp2215
g92
g93
ssg74
g2205
sg67
(lp2216
S':'
asbag60
(g81
g62
NtRp2217
(dp2218
g65
(dp2219
sg74
g2205
sg67
(lp2220
g60
(g61
g62
NtRp2221
(dp2222
g65
(dp2223
g73
I4
ssg74
g2217
sg67
(lp2224
S"<Values at 0xa7a4aec: {'verbose': False, 'ip': '127.0.0.1', 'shutdown_timeout': 5, 'taskbar': False, 'nocron': False, 'pid_filename': 'httpserver.pid', 'maxthreads': None, 'softcron': False, 'server_name': 'chl-5833E', 'bpython': False, 'nogui': False, 'port': 8000, 'extcron': False, 'debuglevel': 30, 'test': None, 'folder': '/home/u4hcsdaw/Python/web2py', 'config': '', 'import_models': False, 'winservice': '', 'shell': None, 'run': '', 'log_filename': 'httpserver.log', 'args': [''], 'ssl_ca_certificate': None, 'scheduler': None, 'profiler_filename': None, 'ssl_private_key': '', 'password': '<ask>', 'request_queue_size': 5, 'ssl_certificate': '', 'cronjob': False, 'plain': False, 'quiet': False, 'interfaces': None, 'minthreads': None, 'timeout': 10, 'numthreads': None, 'nobanner': False}>"
p2225
asbasbasbag60
(g76
g62
NtRp2226
(dp2227
g65
(dp2228
sg74
g2136
sg67
(lp2229
g60
(g81
g62
NtRp2230
(dp2231
g65
(dp2232
g85
g86
ssg74
g2226
sg67
(lp2233
g1157
asbag60
(g81
g62
NtRp2234
(dp2235
g65
(dp2236
g92
g93
ssg74
g2226
sg67
(lp2237
S':'
asbag60
(g81
g62
NtRp2238
(dp2239
g65
(dp2240
sg74
g2226
sg67
(lp2241
g60
(g61
g62
NtRp2242
(dp2243
g65
(dp2244
g73
I4
ssg74
g2238
sg67
(lp2245
S'set([])'
p2246
asbasbasbag60
(g76
g62
NtRp2247
(dp2248
g65
(dp2249
sg74
g2136
sg67
(lp2250
g60
(g81
g62
NtRp2251
(dp2252
g65
(dp2253
g85
g86
ssg74
g2247
sg67
(lp2254
g1179
asbag60
(g81
g62
NtRp2255
(dp2256
g65
(dp2257
g92
g93
ssg74
g2247
sg67
(lp2258
S':'
asbag60
(g81
g62
NtRp2259
(dp2260
g65
(dp2261
sg74
g2247
sg67
(lp2262
g60
(g61
g62
NtRp2263
(dp2264
g65
(dp2265
g73
I4
ssg74
g2259
sg67
(lp2266
g103
asbasbasbag60
(g76
g62
NtRp2267
(dp2268
g65
(dp2269
sg74
g2136
sg67
(lp2270
g60
(g81
g62
NtRp2271
(dp2272
g65
(dp2273
g85
g86
ssg74
g2267
sg67
(lp2274
g1200
asbag60
(g81
g62
NtRp2275
(dp2276
g65
(dp2277
g92
g93
ssg74
g2267
sg67
(lp2278
S':'
asbag60
(g81
g62
NtRp2279
(dp2280
g65
(dp2281
sg74
g2267
sg67
(lp2282
g60
(g61
g62
NtRp2283
(dp2284
g65
(dp2285
g73
I4
ssg74
g2279
sg67
(lp2286
g1213
asbasbasbag60
(g76
g62
NtRp2287
(dp2288
g65
(dp2289
sg74
g2136
sg67
(lp2290
g60
(g81
g62
NtRp2291
(dp2292
g65
(dp2293
g85
g86
ssg74
g2287
sg67
(lp2294
g1462
asbag60
(g81
g62
NtRp2295
(dp2296
g65
(dp2297
g92
g93
ssg74
g2287
sg67
(lp2298
S':'
asbag60
(g81
g62
NtRp2299
(dp2300
g65
(dp2301
sg74
g2287
sg67
(lp2302
g60
(g61
g62
NtRp2303
(dp2304
g65
(dp2305
g73
I4
ssg74
g2299
sg67
(lp2306
g103
asbasbasbag60
(g76
g62
NtRp2307
(dp2308
g65
(dp2309
sg74
g2136
sg67
(lp2310
g60
(g81
g62
NtRp2311
(dp2312
g65
(dp2313
g85
g86
ssg74
g2307
sg67
(lp2314
g1700
asbag60
(g81
g62
NtRp2315
(dp2316
g65
(dp2317
g92
g93
ssg74
g2307
sg67
(lp2318
S':'
asbag60
(g81
g62
NtRp2319
(dp2320
g65
(dp2321
sg74
g2307
sg67
(lp2322
g60
(g61
g62
NtRp2323
(dp2324
g65
(dp2325
g73
I4
ssg74
g2319
sg67
(lp2326
g1713
asbasbasbag60
(g76
g62
NtRp2327
(dp2328
g65
(dp2329
sg74
g2136
sg67
(lp2330
g60
(g81
g62
NtRp2331
(dp2332
g65
(dp2333
g85
g86
ssg74
g2327
sg67
(lp2334
g1743
asbag60
(g81
g62
NtRp2335
(dp2336
g65
(dp2337
g92
g93
ssg74
g2327
sg67
(lp2338
S':'
asbag60
(g81
g62
NtRp2339
(dp2340
g65
(dp2341
sg74
g2327
sg67
(lp2342
g60
(g61
g62
NtRp2343
(dp2344
g65
(dp2345
g73
I4
ssg74
g2339
sg67
(lp2346
g60
(g69
g62
NtRp2347
(dp2348
g65
(dp2349
g73
I3
ssg74
Nsg67
(lp2350
g60
(g76
g62
NtRp2351
(dp2352
g65
(dp2353
sg74
g2347
sg67
(lp2354
g60
(g81
g62
NtRp2355
(dp2356
g65
(dp2357
sg74
g2351
sg67
(lp2358
g60
(g61
g62
NtRp2359
(dp2360
g65
(dp2361
g73
I3
ssg74
g2355
sg67
(lp2362
S'1'
asbasbasbag60
(g76
g62
NtRp2363
(dp2364
g65
(dp2365
sg74
g2347
sg67
(lp2366
g60
(g81
g62
NtRp2367
(dp2368
g65
(dp2369
sg74
g2363
sg67
(lp2370
g60
(g61
g62
NtRp2371
(dp2372
g65
(dp2373
g73
I3
ssg74
g2367
sg67
(lp2374
S'99'
p2375
asbasbasbag60
(g76
g62
NtRp2376
(dp2377
g65
(dp2378
sg74
g2347
sg67
(lp2379
g60
(g81
g62
NtRp2380
(dp2381
g65
(dp2382
sg74
g2376
sg67
(lp2383
g60
(g61
g62
NtRp2384
(dp2385
g65
(dp2386
g73
I3
ssg74
g2380
sg67
(lp2387
S'2'
asbasbasbag60
(g76
g62
NtRp2388
(dp2389
g65
(dp2390
sg74
g2347
sg67
(lp2391
g60
(g81
g62
NtRp2392
(dp2393
g65
(dp2394
sg74
g2388
sg67
(lp2395
g60
(g61
g62
NtRp2396
(dp2397
g65
(dp2398
g73
I3
ssg74
g2392
sg67
(lp2399
S'datetime.datetime(2011, 9, 26, 6, 55, 33)'
p2400
asbasbasbag60
(g76
g62
NtRp2401
(dp2402
g65
(dp2403
sg74
g2347
sg67
(lp2404
g60
(g81
g62
NtRp2405
(dp2406
g65
(dp2407
sg74
g2401
sg67
(lp2408
g60
(g61
g62
NtRp2409
(dp2410
g65
(dp2411
g73
I3
ssg74
g2405
sg67
(lp2412
g1822
asbasbasbasbasbasbasbasbasbasbasbag60
(g76
g62
NtRp2413
(dp2414
g65
(dp2415
sg74
g70
sg67
(lp2416
g60
(g81
g62
NtRp2417
(dp2418
g65
(dp2419
g85
g86
ssg74
g2413
sg67
(lp2420
S'is_https'
p2421
asbag60
(g81
g62
NtRp2422
(dp2423
g65
(dp2424
g92
g93
ssg74
g2413
sg67
(lp2425
S':'
asbag60
(g81
g62
NtRp2426
(dp2427
g65
(dp2428
sg74
g2413
sg67
(lp2429
g60
(g61
g62
NtRp2430
(dp2431
g65
(dp2432
g73
I5
ssg74
g2426
sg67
(lp2433
g103
asbasbasbag60
(g76
g62
NtRp2434
(dp2435
g65
(dp2436
sg74
g70
sg67
(lp2437
g60
(g81
g62
NtRp2438
(dp2439
g65
(dp2440
g85
g86
ssg74
g2434
sg67
(lp2441
S'is_local'
p2442
asbag60
(g81
g62
NtRp2443
(dp2444
g65
(dp2445
g92
g93
ssg74
g2434
sg67
(lp2446
S':'
asbag60
(g81
g62
NtRp2447
(dp2448
g65
(dp2449
sg74
g2434
sg67
(lp2450
g60
(g61
g62
NtRp2451
(dp2452
g65
(dp2453
g73
I5
ssg74
g2447
sg67
(lp2454
g1931
asbasbasbag60
(g76
g62
NtRp2455
(dp2456
g65
(dp2457
sg74
g70
sg67
(lp2458
g60
(g81
g62
NtRp2459
(dp2460
g65
(dp2461
g85
g86
ssg74
g2455
sg67
(lp2462
S'is_restful'
p2463
asbag60
(g81
g62
NtRp2464
(dp2465
g65
(dp2466
g92
g93
ssg74
g2455
sg67
(lp2467
S':'
asbag60
(g81
g62
NtRp2468
(dp2469
g65
(dp2470
sg74
g2455
sg67
(lp2471
g60
(g61
g62
NtRp2472
(dp2473
g65
(dp2474
g73
I5
ssg74
g2468
sg67
(lp2475
g103
asbasbasbag60
(g76
g62
NtRp2476
(dp2477
g65
(dp2478
sg74
g70
sg67
(lp2479
g60
(g81
g62
NtRp2480
(dp2481
g65
(dp2482
g85
g86
ssg74
g2476
sg67
(lp2483
S'now'
p2484
asbag60
(g81
g62
NtRp2485
(dp2486
g65
(dp2487
g92
g93
ssg74
g2476
sg67
(lp2488
S':'
asbag60
(g81
g62
NtRp2489
(dp2490
g65
(dp2491
sg74
g2476
sg67
(lp2492
g60
(g61
g62
NtRp2493
(dp2494
g65
(dp2495
g73
I5
ssg74
g2489
sg67
(lp2496
S'datetime.datetime(2012, 9, 10, 18, 52, 18, 421808)'
p2497
asbasbasbag60
(g76
g62
NtRp2498
(dp2499
g65
(dp2500
sg74
g70
sg67
(lp2501
g60
(g81
g62
NtRp2502
(dp2503
g65
(dp2504
g85
g86
ssg74
g2498
sg67
(lp2505
S'post_vars'
p2506
asbag60
(g81
g62
NtRp2507
(dp2508
g65
(dp2509
g92
g93
ssg74
g2498
sg67
(lp2510
S':'
asbag60
(g81
g62
NtRp2511
(dp2512
g65
(dp2513
sg74
g2498
sg67
(lp2514
g60
(g61
g62
NtRp2515
(dp2516
g65
(dp2517
g73
I5
ssg74
g2511
sg67
(lp2518
g60
(g69
g62
NtRp2519
(dp2520
g65
(dp2521
g73
I4
ssg74
Nsg67
(lp2522
g60
(g76
g62
NtRp2523
(dp2524
g65
(dp2525
sg74
g2519
sg67
(lp2526
g60
(g81
g62
NtRp2527
(dp2528
g65
(dp2529
g85
g86
ssg74
g2523
sg67
(lp2530
S'waterDepth'
p2531
asbag60
(g81
g62
NtRp2532
(dp2533
g65
(dp2534
g92
g93
ssg74
g2523
sg67
(lp2535
S':'
asbag60
(g81
g62
NtRp2536
(dp2537
g65
(dp2538
sg74
g2523
sg67
(lp2539
g60
(g61
g62
NtRp2540
(dp2541
g65
(dp2542
g73
I4
ssg74
g2536
sg67
(lp2543
S'1.0'
p2544
asbasbasbag60
(g76
g62
NtRp2545
(dp2546
g65
(dp2547
sg74
g2519
sg67
(lp2548
g60
(g81
g62
NtRp2549
(dp2550
g65
(dp2551
g85
g86
ssg74
g2545
sg67
(lp2552
S'waveBreakRatio'
p2553
asbag60
(g81
g62
NtRp2554
(dp2555
g65
(dp2556
g92
g93
ssg74
g2545
sg67
(lp2557
S':'
asbag60
(g81
g62
NtRp2558
(dp2559
g65
(dp2560
sg74
g2545
sg67
(lp2561
g60
(g61
g62
NtRp2562
(dp2563
g65
(dp2564
g73
I4
ssg74
g2558
sg67
(lp2565
S'0.78'
p2566
asbasbasbag60
(g76
g62
NtRp2567
(dp2568
g65
(dp2569
sg74
g2519
sg67
(lp2570
g60
(g81
g62
NtRp2571
(dp2572
g65
(dp2573
g85
g86
ssg74
g2567
sg67
(lp2574
S'waveHeight'
p2575
asbag60
(g81
g62
NtRp2576
(dp2577
g65
(dp2578
g92
g93
ssg74
g2567
sg67
(lp2579
S':'
asbag60
(g81
g62
NtRp2580
(dp2581
g65
(dp2582
sg74
g2567
sg67
(lp2583
g60
(g61
g62
NtRp2584
(dp2585
g65
(dp2586
g73
I4
ssg74
g2580
sg67
(lp2587
S'0.85'
p2588
asbasbasbag60
(g76
g62
NtRp2589
(dp2590
g65
(dp2591
sg74
g2519
sg67
(lp2592
g60
(g81
g62
NtRp2593
(dp2594
g65
(dp2595
g85
g86
ssg74
g2589
sg67
(lp2596
S'wavePeriod'
p2597
asbag60
(g81
g62
NtRp2598
(dp2599
g65
(dp2600
g92
g93
ssg74
g2589
sg67
(lp2601
S':'
asbag60
(g81
g62
NtRp2602
(dp2603
g65
(dp2604
sg74
g2589
sg67
(lp2605
g60
(g61
g62
NtRp2606
(dp2607
g65
(dp2608
g73
I4
ssg74
g2602
sg67
(lp2609
S'3.0'
p2610
asbasbasbasbasbasbasbag60
(g76
g62
NtRp2611
(dp2612
g65
(dp2613
sg74
g70
sg67
(lp2614
g60
(g81
g62
NtRp2615
(dp2616
g65
(dp2617
g85
g86
ssg74
g2611
sg67
(lp2618
S'url'
p2619
asbag60
(g81
g62
NtRp2620
(dp2621
g65
(dp2622
g92
g93
ssg74
g2611
sg67
(lp2623
S':'
asbag60
(g81
g62
NtRp2624
(dp2625
g65
(dp2626
sg74
g2611
sg67
(lp2627
g60
(g61
g62
NtRp2628
(dp2629
g65
(dp2630
g73
I5
ssg74
g2624
sg67
(lp2631
S'/ACES/default/index'
p2632
asbasbasbag60
(g76
g62
NtRp2633
(dp2634
g65
(dp2635
sg74
g70
sg67
(lp2636
g60
(g81
g62
NtRp2637
(dp2638
g65
(dp2639
g85
g86
ssg74
g2633
sg67
(lp2640
S'utcnow'
p2641
asbag60
(g81
g62
NtRp2642
(dp2643
g65
(dp2644
g92
g93
ssg74
g2633
sg67
(lp2645
S':'
asbag60
(g81
g62
NtRp2646
(dp2647
g65
(dp2648
sg74
g2633
sg67
(lp2649
g60
(g61
g62
NtRp2650
(dp2651
g65
(dp2652
g73
I5
ssg74
g2646
sg67
(lp2653
S'datetime.datetime(2012, 9, 10, 23, 52, 18, 421844)'
p2654
asbasbasbag60
(g76
g62
NtRp2655
(dp2656
g65
(dp2657
sg74
g70
sg67
(lp2658
g60
(g81
g62
NtRp2659
(dp2660
g65
(dp2661
g85
g86
ssg74
g2655
sg67
(lp2662
S'uuid'
p2663
asbag60
(g81
g62
NtRp2664
(dp2665
g65
(dp2666
g92
g93
ssg74
g2655
sg67
(lp2667
S':'
asbag60
(g81
g62
NtRp2668
(dp2669
g65
(dp2670
sg74
g2655
sg67
(lp2671
g60
(g61
g62
NtRp2672
(dp2673
g65
(dp2674
g73
I5
ssg74
g2668
sg67
(lp2675
S'ACES/127.0.0.1.2012-09-10.18-52-18.1175b631-e4bf-4273-b2b1-212c667f5ad4'
p2676
asbasbasbag60
(g76
g62
NtRp2677
(dp2678
g65
(dp2679
sg74
g70
sg67
(lp2680
g60
(g81
g62
NtRp2681
(dp2682
g65
(dp2683
g85
g86
ssg74
g2677
sg67
(lp2684
S'vars'
p2685
asbag60
(g81
g62
NtRp2686
(dp2687
g65
(dp2688
g92
g93
ssg74
g2677
sg67
(lp2689
S':'
asbag60
(g81
g62
NtRp2690
(dp2691
g65
(dp2692
sg74
g2677
sg67
(lp2693
g60
(g61
g62
NtRp2694
(dp2695
g65
(dp2696
g73
I5
ssg74
g2690
sg67
(lp2697
g60
(g69
g62
NtRp2698
(dp2699
g65
(dp2700
g73
I4
ssg74
Nsg67
(lp2701
g60
(g76
g62
NtRp2702
(dp2703
g65
(dp2704
sg74
g2698
sg67
(lp2705
g60
(g81
g62
NtRp2706
(dp2707
g65
(dp2708
g85
g86
ssg74
g2702
sg67
(lp2709
g2531
asbag60
(g81
g62
NtRp2710
(dp2711
g65
(dp2712
g92
g93
ssg74
g2702
sg67
(lp2713
S':'
asbag60
(g81
g62
NtRp2714
(dp2715
g65
(dp2716
sg74
g2702
sg67
(lp2717
g60
(g61
g62
NtRp2718
(dp2719
g65
(dp2720
g73
I4
ssg74
g2714
sg67
(lp2721
g2544
asbasbasbag60
(g76
g62
NtRp2722
(dp2723
g65
(dp2724
sg74
g2698
sg67
(lp2725
g60
(g81
g62
NtRp2726
(dp2727
g65
(dp2728
g85
g86
ssg74
g2722
sg67
(lp2729
g2553
asbag60
(g81
g62
NtRp2730
(dp2731
g65
(dp2732
g92
g93
ssg74
g2722
sg67
(lp2733
S':'
asbag60
(g81
g62
NtRp2734
(dp2735
g65
(dp2736
sg74
g2722
sg67
(lp2737
g60
(g61
g62
NtRp2738
(dp2739
g65
(dp2740
g73
I4
ssg74
g2734
sg67
(lp2741
g2566
asbasbasbag60
(g76
g62
NtRp2742
(dp2743
g65
(dp2744
sg74
g2698
sg67
(lp2745
g60
(g81
g62
NtRp2746
(dp2747
g65
(dp2748
g85
g86
ssg74
g2742
sg67
(lp2749
g2575
asbag60
(g81
g62
NtRp2750
(dp2751
g65
(dp2752
g92
g93
ssg74
g2742
sg67
(lp2753
S':'
asbag60
(g81
g62
NtRp2754
(dp2755
g65
(dp2756
sg74
g2742
sg67
(lp2757
g60
(g61
g62
NtRp2758
(dp2759
g65
(dp2760
g73
I4
ssg74
g2754
sg67
(lp2761
g2588
asbasbasbag60
(g76
g62
NtRp2762
(dp2763
g65
(dp2764
sg74
g2698
sg67
(lp2765
g60
(g81
g62
NtRp2766
(dp2767
g65
(dp2768
g85
g86
ssg74
g2762
sg67
(lp2769
g2597
asbag60
(g81
g62
NtRp2770
(dp2771
g65
(dp2772
g92
g93
ssg74
g2762
sg67
(lp2773
S':'
asbag60
(g81
g62
NtRp2774
(dp2775
g65
(dp2776
sg74
g2762
sg67
(lp2777
g60
(g61
g62
NtRp2778
(dp2779
g65
(dp2780
g73
I4
ssg74
g2774
sg67
(lp2781
g2610
asbasbasbasbasbasbasbag60
(g76
g62
NtRp2782
(dp2783
g65
(dp2784
sg74
g70
sg67
(lp2785
g60
(g81
g62
NtRp2786
(dp2787
g65
(dp2788
g85
g86
ssg74
g2782
sg67
(lp2789
S'wsgi'
p2790
asbag60
(g81
g62
NtRp2791
(dp2792
g65
(dp2793
g92
g93
ssg74
g2782
sg67
(lp2794
S':'
asbag60
(g81
g62
NtRp2795
(dp2796
g65
(dp2797
sg74
g2782
sg67
(lp2798
g60
(g61
g62
NtRp2799
(dp2800
g65
(dp2801
g73
I5
ssg74
g2795
sg67
(lp2802
g60
(g69
g62
NtRp2803
(dp2804
g65
(dp2805
g73
I4
ssg74
Nsg67
(lp2806
g60
(g76
g62
NtRp2807
(dp2808
g65
(dp2809
sg74
g2803
sg67
(lp2810
g60
(g81
g62
NtRp2811
(dp2812
g65
(dp2813
g85
g86
ssg74
g2807
sg67
(lp2814
S'environ'
p2815
asbag60
(g81
g62
NtRp2816
(dp2817
g65
(dp2818
g92
g93
ssg74
g2807
sg67
(lp2819
S':'
asbag60
(g81
g62
NtRp2820
(dp2821
g65
(dp2822
sg74
g2807
sg67
(lp2823
g60
(g61
g62
NtRp2824
(dp2825
g65
(dp2826
g73
I4
ssg74
g2820
sg67
(lp2827
g60
(g69
g62
NtRp2828
(dp2829
g65
(dp2830
g73
I3
ssg74
Nsg67
(lp2831
g60
(g76
g62
NtRp2832
(dp2833
g65
(dp2834
sg74
g2828
sg67
(lp2835
g60
(g81
g62
NtRp2836
(dp2837
g65
(dp2838
g85
g86
ssg74
g2832
sg67
(lp2839
S'CONTENT_LENGTH'
p2840
asbag60
(g81
g62
NtRp2841
(dp2842
g65
(dp2843
g92
g93
ssg74
g2832
sg67
(lp2844
S':'
asbag60
(g81
g62
NtRp2845
(dp2846
g65
(dp2847
sg74
g2832
sg67
(lp2848
g60
(g61
g62
NtRp2849
(dp2850
g65
(dp2851
g73
I3
ssg74
g2845
sg67
(lp2852
g1126
asbasbasbag60
(g76
g62
NtRp2853
(dp2854
g65
(dp2855
sg74
g2828
sg67
(lp2856
g60
(g81
g62
NtRp2857
(dp2858
g65
(dp2859
g85
g86
ssg74
g2853
sg67
(lp2860
S'CONTENT_TYPE'
p2861
asbag60
(g81
g62
NtRp2862
(dp2863
g65
(dp2864
g92
g93
ssg74
g2853
sg67
(lp2865
S':'
asbag60
(g81
g62
NtRp2866
(dp2867
g65
(dp2868
sg74
g2853
sg67
(lp2869
g60
(g61
g62
NtRp2870
(dp2871
g65
(dp2872
g73
I3
ssg74
g2866
sg67
(lp2873
g1148
asbasbasbag60
(g76
g62
NtRp2874
(dp2875
g65
(dp2876
sg74
g2828
sg67
(lp2877
g60
(g81
g62
NtRp2878
(dp2879
g65
(dp2880
g85
g86
ssg74
g2874
sg67
(lp2881
S'HTTP_ACCEPT'
p2882
asbag60
(g81
g62
NtRp2883
(dp2884
g65
(dp2885
g92
g93
ssg74
g2874
sg67
(lp2886
S':'
asbag60
(g81
g62
NtRp2887
(dp2888
g65
(dp2889
sg74
g2874
sg67
(lp2890
g60
(g61
g62
NtRp2891
(dp2892
g65
(dp2893
g73
I3
ssg74
g2887
sg67
(lp2894
g1235
asbasbasbag60
(g76
g62
NtRp2895
(dp2896
g65
(dp2897
sg74
g2828
sg67
(lp2898
g60
(g81
g62
NtRp2899
(dp2900
g65
(dp2901
g85
g86
ssg74
g2895
sg67
(lp2902
S'HTTP_ACCEPT_ENCODING'
p2903
asbag60
(g81
g62
NtRp2904
(dp2905
g65
(dp2906
g92
g93
ssg74
g2895
sg67
(lp2907
S':'
asbag60
(g81
g62
NtRp2908
(dp2909
g65
(dp2910
sg74
g2895
sg67
(lp2911
g60
(g61
g62
NtRp2912
(dp2913
g65
(dp2914
g73
I3
ssg74
g2908
sg67
(lp2915
g1257
asbasbasbag60
(g76
g62
NtRp2916
(dp2917
g65
(dp2918
sg74
g2828
sg67
(lp2919
g60
(g81
g62
NtRp2920
(dp2921
g65
(dp2922
g85
g86
ssg74
g2916
sg67
(lp2923
S'HTTP_ACCEPT_LANGUAGE'
p2924
asbag60
(g81
g62
NtRp2925
(dp2926
g65
(dp2927
g92
g93
ssg74
g2916
sg67
(lp2928
S':'
asbag60
(g81
g62
NtRp2929
(dp2930
g65
(dp2931
sg74
g2916
sg67
(lp2932
g60
(g61
g62
NtRp2933
(dp2934
g65
(dp2935
g73
I3
ssg74
g2929
sg67
(lp2936
g1279
asbasbasbag60
(g76
g62
NtRp2937
(dp2938
g65
(dp2939
sg74
g2828
sg67
(lp2940
g60
(g81
g62
NtRp2941
(dp2942
g65
(dp2943
g85
g86
ssg74
g2937
sg67
(lp2944
S'HTTP_CACHE_CONTROL'
p2945
asbag60
(g81
g62
NtRp2946
(dp2947
g65
(dp2948
g92
g93
ssg74
g2937
sg67
(lp2949
S':'
asbag60
(g81
g62
NtRp2950
(dp2951
g65
(dp2952
sg74
g2937
sg67
(lp2953
g60
(g61
g62
NtRp2954
(dp2955
g65
(dp2956
g73
I3
ssg74
g2950
sg67
(lp2957
g1301
asbasbasbag60
(g76
g62
NtRp2958
(dp2959
g65
(dp2960
sg74
g2828
sg67
(lp2961
g60
(g81
g62
NtRp2962
(dp2963
g65
(dp2964
g85
g86
ssg74
g2958
sg67
(lp2965
S'HTTP_CONNECTION'
p2966
asbag60
(g81
g62
NtRp2967
(dp2968
g65
(dp2969
g92
g93
ssg74
g2958
sg67
(lp2970
S':'
asbag60
(g81
g62
NtRp2971
(dp2972
g65
(dp2973
sg74
g2958
sg67
(lp2974
g60
(g61
g62
NtRp2975
(dp2976
g65
(dp2977
g73
I3
ssg74
g2971
sg67
(lp2978
g1323
asbasbasbag60
(g76
g62
NtRp2979
(dp2980
g65
(dp2981
sg74
g2828
sg67
(lp2982
g60
(g81
g62
NtRp2983
(dp2984
g65
(dp2985
g85
g86
ssg74
g2979
sg67
(lp2986
S'HTTP_CONTENT_LENGTH'
p2987
asbag60
(g81
g62
NtRp2988
(dp2989
g65
(dp2990
g92
g93
ssg74
g2979
sg67
(lp2991
S':'
asbag60
(g81
g62
NtRp2992
(dp2993
g65
(dp2994
sg74
g2979
sg67
(lp2995
g60
(g61
g62
NtRp2996
(dp2997
g65
(dp2998
g73
I3
ssg74
g2992
sg67
(lp2999
g1126
asbasbasbag60
(g76
g62
NtRp3000
(dp3001
g65
(dp3002
sg74
g2828
sg67
(lp3003
g60
(g81
g62
NtRp3004
(dp3005
g65
(dp3006
g85
g86
ssg74
g3000
sg67
(lp3007
S'HTTP_CONTENT_TYPE'
p3008
asbag60
(g81
g62
NtRp3009
(dp3010
g65
(dp3011
g92
g93
ssg74
g3000
sg67
(lp3012
S':'
asbag60
(g81
g62
NtRp3013
(dp3014
g65
(dp3015
sg74
g3000
sg67
(lp3016
g60
(g61
g62
NtRp3017
(dp3018
g65
(dp3019
g73
I3
ssg74
g3013
sg67
(lp3020
g1148
asbasbasbag60
(g76
g62
NtRp3021
(dp3022
g65
(dp3023
sg74
g2828
sg67
(lp3024
g60
(g81
g62
NtRp3025
(dp3026
g65
(dp3027
g85
g86
ssg74
g3021
sg67
(lp3028
S'HTTP_COOKIE'
p3029
asbag60
(g81
g62
NtRp3030
(dp3031
g65
(dp3032
g92
g93
ssg74
g3021
sg67
(lp3033
S':'
asbag60
(g81
g62
NtRp3034
(dp3035
g65
(dp3036
sg74
g3021
sg67
(lp3037
g60
(g61
g62
NtRp3038
(dp3039
g65
(dp3040
g73
I3
ssg74
g3034
sg67
(lp3041
g1387
asbasbasbag60
(g76
g62
NtRp3042
(dp3043
g65
(dp3044
sg74
g2828
sg67
(lp3045
g60
(g81
g62
NtRp3046
(dp3047
g65
(dp3048
g85
g86
ssg74
g3042
sg67
(lp3049
S'HTTP_HOST'
p3050
asbag60
(g81
g62
NtRp3051
(dp3052
g65
(dp3053
g92
g93
ssg74
g3042
sg67
(lp3054
S':'
asbag60
(g81
g62
NtRp3055
(dp3056
g65
(dp3057
sg74
g3042
sg67
(lp3058
g60
(g61
g62
NtRp3059
(dp3060
g65
(dp3061
g73
I3
ssg74
g3055
sg67
(lp3062
g1409
asbasbasbag60
(g76
g62
NtRp3063
(dp3064
g65
(dp3065
sg74
g2828
sg67
(lp3066
g60
(g81
g62
NtRp3067
(dp3068
g65
(dp3069
g85
g86
ssg74
g3063
sg67
(lp3070
S'HTTP_REFERER'
p3071
asbag60
(g81
g62
NtRp3072
(dp3073
g65
(dp3074
g92
g93
ssg74
g3063
sg67
(lp3075
S':'
asbag60
(g81
g62
NtRp3076
(dp3077
g65
(dp3078
sg74
g3063
sg67
(lp3079
g60
(g61
g62
NtRp3080
(dp3081
g65
(dp3082
g73
I3
ssg74
g3076
sg67
(lp3083
g1431
asbasbasbag60
(g76
g62
NtRp3084
(dp3085
g65
(dp3086
sg74
g2828
sg67
(lp3087
g60
(g81
g62
NtRp3088
(dp3089
g65
(dp3090
g85
g86
ssg74
g3084
sg67
(lp3091
S'HTTP_USER_AGENT'
p3092
asbag60
(g81
g62
NtRp3093
(dp3094
g65
(dp3095
g92
g93
ssg74
g3084
sg67
(lp3096
S':'
asbag60
(g81
g62
NtRp3097
(dp3098
g65
(dp3099
sg74
g3084
sg67
(lp3100
g60
(g61
g62
NtRp3101
(dp3102
g65
(dp3103
g73
I3
ssg74
g3097
sg67
(lp3104
g1453
asbasbasbag60
(g76
g62
NtRp3105
(dp3106
g65
(dp3107
sg74
g2828
sg67
(lp3108
g60
(g81
g62
NtRp3109
(dp3110
g65
(dp3111
g85
g86
ssg74
g3105
sg67
(lp3112
S'PATH_INFO'
p3113
asbag60
(g81
g62
NtRp3114
(dp3115
g65
(dp3116
g92
g93
ssg74
g3105
sg67
(lp3117
S':'
asbag60
(g81
g62
NtRp3118
(dp3119
g65
(dp3120
sg74
g3105
sg67
(lp3121
g60
(g61
g62
NtRp3122
(dp3123
g65
(dp3124
g73
I3
ssg74
g3118
sg67
(lp3125
g1496
asbasbasbag60
(g76
g62
NtRp3126
(dp3127
g65
(dp3128
sg74
g2828
sg67
(lp3129
g60
(g81
g62
NtRp3130
(dp3131
g65
(dp3132
g85
g86
ssg74
g3126
sg67
(lp3133
S'QUERY_STRING'
p3134
asbag60
(g81
g62
NtRp3135
(dp3136
g65
(dp3137
g92
g93
ssg74
g3126
sg67
(lp3138
S':'
asbag60
(g81
g62
NtRp3139
(dp3140
g65
(dp3141
sg74
g3126
sg67
(lp3142
g60
(g61
g62
NtRp3143
(dp3144
g65
(dp3145
g73
I3
ssg74
g3139
sg67
(lp3146
S''
asbasbasbag60
(g76
g62
NtRp3147
(dp3148
g65
(dp3149
sg74
g2828
sg67
(lp3150
g60
(g81
g62
NtRp3151
(dp3152
g65
(dp3153
g85
g86
ssg74
g3147
sg67
(lp3154
S'REMOTE_ADDR'
p3155
asbag60
(g81
g62
NtRp3156
(dp3157
g65
(dp3158
g92
g93
ssg74
g3147
sg67
(lp3159
S':'
asbag60
(g81
g62
NtRp3160
(dp3161
g65
(dp3162
sg74
g3147
sg67
(lp3163
g60
(g61
g62
NtRp3164
(dp3165
g65
(dp3166
g73
I3
ssg74
g3160
sg67
(lp3167
g193
asbasbasbag60
(g76
g62
NtRp3168
(dp3169
g65
(dp3170
sg74
g2828
sg67
(lp3171
g60
(g81
g62
NtRp3172
(dp3173
g65
(dp3174
g85
g86
ssg74
g3168
sg67
(lp3175
S'REMOTE_PORT'
p3176
asbag60
(g81
g62
NtRp3177
(dp3178
g65
(dp3179
g92
g93
ssg74
g3168
sg67
(lp3180
S':'
asbag60
(g81
g62
NtRp3181
(dp3182
g65
(dp3183
sg74
g3168
sg67
(lp3184
g60
(g61
g62
NtRp3185
(dp3186
g65
(dp3187
g73
I3
ssg74
g3181
sg67
(lp3188
g1560
asbasbasbag60
(g76
g62
NtRp3189
(dp3190
g65
(dp3191
sg74
g2828
sg67
(lp3192
g60
(g81
g62
NtRp3193
(dp3194
g65
(dp3195
g85
g86
ssg74
g3189
sg67
(lp3196
S'REQUEST_METHOD'
p3197
asbag60
(g81
g62
NtRp3198
(dp3199
g65
(dp3200
g92
g93
ssg74
g3189
sg67
(lp3201
S':'
asbag60
(g81
g62
NtRp3202
(dp3203
g65
(dp3204
sg74
g3189
sg67
(lp3205
g60
(g61
g62
NtRp3206
(dp3207
g65
(dp3208
g73
I3
ssg74
g3202
sg67
(lp3209
g1582
asbasbasbag60
(g76
g62
NtRp3210
(dp3211
g65
(dp3212
sg74
g2828
sg67
(lp3213
g60
(g81
g62
NtRp3214
(dp3215
g65
(dp3216
g85
g86
ssg74
g3210
sg67
(lp3217
S'SCRIPT_NAME'
p3218
asbag60
(g81
g62
NtRp3219
(dp3220
g65
(dp3221
g92
g93
ssg74
g3210
sg67
(lp3222
S':'
asbag60
(g81
g62
NtRp3223
(dp3224
g65
(dp3225
sg74
g3210
sg67
(lp3226
g60
(g61
g62
NtRp3227
(dp3228
g65
(dp3229
g73
I3
ssg74
g3223
sg67
(lp3230
S''
asbasbasbag60
(g76
g62
NtRp3231
(dp3232
g65
(dp3233
sg74
g2828
sg67
(lp3234
g60
(g81
g62
NtRp3235
(dp3236
g65
(dp3237
g85
g86
ssg74
g3231
sg67
(lp3238
S'SERVER_NAME'
p3239
asbag60
(g81
g62
NtRp3240
(dp3241
g65
(dp3242
g92
g93
ssg74
g3231
sg67
(lp3243
S':'
asbag60
(g81
g62
NtRp3244
(dp3245
g65
(dp3246
sg74
g3231
sg67
(lp3247
g60
(g61
g62
NtRp3248
(dp3249
g65
(dp3250
g73
I3
ssg74
g3244
sg67
(lp3251
g1625
asbasbasbag60
(g76
g62
NtRp3252
(dp3253
g65
(dp3254
sg74
g2828
sg67
(lp3255
g60
(g81
g62
NtRp3256
(dp3257
g65
(dp3258
g85
g86
ssg74
g3252
sg67
(lp3259
S'SERVER_PORT'
p3260
asbag60
(g81
g62
NtRp3261
(dp3262
g65
(dp3263
g92
g93
ssg74
g3252
sg67
(lp3264
S':'
asbag60
(g81
g62
NtRp3265
(dp3266
g65
(dp3267
sg74
g3252
sg67
(lp3268
g60
(g61
g62
NtRp3269
(dp3270
g65
(dp3271
g73
I3
ssg74
g3265
sg67
(lp3272
g1647
asbasbasbag60
(g76
g62
NtRp3273
(dp3274
g65
(dp3275
sg74
g2828
sg67
(lp3276
g60
(g81
g62
NtRp3277
(dp3278
g65
(dp3279
g85
g86
ssg74
g3273
sg67
(lp3280
S'SERVER_PROTOCOL'
p3281
asbag60
(g81
g62
NtRp3282
(dp3283
g65
(dp3284
g92
g93
ssg74
g3273
sg67
(lp3285
S':'
asbag60
(g81
g62
NtRp3286
(dp3287
g65
(dp3288
sg74
g3273
sg67
(lp3289
g60
(g61
g62
NtRp3290
(dp3291
g65
(dp3292
g73
I3
ssg74
g3286
sg67
(lp3293
g1669
asbasbasbag60
(g76
g62
NtRp3294
(dp3295
g65
(dp3296
sg74
g2828
sg67
(lp3297
g60
(g81
g62
NtRp3298
(dp3299
g65
(dp3300
g85
g86
ssg74
g3294
sg67
(lp3301
S'SERVER_SOFTWARE'
p3302
asbag60
(g81
g62
NtRp3303
(dp3304
g65
(dp3305
g92
g93
ssg74
g3294
sg67
(lp3306
S':'
asbag60
(g81
g62
NtRp3307
(dp3308
g65
(dp3309
sg74
g3294
sg67
(lp3310
g60
(g61
g62
NtRp3311
(dp3312
g65
(dp3313
g73
I3
ssg74
g3307
sg67
(lp3314
g1691
asbasbasbag60
(g76
g62
NtRp3315
(dp3316
g65
(dp3317
sg74
g2828
sg67
(lp3318
g60
(g81
g62
NtRp3319
(dp3320
g65
(dp3321
g85
g86
ssg74
g3315
sg67
(lp3322
S'wsgi.errors'
p3323
asbag60
(g81
g62
NtRp3324
(dp3325
g65
(dp3326
g92
g93
ssg74
g3315
sg67
(lp3327
S':'
asbag60
(g81
g62
NtRp3328
(dp3329
g65
(dp3330
sg74
g3315
sg67
(lp3331
g60
(g61
g62
NtRp3332
(dp3333
g65
(dp3334
g73
I3
ssg74
g3328
sg67
(lp3335
S"<open file '<stderr>', mode 'w' at 0xb73360d0>"
p3336
asbasbasbag60
(g76
g62
NtRp3337
(dp3338
g65
(dp3339
sg74
g2828
sg67
(lp3340
g60
(g81
g62
NtRp3341
(dp3342
g65
(dp3343
g85
g86
ssg74
g3337
sg67
(lp3344
S'wsgi.file_wrapper'
p3345
asbag60
(g81
g62
NtRp3346
(dp3347
g65
(dp3348
g92
g93
ssg74
g3337
sg67
(lp3349
S':'
asbag60
(g81
g62
NtRp3350
(dp3351
g65
(dp3352
sg74
g3337
sg67
(lp3353
g60
(g61
g62
NtRp3354
(dp3355
g65
(dp3356
g73
I3
ssg74
g3350
sg67
(lp3357
S'<class wsgiref.util.FileWrapper at 0xa6e1b3c>'
p3358
asbasbasbag60
(g76
g62
NtRp3359
(dp3360
g65
(dp3361
sg74
g2828
sg67
(lp3362
g60
(g81
g62
NtRp3363
(dp3364
g65
(dp3365
g85
g86
ssg74
g3359
sg67
(lp3366
S'wsgi.input'
p3367
asbag60
(g81
g62
NtRp3368
(dp3369
g65
(dp3370
g92
g93
ssg74
g3359
sg67
(lp3371
S':'
asbag60
(g81
g62
NtRp3372
(dp3373
g65
(dp3374
sg74
g3359
sg67
(lp3375
g60
(g61
g62
NtRp3376
(dp3377
g65
(dp3378
g73
I3
ssg74
g3372
sg67
(lp3379
S"<open file '<fdopen>', mode 'w+b' at 0xad1c9c80>"
p3380
asbasbasbag60
(g76
g62
NtRp3381
(dp3382
g65
(dp3383
sg74
g2828
sg67
(lp3384
g60
(g81
g62
NtRp3385
(dp3386
g65
(dp3387
g85
g86
ssg74
g3381
sg67
(lp3388
S'wsgi.multiprocess'
p3389
asbag60
(g81
g62
NtRp3390
(dp3391
g65
(dp3392
g92
g93
ssg74
g3381
sg67
(lp3393
S':'
asbag60
(g81
g62
NtRp3394
(dp3395
g65
(dp3396
sg74
g3381
sg67
(lp3397
g60
(g61
g62
NtRp3398
(dp3399
g65
(dp3400
g73
I3
ssg74
g3394
sg67
(lp3401
g103
asbasbasbag60
(g76
g62
NtRp3402
(dp3403
g65
(dp3404
sg74
g2828
sg67
(lp3405
g60
(g81
g62
NtRp3406
(dp3407
g65
(dp3408
g85
g86
ssg74
g3402
sg67
(lp3409
S'wsgi.multithread'
p3410
asbag60
(g81
g62
NtRp3411
(dp3412
g65
(dp3413
g92
g93
ssg74
g3402
sg67
(lp3414
S':'
asbag60
(g81
g62
NtRp3415
(dp3416
g65
(dp3417
sg74
g3402
sg67
(lp3418
g60
(g61
g62
NtRp3419
(dp3420
g65
(dp3421
g73
I3
ssg74
g3415
sg67
(lp3422
g1931
asbasbasbag60
(g76
g62
NtRp3423
(dp3424
g65
(dp3425
sg74
g2828
sg67
(lp3426
g60
(g81
g62
NtRp3427
(dp3428
g65
(dp3429
g85
g86
ssg74
g3423
sg67
(lp3430
S'wsgi.run_once'
p3431
asbag60
(g81
g62
NtRp3432
(dp3433
g65
(dp3434
g92
g93
ssg74
g3423
sg67
(lp3435
S':'
asbag60
(g81
g62
NtRp3436
(dp3437
g65
(dp3438
sg74
g3423
sg67
(lp3439
g60
(g61
g62
NtRp3440
(dp3441
g65
(dp3442
g73
I3
ssg74
g3436
sg67
(lp3443
g103
asbasbasbag60
(g76
g62
NtRp3444
(dp3445
g65
(dp3446
sg74
g2828
sg67
(lp3447
g60
(g81
g62
NtRp3448
(dp3449
g65
(dp3450
g85
g86
ssg74
g3444
sg67
(lp3451
S'wsgi.url_scheme'
p3452
asbag60
(g81
g62
NtRp3453
(dp3454
g65
(dp3455
g92
g93
ssg74
g3444
sg67
(lp3456
S':'
asbag60
(g81
g62
NtRp3457
(dp3458
g65
(dp3459
sg74
g3444
sg67
(lp3460
g60
(g61
g62
NtRp3461
(dp3462
g65
(dp3463
g73
I3
ssg74
g3457
sg67
(lp3464
g1974
asbasbasbag60
(g76
g62
NtRp3465
(dp3466
g65
(dp3467
sg74
g2828
sg67
(lp3468
g60
(g81
g62
NtRp3469
(dp3470
g65
(dp3471
g85
g86
ssg74
g3465
sg67
(lp3472
S'wsgi.version'
p3473
asbag60
(g81
g62
NtRp3474
(dp3475
g65
(dp3476
g92
g93
ssg74
g3465
sg67
(lp3477
S':'
asbag60
(g81
g62
NtRp3478
(dp3479
g65
(dp3480
sg74
g3465
sg67
(lp3481
g60
(g61
g62
NtRp3482
(dp3483
g65
(dp3484
g73
I3
ssg74
g3478
sg67
(lp3485
S'1'
asbasbasbasbasbasbasbasbasbasbasbasbasbsS'frames'
p3486
(lp3487
(dp3488
S'file'
p3489
S'/home/u4hcsdaw/Python/web2py/gluon/restricted.py'
p3490
sS'dump'
p3491
(dp3492
S'environment'
p3493
S"{'A': <class 'gluon.html.A'>, 'AcesCall': <function AcesCall>, 'Auth': <class 'gluon.tools.Auth'>, 'B': <class 'gluon.html.B'>, 'BEAUTIFY': <class 'gluon.html.BEAUTIFY'>, 'BODY': <class 'gluon.html.BODY'>, 'BR': <class 'gluon.html.BR'>, 'BUTTON': <class 'gluon.html.BUTTON'>, 'CAT': <class 'gluon.html.CAT'>, 'CENTER': <class 'gluon.html.CENTER'>, ...}"
p3494
sS'ccode'
p3495
S'<code object <module> at 0xac915218, file "/home...plications/ACES/controllers/default.py", line 12>'
p3496
ssS'lnum'
p3497
I194
sS'lines'
p3498
(dp3499
I192
S'        else:'
p3500
sI193
S'            ccode = compile2(code,layer)'
p3501
sI194
S'        exec ccode in environment'
p3502
sI195
S'    except HTTP:'
p3503
sI196
S'        raise'
p3504
sI197
S'    except Exception, error:'
p3505
sI198
S'        # XXX Show exception in Wing IDE if running in debugger'
p3506
sI189
S'    try:'
p3507
sI190
S'        if type(code) == types.CodeType:'
p3508
sI191
S'            ccode = code'
p3509
ssS'call'
p3510
S"(code='# -*- coding: utf-8 -*-\\n# this file is released ...=crud())\\n\\nresponse._vars=response._caller(index)\\n', environment={'A': <class 'gluon.html.A'>, 'AcesCall': <function AcesCall>, 'Auth': <class 'gluon.tools.Auth'>, 'B': <class 'gluon.html.B'>, 'BEAUTIFY': <class 'gluon.html.BEAUTIFY'>, 'BODY': <class 'gluon.html.BODY'>, 'BR': <class 'gluon.html.BR'>, 'BUTTON': <class 'gluon.html.BUTTON'>, 'CAT': <class 'gluon.html.CAT'>, 'CENTER': <class 'gluon.html.CENTER'>, ...}, layer='/home/u4hcsdaw/Python/web2py/applications/ACES/controllers/default.py')"
p3511
sS'func'
p3512
S'restricted'
p3513
sa(dp3514
g3489
S'/home/u4hcsdaw/Python/web2py/applications/ACES/controllers/default.py'
p3515
sg3491
(dp3516
sg3497
I87
sg3498
(dp3517
I76
S'    http://..../[app]/default/data/update/[table]/[id]'
p3518
sI77
S'    http://..../[app]/default/data/delete/[table]/[id]'
p3519
sI78
S'    http://..../[app]/default/data/select/[table]'
p3520
sI79
S'    http://..../[app]/default/data/search/[table]'
p3521
sI80
S'    but URLs bust be signed, i.e. linked with'
p3522
sI81
S"      A('table',_href=URL('data/tables',user_signature=True))"
p3523
sI82
S'    or with the signed load operator'
p3524
sI83
S"      LOAD('default','data.load',args='tables',ajax=True,user_signature=True)"
p3525
sI84
S'    """'
p3526
sI85
S'    return dict(form=crud())'
p3527
ssg3510
S'()'
p3528
sg3512
S'<module>'
p3529
sa(dp3530
g3489
S'/home/u4hcsdaw/Python/web2py/gluon/globals.py'
p3531
sg3491
(dp3532
S'self'
p3533
S'undefined'
p3534
sS'f'
S'<function index>'
p3535
ssg3497
I149
sg3498
(dp3536
I144
S'        self.meta = Storage()      # used by web2py_ajax.html'
p3537
sI145
S'        self.menu = []             # used by the default view layout'
p3538
sI146
S'        self.files = []            # used by web2py_ajax.html'
p3539
sI147
S'        self.generic_patterns = [] # patterns to allow generic views'
p3540
sI148
S'        self._vars = None'
p3541
sI149
S'        self._caller = lambda f: f()'
p3542
sI150
S'        self._view_environment = None'
p3543
sI151
S'        self._custom_commit = None'
p3544
sI152
S'        self._custom_rollback = None'
p3545
sI153
S''
ssg3510
S'(f=<function index>)'
p3546
sg3512
S'<lambda>'
p3547
sa(dp3548
g3489
S'/home/u4hcsdaw/Python/web2py/applications/ACES/controllers/default.py'
p3549
sg3491
(dp3550
S'f1.accepts'
p3551
S'<bound method SQLFORM.accepts of <gluon.sqlhtml.SQLFORM object>>'
p3552
sS'f1'
p3553
S'<gluon.sqlhtml.SQLFORM object>'
p3554
sS'global request'
p3555
S"<Storage {'body': <open file '<fdopen>', mode 'w...d0b8fd', '_formname': 'linearWaveForm/create'}>}>"
p3556
sS'global session'
p3557
S"<Storage {'formVars': <Storage {'waveHeight': 0....1\\x1brT\\xa2\\xb7\\xbd\\xa4\\x0eO\\n\\x1c\\xd3\\x11\\xcb'}>"
p3558
sS'request.vars'
p3559
S"<Storage {'wavePeriod': '3.0', 'waveHeight': '0....99d0b8fd', '_formname': 'linearWaveForm/create'}>"
p3560
ssg3497
I28
sg3498
(dp3561
I32
S"        img1=IMG(_src=URL('static','images/Waves.svg?'+nowS))"
p3562
sI23
S''
sI24
S'    f1=linearWaveForm()'
p3563
sI25
S"    if session.has_key('formVars'):"
p3564
sI26
S'        f1.vars=session.formVars'
p3565
sI27
S"    #f1['vars']=dict(waveHeight=0.85,wavePeriod=8.00,waveBrk=0.78,waterDepth=4.1)"
p3566
sI28
S'    if f1.accepts(request.vars,session):'
p3567
sI29
S"        session['formVars']=f1.vars"
p3568
sI30
S'        t0=AcesCall(f1.vars)'
p3569
sI31
S'        pre1=PRE(t0)'
p3570
ssg3510
S'()'
p3571
sg3512
S'index'
p3572
sa(dp3573
g3489
S'/home/u4hcsdaw/Python/web2py/gluon/sqlhtml.py'
p3574
sg3491
(dp3575
S'self.vars.id'
p3576
S'6'
sS'fields'
p3577
S"{'id': 6, 'waterDepth': 1.0, 'waveBreakRatio': 0.78, 'waveHeight': 0.85, 'wavePeriod': 3.0}"
p3578
sS'self'
p3579
S'<gluon.sqlhtml.SQLFORM object>'
p3580
sS'self.vars'
p3581
S"<Storage {'waveHeight': 0.85, 'wavePeriod': 3.0,...veBreakRatio': 0.78, 'waterDepth': 1.0, 'id': 6}>"
p3582
sS'self.table.insert'
p3583
S"<bound method Table.insert of <Table {'wavePerio..., 'id': <gluon.dal.Field object at 0xad24796c>}>>"
p3584
sS'self.table'
p3585
S"<Table {'wavePeriod': <gluon.dal.Field object at...>, 'id': <gluon.dal.Field object at 0xad24796c>}>"
p3586
ssg3497
I1259
sg3498
(dp3587
I1254
S'                if record_id:'
p3588
sI1255
S'                    self.vars.id = self.record.id'
p3589
sI1256
S'                    if fields:'
p3590
sI1257
S'                        self.table._db(self.table._id == self.record.id).update(**fields)'
p3591
sI1258
S'                else:'
p3592
sI1259
S'                    self.vars.id = self.table.insert(**fields)'
p3593
sI1260
S'        self.accepted = ret'
p3594
sI1261
S'        return ret'
p3595
sI1262
S''
sI1263
S'    @staticmethod'
p3596
ssg3510
S"(self=<gluon.sqlhtml.SQLFORM object>, request_vars=<Storage {'wavePeriod': '3.0', 'waveHeight': '0....99d0b8fd', '_formname': 'linearWaveForm/create'}>, session=<Storage {'formVars': <Storage {'waveHeight': 0....1\\x1brT\\xa2\\xb7\\xbd\\xa4\\x0eO\\n\\x1c\\xd3\\x11\\xcb'}>, formname='linearWaveForm/create', keepvalues=False, onvalidation=None, dbio=True, hideerror=False, detect_record_change=False)"
p3597
sg3512
S'accepts'
p3598
sa(dp3599
g3489
S'/home/u4hcsdaw/Python/web2py/gluon/dal.py'
p3600
sg3491
(dp3601
S'self._listify'
p3602
S"<bound method Table._listify of <Table {'wavePer..., 'id': <gluon.dal.Field object at 0xad24796c>}>>"
p3603
sS'fields'
p3604
S"{'id': 6, 'waterDepth': 1.0, 'waveBreakRatio': 0.78, 'waveHeight': 0.85, 'wavePeriod': 3.0}"
p3605
sS'self'
p3606
S"<Table {'wavePeriod': <gluon.dal.Field object at...>, 'id': <gluon.dal.Field object at 0xad24796c>}>"
p3607
sS'self._db._adapter'
p3608
S'<gluon.dal.SQLiteAdapter object>'
p3609
sS'self._db._adapter.insert'
p3610
S'<bound method SQLiteAdapter.insert of <gluon.dal.SQLiteAdapter object>>'
p3611
sS'self._db'
p3612
S"<DAL {'auth_event': <Table {'origin': <gluon.dal... 'id': <gluon.dal.Field object at 0xac87b82c>}>}>"
p3613
ssg3497
I5045
sg3498
(dp3614
I5040
S''
sI5041
S'    def _insert(self, **fields):'
p3615
sI5042
S'        return self._db._adapter._insert(self,self._listify(fields))'
p3616
sI5043
S''
sI5044
S'    def insert(self, **fields):'
p3617
sI5045
S'        return self._db._adapter.insert(self,self._listify(fields))'
p3618
sI5046
S''
sI5047
S'    def validate_and_insert(self,**fields):'
p3619
sI5048
S'        response = Row()'
p3620
sI5049
S'        response.errors = self._validate(**fields)'
p3621
ssg3510
S"(self=<Table {'wavePeriod': <gluon.dal.Field object at...>, 'id': <gluon.dal.Field object at 0xad24796c>}>, **fields={'id': 6, 'waterDepth': 1.0, 'waveBreakRatio': 0.78, 'waveHeight': 0.85, 'wavePeriod': 3.0})"
p3622
sg3512
S'insert'
p3623
sa(dp3624
g3489
S'/home/u4hcsdaw/Python/web2py/gluon/dal.py'
p3625
sg3491
(dp3626
S'e'
S"IntegrityError('PRIMARY KEY must be unique',)"
p3627
ssg3497
I886
sg3498
(dp3628
I881
S'        try:'
p3629
sI882
S'            self.execute(query)'
p3630
sI883
S'        except Exception, e:'
p3631
sI884
S'            if isinstance(e,self.integrity_error_class()):'
p3632
sI885
S'                return None'
p3633
sI886
S'            raise e'
p3634
sI887
S"        if hasattr(table,'_primarykey'):"
p3635
sI888
S'            return dict([(k[0].name, k[1]) for k in fields \\'
p3636
sI889
S'                             if k[0].name in table._primarykey])'
p3637
sI890
S'        id = self.lastrowid(table)'
p3638
ssg3510
S"(self=<gluon.dal.SQLiteAdapter object>, table=<Table {'wavePeriod': <gluon.dal.Field object at...>, 'id': <gluon.dal.Field object at 0xad24796c>}>, fields=[(<gluon.dal.Field object>, 0.85), (<gluon.dal.Field object>, 3.0), (<gluon.dal.Field object>, 0.78), (<gluon.dal.Field object>, 1.0), (<gluon.dal.Field object>, 6)])"
p3639
sg3512
g3623
sasS'pyver'
p3640
S'Python 2.7.3: /usr/bin/python2.7'
p3641
sS'session'
p3642
g60
(g61
g62
NtRp3643
(dp3644
g65
(dp3645
sg67
(lp3646
g60
(g69
g62
NtRp3647
(dp3648
g65
(dp3649
g73
I5
ssg74
Nsg67
(lp3650
g60
(g76
g62
NtRp3651
(dp3652
g65
(dp3653
sg74
g3647
sg67
(lp3654
g60
(g81
g62
NtRp3655
(dp3656
g65
(dp3657
g85
g86
ssg74
g3651
sg67
(lp3658
S'WaveHeight'
p3659
asbag60
(g81
g62
NtRp3660
(dp3661
g65
(dp3662
g92
g93
ssg74
g3651
sg67
(lp3663
S':'
asbag60
(g81
g62
NtRp3664
(dp3665
g65
(dp3666
sg74
g3651
sg67
(lp3667
g60
(g61
g62
NtRp3668
(dp3669
g65
(dp3670
g73
I5
ssg74
g3664
sg67
(lp3671
S'0.85'
p3672
asbasbasbag60
(g76
g62
NtRp3673
(dp3674
g65
(dp3675
sg74
g3647
sg67
(lp3676
g60
(g81
g62
NtRp3677
(dp3678
g65
(dp3679
g85
g86
ssg74
g3673
sg67
(lp3680
S'formVars'
p3681
asbag60
(g81
g62
NtRp3682
(dp3683
g65
(dp3684
g92
g93
ssg74
g3673
sg67
(lp3685
S':'
asbag60
(g81
g62
NtRp3686
(dp3687
g65
(dp3688
sg74
g3673
sg67
(lp3689
g60
(g61
g62
NtRp3690
(dp3691
g65
(dp3692
g73
I5
ssg74
g3686
sg67
(lp3693
g60
(g69
g62
NtRp3694
(dp3695
g65
(dp3696
g73
I4
ssg74
Nsg67
(lp3697
g60
(g76
g62
NtRp3698
(dp3699
g65
(dp3700
sg74
g3694
sg67
(lp3701
g60
(g81
g62
NtRp3702
(dp3703
g65
(dp3704
g85
g86
ssg74
g3698
sg67
(lp3705
S'id'
p3706
asbag60
(g81
g62
NtRp3707
(dp3708
g65
(dp3709
g92
g93
ssg74
g3698
sg67
(lp3710
S':'
asbag60
(g81
g62
NtRp3711
(dp3712
g65
(dp3713
sg74
g3698
sg67
(lp3714
g60
(g61
g62
NtRp3715
(dp3716
g65
(dp3717
g73
I4
ssg74
g3711
sg67
(lp3718
S'6'
asbasbasbag60
(g76
g62
NtRp3719
(dp3720
g65
(dp3721
sg74
g3694
sg67
(lp3722
g60
(g81
g62
NtRp3723
(dp3724
g65
(dp3725
g85
g86
ssg74
g3719
sg67
(lp3726
S'waterDepth'
p3727
asbag60
(g81
g62
NtRp3728
(dp3729
g65
(dp3730
g92
g93
ssg74
g3719
sg67
(lp3731
S':'
asbag60
(g81
g62
NtRp3732
(dp3733
g65
(dp3734
sg74
g3719
sg67
(lp3735
g60
(g61
g62
NtRp3736
(dp3737
g65
(dp3738
g73
I4
ssg74
g3732
sg67
(lp3739
S'1.0'
p3740
asbasbasbag60
(g76
g62
NtRp3741
(dp3742
g65
(dp3743
sg74
g3694
sg67
(lp3744
g60
(g81
g62
NtRp3745
(dp3746
g65
(dp3747
g85
g86
ssg74
g3741
sg67
(lp3748
S'waveBreakRatio'
p3749
asbag60
(g81
g62
NtRp3750
(dp3751
g65
(dp3752
g92
g93
ssg74
g3741
sg67
(lp3753
S':'
asbag60
(g81
g62
NtRp3754
(dp3755
g65
(dp3756
sg74
g3741
sg67
(lp3757
g60
(g61
g62
NtRp3758
(dp3759
g65
(dp3760
g73
I4
ssg74
g3754
sg67
(lp3761
S'0.78'
p3762
asbasbasbag60
(g76
g62
NtRp3763
(dp3764
g65
(dp3765
sg74
g3694
sg67
(lp3766
g60
(g81
g62
NtRp3767
(dp3768
g65
(dp3769
g85
g86
ssg74
g3763
sg67
(lp3770
S'waveHeight'
p3771
asbag60
(g81
g62
NtRp3772
(dp3773
g65
(dp3774
g92
g93
ssg74
g3763
sg67
(lp3775
S':'
asbag60
(g81
g62
NtRp3776
(dp3777
g65
(dp3778
sg74
g3763
sg67
(lp3779
g60
(g61
g62
NtRp3780
(dp3781
g65
(dp3782
g73
I4
ssg74
g3776
sg67
(lp3783
S'0.85'
p3784
asbasbasbag60
(g76
g62
NtRp3785
(dp3786
g65
(dp3787
sg74
g3694
sg67
(lp3788
g60
(g81
g62
NtRp3789
(dp3790
g65
(dp3791
g85
g86
ssg74
g3785
sg67
(lp3792
S'wavePeriod'
p3793
asbag60
(g81
g62
NtRp3794
(dp3795
g65
(dp3796
g92
g93
ssg74
g3785
sg67
(lp3797
S':'
asbag60
(g81
g62
NtRp3798
(dp3799
g65
(dp3800
sg74
g3785
sg67
(lp3801
g60
(g61
g62
NtRp3802
(dp3803
g65
(dp3804
g73
I4
ssg74
g3798
sg67
(lp3805
S'3.0'
p3806
asbasbasbasbasbasbasbasbasbsS'etype'
p3807
S"<class 'sqlite3.IntegrityError'>"
p3808
sS'date'
p3809
S'Mon Sep 10 18:52:18 2012'
p3810
sS'response'
p3811
g60
(g61
g62
NtRp3812
(dp3813
g65
(dp3814
sg67
(lp3815
g60
(g69
g62
NtRp3816
(dp3817
g65
(dp3818
g73
I5
ssg74
Nsg67
(lp3819
g60
(g76
g62
NtRp3820
(dp3821
g65
(dp3822
sg74
g3816
sg67
(lp3823
g60
(g81
g62
NtRp3824
(dp3825
g65
(dp3826
g85
g86
ssg74
g3820
sg67
(lp3827
g158
asbag60
(g81
g62
NtRp3828
(dp3829
g65
(dp3830
g92
g93
ssg74
g3820
sg67
(lp3831
S':'
asbag60
(g81
g62
NtRp3832
(dp3833
g65
(dp3834
sg74
g3820
sg67
(lp3835
g60
(g61
g62
NtRp3836
(dp3837
g65
(dp3838
g73
I5
ssg74
g3832
sg67
(lp3839
S'<cStringIO.StringO object at 0xac623380>'
p3840
asbasbasbag60
(g76
g62
NtRp3841
(dp3842
g65
(dp3843
sg74
g3816
sg67
(lp3844
g60
(g81
g62
NtRp3845
(dp3846
g65
(dp3847
g85
g86
ssg74
g3841
sg67
(lp3848
g224
asbag60
(g81
g62
NtRp3849
(dp3850
g65
(dp3851
g92
g93
ssg74
g3841
sg67
(lp3852
S':'
asbag60
(g81
g62
NtRp3853
(dp3854
g65
(dp3855
sg74
g3841
sg67
(lp3856
g60
(g61
g62
NtRp3857
(dp3858
g65
(dp3859
g73
I5
ssg74
g3853
sg67
(lp3860
g60
(g69
g62
NtRp3861
(dp3862
g65
(dp3863
g73
I4
ssg74
Nsg67
(lp3864
g60
(g76
g62
NtRp3865
(dp3866
g65
(dp3867
sg74
g3861
sg67
(lp3868
g60
(g81
g62
NtRp3869
(dp3870
g65
(dp3871
g85
g86
ssg74
g3865
sg67
(lp3872
S'session_id_aces'
p3873
asbag60
(g81
g62
NtRp3874
(dp3875
g65
(dp3876
g92
g93
ssg74
g3865
sg67
(lp3877
S':'
asbag60
(g81
g62
NtRp3878
(dp3879
g65
(dp3880
sg74
g3865
sg67
(lp3881
g60
(g61
g62
NtRp3882
(dp3883
g65
(dp3884
g73
I4
ssg74
g3878
sg67
(lp3885
g60
(g69
g62
NtRp3886
(dp3887
g65
(dp3888
g73
I3
ssg74
Nsg67
(lp3889
g60
(g76
g62
NtRp3890
(dp3891
g65
(dp3892
sg74
g3886
sg67
(lp3893
g60
(g81
g62
NtRp3894
(dp3895
g65
(dp3896
g85
g86
ssg74
g3890
sg67
(lp3897
g274
asbag60
(g81
g62
NtRp3898
(dp3899
g65
(dp3900
g92
g93
ssg74
g3890
sg67
(lp3901
S':'
asbag60
(g81
g62
NtRp3902
(dp3903
g65
(dp3904
sg74
g3890
sg67
(lp3905
g60
(g61
g62
NtRp3906
(dp3907
g65
(dp3908
g73
I3
ssg74
g3902
sg67
(lp3909
S''
asbasbasbag60
(g76
g62
NtRp3910
(dp3911
g65
(dp3912
sg74
g3886
sg67
(lp3913
g60
(g81
g62
NtRp3914
(dp3915
g65
(dp3916
g85
g86
ssg74
g3910
sg67
(lp3917
g295
asbag60
(g81
g62
NtRp3918
(dp3919
g65
(dp3920
g92
g93
ssg74
g3910
sg67
(lp3921
S':'
asbag60
(g81
g62
NtRp3922
(dp3923
g65
(dp3924
sg74
g3910
sg67
(lp3925
g60
(g61
g62
NtRp3926
(dp3927
g65
(dp3928
g73
I3
ssg74
g3922
sg67
(lp3929
S''
asbasbasbag60
(g76
g62
NtRp3930
(dp3931
g65
(dp3932
sg74
g3886
sg67
(lp3933
g60
(g81
g62
NtRp3934
(dp3935
g65
(dp3936
g85
g86
ssg74
g3930
sg67
(lp3937
g316
asbag60
(g81
g62
NtRp3938
(dp3939
g65
(dp3940
g92
g93
ssg74
g3930
sg67
(lp3941
S':'
asbag60
(g81
g62
NtRp3942
(dp3943
g65
(dp3944
sg74
g3930
sg67
(lp3945
g60
(g61
g62
NtRp3946
(dp3947
g65
(dp3948
g73
I3
ssg74
g3942
sg67
(lp3949
S''
asbasbasbag60
(g76
g62
NtRp3950
(dp3951
g65
(dp3952
sg74
g3886
sg67
(lp3953
g60
(g81
g62
NtRp3954
(dp3955
g65
(dp3956
g85
g86
ssg74
g3950
sg67
(lp3957
g337
asbag60
(g81
g62
NtRp3958
(dp3959
g65
(dp3960
g92
g93
ssg74
g3950
sg67
(lp3961
S':'
asbag60
(g81
g62
NtRp3962
(dp3963
g65
(dp3964
sg74
g3950
sg67
(lp3965
g60
(g61
g62
NtRp3966
(dp3967
g65
(dp3968
g73
I3
ssg74
g3962
sg67
(lp3969
S''
asbasbasbag60
(g76
g62
NtRp3970
(dp3971
g65
(dp3972
sg74
g3886
sg67
(lp3973
g60
(g81
g62
NtRp3974
(dp3975
g65
(dp3976
g85
g86
ssg74
g3970
sg67
(lp3977
g358
asbag60
(g81
g62
NtRp3978
(dp3979
g65
(dp3980
g92
g93
ssg74
g3970
sg67
(lp3981
S':'
asbag60
(g81
g62
NtRp3982
(dp3983
g65
(dp3984
sg74
g3970
sg67
(lp3985
g60
(g61
g62
NtRp3986
(dp3987
g65
(dp3988
g73
I3
ssg74
g3982
sg67
(lp3989
S''
asbasbasbag60
(g76
g62
NtRp3990
(dp3991
g65
(dp3992
sg74
g3886
sg67
(lp3993
g60
(g81
g62
NtRp3994
(dp3995
g65
(dp3996
g85
g86
ssg74
g3990
sg67
(lp3997
g379
asbag60
(g81
g62
NtRp3998
(dp3999
g65
(dp4000
g92
g93
ssg74
g3990
sg67
(lp4001
S':'
asbag60
(g81
g62
NtRp4002
(dp4003
g65
(dp4004
sg74
g3990
sg67
(lp4005
g60
(g61
g62
NtRp4006
(dp4007
g65
(dp4008
g73
I3
ssg74
g4002
sg67
(lp4009
S'/'
asbasbasbag60
(g76
g62
NtRp4010
(dp4011
g65
(dp4012
sg74
g3886
sg67
(lp4013
g60
(g81
g62
NtRp4014
(dp4015
g65
(dp4016
g85
g86
ssg74
g4010
sg67
(lp4017
g400
asbag60
(g81
g62
NtRp4018
(dp4019
g65
(dp4020
g92
g93
ssg74
g4010
sg67
(lp4021
S':'
asbag60
(g81
g62
NtRp4022
(dp4023
g65
(dp4024
sg74
g4010
sg67
(lp4025
g60
(g61
g62
NtRp4026
(dp4027
g65
(dp4028
g73
I3
ssg74
g4022
sg67
(lp4029
S''
asbasbasbag60
(g76
g62
NtRp4030
(dp4031
g65
(dp4032
sg74
g3886
sg67
(lp4033
g60
(g81
g62
NtRp4034
(dp4035
g65
(dp4036
g85
g86
ssg74
g4030
sg67
(lp4037
g421
asbag60
(g81
g62
NtRp4038
(dp4039
g65
(dp4040
g92
g93
ssg74
g4030
sg67
(lp4041
S':'
asbag60
(g81
g62
NtRp4042
(dp4043
g65
(dp4044
sg74
g4030
sg67
(lp4045
g60
(g61
g62
NtRp4046
(dp4047
g65
(dp4048
g73
I3
ssg74
g4042
sg67
(lp4049
S''
asbasbasbasbasbasbasbasbasbasbasbag60
(g76
g62
NtRp4050
(dp4051
g65
(dp4052
sg74
g3816
sg67
(lp4053
g60
(g81
g62
NtRp4054
(dp4055
g65
(dp4056
g85
g86
ssg74
g4050
sg67
(lp4057
S'files'
p4058
asbag60
(g81
g62
NtRp4059
(dp4060
g65
(dp4061
g92
g93
ssg74
g4050
sg67
(lp4062
S':'
asbag60
(g81
g62
NtRp4063
(dp4064
g65
(dp4065
sg74
g4050
sg67
(lp4066
g60
(g61
g62
NtRp4067
(dp4068
g65
(dp4069
g73
I5
ssg74
g4063
sg67
(lp4070
g60
(g69
g62
NtRp4071
(dp4072
g65
(dp4073
g73
I4
ssg74
Nsg67
(lp4074
sbasbasbasbag60
(g76
g62
NtRp4075
(dp4076
g65
(dp4077
sg74
g3816
sg67
(lp4078
g60
(g81
g62
NtRp4079
(dp4080
g65
(dp4081
g85
g86
ssg74
g4075
sg67
(lp4082
S'flash'
p4083
asbag60
(g81
g62
NtRp4084
(dp4085
g65
(dp4086
g92
g93
ssg74
g4075
sg67
(lp4087
S':'
asbag60
(g81
g62
NtRp4088
(dp4089
g65
(dp4090
sg74
g4075
sg67
(lp4091
g60
(g61
g62
NtRp4092
(dp4093
g65
(dp4094
g73
I5
ssg74
g4088
sg67
(lp4095
S''
asbasbasbag60
(g76
g62
NtRp4096
(dp4097
g65
(dp4098
sg74
g3816
sg67
(lp4099
g60
(g81
g62
NtRp4100
(dp4101
g65
(dp4102
g85
g86
ssg74
g4096
sg67
(lp4103
S'generic_patterns'
p4104
asbag60
(g81
g62
NtRp4105
(dp4106
g65
(dp4107
g92
g93
ssg74
g4096
sg67
(lp4108
S':'
asbag60
(g81
g62
NtRp4109
(dp4110
g65
(dp4111
sg74
g4096
sg67
(lp4112
g60
(g61
g62
NtRp4113
(dp4114
g65
(dp4115
g73
I5
ssg74
g4109
sg67
(lp4116
g60
(g69
g62
NtRp4117
(dp4118
g65
(dp4119
g73
I4
ssg74
Nsg67
(lp4120
g60
(g76
g62
NtRp4121
(dp4122
g65
(dp4123
sg74
g4117
sg67
(lp4124
g60
(g81
g62
NtRp4125
(dp4126
g65
(dp4127
sg74
g4121
sg67
(lp4128
g60
(g61
g62
NtRp4129
(dp4130
g65
(dp4131
g73
I4
ssg74
g4125
sg67
(lp4132
S'*'
asbasbasbasbasbasbasbag60
(g76
g62
NtRp4133
(dp4134
g65
(dp4135
sg74
g3816
sg67
(lp4136
g60
(g81
g62
NtRp4137
(dp4138
g65
(dp4139
g85
g86
ssg74
g4133
sg67
(lp4140
S'headers'
p4141
asbag60
(g81
g62
NtRp4142
(dp4143
g65
(dp4144
g92
g93
ssg74
g4133
sg67
(lp4145
S':'
asbag60
(g81
g62
NtRp4146
(dp4147
g65
(dp4148
sg74
g4133
sg67
(lp4149
g60
(g61
g62
NtRp4150
(dp4151
g65
(dp4152
g73
I5
ssg74
g4146
sg67
(lp4153
g60
(g69
g62
NtRp4154
(dp4155
g65
(dp4156
g73
I4
ssg74
Nsg67
(lp4157
g60
(g76
g62
NtRp4158
(dp4159
g65
(dp4160
sg74
g4154
sg67
(lp4161
g60
(g81
g62
NtRp4162
(dp4163
g65
(dp4164
g85
g86
ssg74
g4158
sg67
(lp4165
S'Cache-Control'
p4166
asbag60
(g81
g62
NtRp4167
(dp4168
g65
(dp4169
g92
g93
ssg74
g4158
sg67
(lp4170
S':'
asbag60
(g81
g62
NtRp4171
(dp4172
g65
(dp4173
sg74
g4158
sg67
(lp4174
g60
(g61
g62
NtRp4175
(dp4176
g65
(dp4177
g73
I4
ssg74
g4171
sg67
(lp4178
S'no-store, no-cache, must-revalidate, post-check=0, pre-check=0'
p4179
asbasbasbag60
(g76
g62
NtRp4180
(dp4181
g65
(dp4182
sg74
g4154
sg67
(lp4183
g60
(g81
g62
NtRp4184
(dp4185
g65
(dp4186
g85
g86
ssg74
g4180
sg67
(lp4187
S'Content-Type'
p4188
asbag60
(g81
g62
NtRp4189
(dp4190
g65
(dp4191
g92
g93
ssg74
g4180
sg67
(lp4192
S':'
asbag60
(g81
g62
NtRp4193
(dp4194
g65
(dp4195
sg74
g4180
sg67
(lp4196
g60
(g61
g62
NtRp4197
(dp4198
g65
(dp4199
g73
I4
ssg74
g4193
sg67
(lp4200
S'text/html; charset=utf-8'
p4201
asbasbasbag60
(g76
g62
NtRp4202
(dp4203
g65
(dp4204
sg74
g4154
sg67
(lp4205
g60
(g81
g62
NtRp4206
(dp4207
g65
(dp4208
g85
g86
ssg74
g4202
sg67
(lp4209
S'Expires'
p4210
asbag60
(g81
g62
NtRp4211
(dp4212
g65
(dp4213
g92
g93
ssg74
g4202
sg67
(lp4214
S':'
asbag60
(g81
g62
NtRp4215
(dp4216
g65
(dp4217
sg74
g4202
sg67
(lp4218
g60
(g61
g62
NtRp4219
(dp4220
g65
(dp4221
g73
I4
ssg74
g4215
sg67
(lp4222
S'Mon, 10 Sep 2012 23:52:18 GMT'
p4223
asbasbasbag60
(g76
g62
NtRp4224
(dp4225
g65
(dp4226
sg74
g4154
sg67
(lp4227
g60
(g81
g62
NtRp4228
(dp4229
g65
(dp4230
g85
g86
ssg74
g4224
sg67
(lp4231
S'Pragma'
p4232
asbag60
(g81
g62
NtRp4233
(dp4234
g65
(dp4235
g92
g93
ssg74
g4224
sg67
(lp4236
S':'
asbag60
(g81
g62
NtRp4237
(dp4238
g65
(dp4239
sg74
g4224
sg67
(lp4240
g60
(g61
g62
NtRp4241
(dp4242
g65
(dp4243
g73
I4
ssg74
g4237
sg67
(lp4244
S'no-cache'
p4245
asbasbasbag60
(g76
g62
NtRp4246
(dp4247
g65
(dp4248
sg74
g4154
sg67
(lp4249
g60
(g81
g62
NtRp4250
(dp4251
g65
(dp4252
g85
g86
ssg74
g4246
sg67
(lp4253
S'X-Powered-By'
p4254
asbag60
(g81
g62
NtRp4255
(dp4256
g65
(dp4257
g92
g93
ssg74
g4246
sg67
(lp4258
S':'
asbag60
(g81
g62
NtRp4259
(dp4260
g65
(dp4261
sg74
g4246
sg67
(lp4262
g60
(g61
g62
NtRp4263
(dp4264
g65
(dp4265
g73
I4
ssg74
g4259
sg67
(lp4266
S'web2py'
p4267
asbasbasbasbasbasbasbag60
(g76
g62
NtRp4268
(dp4269
g65
(dp4270
sg74
g3816
sg67
(lp4271
g60
(g81
g62
NtRp4272
(dp4273
g65
(dp4274
g85
g86
ssg74
g4268
sg67
(lp4275
S'menu'
p4276
asbag60
(g81
g62
NtRp4277
(dp4278
g65
(dp4279
g92
g93
ssg74
g4268
sg67
(lp4280
S':'
asbag60
(g81
g62
NtRp4281
(dp4282
g65
(dp4283
sg74
g4268
sg67
(lp4284
g60
(g61
g62
NtRp4285
(dp4286
g65
(dp4287
g73
I5
ssg74
g4281
sg67
(lp4288
g60
(g69
g62
NtRp4289
(dp4290
g65
(dp4291
g73
I4
ssg74
Nsg67
(lp4292
g60
(g76
g62
NtRp4293
(dp4294
g65
(dp4295
sg74
g4289
sg67
(lp4296
g60
(g81
g62
NtRp4297
(dp4298
g65
(dp4299
sg74
g4293
sg67
(lp4300
g60
(g61
g62
NtRp4301
(dp4302
g65
(dp4303
g73
I4
ssg74
g4297
sg67
(lp4304
g60
(g69
g62
NtRp4305
(dp4306
g65
(dp4307
g73
I3
ssg74
Nsg67
(lp4308
g60
(g76
g62
NtRp4309
(dp4310
g65
(dp4311
sg74
g4305
sg67
(lp4312
g60
(g81
g62
NtRp4313
(dp4314
g65
(dp4315
sg74
g4309
sg67
(lp4316
g60
(g61
g62
NtRp4317
(dp4318
g65
(dp4319
g73
I3
ssg74
g4313
sg67
(lp4320
cgluon.languages
lazyT_unpickle
p4321
(S't\x04\x00\x00\x00Home'
tRp4322
asbasbasbag60
(g76
g62
NtRp4323
(dp4324
g65
(dp4325
sg74
g4305
sg67
(lp4326
g60
(g81
g62
NtRp4327
(dp4328
g65
(dp4329
sg74
g4323
sg67
(lp4330
g60
(g61
g62
NtRp4331
(dp4332
g65
(dp4333
g73
I3
ssg74
g4327
sg67
(lp4334
g103
asbasbasbag60
(g76
g62
NtRp4335
(dp4336
g65
(dp4337
sg74
g4305
sg67
(lp4338
g60
(g81
g62
NtRp4339
(dp4340
g65
(dp4341
sg74
g4335
sg67
(lp4342
g60
(g61
g62
NtRp4343
(dp4344
g65
(dp4345
g73
I3
ssg74
g4339
sg67
(lp4346
S'/ACES/default/index'
p4347
asbasbasbag60
(g76
g62
NtRp4348
(dp4349
g65
(dp4350
sg74
g4305
sg67
(lp4351
g60
(g81
g62
NtRp4352
(dp4353
g65
(dp4354
sg74
g4348
sg67
(lp4355
g60
(g61
g62
NtRp4356
(dp4357
g65
(dp4358
g73
I3
ssg74
g4352
sg67
(lp4359
g60
(g69
g62
NtRp4360
(dp4361
g65
(dp4362
g73
I2
ssg74
Nsg67
(lp4363
sbasbasbasbasbasbasbasbag60
(g76
g62
NtRp4364
(dp4365
g65
(dp4366
sg74
g4289
sg67
(lp4367
g60
(g81
g62
NtRp4368
(dp4369
g65
(dp4370
sg74
g4364
sg67
(lp4371
g60
(g61
g62
NtRp4372
(dp4373
g65
(dp4374
g73
I4
ssg74
g4368
sg67
(lp4375
g60
(g69
g62
NtRp4376
(dp4377
g65
(dp4378
g73
I3
ssg74
Nsg67
(lp4379
g60
(g76
g62
NtRp4380
(dp4381
g65
(dp4382
sg74
g4376
sg67
(lp4383
g60
(g81
g62
NtRp4384
(dp4385
g65
(dp4386
sg74
g4380
sg67
(lp4387
g60
(g61
g62
NtRp4388
(dp4389
g65
(dp4390
g73
I3
ssg74
g4384
sg67
(lp4391
g4321
(S's\x08\x00\x00\x00This App'
tRp4392
asbasbasbag60
(g76
g62
NtRp4393
(dp4394
g65
(dp4395
sg74
g4376
sg67
(lp4396
g60
(g81
g62
NtRp4397
(dp4398
g65
(dp4399
sg74
g4393
sg67
(lp4400
g60
(g61
g62
NtRp4401
(dp4402
g65
(dp4403
g73
I3
ssg74
g4397
sg67
(lp4404
g103
asbasbasbag60
(g76
g62
NtRp4405
(dp4406
g65
(dp4407
sg74
g4376
sg67
(lp4408
g60
(g81
g62
NtRp4409
(dp4410
g65
(dp4411
sg74
g4405
sg67
(lp4412
g60
(g61
g62
NtRp4413
(dp4414
g65
(dp4415
g73
I3
ssg74
g4409
sg67
(lp4416
S'/admin/default/design/ACES'
p4417
asbasbasbag60
(g76
g62
NtRp4418
(dp4419
g65
(dp4420
sg74
g4376
sg67
(lp4421
g60
(g81
g62
NtRp4422
(dp4423
g65
(dp4424
sg74
g4418
sg67
(lp4425
g60
(g61
g62
NtRp4426
(dp4427
g65
(dp4428
g73
I3
ssg74
g4422
sg67
(lp4429
g60
(g69
g62
NtRp4430
(dp4431
g65
(dp4432
g73
I2
ssg74
Nsg67
(lp4433
g60
(g76
g62
NtRp4434
(dp4435
g65
(dp4436
sg74
g4430
sg67
(lp4437
g60
(g81
g62
NtRp4438
(dp4439
g65
(dp4440
sg74
g4434
sg67
(lp4441
g60
(g61
g62
NtRp4442
(dp4443
g65
(dp4444
g73
I2
ssg74
g4438
sg67
(lp4445
g60
(g69
g62
NtRp4446
(dp4447
g65
(dp4448
g73
I1
ssg74
Nsg67
(lp4449
g60
(g76
g62
NtRp4450
(dp4451
g65
(dp4452
sg74
g4446
sg67
(lp4453
g60
(g81
g62
NtRp4454
(dp4455
g65
(dp4456
sg74
g4450
sg67
(lp4457
g60
(g61
g62
NtRp4458
(dp4459
g65
(dp4460
g73
I1
ssg74
g4454
sg67
(lp4461
g4321
(S't\n\x00\x00\x00Controller'
tRp4462
asbasbasbag60
(g76
g62
NtRp4463
(dp4464
g65
(dp4465
sg74
g4446
sg67
(lp4466
g60
(g81
g62
NtRp4467
(dp4468
g65
(dp4469
sg74
g4463
sg67
(lp4470
g60
(g61
g62
NtRp4471
(dp4472
g65
(dp4473
g73
I1
ssg74
g4467
sg67
(lp4474
I00
asbasbasbag60
(g76
g62
NtRp4475
(dp4476
g65
(dp4477
sg74
g4446
sg67
(lp4478
g60
(g81
g62
NtRp4479
(dp4480
g65
(dp4481
sg74
g4475
sg67
(lp4482
g60
(g61
g62
NtRp4483
(dp4484
g65
(dp4485
g73
I1
ssg74
g4479
sg67
(lp4486
S'/admin/default/edit/ACES/controllers/default.py'
p4487
asbasbasbasbasbasbasbag60
(g76
g62
NtRp4488
(dp4489
g65
(dp4490
sg74
g4430
sg67
(lp4491
g60
(g81
g62
NtRp4492
(dp4493
g65
(dp4494
sg74
g4488
sg67
(lp4495
g60
(g61
g62
NtRp4496
(dp4497
g65
(dp4498
g73
I2
ssg74
g4492
sg67
(lp4499
g60
(g69
g62
NtRp4500
(dp4501
g65
(dp4502
g73
I1
ssg74
Nsg67
(lp4503
g60
(g76
g62
NtRp4504
(dp4505
g65
(dp4506
sg74
g4500
sg67
(lp4507
g60
(g81
g62
NtRp4508
(dp4509
g65
(dp4510
sg74
g4504
sg67
(lp4511
g60
(g61
g62
NtRp4512
(dp4513
g65
(dp4514
g73
I1
ssg74
g4508
sg67
(lp4515
g4321
(S't\x04\x00\x00\x00View'
tRp4516
asbasbasbag60
(g76
g62
NtRp4517
(dp4518
g65
(dp4519
sg74
g4500
sg67
(lp4520
g60
(g81
g62
NtRp4521
(dp4522
g65
(dp4523
sg74
g4517
sg67
(lp4524
g60
(g61
g62
NtRp4525
(dp4526
g65
(dp4527
g73
I1
ssg74
g4521
sg67
(lp4528
I00
asbasbasbag60
(g76
g62
NtRp4529
(dp4530
g65
(dp4531
sg74
g4500
sg67
(lp4532
g60
(g81
g62
NtRp4533
(dp4534
g65
(dp4535
sg74
g4529
sg67
(lp4536
g60
(g61
g62
NtRp4537
(dp4538
g65
(dp4539
g73
I1
ssg74
g4533
sg67
(lp4540
S'/admin/default/edit/ACES/views/default/index.html'
p4541
asbasbasbasbasbasbasbag60
(g76
g62
NtRp4542
(dp4543
g65
(dp4544
sg74
g4430
sg67
(lp4545
g60
(g81
g62
NtRp4546
(dp4547
g65
(dp4548
sg74
g4542
sg67
(lp4549
g60
(g61
g62
NtRp4550
(dp4551
g65
(dp4552
g73
I2
ssg74
g4546
sg67
(lp4553
g60
(g69
g62
NtRp4554
(dp4555
g65
(dp4556
g73
I1
ssg74
Nsg67
(lp4557
g60
(g76
g62
NtRp4558
(dp4559
g65
(dp4560
sg74
g4554
sg67
(lp4561
g60
(g81
g62
NtRp4562
(dp4563
g65
(dp4564
sg74
g4558
sg67
(lp4565
g60
(g61
g62
NtRp4566
(dp4567
g65
(dp4568
g73
I1
ssg74
g4562
sg67
(lp4569
g4321
(S't\x06\x00\x00\x00Layout'
tRp4570
asbasbasbag60
(g76
g62
NtRp4571
(dp4572
g65
(dp4573
sg74
g4554
sg67
(lp4574
g60
(g81
g62
NtRp4575
(dp4576
g65
(dp4577
sg74
g4571
sg67
(lp4578
g60
(g61
g62
NtRp4579
(dp4580
g65
(dp4581
g73
I1
ssg74
g4575
sg67
(lp4582
I00
asbasbasbag60
(g76
g62
NtRp4583
(dp4584
g65
(dp4585
sg74
g4554
sg67
(lp4586
g60
(g81
g62
NtRp4587
(dp4588
g65
(dp4589
sg74
g4583
sg67
(lp4590
g60
(g61
g62
NtRp4591
(dp4592
g65
(dp4593
g73
I1
ssg74
g4587
sg67
(lp4594
S'/admin/default/edit/ACES/views/layout.html'
p4595
asbasbasbasbasbasbasbag60
(g76
g62
NtRp4596
(dp4597
g65
(dp4598
sg74
g4430
sg67
(lp4599
g60
(g81
g62
NtRp4600
(dp4601
g65
(dp4602
sg74
g4596
sg67
(lp4603
g60
(g61
g62
NtRp4604
(dp4605
g65
(dp4606
g73
I2
ssg74
g4600
sg67
(lp4607
g60
(g69
g62
NtRp4608
(dp4609
g65
(dp4610
g73
I1
ssg74
Nsg67
(lp4611
g60
(g76
g62
NtRp4612
(dp4613
g65
(dp4614
sg74
g4608
sg67
(lp4615
g60
(g81
g62
NtRp4616
(dp4617
g65
(dp4618
sg74
g4612
sg67
(lp4619
g60
(g61
g62
NtRp4620
(dp4621
g65
(dp4622
g73
I1
ssg74
g4616
sg67
(lp4623
g4321
(S't\n\x00\x00\x00Stylesheet'
tRp4624
asbasbasbag60
(g76
g62
NtRp4625
(dp4626
g65
(dp4627
sg74
g4608
sg67
(lp4628
g60
(g81
g62
NtRp4629
(dp4630
g65
(dp4631
sg74
g4625
sg67
(lp4632
g60
(g61
g62
NtRp4633
(dp4634
g65
(dp4635
g73
I1
ssg74
g4629
sg67
(lp4636
I00
asbasbasbag60
(g76
g62
NtRp4637
(dp4638
g65
(dp4639
sg74
g4608
sg67
(lp4640
g60
(g81
g62
NtRp4641
(dp4642
g65
(dp4643
sg74
g4637
sg67
(lp4644
g60
(g61
g62
NtRp4645
(dp4646
g65
(dp4647
g73
I1
ssg74
g4641
sg67
(lp4648
S'/admin/default/edit/ACES/static/base.css'
p4649
asbasbasbasbasbasbasbag60
(g76
g62
NtRp4650
(dp4651
g65
(dp4652
sg74
g4430
sg67
(lp4653
g60
(g81
g62
NtRp4654
(dp4655
g65
(dp4656
sg74
g4650
sg67
(lp4657
g60
(g61
g62
NtRp4658
(dp4659
g65
(dp4660
g73
I2
ssg74
g4654
sg67
(lp4661
g60
(g69
g62
NtRp4662
(dp4663
g65
(dp4664
g73
I1
ssg74
Nsg67
(lp4665
g60
(g76
g62
NtRp4666
(dp4667
g65
(dp4668
sg74
g4662
sg67
(lp4669
g60
(g81
g62
NtRp4670
(dp4671
g65
(dp4672
sg74
g4666
sg67
(lp4673
g60
(g61
g62
NtRp4674
(dp4675
g65
(dp4676
g73
I1
ssg74
g4670
sg67
(lp4677
g4321
(S's\x08\x00\x00\x00DB Model'
tRp4678
asbasbasbag60
(g76
g62
NtRp4679
(dp4680
g65
(dp4681
sg74
g4662
sg67
(lp4682
g60
(g81
g62
NtRp4683
(dp4684
g65
(dp4685
sg74
g4679
sg67
(lp4686
g60
(g61
g62
NtRp4687
(dp4688
g65
(dp4689
g73
I1
ssg74
g4683
sg67
(lp4690
I00
asbasbasbag60
(g76
g62
NtRp4691
(dp4692
g65
(dp4693
sg74
g4662
sg67
(lp4694
g60
(g81
g62
NtRp4695
(dp4696
g65
(dp4697
sg74
g4691
sg67
(lp4698
g60
(g61
g62
NtRp4699
(dp4700
g65
(dp4701
g73
I1
ssg74
g4695
sg67
(lp4702
S'/admin/default/edit/ACES/models/db.py'
p4703
asbasbasbasbasbasbasbag60
(g76
g62
NtRp4704
(dp4705
g65
(dp4706
sg74
g4430
sg67
(lp4707
g60
(g81
g62
NtRp4708
(dp4709
g65
(dp4710
sg74
g4704
sg67
(lp4711
g60
(g61
g62
NtRp4712
(dp4713
g65
(dp4714
g73
I2
ssg74
g4708
sg67
(lp4715
g60
(g69
g62
NtRp4716
(dp4717
g65
(dp4718
g73
I1
ssg74
Nsg67
(lp4719
g60
(g76
g62
NtRp4720
(dp4721
g65
(dp4722
sg74
g4716
sg67
(lp4723
g60
(g81
g62
NtRp4724
(dp4725
g65
(dp4726
sg74
g4720
sg67
(lp4727
g60
(g61
g62
NtRp4728
(dp4729
g65
(dp4730
g73
I1
ssg74
g4724
sg67
(lp4731
g4321
(S's\n\x00\x00\x00Menu Model'
tRp4732
asbasbasbag60
(g76
g62
NtRp4733
(dp4734
g65
(dp4735
sg74
g4716
sg67
(lp4736
g60
(g81
g62
NtRp4737
(dp4738
g65
(dp4739
sg74
g4733
sg67
(lp4740
g60
(g61
g62
NtRp4741
(dp4742
g65
(dp4743
g73
I1
ssg74
g4737
sg67
(lp4744
I00
asbasbasbag60
(g76
g62
NtRp4745
(dp4746
g65
(dp4747
sg74
g4716
sg67
(lp4748
g60
(g81
g62
NtRp4749
(dp4750
g65
(dp4751
sg74
g4745
sg67
(lp4752
g60
(g61
g62
NtRp4753
(dp4754
g65
(dp4755
g73
I1
ssg74
g4749
sg67
(lp4756
S'/admin/default/edit/ACES/models/menu.py'
p4757
asbasbasbasbasbasbasbag60
(g76
g62
NtRp4758
(dp4759
g65
(dp4760
sg74
g4430
sg67
(lp4761
g60
(g81
g62
NtRp4762
(dp4763
g65
(dp4764
sg74
g4758
sg67
(lp4765
g60
(g61
g62
NtRp4766
(dp4767
g65
(dp4768
g73
I2
ssg74
g4762
sg67
(lp4769
g60
(g69
g62
NtRp4770
(dp4771
g65
(dp4772
g73
I1
ssg74
Nsg67
(lp4773
g60
(g76
g62
NtRp4774
(dp4775
g65
(dp4776
sg74
g4770
sg67
(lp4777
g60
(g81
g62
NtRp4778
(dp4779
g65
(dp4780
sg74
g4774
sg67
(lp4781
g60
(g61
g62
NtRp4782
(dp4783
g65
(dp4784
g73
I1
ssg74
g4778
sg67
(lp4785
g4321
(S't\x08\x00\x00\x00Database'
tRp4786
asbasbasbag60
(g76
g62
NtRp4787
(dp4788
g65
(dp4789
sg74
g4770
sg67
(lp4790
g60
(g81
g62
NtRp4791
(dp4792
g65
(dp4793
sg74
g4787
sg67
(lp4794
g60
(g61
g62
NtRp4795
(dp4796
g65
(dp4797
g73
I1
ssg74
g4791
sg67
(lp4798
I00
asbasbasbag60
(g76
g62
NtRp4799
(dp4800
g65
(dp4801
sg74
g4770
sg67
(lp4802
g60
(g81
g62
NtRp4803
(dp4804
g65
(dp4805
sg74
g4799
sg67
(lp4806
g60
(g61
g62
NtRp4807
(dp4808
g65
(dp4809
g73
I1
ssg74
g4803
sg67
(lp4810
S'/ACES/appadmin/index'
p4811
asbasbasbasbasbasbasbag60
(g76
g62
NtRp4812
(dp4813
g65
(dp4814
sg74
g4430
sg67
(lp4815
g60
(g81
g62
NtRp4816
(dp4817
g65
(dp4818
sg74
g4812
sg67
(lp4819
g60
(g61
g62
NtRp4820
(dp4821
g65
(dp4822
g73
I2
ssg74
g4816
sg67
(lp4823
g60
(g69
g62
NtRp4824
(dp4825
g65
(dp4826
g73
I1
ssg74
Nsg67
(lp4827
g60
(g76
g62
NtRp4828
(dp4829
g65
(dp4830
sg74
g4824
sg67
(lp4831
g60
(g81
g62
NtRp4832
(dp4833
g65
(dp4834
sg74
g4828
sg67
(lp4835
g60
(g61
g62
NtRp4836
(dp4837
g65
(dp4838
g73
I1
ssg74
g4832
sg67
(lp4839
g4321
(S't\x06\x00\x00\x00Errors'
tRp4840
asbasbasbag60
(g76
g62
NtRp4841
(dp4842
g65
(dp4843
sg74
g4824
sg67
(lp4844
g60
(g81
g62
NtRp4845
(dp4846
g65
(dp4847
sg74
g4841
sg67
(lp4848
g60
(g61
g62
NtRp4849
(dp4850
g65
(dp4851
g73
I1
ssg74
g4845
sg67
(lp4852
I00
asbasbasbag60
(g76
g62
NtRp4853
(dp4854
g65
(dp4855
sg74
g4824
sg67
(lp4856
g60
(g81
g62
NtRp4857
(dp4858
g65
(dp4859
sg74
g4853
sg67
(lp4860
g60
(g61
g62
NtRp4861
(dp4862
g65
(dp4863
g73
I1
ssg74
g4857
sg67
(lp4864
S'/admin/default/errors/ACES'
p4865
asbasbasbasbasbasbasbag60
(g76
g62
NtRp4866
(dp4867
g65
(dp4868
sg74
g4430
sg67
(lp4869
g60
(g81
g62
NtRp4870
(dp4871
g65
(dp4872
sg74
g4866
sg67
(lp4873
g60
(g61
g62
NtRp4874
(dp4875
g65
(dp4876
g73
I2
ssg74
g4870
sg67
(lp4877
g60
(g69
g62
NtRp4878
(dp4879
g65
(dp4880
g73
I1
ssg74
Nsg67
(lp4881
g60
(g76
g62
NtRp4882
(dp4883
g65
(dp4884
sg74
g4878
sg67
(lp4885
g60
(g81
g62
NtRp4886
(dp4887
g65
(dp4888
sg74
g4882
sg67
(lp4889
g60
(g61
g62
NtRp4890
(dp4891
g65
(dp4892
g73
I1
ssg74
g4886
sg67
(lp4893
g4321
(S't\x05\x00\x00\x00About'
tRp4894
asbasbasbag60
(g76
g62
NtRp4895
(dp4896
g65
(dp4897
sg74
g4878
sg67
(lp4898
g60
(g81
g62
NtRp4899
(dp4900
g65
(dp4901
sg74
g4895
sg67
(lp4902
g60
(g61
g62
NtRp4903
(dp4904
g65
(dp4905
g73
I1
ssg74
g4899
sg67
(lp4906
I00
asbasbasbag60
(g76
g62
NtRp4907
(dp4908
g65
(dp4909
sg74
g4878
sg67
(lp4910
g60
(g81
g62
NtRp4911
(dp4912
g65
(dp4913
sg74
g4907
sg67
(lp4914
g60
(g61
g62
NtRp4915
(dp4916
g65
(dp4917
g73
I1
ssg74
g4911
sg67
(lp4918
S'/admin/default/about/ACES'
p4919
asbasbasbasbasbasbasbasbasbasbasbasbasbasbasbag60
(g76
g62
NtRp4920
(dp4921
g65
(dp4922
sg74
g4289
sg67
(lp4923
g60
(g81
g62
NtRp4924
(dp4925
g65
(dp4926
sg74
g4920
sg67
(lp4927
g60
(g61
g62
NtRp4928
(dp4929
g65
(dp4930
g73
I4
ssg74
g4924
sg67
(lp4931
g60
(g69
g62
NtRp4932
(dp4933
g65
(dp4934
g73
I3
ssg74
Nsg67
(lp4935
g60
(g76
g62
NtRp4936
(dp4937
g65
(dp4938
sg74
g4932
sg67
(lp4939
g60
(g81
g62
NtRp4940
(dp4941
g65
(dp4942
sg74
g4936
sg67
(lp4943
g60
(g61
g62
NtRp4944
(dp4945
g65
(dp4946
g73
I3
ssg74
g4940
sg67
(lp4947
g4321
(S't\t\x00\x00\x00Resources'
tRp4948
asbasbasbag60
(g76
g62
NtRp4949
(dp4950
g65
(dp4951
sg74
g4932
sg67
(lp4952
g60
(g81
g62
NtRp4953
(dp4954
g65
(dp4955
sg74
g4949
sg67
(lp4956
g60
(g61
g62
NtRp4957
(dp4958
g65
(dp4959
g73
I3
ssg74
g4953
sg67
(lp4960
g103
asbasbasbag60
(g76
g62
NtRp4961
(dp4962
g65
(dp4963
sg74
g4932
sg67
(lp4964
g60
(g81
g62
NtRp4965
(dp4966
g65
(dp4967
sg74
g4961
sg67
(lp4968
g60
(g61
g62
NtRp4969
(dp4970
g65
(dp4971
g73
I3
ssg74
g4965
sg67
(lp4972
S'None'
p4973
asbasbasbag60
(g76
g62
NtRp4974
(dp4975
g65
(dp4976
sg74
g4932
sg67
(lp4977
g60
(g81
g62
NtRp4978
(dp4979
g65
(dp4980
sg74
g4974
sg67
(lp4981
g60
(g61
g62
NtRp4982
(dp4983
g65
(dp4984
g73
I3
ssg74
g4978
sg67
(lp4985
g60
(g69
g62
NtRp4986
(dp4987
g65
(dp4988
g73
I2
ssg74
Nsg67
(lp4989
g60
(g76
g62
NtRp4990
(dp4991
g65
(dp4992
sg74
g4986
sg67
(lp4993
g60
(g81
g62
NtRp4994
(dp4995
g65
(dp4996
sg74
g4990
sg67
(lp4997
g60
(g61
g62
NtRp4998
(dp4999
g65
(dp5000
g73
I2
ssg74
g4994
sg67
(lp5001
g60
(g69
g62
NtRp5002
(dp5003
g65
(dp5004
g73
I1
ssg74
Nsg67
(lp5005
g60
(g76
g62
NtRp5006
(dp5007
g65
(dp5008
sg74
g5002
sg67
(lp5009
g60
(g81
g62
NtRp5010
(dp5011
g65
(dp5012
sg74
g5006
sg67
(lp5013
g60
(g61
g62
NtRp5014
(dp5015
g65
(dp5016
g73
I1
ssg74
g5010
sg67
(lp5017
g4321
(S't\r\x00\x00\x00Documentation'
tRp5018
asbasbasbag60
(g76
g62
NtRp5019
(dp5020
g65
(dp5021
sg74
g5002
sg67
(lp5022
g60
(g81
g62
NtRp5023
(dp5024
g65
(dp5025
sg74
g5019
sg67
(lp5026
g60
(g61
g62
NtRp5027
(dp5028
g65
(dp5029
g73
I1
ssg74
g5023
sg67
(lp5030
I00
asbasbasbag60
(g76
g62
NtRp5031
(dp5032
g65
(dp5033
sg74
g5002
sg67
(lp5034
g60
(g81
g62
NtRp5035
(dp5036
g65
(dp5037
sg74
g5031
sg67
(lp5038
g60
(g61
g62
NtRp5039
(dp5040
g65
(dp5041
g73
I1
ssg74
g5035
sg67
(lp5042
S'http://www.web2py.com/book'
p5043
asbasbasbag60
(g76
g62
NtRp5044
(dp5045
g65
(dp5046
sg74
g5002
sg67
(lp5047
g60
(g81
g62
NtRp5048
(dp5049
g65
(dp5050
sg74
g5044
sg67
(lp5051
g60
(g61
g62
NtRp5052
(dp5053
g65
(dp5054
g73
I1
ssg74
g5048
sg67
(lp5055
(lp5056
(g4321
(S't\x07\x00\x00\x00Preface'
tRp5057
I00
S'http://www.web2py.com/book/default/chapter/00'
p5058
tp5059
a(g4321
(S't\x0c\x00\x00\x00Introduction'
tRp5060
I00
S'http://www.web2py.com/book/default/chapter/01'
p5061
tp5062
a(g4321
(S't\x06\x00\x00\x00Python'
tRp5063
I00
S'http://www.web2py.com/book/default/chapter/02'
p5064
tp5065
a(g4321
(S't\x08\x00\x00\x00Overview'
tRp5066
I00
S'http://www.web2py.com/book/default/chapter/03'
p5067
tp5068
a(g4321
(S's\x08\x00\x00\x00The Core'
tRp5069
I00
S'http://www.web2py.com/book/default/chapter/04'
p5070
tp5071
a(g4321
(S's\t\x00\x00\x00The Views'
tRp5072
I00
S'http://www.web2py.com/book/default/chapter/05'
p5073
tp5074
a(g4321
(S't\x08\x00\x00\x00Database'
tRp5075
I00
S'http://www.web2py.com/book/default/chapter/06'
p5076
tp5077
a(g4321
(S's\x14\x00\x00\x00Forms and Validators'
tRp5078
I00
S'http://www.web2py.com/book/default/chapter/07'
p5079
tp5080
a(g4321
(S's\x0e\x00\x00\x00Access Control'
tRp5081
I00
S'http://www.web2py.com/book/default/chapter/08'
p5082
tp5083
a(g4321
(S't\x08\x00\x00\x00Services'
tRp5084
I00
S'http://www.web2py.com/book/default/chapter/09'
p5085
tp5086
a(g4321
(S's\x0c\x00\x00\x00Ajax Recipes'
tRp5087
I00
S'http://www.web2py.com/book/default/chapter/10'
p5088
tp5089
a(g4321
(S's\x12\x00\x00\x00Deployment Recipes'
tRp5090
I00
S'http://www.web2py.com/book/default/chapter/11'
p5091
tp5092
a(g4321
(S's\r\x00\x00\x00Other Recipes'
tRp5093
I00
S'http://www.web2py.com/book/default/chapter/12'
p5094
tp5095
a(g4321
(S's\r\x00\x00\x00Buy this book'
tRp5096
I00
S'http://stores.lulu.com/web2py'
p5097
tp5098
aasbasbasbasbasbasbasbag60
(g76
g62
NtRp5099
(dp5100
g65
(dp5101
sg74
g4986
sg67
(lp5102
g60
(g81
g62
NtRp5103
(dp5104
g65
(dp5105
sg74
g5099
sg67
(lp5106
g60
(g61
g62
NtRp5107
(dp5108
g65
(dp5109
g73
I2
ssg74
g5103
sg67
(lp5110
g60
(g69
g62
NtRp5111
(dp5112
g65
(dp5113
g73
I1
ssg74
Nsg67
(lp5114
g60
(g76
g62
NtRp5115
(dp5116
g65
(dp5117
sg74
g5111
sg67
(lp5118
g60
(g81
g62
NtRp5119
(dp5120
g65
(dp5121
sg74
g5115
sg67
(lp5122
g60
(g61
g62
NtRp5123
(dp5124
g65
(dp5125
g73
I1
ssg74
g5119
sg67
(lp5126
g4321
(S't\t\x00\x00\x00Community'
tRp5127
asbasbasbag60
(g76
g62
NtRp5128
(dp5129
g65
(dp5130
sg74
g5111
sg67
(lp5131
g60
(g81
g62
NtRp5132
(dp5133
g65
(dp5134
sg74
g5128
sg67
(lp5135
g60
(g61
g62
NtRp5136
(dp5137
g65
(dp5138
g73
I1
ssg74
g5132
sg67
(lp5139
I00
asbasbasbag60
(g76
g62
NtRp5140
(dp5141
g65
(dp5142
sg74
g5111
sg67
(lp5143
g60
(g81
g62
NtRp5144
(dp5145
g65
(dp5146
sg74
g5140
sg67
(lp5147
g60
(g61
g62
NtRp5148
(dp5149
g65
(dp5150
g73
I1
ssg74
g5144
sg67
(lp5151
Nasbasbasbag60
(g76
g62
NtRp5152
(dp5153
g65
(dp5154
sg74
g5111
sg67
(lp5155
g60
(g81
g62
NtRp5156
(dp5157
g65
(dp5158
sg74
g5152
sg67
(lp5159
g60
(g61
g62
NtRp5160
(dp5161
g65
(dp5162
g73
I1
ssg74
g5156
sg67
(lp5163
(lp5164
(g4321
(S't\x06\x00\x00\x00Groups'
tRp5165
I00
S'http://www.web2py.com/examples/default/usergroups'
p5166
tp5167
a(g4321
(S't\x07\x00\x00\x00Twitter'
tRp5168
I00
S'http://twitter.com/web2py'
p5169
tp5170
a(g4321
(S's\t\x00\x00\x00Live chat'
tRp5171
I00
S'http://mibbit.com/?channel=%23web2py&server=irc.mibbit.net'
p5172
tp5173
a(g4321
(S's\n\x00\x00\x00User Voice'
tRp5174
I00
S'http://web2py.uservoice.com/'
p5175
tp5176
aasbasbasbasbasbasbasbag60
(g76
g62
NtRp5177
(dp5178
g65
(dp5179
sg74
g4986
sg67
(lp5180
g60
(g81
g62
NtRp5181
(dp5182
g65
(dp5183
sg74
g5177
sg67
(lp5184
g60
(g61
g62
NtRp5185
(dp5186
g65
(dp5187
g73
I2
ssg74
g5181
sg67
(lp5188
g60
(g69
g62
NtRp5189
(dp5190
g65
(dp5191
g73
I1
ssg74
Nsg67
(lp5192
g60
(g76
g62
NtRp5193
(dp5194
g65
(dp5195
sg74
g5189
sg67
(lp5196
g60
(g81
g62
NtRp5197
(dp5198
g65
(dp5199
sg74
g5193
sg67
(lp5200
g60
(g61
g62
NtRp5201
(dp5202
g65
(dp5203
g73
I1
ssg74
g5197
sg67
(lp5204
g4321
(S't\x06\x00\x00\x00Web2py'
tRp5205
asbasbasbag60
(g76
g62
NtRp5206
(dp5207
g65
(dp5208
sg74
g5189
sg67
(lp5209
g60
(g81
g62
NtRp5210
(dp5211
g65
(dp5212
sg74
g5206
sg67
(lp5213
g60
(g61
g62
NtRp5214
(dp5215
g65
(dp5216
g73
I1
ssg74
g5210
sg67
(lp5217
I00
asbasbasbag60
(g76
g62
NtRp5218
(dp5219
g65
(dp5220
sg74
g5189
sg67
(lp5221
g60
(g81
g62
NtRp5222
(dp5223
g65
(dp5224
sg74
g5218
sg67
(lp5225
g60
(g61
g62
NtRp5226
(dp5227
g65
(dp5228
g73
I1
ssg74
g5222
sg67
(lp5229
S'http://www.web2py.com'
p5230
asbasbasbag60
(g76
g62
NtRp5231
(dp5232
g65
(dp5233
sg74
g5189
sg67
(lp5234
g60
(g81
g62
NtRp5235
(dp5236
g65
(dp5237
sg74
g5231
sg67
(lp5238
g60
(g61
g62
NtRp5239
(dp5240
g65
(dp5241
g73
I1
ssg74
g5235
sg67
(lp5242
(lp5243
(g4321
(S't\x08\x00\x00\x00Download'
tRp5244
I00
S'http://www.web2py.com/examples/default/download'
p5245
tp5246
a(g4321
(S't\x07\x00\x00\x00Support'
tRp5247
I00
S'http://www.web2py.com/examples/default/support'
p5248
tp5249
a(g4321
(S's\x0e\x00\x00\x00Quick Examples'
tRp5250
I00
S'http://web2py.com/examples/default/examples'
p5251
tp5252
a(g4321
(S't\x03\x00\x00\x00FAQ'
tRp5253
I00
S'http://web2py.com/AlterEgo'
p5254
tp5255
a(g4321
(S's\x11\x00\x00\x00Free Applications'
tRp5256
I00
S'http://web2py.com/appliances'
p5257
tp5258
a(g4321
(S't\x07\x00\x00\x00Plugins'
tRp5259
I00
S'http://web2py.com/plugins'
p5260
tp5261
a(g4321
(S't\x07\x00\x00\x00Recipes'
tRp5262
I00
S'http://web2pyslices.com/'
p5263
tp5264
a(g4321
(S't\x04\x00\x00\x00Demo'
tRp5265
I00
S'http://web2py.com/demo_admin'
p5266
tp5267
a(g4321
(S't\x08\x00\x00\x00Semantic'
tRp5268
I00
S'http://web2py.com/semantic'
p5269
tp5270
a(g4321
(S't\x07\x00\x00\x00Layouts'
tRp5271
I00
S'http://web2py.com/layouts'
p5272
tp5273
a(g4321
(S't\x06\x00\x00\x00Videos'
tRp5274
I00
S'http://www.web2py.com/examples/default/videos/'
p5275
tp5276
aasbasbasbasbasbasbasbasbasbasbasbasbasbasbasbasbasbasbasbag60
(g76
g62
NtRp5277
(dp5278
g65
(dp5279
sg74
g3816
sg67
(lp5280
g60
(g81
g62
NtRp5281
(dp5282
g65
(dp5283
g85
g86
ssg74
g5277
sg67
(lp5284
S'meta'
p5285
asbag60
(g81
g62
NtRp5286
(dp5287
g65
(dp5288
g92
g93
ssg74
g5277
sg67
(lp5289
S':'
asbag60
(g81
g62
NtRp5290
(dp5291
g65
(dp5292
sg74
g5277
sg67
(lp5293
g60
(g61
g62
NtRp5294
(dp5295
g65
(dp5296
g73
I5
ssg74
g5290
sg67
(lp5297
g60
(g69
g62
NtRp5298
(dp5299
g65
(dp5300
g73
I4
ssg74
Nsg67
(lp5301
g60
(g76
g62
NtRp5302
(dp5303
g65
(dp5304
sg74
g5298
sg67
(lp5305
g60
(g81
g62
NtRp5306
(dp5307
g65
(dp5308
g85
g86
ssg74
g5302
sg67
(lp5309
S'author'
p5310
asbag60
(g81
g62
NtRp5311
(dp5312
g65
(dp5313
g92
g93
ssg74
g5302
sg67
(lp5314
S':'
asbag60
(g81
g62
NtRp5315
(dp5316
g65
(dp5317
sg74
g5302
sg67
(lp5318
g60
(g61
g62
NtRp5319
(dp5320
g65
(dp5321
g73
I4
ssg74
g5315
sg67
(lp5322
S'Your Name <you@example.com>'
p5323
asbasbasbag60
(g76
g62
NtRp5324
(dp5325
g65
(dp5326
sg74
g5298
sg67
(lp5327
g60
(g81
g62
NtRp5328
(dp5329
g65
(dp5330
g85
g86
ssg74
g5324
sg67
(lp5331
S'copyright'
p5332
asbag60
(g81
g62
NtRp5333
(dp5334
g65
(dp5335
g92
g93
ssg74
g5324
sg67
(lp5336
S':'
asbag60
(g81
g62
NtRp5337
(dp5338
g65
(dp5339
sg74
g5324
sg67
(lp5340
g60
(g61
g62
NtRp5341
(dp5342
g65
(dp5343
g73
I4
ssg74
g5337
sg67
(lp5344
S'Copyright 2011'
p5345
asbasbasbag60
(g76
g62
NtRp5346
(dp5347
g65
(dp5348
sg74
g5298
sg67
(lp5349
g60
(g81
g62
NtRp5350
(dp5351
g65
(dp5352
g85
g86
ssg74
g5346
sg67
(lp5353
S'description'
p5354
asbag60
(g81
g62
NtRp5355
(dp5356
g65
(dp5357
g92
g93
ssg74
g5346
sg67
(lp5358
S':'
asbag60
(g81
g62
NtRp5359
(dp5360
g65
(dp5361
sg74
g5346
sg67
(lp5362
g60
(g61
g62
NtRp5363
(dp5364
g65
(dp5365
g73
I4
ssg74
g5359
sg67
(lp5366
S'a cool new app'
p5367
asbasbasbag60
(g76
g62
NtRp5368
(dp5369
g65
(dp5370
sg74
g5298
sg67
(lp5371
g60
(g81
g62
NtRp5372
(dp5373
g65
(dp5374
g85
g86
ssg74
g5368
sg67
(lp5375
S'generator'
p5376
asbag60
(g81
g62
NtRp5377
(dp5378
g65
(dp5379
g92
g93
ssg74
g5368
sg67
(lp5380
S':'
asbag60
(g81
g62
NtRp5381
(dp5382
g65
(dp5383
sg74
g5368
sg67
(lp5384
g60
(g61
g62
NtRp5385
(dp5386
g65
(dp5387
g73
I4
ssg74
g5381
sg67
(lp5388
S'Web2py Web Framework'
p5389
asbasbasbag60
(g76
g62
NtRp5390
(dp5391
g65
(dp5392
sg74
g5298
sg67
(lp5393
g60
(g81
g62
NtRp5394
(dp5395
g65
(dp5396
g85
g86
ssg74
g5390
sg67
(lp5397
S'keywords'
p5398
asbag60
(g81
g62
NtRp5399
(dp5400
g65
(dp5401
g92
g93
ssg74
g5390
sg67
(lp5402
S':'
asbag60
(g81
g62
NtRp5403
(dp5404
g65
(dp5405
sg74
g5390
sg67
(lp5406
g60
(g61
g62
NtRp5407
(dp5408
g65
(dp5409
g73
I4
ssg74
g5403
sg67
(lp5410
S'web2py, python, framework'
p5411
asbasbasbasbasbasbasbag60
(g76
g62
NtRp5412
(dp5413
g65
(dp5414
sg74
g3816
sg67
(lp5415
g60
(g81
g62
NtRp5416
(dp5417
g65
(dp5418
g85
g86
ssg74
g5412
sg67
(lp5419
S'postprocessing'
p5420
asbag60
(g81
g62
NtRp5421
(dp5422
g65
(dp5423
g92
g93
ssg74
g5412
sg67
(lp5424
S':'
asbag60
(g81
g62
NtRp5425
(dp5426
g65
(dp5427
sg74
g5412
sg67
(lp5428
g60
(g61
g62
NtRp5429
(dp5430
g65
(dp5431
g73
I5
ssg74
g5425
sg67
(lp5432
g60
(g69
g62
NtRp5433
(dp5434
g65
(dp5435
g73
I4
ssg74
Nsg67
(lp5436
sbasbasbasbag60
(g76
g62
NtRp5437
(dp5438
g65
(dp5439
sg74
g3816
sg67
(lp5440
g60
(g81
g62
NtRp5441
(dp5442
g65
(dp5443
g85
g86
ssg74
g5437
sg67
(lp5444
S'session_file'
p5445
asbag60
(g81
g62
NtRp5446
(dp5447
g65
(dp5448
g92
g93
ssg74
g5437
sg67
(lp5449
S':'
asbag60
(g81
g62
NtRp5450
(dp5451
g65
(dp5452
sg74
g5437
sg67
(lp5453
g60
(g61
g62
NtRp5454
(dp5455
g65
(dp5456
g73
I5
ssg74
g5450
sg67
(lp5457
S"<open file '/home/u4hcsdaw/Python/web2py/applications/ACES/sessions/127.0.0.1-fa323a39-b4f7-4824-aae1-5c3174579522', mode 'rb+' at 0xad02d968>"
p5458
asbasbasbag60
(g76
g62
NtRp5459
(dp5460
g65
(dp5461
sg74
g3816
sg67
(lp5462
g60
(g81
g62
NtRp5463
(dp5464
g65
(dp5465
g85
g86
ssg74
g5459
sg67
(lp5466
S'session_filename'
p5467
asbag60
(g81
g62
NtRp5468
(dp5469
g65
(dp5470
g92
g93
ssg74
g5459
sg67
(lp5471
S':'
asbag60
(g81
g62
NtRp5472
(dp5473
g65
(dp5474
sg74
g5459
sg67
(lp5475
g60
(g61
g62
NtRp5476
(dp5477
g65
(dp5478
g73
I5
ssg74
g5472
sg67
(lp5479
S'/home/u4hcsdaw/Python/web2py/applications/ACES/sessions/127.0.0.1-fa323a39-b4f7-4824-aae1-5c3174579522'
p5480
asbasbasbag60
(g76
g62
NtRp5481
(dp5482
g65
(dp5483
sg74
g3816
sg67
(lp5484
g60
(g81
g62
NtRp5485
(dp5486
g65
(dp5487
g85
g86
ssg74
g5481
sg67
(lp5488
S'session_id'
p5489
asbag60
(g81
g62
NtRp5490
(dp5491
g65
(dp5492
g92
g93
ssg74
g5481
sg67
(lp5493
S':'
asbag60
(g81
g62
NtRp5494
(dp5495
g65
(dp5496
sg74
g5481
sg67
(lp5497
g60
(g61
g62
NtRp5498
(dp5499
g65
(dp5500
g73
I5
ssg74
g5494
sg67
(lp5501
S'127.0.0.1-fa323a39-b4f7-4824-aae1-5c3174579522'
p5502
asbasbasbag60
(g76
g62
NtRp5503
(dp5504
g65
(dp5505
sg74
g3816
sg67
(lp5506
g60
(g81
g62
NtRp5507
(dp5508
g65
(dp5509
g85
g86
ssg74
g5503
sg67
(lp5510
S'session_id_name'
p5511
asbag60
(g81
g62
NtRp5512
(dp5513
g65
(dp5514
g92
g93
ssg74
g5503
sg67
(lp5515
S':'
asbag60
(g81
g62
NtRp5516
(dp5517
g65
(dp5518
sg74
g5503
sg67
(lp5519
g60
(g61
g62
NtRp5520
(dp5521
g65
(dp5522
g73
I5
ssg74
g5516
sg67
(lp5523
g3873
asbasbasbag60
(g76
g62
NtRp5524
(dp5525
g65
(dp5526
sg74
g3816
sg67
(lp5527
g60
(g81
g62
NtRp5528
(dp5529
g65
(dp5530
g85
g86
ssg74
g5524
sg67
(lp5531
S'session_locked'
p5532
asbag60
(g81
g62
NtRp5533
(dp5534
g65
(dp5535
g92
g93
ssg74
g5524
sg67
(lp5536
S':'
asbag60
(g81
g62
NtRp5537
(dp5538
g65
(dp5539
sg74
g5524
sg67
(lp5540
g60
(g61
g62
NtRp5541
(dp5542
g65
(dp5543
g73
I5
ssg74
g5537
sg67
(lp5544
g1931
asbasbasbag60
(g76
g62
NtRp5545
(dp5546
g65
(dp5547
sg74
g3816
sg67
(lp5548
g60
(g81
g62
NtRp5549
(dp5550
g65
(dp5551
g85
g86
ssg74
g5545
sg67
(lp5552
S'session_new'
p5553
asbag60
(g81
g62
NtRp5554
(dp5555
g65
(dp5556
g92
g93
ssg74
g5545
sg67
(lp5557
S':'
asbag60
(g81
g62
NtRp5558
(dp5559
g65
(dp5560
sg74
g5545
sg67
(lp5561
g60
(g61
g62
NtRp5562
(dp5563
g65
(dp5564
g73
I5
ssg74
g5558
sg67
(lp5565
g103
asbasbasbag60
(g76
g62
NtRp5566
(dp5567
g65
(dp5568
sg74
g3816
sg67
(lp5569
g60
(g81
g62
NtRp5570
(dp5571
g65
(dp5572
g85
g86
ssg74
g5566
sg67
(lp5573
S'status'
p5574
asbag60
(g81
g62
NtRp5575
(dp5576
g65
(dp5577
g92
g93
ssg74
g5566
sg67
(lp5578
S':'
asbag60
(g81
g62
NtRp5579
(dp5580
g65
(dp5581
sg74
g5566
sg67
(lp5582
g60
(g61
g62
NtRp5583
(dp5584
g65
(dp5585
g73
I5
ssg74
g5579
sg67
(lp5586
S'200'
p5587
asbasbasbag60
(g76
g62
NtRp5588
(dp5589
g65
(dp5590
sg74
g3816
sg67
(lp5591
g60
(g81
g62
NtRp5592
(dp5593
g65
(dp5594
g85
g86
ssg74
g5588
sg67
(lp5595
S'subtitle'
p5596
asbag60
(g81
g62
NtRp5597
(dp5598
g65
(dp5599
g92
g93
ssg74
g5588
sg67
(lp5600
S':'
asbag60
(g81
g62
NtRp5601
(dp5602
g65
(dp5603
sg74
g5588
sg67
(lp5604
g60
(g61
g62
NtRp5605
(dp5606
g65
(dp5607
g73
I5
ssg74
g5601
sg67
(lp5608
g4321
(S's\r\x00\x00\x00customize me!'
tRp5609
asbasbasbag60
(g76
g62
NtRp5610
(dp5611
g65
(dp5612
sg74
g3816
sg67
(lp5613
g60
(g81
g62
NtRp5614
(dp5615
g65
(dp5616
g85
g86
ssg74
g5610
sg67
(lp5617
S'title'
p5618
asbag60
(g81
g62
NtRp5619
(dp5620
g65
(dp5621
g92
g93
ssg74
g5610
sg67
(lp5622
S':'
asbag60
(g81
g62
NtRp5623
(dp5624
g65
(dp5625
sg74
g5610
sg67
(lp5626
g60
(g61
g62
NtRp5627
(dp5628
g65
(dp5629
g73
I5
ssg74
g5623
sg67
(lp5630
g125
asbasbasbag60
(g76
g62
NtRp5631
(dp5632
g65
(dp5633
sg74
g3816
sg67
(lp5634
g60
(g81
g62
NtRp5635
(dp5636
g65
(dp5637
g85
g86
ssg74
g5631
sg67
(lp5638
g2663
asbag60
(g81
g62
NtRp5639
(dp5640
g65
(dp5641
g92
g93
ssg74
g5631
sg67
(lp5642
S':'
asbag60
(g81
g62
NtRp5643
(dp5644
g65
(dp5645
sg74
g5631
sg67
(lp5646
g60
(g61
g62
NtRp5647
(dp5648
g65
(dp5649
g73
I5
ssg74
g5643
sg67
(lp5650
g2676
asbasbasbag60
(g76
g62
NtRp5651
(dp5652
g65
(dp5653
sg74
g3816
sg67
(lp5654
g60
(g81
g62
NtRp5655
(dp5656
g65
(dp5657
g85
g86
ssg74
g5651
sg67
(lp5658
S'view'
p5659
asbag60
(g81
g62
NtRp5660
(dp5661
g65
(dp5662
g92
g93
ssg74
g5651
sg67
(lp5663
S':'
asbag60
(g81
g62
NtRp5664
(dp5665
g65
(dp5666
sg74
g5651
sg67
(lp5667
g60
(g61
g62
NtRp5668
(dp5669
g65
(dp5670
g73
I5
ssg74
g5664
sg67
(lp5671
S'default/index.html'
p5672
asbasbasbasbasbsS'locals'
p5673
(dp5674
S'query'
p5675
S"'INSERT INTO linearWaveForm(waveHeight,wavePeriod...atio,waterDepth,id) VALUES (0.85,3.0,0.78,1.0,6);'"
p5676
sS'self'
p5677
S'<gluon.dal.SQLiteAdapter object>'
p5678
sS'e'
S"IntegrityError('PRIMARY KEY must be unique',)"
p5679
sS'fields'
p5680
S'[(<gluon.dal.Field object>, 0.85), (<gluon.dal.Field object>, 3.0), (<gluon.dal.Field object>, 0.78), (<gluon.dal.Field object>, 1.0), (<gluon.dal.Field object>, 6)]'
p5681
sS'table'
p5682
S"<Table {'wavePeriod': <gluon.dal.Field object at...>, 'id': <gluon.dal.Field object at 0xad24796c>}>"
p5683
sssS'traceback'
p5684
S'Traceback (most recent call last):\n  File "/home/u4hcsdaw/Python/web2py/gluon/restricted.py", line 194, in restricted\n    exec ccode in environment\n  File "/home/u4hcsdaw/Python/web2py/applications/ACES/controllers/default.py", line 87, in <module>\n  File "/home/u4hcsdaw/Python/web2py/gluon/globals.py", line 149, in <lambda>\n    self._caller = lambda f: f()\n  File "/home/u4hcsdaw/Python/web2py/applications/ACES/controllers/default.py", line 28, in index\n    if f1.accepts(request.vars,session):\n  File "/home/u4hcsdaw/Python/web2py/gluon/sqlhtml.py", line 1259, in accepts\n    self.vars.id = self.table.insert(**fields)\n  File "/home/u4hcsdaw/Python/web2py/gluon/dal.py", line 5045, in insert\n    return self._db._adapter.insert(self,self._listify(fields))\n  File "/home/u4hcsdaw/Python/web2py/gluon/dal.py", line 886, in insert\n    raise e\nIntegrityError: PRIMARY KEY must be unique\n'
p5685
s.