(dp1
S'output'
p2
S''
sS'layer'
p3
S'/home/u4hcsdaw/Python/web2py/applications/ACES/controllers/default.py'
p4
sS'code'
p5
S'# -*- coding: utf-8 -*-\n# this file is released under public domain and you can use without limitations\n\n#########################################################################\n## This is a samples controller\n## - index is the default action of any application\n## - user is required for authentication and authorization\n## - download is for downloading files uploaded in the db (does streaming)\n## - call exposes all registered services (none by default)\n#########################################################################\n\ndef index():\n    """\n    example action using the internationalization operator T and flash\n    rendered by views/default/index.html or views/generic.html\n    """\n    import datetime\n    now=datetime.datetime.now()\n    nowS=now.strftime(\'%s\')\n    pre1=\'\'\n    img1=\'\'\n    \n    \n    f1=linearWaveForm()\n    #f1[\'vars\']=dict(waveHeight=0.85,wavePeriod=8.00,waveBrk=0.78,waterDepth=4.1)\n    if f1.accepts(request.vars,session):\n        session.formVars=f1.vars\n        t0=AcesCall(f1.vars)\n        pre1=PRE(t0)\n        img1=IMG(_src=URL(\'static\',\'images/Waves.svg?\'+nowS))\n    return dict(form=f1,pre1=pre1,img1=img1)\n\ndef user():\n    """ \n    exposes:\n    http://..../[app]/default/user/login\n    http://..../[app]/default/user/logout\n    http://..../[app]/default/user/register\n    http://..../[app]/default/user/profile\n    http://..../[app]/default/user/retrieve_password\n    http://..../[app]/default/user/change_password\n    use @auth.requires_login()\n        @auth.requires_membership(\'group name\')\n        @auth.requires_permission(\'read\',\'table name\',record_id)\n    to decorate functions that need access control\n    """\n    return dict(form=auth())\n\n\ndef download():\n    """\n    allows downloading of uploaded files\n    http://..../[app]/default/download/[filename]\n    """\n    return response.download(request,db)\n\n\ndef call():\n    """\n    exposes services. for example:\n    http://..../[app]/default/call/jsonrpc\n    decorate with @services.jsonrpc the functions to expose\n    supports xml, json, xmlrpc, jsonrpc, amfrpc, rss, csv\n    """\n    return service()\n\n\n@auth.requires_signature()\ndef data():\n    """\n    http://..../[app]/default/data/tables\n    http://..../[app]/default/data/create/[table]\n    http://..../[app]/default/data/read/[table]/[id]\n    http://..../[app]/default/data/update/[table]/[id]\n    http://..../[app]/default/data/delete/[table]/[id]\n    http://..../[app]/default/data/select/[table]\n    http://..../[app]/default/data/search/[table]\n    but URLs bust be signed, i.e. linked with\n      A(\'table\',_href=URL(\'data/tables\',user_signature=True))\n    or with the signed load operator\n      LOAD(\'default\',\'data.load\',args=\'tables\',ajax=True,user_signature=True)\n    """\n    return dict(form=crud())\n\nresponse._vars=response._caller(index)\n'
p6
sS'snapshot'
p7
(dp8
S'exception'
p9
(dp10
S'__hash__'
p11
S"<method-wrapper '__hash__' of exceptions.KeyError object>"
p12
sS'__setattr__'
p13
S"<method-wrapper '__setattr__' of exceptions.KeyError object>"
p14
sS'__reduce_ex__'
p15
S'<built-in method __reduce_ex__ of exceptions.KeyError object>'
p16
sS'__getslice__'
p17
S"<method-wrapper '__getslice__' of exceptions.KeyError object>"
p18
sS'__getitem__'
p19
S"<method-wrapper '__getitem__' of exceptions.KeyError object>"
p20
sS'__setstate__'
p21
S'<built-in method __setstate__ of exceptions.KeyError object>'
p22
sS'__reduce__'
p23
S'<built-in method __reduce__ of exceptions.KeyError object>'
p24
sS'__str__'
p25
S"<method-wrapper '__str__' of exceptions.KeyError object>"
p26
sS'__format__'
p27
S'<built-in method __format__ of exceptions.KeyError object>'
p28
sS'__getattribute__'
p29
S"<method-wrapper '__getattribute__' of exceptions.KeyError object>"
p30
sS'__class__'
p31
S"<type 'exceptions.KeyError'>"
p32
sS'__unicode__'
p33
S'<built-in method __unicode__ of exceptions.KeyError object>'
p34
sS'__delattr__'
p35
S"<method-wrapper '__delattr__' of exceptions.KeyError object>"
p36
sS'__subclasshook__'
p37
S'<built-in method __subclasshook__ of type object>'
p38
sS'__repr__'
p39
S"<method-wrapper '__repr__' of exceptions.KeyError object>"
p40
sS'args'
p41
S"('waveBrk',)"
p42
sS'__dict__'
p43
S'{}'
p44
sS'__sizeof__'
p45
S'<built-in method __sizeof__ of exceptions.KeyError object>'
p46
sS'__doc__'
p47
S"'Mapping key not found.'"
p48
sS'__init__'
p49
S"<method-wrapper '__init__' of exceptions.KeyError object>"
p50
sS'__new__'
p51
S'<built-in method __new__ of type object>'
p52
ssS'evalue'
p53
S"'waveBrk'"
p54
sS'request'
p55
ccopy_reg
_reconstructor
p56
(cgluon.html
BEAUTIFY
p57
c__builtin__
object
p58
NtRp59
(dp60
S'attributes'
p61
(dp62
sS'components'
p63
(lp64
g56
(cgluon.html
TABLE
p65
g58
NtRp66
(dp67
g61
(dp68
S'level'
p69
I5
ssS'parent'
p70
Nsg63
(lp71
g56
(cgluon.html
TR
p72
g58
NtRp73
(dp74
g61
(dp75
sg70
g66
sg63
(lp76
g56
(cgluon.html
TD
p77
g58
NtRp78
(dp79
g61
(dp80
S'_style'
p81
S'font-weight:bold;'
p82
ssg70
g73
sg63
(lp83
S'ajax'
p84
asbag56
(g77
g58
NtRp85
(dp86
g61
(dp87
S'_valign'
p88
S'top'
p89
ssg70
g73
sg63
(lp90
S':'
asbag56
(g77
g58
NtRp91
(dp92
g61
(dp93
sg70
g73
sg63
(lp94
g56
(g57
g58
NtRp95
(dp96
g61
(dp97
g69
I5
ssg70
g91
sg63
(lp98
S'False'
p99
asbasbasbag56
(g72
g58
NtRp100
(dp101
g61
(dp102
sg70
g66
sg63
(lp103
g56
(g77
g58
NtRp104
(dp105
g61
(dp106
g81
g82
ssg70
g100
sg63
(lp107
S'application'
p108
asbag56
(g77
g58
NtRp109
(dp110
g61
(dp111
g88
g89
ssg70
g100
sg63
(lp112
S':'
asbag56
(g77
g58
NtRp113
(dp114
g61
(dp115
sg70
g100
sg63
(lp116
g56
(g57
g58
NtRp117
(dp118
g61
(dp119
g69
I5
ssg70
g113
sg63
(lp120
S'ACES'
p121
asbasbasbag56
(g72
g58
NtRp122
(dp123
g61
(dp124
sg70
g66
sg63
(lp125
g56
(g77
g58
NtRp126
(dp127
g61
(dp128
g81
g82
ssg70
g122
sg63
(lp129
g41
asbag56
(g77
g58
NtRp130
(dp131
g61
(dp132
g88
g89
ssg70
g122
sg63
(lp133
S':'
asbag56
(g77
g58
NtRp134
(dp135
g61
(dp136
sg70
g122
sg63
(lp137
g56
(g57
g58
NtRp138
(dp139
g61
(dp140
g69
I5
ssg70
g134
sg63
(lp141
g56
(g65
g58
NtRp142
(dp143
g61
(dp144
g69
I4
ssg70
Nsg63
(lp145
sbasbasbasbag56
(g72
g58
NtRp146
(dp147
g61
(dp148
sg70
g66
sg63
(lp149
g56
(g77
g58
NtRp150
(dp151
g61
(dp152
g81
g82
ssg70
g146
sg63
(lp153
S'body'
p154
asbag56
(g77
g58
NtRp155
(dp156
g61
(dp157
g88
g89
ssg70
g146
sg63
(lp158
S':'
asbag56
(g77
g58
NtRp159
(dp160
g61
(dp161
sg70
g146
sg63
(lp162
g56
(g57
g58
NtRp163
(dp164
g61
(dp165
g69
I5
ssg70
g159
sg63
(lp166
S"<open file '<fdopen>', mode 'w+b' at 0xb23cf338>"
p167
asbasbasbag56
(g72
g58
NtRp168
(dp169
g61
(dp170
sg70
g66
sg63
(lp171
g56
(g77
g58
NtRp172
(dp173
g61
(dp174
g81
g82
ssg70
g168
sg63
(lp175
S'client'
p176
asbag56
(g77
g58
NtRp177
(dp178
g61
(dp179
g88
g89
ssg70
g168
sg63
(lp180
S':'
asbag56
(g77
g58
NtRp181
(dp182
g61
(dp183
sg70
g168
sg63
(lp184
g56
(g57
g58
NtRp185
(dp186
g61
(dp187
g69
I5
ssg70
g181
sg63
(lp188
S'127.0.0.1'
p189
asbasbasbag56
(g72
g58
NtRp190
(dp191
g61
(dp192
sg70
g66
sg63
(lp193
g56
(g77
g58
NtRp194
(dp195
g61
(dp196
g81
g82
ssg70
g190
sg63
(lp197
S'controller'
p198
asbag56
(g77
g58
NtRp199
(dp200
g61
(dp201
g88
g89
ssg70
g190
sg63
(lp202
S':'
asbag56
(g77
g58
NtRp203
(dp204
g61
(dp205
sg70
g190
sg63
(lp206
g56
(g57
g58
NtRp207
(dp208
g61
(dp209
g69
I5
ssg70
g203
sg63
(lp210
S'default'
p211
asbasbasbag56
(g72
g58
NtRp212
(dp213
g61
(dp214
sg70
g66
sg63
(lp215
g56
(g77
g58
NtRp216
(dp217
g61
(dp218
g81
g82
ssg70
g212
sg63
(lp219
S'cookies'
p220
asbag56
(g77
g58
NtRp221
(dp222
g61
(dp223
g88
g89
ssg70
g212
sg63
(lp224
S':'
asbag56
(g77
g58
NtRp225
(dp226
g61
(dp227
sg70
g212
sg63
(lp228
g56
(g57
g58
NtRp229
(dp230
g61
(dp231
g69
I5
ssg70
g225
sg63
(lp232
g56
(g65
g58
NtRp233
(dp234
g61
(dp235
g69
I4
ssg70
Nsg63
(lp236
g56
(g72
g58
NtRp237
(dp238
g61
(dp239
sg70
g233
sg63
(lp240
g56
(g77
g58
NtRp241
(dp242
g61
(dp243
g81
g82
ssg70
g237
sg63
(lp244
S'session_id_aces'
p245
asbag56
(g77
g58
NtRp246
(dp247
g61
(dp248
g88
g89
ssg70
g237
sg63
(lp249
S':'
asbag56
(g77
g58
NtRp250
(dp251
g61
(dp252
sg70
g237
sg63
(lp253
g56
(g57
g58
NtRp254
(dp255
g61
(dp256
g69
I4
ssg70
g250
sg63
(lp257
g56
(g65
g58
NtRp258
(dp259
g61
(dp260
g69
I3
ssg70
Nsg63
(lp261
g56
(g72
g58
NtRp262
(dp263
g61
(dp264
sg70
g258
sg63
(lp265
g56
(g77
g58
NtRp266
(dp267
g61
(dp268
g81
g82
ssg70
g262
sg63
(lp269
S'comment'
p270
asbag56
(g77
g58
NtRp271
(dp272
g61
(dp273
g88
g89
ssg70
g262
sg63
(lp274
S':'
asbag56
(g77
g58
NtRp275
(dp276
g61
(dp277
sg70
g262
sg63
(lp278
g56
(g57
g58
NtRp279
(dp280
g61
(dp281
g69
I3
ssg70
g275
sg63
(lp282
S''
asbasbasbag56
(g72
g58
NtRp283
(dp284
g61
(dp285
sg70
g258
sg63
(lp286
g56
(g77
g58
NtRp287
(dp288
g61
(dp289
g81
g82
ssg70
g283
sg63
(lp290
S'domain'
p291
asbag56
(g77
g58
NtRp292
(dp293
g61
(dp294
g88
g89
ssg70
g283
sg63
(lp295
S':'
asbag56
(g77
g58
NtRp296
(dp297
g61
(dp298
sg70
g283
sg63
(lp299
g56
(g57
g58
NtRp300
(dp301
g61
(dp302
g69
I3
ssg70
g296
sg63
(lp303
S''
asbasbasbag56
(g72
g58
NtRp304
(dp305
g61
(dp306
sg70
g258
sg63
(lp307
g56
(g77
g58
NtRp308
(dp309
g61
(dp310
g81
g82
ssg70
g304
sg63
(lp311
S'expires'
p312
asbag56
(g77
g58
NtRp313
(dp314
g61
(dp315
g88
g89
ssg70
g304
sg63
(lp316
S':'
asbag56
(g77
g58
NtRp317
(dp318
g61
(dp319
sg70
g304
sg63
(lp320
g56
(g57
g58
NtRp321
(dp322
g61
(dp323
g69
I3
ssg70
g317
sg63
(lp324
S''
asbasbasbag56
(g72
g58
NtRp325
(dp326
g61
(dp327
sg70
g258
sg63
(lp328
g56
(g77
g58
NtRp329
(dp330
g61
(dp331
g81
g82
ssg70
g325
sg63
(lp332
S'httponly'
p333
asbag56
(g77
g58
NtRp334
(dp335
g61
(dp336
g88
g89
ssg70
g325
sg63
(lp337
S':'
asbag56
(g77
g58
NtRp338
(dp339
g61
(dp340
sg70
g325
sg63
(lp341
g56
(g57
g58
NtRp342
(dp343
g61
(dp344
g69
I3
ssg70
g338
sg63
(lp345
S''
asbasbasbag56
(g72
g58
NtRp346
(dp347
g61
(dp348
sg70
g258
sg63
(lp349
g56
(g77
g58
NtRp350
(dp351
g61
(dp352
g81
g82
ssg70
g346
sg63
(lp353
S'max-age'
p354
asbag56
(g77
g58
NtRp355
(dp356
g61
(dp357
g88
g89
ssg70
g346
sg63
(lp358
S':'
asbag56
(g77
g58
NtRp359
(dp360
g61
(dp361
sg70
g346
sg63
(lp362
g56
(g57
g58
NtRp363
(dp364
g61
(dp365
g69
I3
ssg70
g359
sg63
(lp366
S''
asbasbasbag56
(g72
g58
NtRp367
(dp368
g61
(dp369
sg70
g258
sg63
(lp370
g56
(g77
g58
NtRp371
(dp372
g61
(dp373
g81
g82
ssg70
g367
sg63
(lp374
S'path'
p375
asbag56
(g77
g58
NtRp376
(dp377
g61
(dp378
g88
g89
ssg70
g367
sg63
(lp379
S':'
asbag56
(g77
g58
NtRp380
(dp381
g61
(dp382
sg70
g367
sg63
(lp383
g56
(g57
g58
NtRp384
(dp385
g61
(dp386
g69
I3
ssg70
g380
sg63
(lp387
S''
asbasbasbag56
(g72
g58
NtRp388
(dp389
g61
(dp390
sg70
g258
sg63
(lp391
g56
(g77
g58
NtRp392
(dp393
g61
(dp394
g81
g82
ssg70
g388
sg63
(lp395
S'secure'
p396
asbag56
(g77
g58
NtRp397
(dp398
g61
(dp399
g88
g89
ssg70
g388
sg63
(lp400
S':'
asbag56
(g77
g58
NtRp401
(dp402
g61
(dp403
sg70
g388
sg63
(lp404
g56
(g57
g58
NtRp405
(dp406
g61
(dp407
g69
I3
ssg70
g401
sg63
(lp408
S''
asbasbasbag56
(g72
g58
NtRp409
(dp410
g61
(dp411
sg70
g258
sg63
(lp412
g56
(g77
g58
NtRp413
(dp414
g61
(dp415
g81
g82
ssg70
g409
sg63
(lp416
S'version'
p417
asbag56
(g77
g58
NtRp418
(dp419
g61
(dp420
g88
g89
ssg70
g409
sg63
(lp421
S':'
asbag56
(g77
g58
NtRp422
(dp423
g61
(dp424
sg70
g409
sg63
(lp425
g56
(g57
g58
NtRp426
(dp427
g61
(dp428
g69
I3
ssg70
g422
sg63
(lp429
S''
asbasbasbasbasbasbasbag56
(g72
g58
NtRp430
(dp431
g61
(dp432
sg70
g233
sg63
(lp433
g56
(g77
g58
NtRp434
(dp435
g61
(dp436
g81
g82
ssg70
g430
sg63
(lp437
S'session_id_admin'
p438
asbag56
(g77
g58
NtRp439
(dp440
g61
(dp441
g88
g89
ssg70
g430
sg63
(lp442
S':'
asbag56
(g77
g58
NtRp443
(dp444
g61
(dp445
sg70
g430
sg63
(lp446
g56
(g57
g58
NtRp447
(dp448
g61
(dp449
g69
I4
ssg70
g443
sg63
(lp450
g56
(g65
g58
NtRp451
(dp452
g61
(dp453
g69
I3
ssg70
Nsg63
(lp454
g56
(g72
g58
NtRp455
(dp456
g61
(dp457
sg70
g451
sg63
(lp458
g56
(g77
g58
NtRp459
(dp460
g61
(dp461
g81
g82
ssg70
g455
sg63
(lp462
g270
asbag56
(g77
g58
NtRp463
(dp464
g61
(dp465
g88
g89
ssg70
g455
sg63
(lp466
S':'
asbag56
(g77
g58
NtRp467
(dp468
g61
(dp469
sg70
g455
sg63
(lp470
g56
(g57
g58
NtRp471
(dp472
g61
(dp473
g69
I3
ssg70
g467
sg63
(lp474
S''
asbasbasbag56
(g72
g58
NtRp475
(dp476
g61
(dp477
sg70
g451
sg63
(lp478
g56
(g77
g58
NtRp479
(dp480
g61
(dp481
g81
g82
ssg70
g475
sg63
(lp482
g291
asbag56
(g77
g58
NtRp483
(dp484
g61
(dp485
g88
g89
ssg70
g475
sg63
(lp486
S':'
asbag56
(g77
g58
NtRp487
(dp488
g61
(dp489
sg70
g475
sg63
(lp490
g56
(g57
g58
NtRp491
(dp492
g61
(dp493
g69
I3
ssg70
g487
sg63
(lp494
S''
asbasbasbag56
(g72
g58
NtRp495
(dp496
g61
(dp497
sg70
g451
sg63
(lp498
g56
(g77
g58
NtRp499
(dp500
g61
(dp501
g81
g82
ssg70
g495
sg63
(lp502
g312
asbag56
(g77
g58
NtRp503
(dp504
g61
(dp505
g88
g89
ssg70
g495
sg63
(lp506
S':'
asbag56
(g77
g58
NtRp507
(dp508
g61
(dp509
sg70
g495
sg63
(lp510
g56
(g57
g58
NtRp511
(dp512
g61
(dp513
g69
I3
ssg70
g507
sg63
(lp514
S''
asbasbasbag56
(g72
g58
NtRp515
(dp516
g61
(dp517
sg70
g451
sg63
(lp518
g56
(g77
g58
NtRp519
(dp520
g61
(dp521
g81
g82
ssg70
g515
sg63
(lp522
g333
asbag56
(g77
g58
NtRp523
(dp524
g61
(dp525
g88
g89
ssg70
g515
sg63
(lp526
S':'
asbag56
(g77
g58
NtRp527
(dp528
g61
(dp529
sg70
g515
sg63
(lp530
g56
(g57
g58
NtRp531
(dp532
g61
(dp533
g69
I3
ssg70
g527
sg63
(lp534
S''
asbasbasbag56
(g72
g58
NtRp535
(dp536
g61
(dp537
sg70
g451
sg63
(lp538
g56
(g77
g58
NtRp539
(dp540
g61
(dp541
g81
g82
ssg70
g535
sg63
(lp542
g354
asbag56
(g77
g58
NtRp543
(dp544
g61
(dp545
g88
g89
ssg70
g535
sg63
(lp546
S':'
asbag56
(g77
g58
NtRp547
(dp548
g61
(dp549
sg70
g535
sg63
(lp550
g56
(g57
g58
NtRp551
(dp552
g61
(dp553
g69
I3
ssg70
g547
sg63
(lp554
S''
asbasbasbag56
(g72
g58
NtRp555
(dp556
g61
(dp557
sg70
g451
sg63
(lp558
g56
(g77
g58
NtRp559
(dp560
g61
(dp561
g81
g82
ssg70
g555
sg63
(lp562
g375
asbag56
(g77
g58
NtRp563
(dp564
g61
(dp565
g88
g89
ssg70
g555
sg63
(lp566
S':'
asbag56
(g77
g58
NtRp567
(dp568
g61
(dp569
sg70
g555
sg63
(lp570
g56
(g57
g58
NtRp571
(dp572
g61
(dp573
g69
I3
ssg70
g567
sg63
(lp574
S''
asbasbasbag56
(g72
g58
NtRp575
(dp576
g61
(dp577
sg70
g451
sg63
(lp578
g56
(g77
g58
NtRp579
(dp580
g61
(dp581
g81
g82
ssg70
g575
sg63
(lp582
g396
asbag56
(g77
g58
NtRp583
(dp584
g61
(dp585
g88
g89
ssg70
g575
sg63
(lp586
S':'
asbag56
(g77
g58
NtRp587
(dp588
g61
(dp589
sg70
g575
sg63
(lp590
g56
(g57
g58
NtRp591
(dp592
g61
(dp593
g69
I3
ssg70
g587
sg63
(lp594
S''
asbasbasbag56
(g72
g58
NtRp595
(dp596
g61
(dp597
sg70
g451
sg63
(lp598
g56
(g77
g58
NtRp599
(dp600
g61
(dp601
g81
g82
ssg70
g595
sg63
(lp602
g417
asbag56
(g77
g58
NtRp603
(dp604
g61
(dp605
g88
g89
ssg70
g595
sg63
(lp606
S':'
asbag56
(g77
g58
NtRp607
(dp608
g61
(dp609
sg70
g595
sg63
(lp610
g56
(g57
g58
NtRp611
(dp612
g61
(dp613
g69
I3
ssg70
g607
sg63
(lp614
S''
asbasbasbasbasbasbasbag56
(g72
g58
NtRp615
(dp616
g61
(dp617
sg70
g233
sg63
(lp618
g56
(g77
g58
NtRp619
(dp620
g61
(dp621
g81
g82
ssg70
g615
sg63
(lp622
S'session_id_dalex1'
p623
asbag56
(g77
g58
NtRp624
(dp625
g61
(dp626
g88
g89
ssg70
g615
sg63
(lp627
S':'
asbag56
(g77
g58
NtRp628
(dp629
g61
(dp630
sg70
g615
sg63
(lp631
g56
(g57
g58
NtRp632
(dp633
g61
(dp634
g69
I4
ssg70
g628
sg63
(lp635
g56
(g65
g58
NtRp636
(dp637
g61
(dp638
g69
I3
ssg70
Nsg63
(lp639
g56
(g72
g58
NtRp640
(dp641
g61
(dp642
sg70
g636
sg63
(lp643
g56
(g77
g58
NtRp644
(dp645
g61
(dp646
g81
g82
ssg70
g640
sg63
(lp647
g270
asbag56
(g77
g58
NtRp648
(dp649
g61
(dp650
g88
g89
ssg70
g640
sg63
(lp651
S':'
asbag56
(g77
g58
NtRp652
(dp653
g61
(dp654
sg70
g640
sg63
(lp655
g56
(g57
g58
NtRp656
(dp657
g61
(dp658
g69
I3
ssg70
g652
sg63
(lp659
S''
asbasbasbag56
(g72
g58
NtRp660
(dp661
g61
(dp662
sg70
g636
sg63
(lp663
g56
(g77
g58
NtRp664
(dp665
g61
(dp666
g81
g82
ssg70
g660
sg63
(lp667
g291
asbag56
(g77
g58
NtRp668
(dp669
g61
(dp670
g88
g89
ssg70
g660
sg63
(lp671
S':'
asbag56
(g77
g58
NtRp672
(dp673
g61
(dp674
sg70
g660
sg63
(lp675
g56
(g57
g58
NtRp676
(dp677
g61
(dp678
g69
I3
ssg70
g672
sg63
(lp679
S''
asbasbasbag56
(g72
g58
NtRp680
(dp681
g61
(dp682
sg70
g636
sg63
(lp683
g56
(g77
g58
NtRp684
(dp685
g61
(dp686
g81
g82
ssg70
g680
sg63
(lp687
g312
asbag56
(g77
g58
NtRp688
(dp689
g61
(dp690
g88
g89
ssg70
g680
sg63
(lp691
S':'
asbag56
(g77
g58
NtRp692
(dp693
g61
(dp694
sg70
g680
sg63
(lp695
g56
(g57
g58
NtRp696
(dp697
g61
(dp698
g69
I3
ssg70
g692
sg63
(lp699
S''
asbasbasbag56
(g72
g58
NtRp700
(dp701
g61
(dp702
sg70
g636
sg63
(lp703
g56
(g77
g58
NtRp704
(dp705
g61
(dp706
g81
g82
ssg70
g700
sg63
(lp707
g333
asbag56
(g77
g58
NtRp708
(dp709
g61
(dp710
g88
g89
ssg70
g700
sg63
(lp711
S':'
asbag56
(g77
g58
NtRp712
(dp713
g61
(dp714
sg70
g700
sg63
(lp715
g56
(g57
g58
NtRp716
(dp717
g61
(dp718
g69
I3
ssg70
g712
sg63
(lp719
S''
asbasbasbag56
(g72
g58
NtRp720
(dp721
g61
(dp722
sg70
g636
sg63
(lp723
g56
(g77
g58
NtRp724
(dp725
g61
(dp726
g81
g82
ssg70
g720
sg63
(lp727
g354
asbag56
(g77
g58
NtRp728
(dp729
g61
(dp730
g88
g89
ssg70
g720
sg63
(lp731
S':'
asbag56
(g77
g58
NtRp732
(dp733
g61
(dp734
sg70
g720
sg63
(lp735
g56
(g57
g58
NtRp736
(dp737
g61
(dp738
g69
I3
ssg70
g732
sg63
(lp739
S''
asbasbasbag56
(g72
g58
NtRp740
(dp741
g61
(dp742
sg70
g636
sg63
(lp743
g56
(g77
g58
NtRp744
(dp745
g61
(dp746
g81
g82
ssg70
g740
sg63
(lp747
g375
asbag56
(g77
g58
NtRp748
(dp749
g61
(dp750
g88
g89
ssg70
g740
sg63
(lp751
S':'
asbag56
(g77
g58
NtRp752
(dp753
g61
(dp754
sg70
g740
sg63
(lp755
g56
(g57
g58
NtRp756
(dp757
g61
(dp758
g69
I3
ssg70
g752
sg63
(lp759
S''
asbasbasbag56
(g72
g58
NtRp760
(dp761
g61
(dp762
sg70
g636
sg63
(lp763
g56
(g77
g58
NtRp764
(dp765
g61
(dp766
g81
g82
ssg70
g760
sg63
(lp767
g396
asbag56
(g77
g58
NtRp768
(dp769
g61
(dp770
g88
g89
ssg70
g760
sg63
(lp771
S':'
asbag56
(g77
g58
NtRp772
(dp773
g61
(dp774
sg70
g760
sg63
(lp775
g56
(g57
g58
NtRp776
(dp777
g61
(dp778
g69
I3
ssg70
g772
sg63
(lp779
S''
asbasbasbag56
(g72
g58
NtRp780
(dp781
g61
(dp782
sg70
g636
sg63
(lp783
g56
(g77
g58
NtRp784
(dp785
g61
(dp786
g81
g82
ssg70
g780
sg63
(lp787
g417
asbag56
(g77
g58
NtRp788
(dp789
g61
(dp790
g88
g89
ssg70
g780
sg63
(lp791
S':'
asbag56
(g77
g58
NtRp792
(dp793
g61
(dp794
sg70
g780
sg63
(lp795
g56
(g57
g58
NtRp796
(dp797
g61
(dp798
g69
I3
ssg70
g792
sg63
(lp799
S''
asbasbasbasbasbasbasbag56
(g72
g58
NtRp800
(dp801
g61
(dp802
sg70
g233
sg63
(lp803
g56
(g77
g58
NtRp804
(dp805
g61
(dp806
g81
g82
ssg70
g800
sg63
(lp807
S'session_id_welcome'
p808
asbag56
(g77
g58
NtRp809
(dp810
g61
(dp811
g88
g89
ssg70
g800
sg63
(lp812
S':'
asbag56
(g77
g58
NtRp813
(dp814
g61
(dp815
sg70
g800
sg63
(lp816
g56
(g57
g58
NtRp817
(dp818
g61
(dp819
g69
I4
ssg70
g813
sg63
(lp820
g56
(g65
g58
NtRp821
(dp822
g61
(dp823
g69
I3
ssg70
Nsg63
(lp824
g56
(g72
g58
NtRp825
(dp826
g61
(dp827
sg70
g821
sg63
(lp828
g56
(g77
g58
NtRp829
(dp830
g61
(dp831
g81
g82
ssg70
g825
sg63
(lp832
g270
asbag56
(g77
g58
NtRp833
(dp834
g61
(dp835
g88
g89
ssg70
g825
sg63
(lp836
S':'
asbag56
(g77
g58
NtRp837
(dp838
g61
(dp839
sg70
g825
sg63
(lp840
g56
(g57
g58
NtRp841
(dp842
g61
(dp843
g69
I3
ssg70
g837
sg63
(lp844
S''
asbasbasbag56
(g72
g58
NtRp845
(dp846
g61
(dp847
sg70
g821
sg63
(lp848
g56
(g77
g58
NtRp849
(dp850
g61
(dp851
g81
g82
ssg70
g845
sg63
(lp852
g291
asbag56
(g77
g58
NtRp853
(dp854
g61
(dp855
g88
g89
ssg70
g845
sg63
(lp856
S':'
asbag56
(g77
g58
NtRp857
(dp858
g61
(dp859
sg70
g845
sg63
(lp860
g56
(g57
g58
NtRp861
(dp862
g61
(dp863
g69
I3
ssg70
g857
sg63
(lp864
S''
asbasbasbag56
(g72
g58
NtRp865
(dp866
g61
(dp867
sg70
g821
sg63
(lp868
g56
(g77
g58
NtRp869
(dp870
g61
(dp871
g81
g82
ssg70
g865
sg63
(lp872
g312
asbag56
(g77
g58
NtRp873
(dp874
g61
(dp875
g88
g89
ssg70
g865
sg63
(lp876
S':'
asbag56
(g77
g58
NtRp877
(dp878
g61
(dp879
sg70
g865
sg63
(lp880
g56
(g57
g58
NtRp881
(dp882
g61
(dp883
g69
I3
ssg70
g877
sg63
(lp884
S''
asbasbasbag56
(g72
g58
NtRp885
(dp886
g61
(dp887
sg70
g821
sg63
(lp888
g56
(g77
g58
NtRp889
(dp890
g61
(dp891
g81
g82
ssg70
g885
sg63
(lp892
g333
asbag56
(g77
g58
NtRp893
(dp894
g61
(dp895
g88
g89
ssg70
g885
sg63
(lp896
S':'
asbag56
(g77
g58
NtRp897
(dp898
g61
(dp899
sg70
g885
sg63
(lp900
g56
(g57
g58
NtRp901
(dp902
g61
(dp903
g69
I3
ssg70
g897
sg63
(lp904
S''
asbasbasbag56
(g72
g58
NtRp905
(dp906
g61
(dp907
sg70
g821
sg63
(lp908
g56
(g77
g58
NtRp909
(dp910
g61
(dp911
g81
g82
ssg70
g905
sg63
(lp912
g354
asbag56
(g77
g58
NtRp913
(dp914
g61
(dp915
g88
g89
ssg70
g905
sg63
(lp916
S':'
asbag56
(g77
g58
NtRp917
(dp918
g61
(dp919
sg70
g905
sg63
(lp920
g56
(g57
g58
NtRp921
(dp922
g61
(dp923
g69
I3
ssg70
g917
sg63
(lp924
S''
asbasbasbag56
(g72
g58
NtRp925
(dp926
g61
(dp927
sg70
g821
sg63
(lp928
g56
(g77
g58
NtRp929
(dp930
g61
(dp931
g81
g82
ssg70
g925
sg63
(lp932
g375
asbag56
(g77
g58
NtRp933
(dp934
g61
(dp935
g88
g89
ssg70
g925
sg63
(lp936
S':'
asbag56
(g77
g58
NtRp937
(dp938
g61
(dp939
sg70
g925
sg63
(lp940
g56
(g57
g58
NtRp941
(dp942
g61
(dp943
g69
I3
ssg70
g937
sg63
(lp944
S''
asbasbasbag56
(g72
g58
NtRp945
(dp946
g61
(dp947
sg70
g821
sg63
(lp948
g56
(g77
g58
NtRp949
(dp950
g61
(dp951
g81
g82
ssg70
g945
sg63
(lp952
g396
asbag56
(g77
g58
NtRp953
(dp954
g61
(dp955
g88
g89
ssg70
g945
sg63
(lp956
S':'
asbag56
(g77
g58
NtRp957
(dp958
g61
(dp959
sg70
g945
sg63
(lp960
g56
(g57
g58
NtRp961
(dp962
g61
(dp963
g69
I3
ssg70
g957
sg63
(lp964
S''
asbasbasbag56
(g72
g58
NtRp965
(dp966
g61
(dp967
sg70
g821
sg63
(lp968
g56
(g77
g58
NtRp969
(dp970
g61
(dp971
g81
g82
ssg70
g965
sg63
(lp972
g417
asbag56
(g77
g58
NtRp973
(dp974
g61
(dp975
g88
g89
ssg70
g965
sg63
(lp976
S':'
asbag56
(g77
g58
NtRp977
(dp978
g61
(dp979
sg70
g965
sg63
(lp980
g56
(g57
g58
NtRp981
(dp982
g61
(dp983
g69
I3
ssg70
g977
sg63
(lp984
S''
asbasbasbasbasbasbasbasbasbasbasbag56
(g72
g58
NtRp985
(dp986
g61
(dp987
sg70
g66
sg63
(lp988
g56
(g77
g58
NtRp989
(dp990
g61
(dp991
g81
g82
ssg70
g985
sg63
(lp992
S'env'
p993
asbag56
(g77
g58
NtRp994
(dp995
g61
(dp996
g88
g89
ssg70
g985
sg63
(lp997
S':'
asbag56
(g77
g58
NtRp998
(dp999
g61
(dp1000
sg70
g985
sg63
(lp1001
g56
(g57
g58
NtRp1002
(dp1003
g61
(dp1004
g69
I5
ssg70
g998
sg63
(lp1005
g56
(g65
g58
NtRp1006
(dp1007
g61
(dp1008
g69
I4
ssg70
Nsg63
(lp1009
g56
(g72
g58
NtRp1010
(dp1011
g61
(dp1012
sg70
g1006
sg63
(lp1013
g56
(g77
g58
NtRp1014
(dp1015
g61
(dp1016
g81
g82
ssg70
g1010
sg63
(lp1017
S'app_folders'
p1018
asbag56
(g77
g58
NtRp1019
(dp1020
g61
(dp1021
g88
g89
ssg70
g1010
sg63
(lp1022
S':'
asbag56
(g77
g58
NtRp1023
(dp1024
g61
(dp1025
sg70
g1010
sg63
(lp1026
g56
(g57
g58
NtRp1027
(dp1028
g61
(dp1029
g69
I4
ssg70
g1023
sg63
(lp1030
S"set(['/home/u4hcsdaw/Python/web2py/applications/ACES/', '/home/u4hcsdaw/Python/web2py/applications/admin/', '/home/u4hcsdaw/Python/web2py/applications/welcome/', '/home/u4hcsdaw/Python/web2py/applications/DALEX1/'])"
p1031
asbasbasbag56
(g72
g58
NtRp1032
(dp1033
g61
(dp1034
sg70
g1006
sg63
(lp1035
g56
(g77
g58
NtRp1036
(dp1037
g61
(dp1038
g81
g82
ssg70
g1032
sg63
(lp1039
S'applications_parent'
p1040
asbag56
(g77
g58
NtRp1041
(dp1042
g61
(dp1043
g88
g89
ssg70
g1032
sg63
(lp1044
S':'
asbag56
(g77
g58
NtRp1045
(dp1046
g61
(dp1047
sg70
g1032
sg63
(lp1048
g56
(g57
g58
NtRp1049
(dp1050
g61
(dp1051
g69
I4
ssg70
g1045
sg63
(lp1052
S'/home/u4hcsdaw/Python/web2py'
p1053
asbasbasbag56
(g72
g58
NtRp1054
(dp1055
g61
(dp1056
sg70
g1006
sg63
(lp1057
g56
(g77
g58
NtRp1058
(dp1059
g61
(dp1060
g81
g82
ssg70
g1054
sg63
(lp1061
S'cmd_args'
p1062
asbag56
(g77
g58
NtRp1063
(dp1064
g61
(dp1065
g88
g89
ssg70
g1054
sg63
(lp1066
S':'
asbag56
(g77
g58
NtRp1067
(dp1068
g61
(dp1069
sg70
g1054
sg63
(lp1070
g56
(g57
g58
NtRp1071
(dp1072
g61
(dp1073
g69
I4
ssg70
g1067
sg63
(lp1074
g56
(g65
g58
NtRp1075
(dp1076
g61
(dp1077
g69
I3
ssg70
Nsg63
(lp1078
sbasbasbasbag56
(g72
g58
NtRp1079
(dp1080
g61
(dp1081
sg70
g1006
sg63
(lp1082
g56
(g77
g58
NtRp1083
(dp1084
g61
(dp1085
g81
g82
ssg70
g1079
sg63
(lp1086
S'cmd_options'
p1087
asbag56
(g77
g58
NtRp1088
(dp1089
g61
(dp1090
g88
g89
ssg70
g1079
sg63
(lp1091
S':'
asbag56
(g77
g58
NtRp1092
(dp1093
g61
(dp1094
sg70
g1079
sg63
(lp1095
g56
(g57
g58
NtRp1096
(dp1097
g61
(dp1098
g69
I4
ssg70
g1092
sg63
(lp1099
S"<Values at 0xa7a4aec: {'verbose': False, 'ip': '127.0.0.1', 'shutdown_timeout': 5, 'taskbar': False, 'nocron': False, 'pid_filename': 'httpserver.pid', 'maxthreads': None, 'softcron': False, 'server_name': 'chl-5833E', 'bpython': False, 'nogui': False, 'port': 8000, 'extcron': False, 'debuglevel': 30, 'test': None, 'folder': '/home/u4hcsdaw/Python/web2py', 'config': '', 'import_models': False, 'winservice': '', 'shell': None, 'run': '', 'log_filename': 'httpserver.log', 'args': [''], 'ssl_ca_certificate': None, 'scheduler': None, 'profiler_filename': None, 'ssl_private_key': '', 'password': '<ask>', 'request_queue_size': 5, 'ssl_certificate': '', 'cronjob': False, 'plain': False, 'quiet': False, 'interfaces': None, 'minthreads': None, 'timeout': 10, 'numthreads': None, 'nobanner': False}>"
p1100
asbasbasbag56
(g72
g58
NtRp1101
(dp1102
g61
(dp1103
sg70
g1006
sg63
(lp1104
g56
(g77
g58
NtRp1105
(dp1106
g61
(dp1107
g81
g82
ssg70
g1101
sg63
(lp1108
S'content_length'
p1109
asbag56
(g77
g58
NtRp1110
(dp1111
g61
(dp1112
g88
g89
ssg70
g1101
sg63
(lp1113
S':'
asbag56
(g77
g58
NtRp1114
(dp1115
g61
(dp1116
sg70
g1101
sg63
(lp1117
g56
(g57
g58
NtRp1118
(dp1119
g61
(dp1120
g69
I4
ssg70
g1114
sg63
(lp1121
S'826'
p1122
asbasbasbag56
(g72
g58
NtRp1123
(dp1124
g61
(dp1125
sg70
g1006
sg63
(lp1126
g56
(g77
g58
NtRp1127
(dp1128
g61
(dp1129
g81
g82
ssg70
g1123
sg63
(lp1130
S'content_type'
p1131
asbag56
(g77
g58
NtRp1132
(dp1133
g61
(dp1134
g88
g89
ssg70
g1123
sg63
(lp1135
S':'
asbag56
(g77
g58
NtRp1136
(dp1137
g61
(dp1138
sg70
g1123
sg63
(lp1139
g56
(g57
g58
NtRp1140
(dp1141
g61
(dp1142
g69
I4
ssg70
g1136
sg63
(lp1143
S'multipart/form-data; boundary=---------------------------16729719713023818401326680336'
p1144
asbasbasbag56
(g72
g58
NtRp1145
(dp1146
g61
(dp1147
sg70
g1006
sg63
(lp1148
g56
(g77
g58
NtRp1149
(dp1150
g61
(dp1151
g81
g82
ssg70
g1145
sg63
(lp1152
S'db_sessions'
p1153
asbag56
(g77
g58
NtRp1154
(dp1155
g61
(dp1156
g88
g89
ssg70
g1145
sg63
(lp1157
S':'
asbag56
(g77
g58
NtRp1158
(dp1159
g61
(dp1160
sg70
g1145
sg63
(lp1161
g56
(g57
g58
NtRp1162
(dp1163
g61
(dp1164
g69
I4
ssg70
g1158
sg63
(lp1165
S'set([])'
p1166
asbasbasbag56
(g72
g58
NtRp1167
(dp1168
g61
(dp1169
sg70
g1006
sg63
(lp1170
g56
(g77
g58
NtRp1171
(dp1172
g61
(dp1173
g81
g82
ssg70
g1167
sg63
(lp1174
S'debugging'
p1175
asbag56
(g77
g58
NtRp1176
(dp1177
g61
(dp1178
g88
g89
ssg70
g1167
sg63
(lp1179
S':'
asbag56
(g77
g58
NtRp1180
(dp1181
g61
(dp1182
sg70
g1167
sg63
(lp1183
g56
(g57
g58
NtRp1184
(dp1185
g61
(dp1186
g69
I4
ssg70
g1180
sg63
(lp1187
g99
asbasbasbag56
(g72
g58
NtRp1188
(dp1189
g61
(dp1190
sg70
g1006
sg63
(lp1191
g56
(g77
g58
NtRp1192
(dp1193
g61
(dp1194
g81
g82
ssg70
g1188
sg63
(lp1195
S'gluon_parent'
p1196
asbag56
(g77
g58
NtRp1197
(dp1198
g61
(dp1199
g88
g89
ssg70
g1188
sg63
(lp1200
S':'
asbag56
(g77
g58
NtRp1201
(dp1202
g61
(dp1203
sg70
g1188
sg63
(lp1204
g56
(g57
g58
NtRp1205
(dp1206
g61
(dp1207
g69
I4
ssg70
g1201
sg63
(lp1208
S'/home/u4hcsdaw/Python/web2py'
p1209
asbasbasbag56
(g72
g58
NtRp1210
(dp1211
g61
(dp1212
sg70
g1006
sg63
(lp1213
g56
(g77
g58
NtRp1214
(dp1215
g61
(dp1216
g81
g82
ssg70
g1210
sg63
(lp1217
S'http_accept'
p1218
asbag56
(g77
g58
NtRp1219
(dp1220
g61
(dp1221
g88
g89
ssg70
g1210
sg63
(lp1222
S':'
asbag56
(g77
g58
NtRp1223
(dp1224
g61
(dp1225
sg70
g1210
sg63
(lp1226
g56
(g57
g58
NtRp1227
(dp1228
g61
(dp1229
g69
I4
ssg70
g1223
sg63
(lp1230
S'text/html,application/xhtml+xml,application/xml;q=0.9,*/*;q=0.8'
p1231
asbasbasbag56
(g72
g58
NtRp1232
(dp1233
g61
(dp1234
sg70
g1006
sg63
(lp1235
g56
(g77
g58
NtRp1236
(dp1237
g61
(dp1238
g81
g82
ssg70
g1232
sg63
(lp1239
S'http_accept_encoding'
p1240
asbag56
(g77
g58
NtRp1241
(dp1242
g61
(dp1243
g88
g89
ssg70
g1232
sg63
(lp1244
S':'
asbag56
(g77
g58
NtRp1245
(dp1246
g61
(dp1247
sg70
g1232
sg63
(lp1248
g56
(g57
g58
NtRp1249
(dp1250
g61
(dp1251
g69
I4
ssg70
g1245
sg63
(lp1252
S'gzip, deflate'
p1253
asbasbasbag56
(g72
g58
NtRp1254
(dp1255
g61
(dp1256
sg70
g1006
sg63
(lp1257
g56
(g77
g58
NtRp1258
(dp1259
g61
(dp1260
g81
g82
ssg70
g1254
sg63
(lp1261
S'http_accept_language'
p1262
asbag56
(g77
g58
NtRp1263
(dp1264
g61
(dp1265
g88
g89
ssg70
g1254
sg63
(lp1266
S':'
asbag56
(g77
g58
NtRp1267
(dp1268
g61
(dp1269
sg70
g1254
sg63
(lp1270
g56
(g57
g58
NtRp1271
(dp1272
g61
(dp1273
g69
I4
ssg70
g1267
sg63
(lp1274
S'en-us,en;q=0.5'
p1275
asbasbasbag56
(g72
g58
NtRp1276
(dp1277
g61
(dp1278
sg70
g1006
sg63
(lp1279
g56
(g77
g58
NtRp1280
(dp1281
g61
(dp1282
g81
g82
ssg70
g1276
sg63
(lp1283
S'http_connection'
p1284
asbag56
(g77
g58
NtRp1285
(dp1286
g61
(dp1287
g88
g89
ssg70
g1276
sg63
(lp1288
S':'
asbag56
(g77
g58
NtRp1289
(dp1290
g61
(dp1291
sg70
g1276
sg63
(lp1292
g56
(g57
g58
NtRp1293
(dp1294
g61
(dp1295
g69
I4
ssg70
g1289
sg63
(lp1296
S'keep-alive'
p1297
asbasbasbag56
(g72
g58
NtRp1298
(dp1299
g61
(dp1300
sg70
g1006
sg63
(lp1301
g56
(g77
g58
NtRp1302
(dp1303
g61
(dp1304
g81
g82
ssg70
g1298
sg63
(lp1305
S'http_content_length'
p1306
asbag56
(g77
g58
NtRp1307
(dp1308
g61
(dp1309
g88
g89
ssg70
g1298
sg63
(lp1310
S':'
asbag56
(g77
g58
NtRp1311
(dp1312
g61
(dp1313
sg70
g1298
sg63
(lp1314
g56
(g57
g58
NtRp1315
(dp1316
g61
(dp1317
g69
I4
ssg70
g1311
sg63
(lp1318
g1122
asbasbasbag56
(g72
g58
NtRp1319
(dp1320
g61
(dp1321
sg70
g1006
sg63
(lp1322
g56
(g77
g58
NtRp1323
(dp1324
g61
(dp1325
g81
g82
ssg70
g1319
sg63
(lp1326
S'http_content_type'
p1327
asbag56
(g77
g58
NtRp1328
(dp1329
g61
(dp1330
g88
g89
ssg70
g1319
sg63
(lp1331
S':'
asbag56
(g77
g58
NtRp1332
(dp1333
g61
(dp1334
sg70
g1319
sg63
(lp1335
g56
(g57
g58
NtRp1336
(dp1337
g61
(dp1338
g69
I4
ssg70
g1332
sg63
(lp1339
g1144
asbasbasbag56
(g72
g58
NtRp1340
(dp1341
g61
(dp1342
sg70
g1006
sg63
(lp1343
g56
(g77
g58
NtRp1344
(dp1345
g61
(dp1346
g81
g82
ssg70
g1340
sg63
(lp1347
S'http_cookie'
p1348
asbag56
(g77
g58
NtRp1349
(dp1350
g61
(dp1351
g88
g89
ssg70
g1340
sg63
(lp1352
S':'
asbag56
(g77
g58
NtRp1353
(dp1354
g61
(dp1355
sg70
g1340
sg63
(lp1356
g56
(g57
g58
NtRp1357
(dp1358
g61
(dp1359
g69
I4
ssg70
g1353
sg63
(lp1360
S'session_id_welcome=127.0.0.1-78623fe9-ce00-476c-927f-eafcf49cd1de; session_id_admin=127.0.0.1-3a2cfaf5-caac-46cf-9bb6-feec5e929e91; session_id_dalex1=127.0.0.1-9de07f4f-e749-4ea4-acf8-21d98c9698ae; session_id_aces=127.0.0.1-fa323a39-b4f7-4824-aae1-5c3174579522'
p1361
asbasbasbag56
(g72
g58
NtRp1362
(dp1363
g61
(dp1364
sg70
g1006
sg63
(lp1365
g56
(g77
g58
NtRp1366
(dp1367
g61
(dp1368
g81
g82
ssg70
g1362
sg63
(lp1369
S'http_host'
p1370
asbag56
(g77
g58
NtRp1371
(dp1372
g61
(dp1373
g88
g89
ssg70
g1362
sg63
(lp1374
S':'
asbag56
(g77
g58
NtRp1375
(dp1376
g61
(dp1377
sg70
g1362
sg63
(lp1378
g56
(g57
g58
NtRp1379
(dp1380
g61
(dp1381
g69
I4
ssg70
g1375
sg63
(lp1382
S'127.0.0.1:8000'
p1383
asbasbasbag56
(g72
g58
NtRp1384
(dp1385
g61
(dp1386
sg70
g1006
sg63
(lp1387
g56
(g77
g58
NtRp1388
(dp1389
g61
(dp1390
g81
g82
ssg70
g1384
sg63
(lp1391
S'http_referer'
p1392
asbag56
(g77
g58
NtRp1393
(dp1394
g61
(dp1395
g88
g89
ssg70
g1384
sg63
(lp1396
S':'
asbag56
(g77
g58
NtRp1397
(dp1398
g61
(dp1399
sg70
g1384
sg63
(lp1400
g56
(g57
g58
NtRp1401
(dp1402
g61
(dp1403
g69
I4
ssg70
g1397
sg63
(lp1404
S'http://127.0.0.1:8000/ACES/default/index'
p1405
asbasbasbag56
(g72
g58
NtRp1406
(dp1407
g61
(dp1408
sg70
g1006
sg63
(lp1409
g56
(g77
g58
NtRp1410
(dp1411
g61
(dp1412
g81
g82
ssg70
g1406
sg63
(lp1413
S'http_user_agent'
p1414
asbag56
(g77
g58
NtRp1415
(dp1416
g61
(dp1417
g88
g89
ssg70
g1406
sg63
(lp1418
S':'
asbag56
(g77
g58
NtRp1419
(dp1420
g61
(dp1421
sg70
g1406
sg63
(lp1422
g56
(g57
g58
NtRp1423
(dp1424
g61
(dp1425
g69
I4
ssg70
g1419
sg63
(lp1426
S'Mozilla/5.0 (X11; Ubuntu; Linux i686; rv:13.0) Gecko/20100101 Firefox/13.0.1'
p1427
asbasbasbag56
(g72
g58
NtRp1428
(dp1429
g61
(dp1430
sg70
g1006
sg63
(lp1431
g56
(g77
g58
NtRp1432
(dp1433
g61
(dp1434
g81
g82
ssg70
g1428
sg63
(lp1435
S'is_jython'
p1436
asbag56
(g77
g58
NtRp1437
(dp1438
g61
(dp1439
g88
g89
ssg70
g1428
sg63
(lp1440
S':'
asbag56
(g77
g58
NtRp1441
(dp1442
g61
(dp1443
sg70
g1428
sg63
(lp1444
g56
(g57
g58
NtRp1445
(dp1446
g61
(dp1447
g69
I4
ssg70
g1441
sg63
(lp1448
g99
asbasbasbag56
(g72
g58
NtRp1449
(dp1450
g61
(dp1451
sg70
g1006
sg63
(lp1452
g56
(g77
g58
NtRp1453
(dp1454
g61
(dp1455
g81
g82
ssg70
g1449
sg63
(lp1456
S'path_info'
p1457
asbag56
(g77
g58
NtRp1458
(dp1459
g61
(dp1460
g88
g89
ssg70
g1449
sg63
(lp1461
S':'
asbag56
(g77
g58
NtRp1462
(dp1463
g61
(dp1464
sg70
g1449
sg63
(lp1465
g56
(g57
g58
NtRp1466
(dp1467
g61
(dp1468
g69
I4
ssg70
g1462
sg63
(lp1469
S'/ACES/default/index'
p1470
asbasbasbag56
(g72
g58
NtRp1471
(dp1472
g61
(dp1473
sg70
g1006
sg63
(lp1474
g56
(g77
g58
NtRp1475
(dp1476
g61
(dp1477
g81
g82
ssg70
g1471
sg63
(lp1478
S'query_string'
p1479
asbag56
(g77
g58
NtRp1480
(dp1481
g61
(dp1482
g88
g89
ssg70
g1471
sg63
(lp1483
S':'
asbag56
(g77
g58
NtRp1484
(dp1485
g61
(dp1486
sg70
g1471
sg63
(lp1487
g56
(g57
g58
NtRp1488
(dp1489
g61
(dp1490
g69
I4
ssg70
g1484
sg63
(lp1491
S''
asbasbasbag56
(g72
g58
NtRp1492
(dp1493
g61
(dp1494
sg70
g1006
sg63
(lp1495
g56
(g77
g58
NtRp1496
(dp1497
g61
(dp1498
g81
g82
ssg70
g1492
sg63
(lp1499
S'remote_addr'
p1500
asbag56
(g77
g58
NtRp1501
(dp1502
g61
(dp1503
g88
g89
ssg70
g1492
sg63
(lp1504
S':'
asbag56
(g77
g58
NtRp1505
(dp1506
g61
(dp1507
sg70
g1492
sg63
(lp1508
g56
(g57
g58
NtRp1509
(dp1510
g61
(dp1511
g69
I4
ssg70
g1505
sg63
(lp1512
g189
asbasbasbag56
(g72
g58
NtRp1513
(dp1514
g61
(dp1515
sg70
g1006
sg63
(lp1516
g56
(g77
g58
NtRp1517
(dp1518
g61
(dp1519
g81
g82
ssg70
g1513
sg63
(lp1520
S'remote_port'
p1521
asbag56
(g77
g58
NtRp1522
(dp1523
g61
(dp1524
g88
g89
ssg70
g1513
sg63
(lp1525
S':'
asbag56
(g77
g58
NtRp1526
(dp1527
g61
(dp1528
sg70
g1513
sg63
(lp1529
g56
(g57
g58
NtRp1530
(dp1531
g61
(dp1532
g69
I4
ssg70
g1526
sg63
(lp1533
S'56201'
p1534
asbasbasbag56
(g72
g58
NtRp1535
(dp1536
g61
(dp1537
sg70
g1006
sg63
(lp1538
g56
(g77
g58
NtRp1539
(dp1540
g61
(dp1541
g81
g82
ssg70
g1535
sg63
(lp1542
S'request_method'
p1543
asbag56
(g77
g58
NtRp1544
(dp1545
g61
(dp1546
g88
g89
ssg70
g1535
sg63
(lp1547
S':'
asbag56
(g77
g58
NtRp1548
(dp1549
g61
(dp1550
sg70
g1535
sg63
(lp1551
g56
(g57
g58
NtRp1552
(dp1553
g61
(dp1554
g69
I4
ssg70
g1548
sg63
(lp1555
S'POST'
p1556
asbasbasbag56
(g72
g58
NtRp1557
(dp1558
g61
(dp1559
sg70
g1006
sg63
(lp1560
g56
(g77
g58
NtRp1561
(dp1562
g61
(dp1563
g81
g82
ssg70
g1557
sg63
(lp1564
S'script_name'
p1565
asbag56
(g77
g58
NtRp1566
(dp1567
g61
(dp1568
g88
g89
ssg70
g1557
sg63
(lp1569
S':'
asbag56
(g77
g58
NtRp1570
(dp1571
g61
(dp1572
sg70
g1557
sg63
(lp1573
g56
(g57
g58
NtRp1574
(dp1575
g61
(dp1576
g69
I4
ssg70
g1570
sg63
(lp1577
S''
asbasbasbag56
(g72
g58
NtRp1578
(dp1579
g61
(dp1580
sg70
g1006
sg63
(lp1581
g56
(g77
g58
NtRp1582
(dp1583
g61
(dp1584
g81
g82
ssg70
g1578
sg63
(lp1585
S'server_name'
p1586
asbag56
(g77
g58
NtRp1587
(dp1588
g61
(dp1589
g88
g89
ssg70
g1578
sg63
(lp1590
S':'
asbag56
(g77
g58
NtRp1591
(dp1592
g61
(dp1593
sg70
g1578
sg63
(lp1594
g56
(g57
g58
NtRp1595
(dp1596
g61
(dp1597
g69
I4
ssg70
g1591
sg63
(lp1598
S'chl-5833E'
p1599
asbasbasbag56
(g72
g58
NtRp1600
(dp1601
g61
(dp1602
sg70
g1006
sg63
(lp1603
g56
(g77
g58
NtRp1604
(dp1605
g61
(dp1606
g81
g82
ssg70
g1600
sg63
(lp1607
S'server_port'
p1608
asbag56
(g77
g58
NtRp1609
(dp1610
g61
(dp1611
g88
g89
ssg70
g1600
sg63
(lp1612
S':'
asbag56
(g77
g58
NtRp1613
(dp1614
g61
(dp1615
sg70
g1600
sg63
(lp1616
g56
(g57
g58
NtRp1617
(dp1618
g61
(dp1619
g69
I4
ssg70
g1613
sg63
(lp1620
S'8000'
p1621
asbasbasbag56
(g72
g58
NtRp1622
(dp1623
g61
(dp1624
sg70
g1006
sg63
(lp1625
g56
(g77
g58
NtRp1626
(dp1627
g61
(dp1628
g81
g82
ssg70
g1622
sg63
(lp1629
S'server_protocol'
p1630
asbag56
(g77
g58
NtRp1631
(dp1632
g61
(dp1633
g88
g89
ssg70
g1622
sg63
(lp1634
S':'
asbag56
(g77
g58
NtRp1635
(dp1636
g61
(dp1637
sg70
g1622
sg63
(lp1638
g56
(g57
g58
NtRp1639
(dp1640
g61
(dp1641
g69
I4
ssg70
g1635
sg63
(lp1642
S'HTTP/1.1'
p1643
asbasbasbag56
(g72
g58
NtRp1644
(dp1645
g61
(dp1646
sg70
g1006
sg63
(lp1647
g56
(g77
g58
NtRp1648
(dp1649
g61
(dp1650
g81
g82
ssg70
g1644
sg63
(lp1651
S'server_software'
p1652
asbag56
(g77
g58
NtRp1653
(dp1654
g61
(dp1655
g88
g89
ssg70
g1644
sg63
(lp1656
S':'
asbag56
(g77
g58
NtRp1657
(dp1658
g61
(dp1659
sg70
g1644
sg63
(lp1660
g56
(g57
g58
NtRp1661
(dp1662
g61
(dp1663
g69
I4
ssg70
g1657
sg63
(lp1664
S'Rocket 1.2.4'
p1665
asbasbasbag56
(g72
g58
NtRp1666
(dp1667
g61
(dp1668
sg70
g1006
sg63
(lp1669
g56
(g77
g58
NtRp1670
(dp1671
g61
(dp1672
g81
g82
ssg70
g1666
sg63
(lp1673
S'web2py_crontype'
p1674
asbag56
(g77
g58
NtRp1675
(dp1676
g61
(dp1677
g88
g89
ssg70
g1666
sg63
(lp1678
S':'
asbag56
(g77
g58
NtRp1679
(dp1680
g61
(dp1681
sg70
g1666
sg63
(lp1682
g56
(g57
g58
NtRp1683
(dp1684
g61
(dp1685
g69
I4
ssg70
g1679
sg63
(lp1686
S'hard'
p1687
asbasbasbag56
(g72
g58
NtRp1688
(dp1689
g61
(dp1690
sg70
g1006
sg63
(lp1691
g56
(g77
g58
NtRp1692
(dp1693
g61
(dp1694
g81
g82
ssg70
g1688
sg63
(lp1695
S'web2py_path'
p1696
asbag56
(g77
g58
NtRp1697
(dp1698
g61
(dp1699
g88
g89
ssg70
g1688
sg63
(lp1700
S':'
asbag56
(g77
g58
NtRp1701
(dp1702
g61
(dp1703
sg70
g1688
sg63
(lp1704
g56
(g57
g58
NtRp1705
(dp1706
g61
(dp1707
g69
I4
ssg70
g1701
sg63
(lp1708
g1053
asbasbasbag56
(g72
g58
NtRp1709
(dp1710
g61
(dp1711
sg70
g1006
sg63
(lp1712
g56
(g77
g58
NtRp1713
(dp1714
g61
(dp1715
g81
g82
ssg70
g1709
sg63
(lp1716
S'web2py_version'
p1717
asbag56
(g77
g58
NtRp1718
(dp1719
g61
(dp1720
g88
g89
ssg70
g1709
sg63
(lp1721
S':'
asbag56
(g77
g58
NtRp1722
(dp1723
g61
(dp1724
sg70
g1709
sg63
(lp1725
g56
(g57
g58
NtRp1726
(dp1727
g61
(dp1728
g69
I4
ssg70
g1722
sg63
(lp1729
g56
(g65
g58
NtRp1730
(dp1731
g61
(dp1732
g69
I3
ssg70
Nsg63
(lp1733
g56
(g72
g58
NtRp1734
(dp1735
g61
(dp1736
sg70
g1730
sg63
(lp1737
g56
(g77
g58
NtRp1738
(dp1739
g61
(dp1740
sg70
g1734
sg63
(lp1741
g56
(g57
g58
NtRp1742
(dp1743
g61
(dp1744
g69
I3
ssg70
g1738
sg63
(lp1745
S'1'
asbasbasbag56
(g72
g58
NtRp1746
(dp1747
g61
(dp1748
sg70
g1730
sg63
(lp1749
g56
(g77
g58
NtRp1750
(dp1751
g61
(dp1752
sg70
g1746
sg63
(lp1753
g56
(g57
g58
NtRp1754
(dp1755
g61
(dp1756
g69
I3
ssg70
g1750
sg63
(lp1757
S'99'
p1758
asbasbasbag56
(g72
g58
NtRp1759
(dp1760
g61
(dp1761
sg70
g1730
sg63
(lp1762
g56
(g77
g58
NtRp1763
(dp1764
g61
(dp1765
sg70
g1759
sg63
(lp1766
g56
(g57
g58
NtRp1767
(dp1768
g61
(dp1769
g69
I3
ssg70
g1763
sg63
(lp1770
S'2'
asbasbasbag56
(g72
g58
NtRp1771
(dp1772
g61
(dp1773
sg70
g1730
sg63
(lp1774
g56
(g77
g58
NtRp1775
(dp1776
g61
(dp1777
sg70
g1771
sg63
(lp1778
g56
(g57
g58
NtRp1779
(dp1780
g61
(dp1781
g69
I3
ssg70
g1775
sg63
(lp1782
S'datetime.datetime(2011, 9, 26, 6, 55, 33)'
p1783
asbasbasbag56
(g72
g58
NtRp1784
(dp1785
g61
(dp1786
sg70
g1730
sg63
(lp1787
g56
(g77
g58
NtRp1788
(dp1789
g61
(dp1790
sg70
g1784
sg63
(lp1791
g56
(g57
g58
NtRp1792
(dp1793
g61
(dp1794
g69
I3
ssg70
g1788
sg63
(lp1795
S'stable'
p1796
asbasbasbasbasbasbasbag56
(g72
g58
NtRp1797
(dp1798
g61
(dp1799
sg70
g1006
sg63
(lp1800
g56
(g77
g58
NtRp1801
(dp1802
g61
(dp1803
g81
g82
ssg70
g1797
sg63
(lp1804
S'wsgi_errors'
p1805
asbag56
(g77
g58
NtRp1806
(dp1807
g61
(dp1808
g88
g89
ssg70
g1797
sg63
(lp1809
S':'
asbag56
(g77
g58
NtRp1810
(dp1811
g61
(dp1812
sg70
g1797
sg63
(lp1813
g56
(g57
g58
NtRp1814
(dp1815
g61
(dp1816
g69
I4
ssg70
g1810
sg63
(lp1817
S"<open file '<stderr>', mode 'w' at 0xb73360d0>"
p1818
asbasbasbag56
(g72
g58
NtRp1819
(dp1820
g61
(dp1821
sg70
g1006
sg63
(lp1822
g56
(g77
g58
NtRp1823
(dp1824
g61
(dp1825
g81
g82
ssg70
g1819
sg63
(lp1826
S'wsgi_file_wrapper'
p1827
asbag56
(g77
g58
NtRp1828
(dp1829
g61
(dp1830
g88
g89
ssg70
g1819
sg63
(lp1831
S':'
asbag56
(g77
g58
NtRp1832
(dp1833
g61
(dp1834
sg70
g1819
sg63
(lp1835
g56
(g57
g58
NtRp1836
(dp1837
g61
(dp1838
g69
I4
ssg70
g1832
sg63
(lp1839
S'<class wsgiref.util.FileWrapper at 0xa6e1b3c>'
p1840
asbasbasbag56
(g72
g58
NtRp1841
(dp1842
g61
(dp1843
sg70
g1006
sg63
(lp1844
g56
(g77
g58
NtRp1845
(dp1846
g61
(dp1847
g81
g82
ssg70
g1841
sg63
(lp1848
S'wsgi_input'
p1849
asbag56
(g77
g58
NtRp1850
(dp1851
g61
(dp1852
g88
g89
ssg70
g1841
sg63
(lp1853
S':'
asbag56
(g77
g58
NtRp1854
(dp1855
g61
(dp1856
sg70
g1841
sg63
(lp1857
g56
(g57
g58
NtRp1858
(dp1859
g61
(dp1860
g69
I4
ssg70
g1854
sg63
(lp1861
S'<socket._fileobject object at 0xadd941ac>'
p1862
asbasbasbag56
(g72
g58
NtRp1863
(dp1864
g61
(dp1865
sg70
g1006
sg63
(lp1866
g56
(g77
g58
NtRp1867
(dp1868
g61
(dp1869
g81
g82
ssg70
g1863
sg63
(lp1870
S'wsgi_multiprocess'
p1871
asbag56
(g77
g58
NtRp1872
(dp1873
g61
(dp1874
g88
g89
ssg70
g1863
sg63
(lp1875
S':'
asbag56
(g77
g58
NtRp1876
(dp1877
g61
(dp1878
sg70
g1863
sg63
(lp1879
g56
(g57
g58
NtRp1880
(dp1881
g61
(dp1882
g69
I4
ssg70
g1876
sg63
(lp1883
g99
asbasbasbag56
(g72
g58
NtRp1884
(dp1885
g61
(dp1886
sg70
g1006
sg63
(lp1887
g56
(g77
g58
NtRp1888
(dp1889
g61
(dp1890
g81
g82
ssg70
g1884
sg63
(lp1891
S'wsgi_multithread'
p1892
asbag56
(g77
g58
NtRp1893
(dp1894
g61
(dp1895
g88
g89
ssg70
g1884
sg63
(lp1896
S':'
asbag56
(g77
g58
NtRp1897
(dp1898
g61
(dp1899
sg70
g1884
sg63
(lp1900
g56
(g57
g58
NtRp1901
(dp1902
g61
(dp1903
g69
I4
ssg70
g1897
sg63
(lp1904
S'True'
p1905
asbasbasbag56
(g72
g58
NtRp1906
(dp1907
g61
(dp1908
sg70
g1006
sg63
(lp1909
g56
(g77
g58
NtRp1910
(dp1911
g61
(dp1912
g81
g82
ssg70
g1906
sg63
(lp1913
S'wsgi_run_once'
p1914
asbag56
(g77
g58
NtRp1915
(dp1916
g61
(dp1917
g88
g89
ssg70
g1906
sg63
(lp1918
S':'
asbag56
(g77
g58
NtRp1919
(dp1920
g61
(dp1921
sg70
g1906
sg63
(lp1922
g56
(g57
g58
NtRp1923
(dp1924
g61
(dp1925
g69
I4
ssg70
g1919
sg63
(lp1926
g99
asbasbasbag56
(g72
g58
NtRp1927
(dp1928
g61
(dp1929
sg70
g1006
sg63
(lp1930
g56
(g77
g58
NtRp1931
(dp1932
g61
(dp1933
g81
g82
ssg70
g1927
sg63
(lp1934
S'wsgi_url_scheme'
p1935
asbag56
(g77
g58
NtRp1936
(dp1937
g61
(dp1938
g88
g89
ssg70
g1927
sg63
(lp1939
S':'
asbag56
(g77
g58
NtRp1940
(dp1941
g61
(dp1942
sg70
g1927
sg63
(lp1943
g56
(g57
g58
NtRp1944
(dp1945
g61
(dp1946
g69
I4
ssg70
g1940
sg63
(lp1947
S'http'
p1948
asbasbasbag56
(g72
g58
NtRp1949
(dp1950
g61
(dp1951
sg70
g1006
sg63
(lp1952
g56
(g77
g58
NtRp1953
(dp1954
g61
(dp1955
g81
g82
ssg70
g1949
sg63
(lp1956
S'wsgi_version'
p1957
asbag56
(g77
g58
NtRp1958
(dp1959
g61
(dp1960
g88
g89
ssg70
g1949
sg63
(lp1961
S':'
asbag56
(g77
g58
NtRp1962
(dp1963
g61
(dp1964
sg70
g1949
sg63
(lp1965
g56
(g57
g58
NtRp1966
(dp1967
g61
(dp1968
g69
I4
ssg70
g1962
sg63
(lp1969
g56
(g65
g58
NtRp1970
(dp1971
g61
(dp1972
g69
I3
ssg70
Nsg63
(lp1973
g56
(g72
g58
NtRp1974
(dp1975
g61
(dp1976
sg70
g1970
sg63
(lp1977
g56
(g77
g58
NtRp1978
(dp1979
g61
(dp1980
sg70
g1974
sg63
(lp1981
g56
(g57
g58
NtRp1982
(dp1983
g61
(dp1984
g69
I3
ssg70
g1978
sg63
(lp1985
S'1'
asbasbasbag56
(g72
g58
NtRp1986
(dp1987
g61
(dp1988
sg70
g1970
sg63
(lp1989
g56
(g77
g58
NtRp1990
(dp1991
g61
(dp1992
sg70
g1986
sg63
(lp1993
g56
(g57
g58
NtRp1994
(dp1995
g61
(dp1996
g69
I3
ssg70
g1990
sg63
(lp1997
S'0'
asbasbasbasbasbasbasbasbasbasbasbag56
(g72
g58
NtRp1998
(dp1999
g61
(dp2000
sg70
g66
sg63
(lp2001
g56
(g77
g58
NtRp2002
(dp2003
g61
(dp2004
g81
g82
ssg70
g1998
sg63
(lp2005
S'extension'
p2006
asbag56
(g77
g58
NtRp2007
(dp2008
g61
(dp2009
g88
g89
ssg70
g1998
sg63
(lp2010
S':'
asbag56
(g77
g58
NtRp2011
(dp2012
g61
(dp2013
sg70
g1998
sg63
(lp2014
g56
(g57
g58
NtRp2015
(dp2016
g61
(dp2017
g69
I5
ssg70
g2011
sg63
(lp2018
S'html'
p2019
asbasbasbag56
(g72
g58
NtRp2020
(dp2021
g61
(dp2022
sg70
g66
sg63
(lp2023
g56
(g77
g58
NtRp2024
(dp2025
g61
(dp2026
g81
g82
ssg70
g2020
sg63
(lp2027
S'folder'
p2028
asbag56
(g77
g58
NtRp2029
(dp2030
g61
(dp2031
g88
g89
ssg70
g2020
sg63
(lp2032
S':'
asbag56
(g77
g58
NtRp2033
(dp2034
g61
(dp2035
sg70
g2020
sg63
(lp2036
g56
(g57
g58
NtRp2037
(dp2038
g61
(dp2039
g69
I5
ssg70
g2033
sg63
(lp2040
S'/home/u4hcsdaw/Python/web2py/applications/ACES/'
p2041
asbasbasbag56
(g72
g58
NtRp2042
(dp2043
g61
(dp2044
sg70
g66
sg63
(lp2045
g56
(g77
g58
NtRp2046
(dp2047
g61
(dp2048
g81
g82
ssg70
g2042
sg63
(lp2049
S'function'
p2050
asbag56
(g77
g58
NtRp2051
(dp2052
g61
(dp2053
g88
g89
ssg70
g2042
sg63
(lp2054
S':'
asbag56
(g77
g58
NtRp2055
(dp2056
g61
(dp2057
sg70
g2042
sg63
(lp2058
g56
(g57
g58
NtRp2059
(dp2060
g61
(dp2061
g69
I5
ssg70
g2055
sg63
(lp2062
S'index'
p2063
asbasbasbag56
(g72
g58
NtRp2064
(dp2065
g61
(dp2066
sg70
g66
sg63
(lp2067
g56
(g77
g58
NtRp2068
(dp2069
g61
(dp2070
g81
g82
ssg70
g2064
sg63
(lp2071
S'get_vars'
p2072
asbag56
(g77
g58
NtRp2073
(dp2074
g61
(dp2075
g88
g89
ssg70
g2064
sg63
(lp2076
S':'
asbag56
(g77
g58
NtRp2077
(dp2078
g61
(dp2079
sg70
g2064
sg63
(lp2080
g56
(g57
g58
NtRp2081
(dp2082
g61
(dp2083
g69
I5
ssg70
g2077
sg63
(lp2084
g56
(g65
g58
NtRp2085
(dp2086
g61
(dp2087
g69
I4
ssg70
Nsg63
(lp2088
sbasbasbasbag56
(g72
g58
NtRp2089
(dp2090
g61
(dp2091
sg70
g66
sg63
(lp2092
g56
(g77
g58
NtRp2093
(dp2094
g61
(dp2095
g81
g82
ssg70
g2089
sg63
(lp2096
S'global_settings'
p2097
asbag56
(g77
g58
NtRp2098
(dp2099
g61
(dp2100
g88
g89
ssg70
g2089
sg63
(lp2101
S':'
asbag56
(g77
g58
NtRp2102
(dp2103
g61
(dp2104
sg70
g2089
sg63
(lp2105
g56
(g57
g58
NtRp2106
(dp2107
g61
(dp2108
g69
I5
ssg70
g2102
sg63
(lp2109
g56
(g65
g58
NtRp2110
(dp2111
g61
(dp2112
g69
I4
ssg70
Nsg63
(lp2113
g56
(g72
g58
NtRp2114
(dp2115
g61
(dp2116
sg70
g2110
sg63
(lp2117
g56
(g77
g58
NtRp2118
(dp2119
g61
(dp2120
g81
g82
ssg70
g2114
sg63
(lp2121
g1018
asbag56
(g77
g58
NtRp2122
(dp2123
g61
(dp2124
g88
g89
ssg70
g2114
sg63
(lp2125
S':'
asbag56
(g77
g58
NtRp2126
(dp2127
g61
(dp2128
sg70
g2114
sg63
(lp2129
g56
(g57
g58
NtRp2130
(dp2131
g61
(dp2132
g69
I4
ssg70
g2126
sg63
(lp2133
S"set(['/home/u4hcsdaw/Python/web2py/applications/ACES/', '/home/u4hcsdaw/Python/web2py/applications/admin/', '/home/u4hcsdaw/Python/web2py/applications/welcome/', '/home/u4hcsdaw/Python/web2py/applications/DALEX1/'])"
p2134
asbasbasbag56
(g72
g58
NtRp2135
(dp2136
g61
(dp2137
sg70
g2110
sg63
(lp2138
g56
(g77
g58
NtRp2139
(dp2140
g61
(dp2141
g81
g82
ssg70
g2135
sg63
(lp2142
g1040
asbag56
(g77
g58
NtRp2143
(dp2144
g61
(dp2145
g88
g89
ssg70
g2135
sg63
(lp2146
S':'
asbag56
(g77
g58
NtRp2147
(dp2148
g61
(dp2149
sg70
g2135
sg63
(lp2150
g56
(g57
g58
NtRp2151
(dp2152
g61
(dp2153
g69
I4
ssg70
g2147
sg63
(lp2154
g1053
asbasbasbag56
(g72
g58
NtRp2155
(dp2156
g61
(dp2157
sg70
g2110
sg63
(lp2158
g56
(g77
g58
NtRp2159
(dp2160
g61
(dp2161
g81
g82
ssg70
g2155
sg63
(lp2162
g1062
asbag56
(g77
g58
NtRp2163
(dp2164
g61
(dp2165
g88
g89
ssg70
g2155
sg63
(lp2166
S':'
asbag56
(g77
g58
NtRp2167
(dp2168
g61
(dp2169
sg70
g2155
sg63
(lp2170
g56
(g57
g58
NtRp2171
(dp2172
g61
(dp2173
g69
I4
ssg70
g2167
sg63
(lp2174
g56
(g65
g58
NtRp2175
(dp2176
g61
(dp2177
g69
I3
ssg70
Nsg63
(lp2178
sbasbasbasbag56
(g72
g58
NtRp2179
(dp2180
g61
(dp2181
sg70
g2110
sg63
(lp2182
g56
(g77
g58
NtRp2183
(dp2184
g61
(dp2185
g81
g82
ssg70
g2179
sg63
(lp2186
g1087
asbag56
(g77
g58
NtRp2187
(dp2188
g61
(dp2189
g88
g89
ssg70
g2179
sg63
(lp2190
S':'
asbag56
(g77
g58
NtRp2191
(dp2192
g61
(dp2193
sg70
g2179
sg63
(lp2194
g56
(g57
g58
NtRp2195
(dp2196
g61
(dp2197
g69
I4
ssg70
g2191
sg63
(lp2198
S"<Values at 0xa7a4aec: {'verbose': False, 'ip': '127.0.0.1', 'shutdown_timeout': 5, 'taskbar': False, 'nocron': False, 'pid_filename': 'httpserver.pid', 'maxthreads': None, 'softcron': False, 'server_name': 'chl-5833E', 'bpython': False, 'nogui': False, 'port': 8000, 'extcron': False, 'debuglevel': 30, 'test': None, 'folder': '/home/u4hcsdaw/Python/web2py', 'config': '', 'import_models': False, 'winservice': '', 'shell': None, 'run': '', 'log_filename': 'httpserver.log', 'args': [''], 'ssl_ca_certificate': None, 'scheduler': None, 'profiler_filename': None, 'ssl_private_key': '', 'password': '<ask>', 'request_queue_size': 5, 'ssl_certificate': '', 'cronjob': False, 'plain': False, 'quiet': False, 'interfaces': None, 'minthreads': None, 'timeout': 10, 'numthreads': None, 'nobanner': False}>"
p2199
asbasbasbag56
(g72
g58
NtRp2200
(dp2201
g61
(dp2202
sg70
g2110
sg63
(lp2203
g56
(g77
g58
NtRp2204
(dp2205
g61
(dp2206
g81
g82
ssg70
g2200
sg63
(lp2207
g1153
asbag56
(g77
g58
NtRp2208
(dp2209
g61
(dp2210
g88
g89
ssg70
g2200
sg63
(lp2211
S':'
asbag56
(g77
g58
NtRp2212
(dp2213
g61
(dp2214
sg70
g2200
sg63
(lp2215
g56
(g57
g58
NtRp2216
(dp2217
g61
(dp2218
g69
I4
ssg70
g2212
sg63
(lp2219
S'set([])'
p2220
asbasbasbag56
(g72
g58
NtRp2221
(dp2222
g61
(dp2223
sg70
g2110
sg63
(lp2224
g56
(g77
g58
NtRp2225
(dp2226
g61
(dp2227
g81
g82
ssg70
g2221
sg63
(lp2228
g1175
asbag56
(g77
g58
NtRp2229
(dp2230
g61
(dp2231
g88
g89
ssg70
g2221
sg63
(lp2232
S':'
asbag56
(g77
g58
NtRp2233
(dp2234
g61
(dp2235
sg70
g2221
sg63
(lp2236
g56
(g57
g58
NtRp2237
(dp2238
g61
(dp2239
g69
I4
ssg70
g2233
sg63
(lp2240
g99
asbasbasbag56
(g72
g58
NtRp2241
(dp2242
g61
(dp2243
sg70
g2110
sg63
(lp2244
g56
(g77
g58
NtRp2245
(dp2246
g61
(dp2247
g81
g82
ssg70
g2241
sg63
(lp2248
g1196
asbag56
(g77
g58
NtRp2249
(dp2250
g61
(dp2251
g88
g89
ssg70
g2241
sg63
(lp2252
S':'
asbag56
(g77
g58
NtRp2253
(dp2254
g61
(dp2255
sg70
g2241
sg63
(lp2256
g56
(g57
g58
NtRp2257
(dp2258
g61
(dp2259
g69
I4
ssg70
g2253
sg63
(lp2260
g1209
asbasbasbag56
(g72
g58
NtRp2261
(dp2262
g61
(dp2263
sg70
g2110
sg63
(lp2264
g56
(g77
g58
NtRp2265
(dp2266
g61
(dp2267
g81
g82
ssg70
g2261
sg63
(lp2268
g1436
asbag56
(g77
g58
NtRp2269
(dp2270
g61
(dp2271
g88
g89
ssg70
g2261
sg63
(lp2272
S':'
asbag56
(g77
g58
NtRp2273
(dp2274
g61
(dp2275
sg70
g2261
sg63
(lp2276
g56
(g57
g58
NtRp2277
(dp2278
g61
(dp2279
g69
I4
ssg70
g2273
sg63
(lp2280
g99
asbasbasbag56
(g72
g58
NtRp2281
(dp2282
g61
(dp2283
sg70
g2110
sg63
(lp2284
g56
(g77
g58
NtRp2285
(dp2286
g61
(dp2287
g81
g82
ssg70
g2281
sg63
(lp2288
g1674
asbag56
(g77
g58
NtRp2289
(dp2290
g61
(dp2291
g88
g89
ssg70
g2281
sg63
(lp2292
S':'
asbag56
(g77
g58
NtRp2293
(dp2294
g61
(dp2295
sg70
g2281
sg63
(lp2296
g56
(g57
g58
NtRp2297
(dp2298
g61
(dp2299
g69
I4
ssg70
g2293
sg63
(lp2300
g1687
asbasbasbag56
(g72
g58
NtRp2301
(dp2302
g61
(dp2303
sg70
g2110
sg63
(lp2304
g56
(g77
g58
NtRp2305
(dp2306
g61
(dp2307
g81
g82
ssg70
g2301
sg63
(lp2308
g1717
asbag56
(g77
g58
NtRp2309
(dp2310
g61
(dp2311
g88
g89
ssg70
g2301
sg63
(lp2312
S':'
asbag56
(g77
g58
NtRp2313
(dp2314
g61
(dp2315
sg70
g2301
sg63
(lp2316
g56
(g57
g58
NtRp2317
(dp2318
g61
(dp2319
g69
I4
ssg70
g2313
sg63
(lp2320
g56
(g65
g58
NtRp2321
(dp2322
g61
(dp2323
g69
I3
ssg70
Nsg63
(lp2324
g56
(g72
g58
NtRp2325
(dp2326
g61
(dp2327
sg70
g2321
sg63
(lp2328
g56
(g77
g58
NtRp2329
(dp2330
g61
(dp2331
sg70
g2325
sg63
(lp2332
g56
(g57
g58
NtRp2333
(dp2334
g61
(dp2335
g69
I3
ssg70
g2329
sg63
(lp2336
S'1'
asbasbasbag56
(g72
g58
NtRp2337
(dp2338
g61
(dp2339
sg70
g2321
sg63
(lp2340
g56
(g77
g58
NtRp2341
(dp2342
g61
(dp2343
sg70
g2337
sg63
(lp2344
g56
(g57
g58
NtRp2345
(dp2346
g61
(dp2347
g69
I3
ssg70
g2341
sg63
(lp2348
S'99'
p2349
asbasbasbag56
(g72
g58
NtRp2350
(dp2351
g61
(dp2352
sg70
g2321
sg63
(lp2353
g56
(g77
g58
NtRp2354
(dp2355
g61
(dp2356
sg70
g2350
sg63
(lp2357
g56
(g57
g58
NtRp2358
(dp2359
g61
(dp2360
g69
I3
ssg70
g2354
sg63
(lp2361
S'2'
asbasbasbag56
(g72
g58
NtRp2362
(dp2363
g61
(dp2364
sg70
g2321
sg63
(lp2365
g56
(g77
g58
NtRp2366
(dp2367
g61
(dp2368
sg70
g2362
sg63
(lp2369
g56
(g57
g58
NtRp2370
(dp2371
g61
(dp2372
g69
I3
ssg70
g2366
sg63
(lp2373
S'datetime.datetime(2011, 9, 26, 6, 55, 33)'
p2374
asbasbasbag56
(g72
g58
NtRp2375
(dp2376
g61
(dp2377
sg70
g2321
sg63
(lp2378
g56
(g77
g58
NtRp2379
(dp2380
g61
(dp2381
sg70
g2375
sg63
(lp2382
g56
(g57
g58
NtRp2383
(dp2384
g61
(dp2385
g69
I3
ssg70
g2379
sg63
(lp2386
g1796
asbasbasbasbasbasbasbasbasbasbasbag56
(g72
g58
NtRp2387
(dp2388
g61
(dp2389
sg70
g66
sg63
(lp2390
g56
(g77
g58
NtRp2391
(dp2392
g61
(dp2393
g81
g82
ssg70
g2387
sg63
(lp2394
S'is_https'
p2395
asbag56
(g77
g58
NtRp2396
(dp2397
g61
(dp2398
g88
g89
ssg70
g2387
sg63
(lp2399
S':'
asbag56
(g77
g58
NtRp2400
(dp2401
g61
(dp2402
sg70
g2387
sg63
(lp2403
g56
(g57
g58
NtRp2404
(dp2405
g61
(dp2406
g69
I5
ssg70
g2400
sg63
(lp2407
g99
asbasbasbag56
(g72
g58
NtRp2408
(dp2409
g61
(dp2410
sg70
g66
sg63
(lp2411
g56
(g77
g58
NtRp2412
(dp2413
g61
(dp2414
g81
g82
ssg70
g2408
sg63
(lp2415
S'is_local'
p2416
asbag56
(g77
g58
NtRp2417
(dp2418
g61
(dp2419
g88
g89
ssg70
g2408
sg63
(lp2420
S':'
asbag56
(g77
g58
NtRp2421
(dp2422
g61
(dp2423
sg70
g2408
sg63
(lp2424
g56
(g57
g58
NtRp2425
(dp2426
g61
(dp2427
g69
I5
ssg70
g2421
sg63
(lp2428
g1905
asbasbasbag56
(g72
g58
NtRp2429
(dp2430
g61
(dp2431
sg70
g66
sg63
(lp2432
g56
(g77
g58
NtRp2433
(dp2434
g61
(dp2435
g81
g82
ssg70
g2429
sg63
(lp2436
S'is_restful'
p2437
asbag56
(g77
g58
NtRp2438
(dp2439
g61
(dp2440
g88
g89
ssg70
g2429
sg63
(lp2441
S':'
asbag56
(g77
g58
NtRp2442
(dp2443
g61
(dp2444
sg70
g2429
sg63
(lp2445
g56
(g57
g58
NtRp2446
(dp2447
g61
(dp2448
g69
I5
ssg70
g2442
sg63
(lp2449
g99
asbasbasbag56
(g72
g58
NtRp2450
(dp2451
g61
(dp2452
sg70
g66
sg63
(lp2453
g56
(g77
g58
NtRp2454
(dp2455
g61
(dp2456
g81
g82
ssg70
g2450
sg63
(lp2457
S'now'
p2458
asbag56
(g77
g58
NtRp2459
(dp2460
g61
(dp2461
g88
g89
ssg70
g2450
sg63
(lp2462
S':'
asbag56
(g77
g58
NtRp2463
(dp2464
g61
(dp2465
sg70
g2450
sg63
(lp2466
g56
(g57
g58
NtRp2467
(dp2468
g61
(dp2469
g69
I5
ssg70
g2463
sg63
(lp2470
S'datetime.datetime(2012, 9, 10, 18, 33, 32, 233550)'
p2471
asbasbasbag56
(g72
g58
NtRp2472
(dp2473
g61
(dp2474
sg70
g66
sg63
(lp2475
g56
(g77
g58
NtRp2476
(dp2477
g61
(dp2478
g81
g82
ssg70
g2472
sg63
(lp2479
S'post_vars'
p2480
asbag56
(g77
g58
NtRp2481
(dp2482
g61
(dp2483
g88
g89
ssg70
g2472
sg63
(lp2484
S':'
asbag56
(g77
g58
NtRp2485
(dp2486
g61
(dp2487
sg70
g2472
sg63
(lp2488
g56
(g57
g58
NtRp2489
(dp2490
g61
(dp2491
g69
I5
ssg70
g2485
sg63
(lp2492
g56
(g65
g58
NtRp2493
(dp2494
g61
(dp2495
g69
I4
ssg70
Nsg63
(lp2496
g56
(g72
g58
NtRp2497
(dp2498
g61
(dp2499
sg70
g2493
sg63
(lp2500
g56
(g77
g58
NtRp2501
(dp2502
g61
(dp2503
g81
g82
ssg70
g2497
sg63
(lp2504
S'waterDepth'
p2505
asbag56
(g77
g58
NtRp2506
(dp2507
g61
(dp2508
g88
g89
ssg70
g2497
sg63
(lp2509
S':'
asbag56
(g77
g58
NtRp2510
(dp2511
g61
(dp2512
sg70
g2497
sg63
(lp2513
g56
(g57
g58
NtRp2514
(dp2515
g61
(dp2516
g69
I4
ssg70
g2510
sg63
(lp2517
S'0.78'
p2518
asbasbasbag56
(g72
g58
NtRp2519
(dp2520
g61
(dp2521
sg70
g2493
sg63
(lp2522
g56
(g77
g58
NtRp2523
(dp2524
g61
(dp2525
g81
g82
ssg70
g2519
sg63
(lp2526
S'waveBreakRatio'
p2527
asbag56
(g77
g58
NtRp2528
(dp2529
g61
(dp2530
g88
g89
ssg70
g2519
sg63
(lp2531
S':'
asbag56
(g77
g58
NtRp2532
(dp2533
g61
(dp2534
sg70
g2519
sg63
(lp2535
g56
(g57
g58
NtRp2536
(dp2537
g61
(dp2538
g69
I4
ssg70
g2532
sg63
(lp2539
S'0.78'
p2540
asbasbasbag56
(g72
g58
NtRp2541
(dp2542
g61
(dp2543
sg70
g2493
sg63
(lp2544
g56
(g77
g58
NtRp2545
(dp2546
g61
(dp2547
g81
g82
ssg70
g2541
sg63
(lp2548
S'waveHeight'
p2549
asbag56
(g77
g58
NtRp2550
(dp2551
g61
(dp2552
g88
g89
ssg70
g2541
sg63
(lp2553
S':'
asbag56
(g77
g58
NtRp2554
(dp2555
g61
(dp2556
sg70
g2541
sg63
(lp2557
g56
(g57
g58
NtRp2558
(dp2559
g61
(dp2560
g69
I4
ssg70
g2554
sg63
(lp2561
S'0.85'
p2562
asbasbasbag56
(g72
g58
NtRp2563
(dp2564
g61
(dp2565
sg70
g2493
sg63
(lp2566
g56
(g77
g58
NtRp2567
(dp2568
g61
(dp2569
g81
g82
ssg70
g2563
sg63
(lp2570
S'wavePeriod'
p2571
asbag56
(g77
g58
NtRp2572
(dp2573
g61
(dp2574
g88
g89
ssg70
g2563
sg63
(lp2575
S':'
asbag56
(g77
g58
NtRp2576
(dp2577
g61
(dp2578
sg70
g2563
sg63
(lp2579
g56
(g57
g58
NtRp2580
(dp2581
g61
(dp2582
g69
I4
ssg70
g2576
sg63
(lp2583
S'3.00'
p2584
asbasbasbasbasbasbasbag56
(g72
g58
NtRp2585
(dp2586
g61
(dp2587
sg70
g66
sg63
(lp2588
g56
(g77
g58
NtRp2589
(dp2590
g61
(dp2591
g81
g82
ssg70
g2585
sg63
(lp2592
S'url'
p2593
asbag56
(g77
g58
NtRp2594
(dp2595
g61
(dp2596
g88
g89
ssg70
g2585
sg63
(lp2597
S':'
asbag56
(g77
g58
NtRp2598
(dp2599
g61
(dp2600
sg70
g2585
sg63
(lp2601
g56
(g57
g58
NtRp2602
(dp2603
g61
(dp2604
g69
I5
ssg70
g2598
sg63
(lp2605
S'/ACES/default/index'
p2606
asbasbasbag56
(g72
g58
NtRp2607
(dp2608
g61
(dp2609
sg70
g66
sg63
(lp2610
g56
(g77
g58
NtRp2611
(dp2612
g61
(dp2613
g81
g82
ssg70
g2607
sg63
(lp2614
S'utcnow'
p2615
asbag56
(g77
g58
NtRp2616
(dp2617
g61
(dp2618
g88
g89
ssg70
g2607
sg63
(lp2619
S':'
asbag56
(g77
g58
NtRp2620
(dp2621
g61
(dp2622
sg70
g2607
sg63
(lp2623
g56
(g57
g58
NtRp2624
(dp2625
g61
(dp2626
g69
I5
ssg70
g2620
sg63
(lp2627
S'datetime.datetime(2012, 9, 10, 23, 33, 32, 233578)'
p2628
asbasbasbag56
(g72
g58
NtRp2629
(dp2630
g61
(dp2631
sg70
g66
sg63
(lp2632
g56
(g77
g58
NtRp2633
(dp2634
g61
(dp2635
g81
g82
ssg70
g2629
sg63
(lp2636
S'uuid'
p2637
asbag56
(g77
g58
NtRp2638
(dp2639
g61
(dp2640
g88
g89
ssg70
g2629
sg63
(lp2641
S':'
asbag56
(g77
g58
NtRp2642
(dp2643
g61
(dp2644
sg70
g2629
sg63
(lp2645
g56
(g57
g58
NtRp2646
(dp2647
g61
(dp2648
g69
I5
ssg70
g2642
sg63
(lp2649
S'ACES/127.0.0.1.2012-09-10.18-33-32.e1181765-a459-4000-8187-8da4cd481a5c'
p2650
asbasbasbag56
(g72
g58
NtRp2651
(dp2652
g61
(dp2653
sg70
g66
sg63
(lp2654
g56
(g77
g58
NtRp2655
(dp2656
g61
(dp2657
g81
g82
ssg70
g2651
sg63
(lp2658
S'vars'
p2659
asbag56
(g77
g58
NtRp2660
(dp2661
g61
(dp2662
g88
g89
ssg70
g2651
sg63
(lp2663
S':'
asbag56
(g77
g58
NtRp2664
(dp2665
g61
(dp2666
sg70
g2651
sg63
(lp2667
g56
(g57
g58
NtRp2668
(dp2669
g61
(dp2670
g69
I5
ssg70
g2664
sg63
(lp2671
g56
(g65
g58
NtRp2672
(dp2673
g61
(dp2674
g69
I4
ssg70
Nsg63
(lp2675
g56
(g72
g58
NtRp2676
(dp2677
g61
(dp2678
sg70
g2672
sg63
(lp2679
g56
(g77
g58
NtRp2680
(dp2681
g61
(dp2682
g81
g82
ssg70
g2676
sg63
(lp2683
g2505
asbag56
(g77
g58
NtRp2684
(dp2685
g61
(dp2686
g88
g89
ssg70
g2676
sg63
(lp2687
S':'
asbag56
(g77
g58
NtRp2688
(dp2689
g61
(dp2690
sg70
g2676
sg63
(lp2691
g56
(g57
g58
NtRp2692
(dp2693
g61
(dp2694
g69
I4
ssg70
g2688
sg63
(lp2695
g2518
asbasbasbag56
(g72
g58
NtRp2696
(dp2697
g61
(dp2698
sg70
g2672
sg63
(lp2699
g56
(g77
g58
NtRp2700
(dp2701
g61
(dp2702
g81
g82
ssg70
g2696
sg63
(lp2703
g2527
asbag56
(g77
g58
NtRp2704
(dp2705
g61
(dp2706
g88
g89
ssg70
g2696
sg63
(lp2707
S':'
asbag56
(g77
g58
NtRp2708
(dp2709
g61
(dp2710
sg70
g2696
sg63
(lp2711
g56
(g57
g58
NtRp2712
(dp2713
g61
(dp2714
g69
I4
ssg70
g2708
sg63
(lp2715
g2540
asbasbasbag56
(g72
g58
NtRp2716
(dp2717
g61
(dp2718
sg70
g2672
sg63
(lp2719
g56
(g77
g58
NtRp2720
(dp2721
g61
(dp2722
g81
g82
ssg70
g2716
sg63
(lp2723
g2549
asbag56
(g77
g58
NtRp2724
(dp2725
g61
(dp2726
g88
g89
ssg70
g2716
sg63
(lp2727
S':'
asbag56
(g77
g58
NtRp2728
(dp2729
g61
(dp2730
sg70
g2716
sg63
(lp2731
g56
(g57
g58
NtRp2732
(dp2733
g61
(dp2734
g69
I4
ssg70
g2728
sg63
(lp2735
g2562
asbasbasbag56
(g72
g58
NtRp2736
(dp2737
g61
(dp2738
sg70
g2672
sg63
(lp2739
g56
(g77
g58
NtRp2740
(dp2741
g61
(dp2742
g81
g82
ssg70
g2736
sg63
(lp2743
g2571
asbag56
(g77
g58
NtRp2744
(dp2745
g61
(dp2746
g88
g89
ssg70
g2736
sg63
(lp2747
S':'
asbag56
(g77
g58
NtRp2748
(dp2749
g61
(dp2750
sg70
g2736
sg63
(lp2751
g56
(g57
g58
NtRp2752
(dp2753
g61
(dp2754
g69
I4
ssg70
g2748
sg63
(lp2755
g2584
asbasbasbasbasbasbasbag56
(g72
g58
NtRp2756
(dp2757
g61
(dp2758
sg70
g66
sg63
(lp2759
g56
(g77
g58
NtRp2760
(dp2761
g61
(dp2762
g81
g82
ssg70
g2756
sg63
(lp2763
S'wsgi'
p2764
asbag56
(g77
g58
NtRp2765
(dp2766
g61
(dp2767
g88
g89
ssg70
g2756
sg63
(lp2768
S':'
asbag56
(g77
g58
NtRp2769
(dp2770
g61
(dp2771
sg70
g2756
sg63
(lp2772
g56
(g57
g58
NtRp2773
(dp2774
g61
(dp2775
g69
I5
ssg70
g2769
sg63
(lp2776
g56
(g65
g58
NtRp2777
(dp2778
g61
(dp2779
g69
I4
ssg70
Nsg63
(lp2780
g56
(g72
g58
NtRp2781
(dp2782
g61
(dp2783
sg70
g2777
sg63
(lp2784
g56
(g77
g58
NtRp2785
(dp2786
g61
(dp2787
g81
g82
ssg70
g2781
sg63
(lp2788
S'environ'
p2789
asbag56
(g77
g58
NtRp2790
(dp2791
g61
(dp2792
g88
g89
ssg70
g2781
sg63
(lp2793
S':'
asbag56
(g77
g58
NtRp2794
(dp2795
g61
(dp2796
sg70
g2781
sg63
(lp2797
g56
(g57
g58
NtRp2798
(dp2799
g61
(dp2800
g69
I4
ssg70
g2794
sg63
(lp2801
g56
(g65
g58
NtRp2802
(dp2803
g61
(dp2804
g69
I3
ssg70
Nsg63
(lp2805
g56
(g72
g58
NtRp2806
(dp2807
g61
(dp2808
sg70
g2802
sg63
(lp2809
g56
(g77
g58
NtRp2810
(dp2811
g61
(dp2812
g81
g82
ssg70
g2806
sg63
(lp2813
S'CONTENT_LENGTH'
p2814
asbag56
(g77
g58
NtRp2815
(dp2816
g61
(dp2817
g88
g89
ssg70
g2806
sg63
(lp2818
S':'
asbag56
(g77
g58
NtRp2819
(dp2820
g61
(dp2821
sg70
g2806
sg63
(lp2822
g56
(g57
g58
NtRp2823
(dp2824
g61
(dp2825
g69
I3
ssg70
g2819
sg63
(lp2826
g1122
asbasbasbag56
(g72
g58
NtRp2827
(dp2828
g61
(dp2829
sg70
g2802
sg63
(lp2830
g56
(g77
g58
NtRp2831
(dp2832
g61
(dp2833
g81
g82
ssg70
g2827
sg63
(lp2834
S'CONTENT_TYPE'
p2835
asbag56
(g77
g58
NtRp2836
(dp2837
g61
(dp2838
g88
g89
ssg70
g2827
sg63
(lp2839
S':'
asbag56
(g77
g58
NtRp2840
(dp2841
g61
(dp2842
sg70
g2827
sg63
(lp2843
g56
(g57
g58
NtRp2844
(dp2845
g61
(dp2846
g69
I3
ssg70
g2840
sg63
(lp2847
g1144
asbasbasbag56
(g72
g58
NtRp2848
(dp2849
g61
(dp2850
sg70
g2802
sg63
(lp2851
g56
(g77
g58
NtRp2852
(dp2853
g61
(dp2854
g81
g82
ssg70
g2848
sg63
(lp2855
S'HTTP_ACCEPT'
p2856
asbag56
(g77
g58
NtRp2857
(dp2858
g61
(dp2859
g88
g89
ssg70
g2848
sg63
(lp2860
S':'
asbag56
(g77
g58
NtRp2861
(dp2862
g61
(dp2863
sg70
g2848
sg63
(lp2864
g56
(g57
g58
NtRp2865
(dp2866
g61
(dp2867
g69
I3
ssg70
g2861
sg63
(lp2868
g1231
asbasbasbag56
(g72
g58
NtRp2869
(dp2870
g61
(dp2871
sg70
g2802
sg63
(lp2872
g56
(g77
g58
NtRp2873
(dp2874
g61
(dp2875
g81
g82
ssg70
g2869
sg63
(lp2876
S'HTTP_ACCEPT_ENCODING'
p2877
asbag56
(g77
g58
NtRp2878
(dp2879
g61
(dp2880
g88
g89
ssg70
g2869
sg63
(lp2881
S':'
asbag56
(g77
g58
NtRp2882
(dp2883
g61
(dp2884
sg70
g2869
sg63
(lp2885
g56
(g57
g58
NtRp2886
(dp2887
g61
(dp2888
g69
I3
ssg70
g2882
sg63
(lp2889
g1253
asbasbasbag56
(g72
g58
NtRp2890
(dp2891
g61
(dp2892
sg70
g2802
sg63
(lp2893
g56
(g77
g58
NtRp2894
(dp2895
g61
(dp2896
g81
g82
ssg70
g2890
sg63
(lp2897
S'HTTP_ACCEPT_LANGUAGE'
p2898
asbag56
(g77
g58
NtRp2899
(dp2900
g61
(dp2901
g88
g89
ssg70
g2890
sg63
(lp2902
S':'
asbag56
(g77
g58
NtRp2903
(dp2904
g61
(dp2905
sg70
g2890
sg63
(lp2906
g56
(g57
g58
NtRp2907
(dp2908
g61
(dp2909
g69
I3
ssg70
g2903
sg63
(lp2910
g1275
asbasbasbag56
(g72
g58
NtRp2911
(dp2912
g61
(dp2913
sg70
g2802
sg63
(lp2914
g56
(g77
g58
NtRp2915
(dp2916
g61
(dp2917
g81
g82
ssg70
g2911
sg63
(lp2918
S'HTTP_CONNECTION'
p2919
asbag56
(g77
g58
NtRp2920
(dp2921
g61
(dp2922
g88
g89
ssg70
g2911
sg63
(lp2923
S':'
asbag56
(g77
g58
NtRp2924
(dp2925
g61
(dp2926
sg70
g2911
sg63
(lp2927
g56
(g57
g58
NtRp2928
(dp2929
g61
(dp2930
g69
I3
ssg70
g2924
sg63
(lp2931
g1297
asbasbasbag56
(g72
g58
NtRp2932
(dp2933
g61
(dp2934
sg70
g2802
sg63
(lp2935
g56
(g77
g58
NtRp2936
(dp2937
g61
(dp2938
g81
g82
ssg70
g2932
sg63
(lp2939
S'HTTP_CONTENT_LENGTH'
p2940
asbag56
(g77
g58
NtRp2941
(dp2942
g61
(dp2943
g88
g89
ssg70
g2932
sg63
(lp2944
S':'
asbag56
(g77
g58
NtRp2945
(dp2946
g61
(dp2947
sg70
g2932
sg63
(lp2948
g56
(g57
g58
NtRp2949
(dp2950
g61
(dp2951
g69
I3
ssg70
g2945
sg63
(lp2952
g1122
asbasbasbag56
(g72
g58
NtRp2953
(dp2954
g61
(dp2955
sg70
g2802
sg63
(lp2956
g56
(g77
g58
NtRp2957
(dp2958
g61
(dp2959
g81
g82
ssg70
g2953
sg63
(lp2960
S'HTTP_CONTENT_TYPE'
p2961
asbag56
(g77
g58
NtRp2962
(dp2963
g61
(dp2964
g88
g89
ssg70
g2953
sg63
(lp2965
S':'
asbag56
(g77
g58
NtRp2966
(dp2967
g61
(dp2968
sg70
g2953
sg63
(lp2969
g56
(g57
g58
NtRp2970
(dp2971
g61
(dp2972
g69
I3
ssg70
g2966
sg63
(lp2973
g1144
asbasbasbag56
(g72
g58
NtRp2974
(dp2975
g61
(dp2976
sg70
g2802
sg63
(lp2977
g56
(g77
g58
NtRp2978
(dp2979
g61
(dp2980
g81
g82
ssg70
g2974
sg63
(lp2981
S'HTTP_COOKIE'
p2982
asbag56
(g77
g58
NtRp2983
(dp2984
g61
(dp2985
g88
g89
ssg70
g2974
sg63
(lp2986
S':'
asbag56
(g77
g58
NtRp2987
(dp2988
g61
(dp2989
sg70
g2974
sg63
(lp2990
g56
(g57
g58
NtRp2991
(dp2992
g61
(dp2993
g69
I3
ssg70
g2987
sg63
(lp2994
g1361
asbasbasbag56
(g72
g58
NtRp2995
(dp2996
g61
(dp2997
sg70
g2802
sg63
(lp2998
g56
(g77
g58
NtRp2999
(dp3000
g61
(dp3001
g81
g82
ssg70
g2995
sg63
(lp3002
S'HTTP_HOST'
p3003
asbag56
(g77
g58
NtRp3004
(dp3005
g61
(dp3006
g88
g89
ssg70
g2995
sg63
(lp3007
S':'
asbag56
(g77
g58
NtRp3008
(dp3009
g61
(dp3010
sg70
g2995
sg63
(lp3011
g56
(g57
g58
NtRp3012
(dp3013
g61
(dp3014
g69
I3
ssg70
g3008
sg63
(lp3015
g1383
asbasbasbag56
(g72
g58
NtRp3016
(dp3017
g61
(dp3018
sg70
g2802
sg63
(lp3019
g56
(g77
g58
NtRp3020
(dp3021
g61
(dp3022
g81
g82
ssg70
g3016
sg63
(lp3023
S'HTTP_REFERER'
p3024
asbag56
(g77
g58
NtRp3025
(dp3026
g61
(dp3027
g88
g89
ssg70
g3016
sg63
(lp3028
S':'
asbag56
(g77
g58
NtRp3029
(dp3030
g61
(dp3031
sg70
g3016
sg63
(lp3032
g56
(g57
g58
NtRp3033
(dp3034
g61
(dp3035
g69
I3
ssg70
g3029
sg63
(lp3036
g1405
asbasbasbag56
(g72
g58
NtRp3037
(dp3038
g61
(dp3039
sg70
g2802
sg63
(lp3040
g56
(g77
g58
NtRp3041
(dp3042
g61
(dp3043
g81
g82
ssg70
g3037
sg63
(lp3044
S'HTTP_USER_AGENT'
p3045
asbag56
(g77
g58
NtRp3046
(dp3047
g61
(dp3048
g88
g89
ssg70
g3037
sg63
(lp3049
S':'
asbag56
(g77
g58
NtRp3050
(dp3051
g61
(dp3052
sg70
g3037
sg63
(lp3053
g56
(g57
g58
NtRp3054
(dp3055
g61
(dp3056
g69
I3
ssg70
g3050
sg63
(lp3057
g1427
asbasbasbag56
(g72
g58
NtRp3058
(dp3059
g61
(dp3060
sg70
g2802
sg63
(lp3061
g56
(g77
g58
NtRp3062
(dp3063
g61
(dp3064
g81
g82
ssg70
g3058
sg63
(lp3065
S'PATH_INFO'
p3066
asbag56
(g77
g58
NtRp3067
(dp3068
g61
(dp3069
g88
g89
ssg70
g3058
sg63
(lp3070
S':'
asbag56
(g77
g58
NtRp3071
(dp3072
g61
(dp3073
sg70
g3058
sg63
(lp3074
g56
(g57
g58
NtRp3075
(dp3076
g61
(dp3077
g69
I3
ssg70
g3071
sg63
(lp3078
g1470
asbasbasbag56
(g72
g58
NtRp3079
(dp3080
g61
(dp3081
sg70
g2802
sg63
(lp3082
g56
(g77
g58
NtRp3083
(dp3084
g61
(dp3085
g81
g82
ssg70
g3079
sg63
(lp3086
S'QUERY_STRING'
p3087
asbag56
(g77
g58
NtRp3088
(dp3089
g61
(dp3090
g88
g89
ssg70
g3079
sg63
(lp3091
S':'
asbag56
(g77
g58
NtRp3092
(dp3093
g61
(dp3094
sg70
g3079
sg63
(lp3095
g56
(g57
g58
NtRp3096
(dp3097
g61
(dp3098
g69
I3
ssg70
g3092
sg63
(lp3099
S''
asbasbasbag56
(g72
g58
NtRp3100
(dp3101
g61
(dp3102
sg70
g2802
sg63
(lp3103
g56
(g77
g58
NtRp3104
(dp3105
g61
(dp3106
g81
g82
ssg70
g3100
sg63
(lp3107
S'REMOTE_ADDR'
p3108
asbag56
(g77
g58
NtRp3109
(dp3110
g61
(dp3111
g88
g89
ssg70
g3100
sg63
(lp3112
S':'
asbag56
(g77
g58
NtRp3113
(dp3114
g61
(dp3115
sg70
g3100
sg63
(lp3116
g56
(g57
g58
NtRp3117
(dp3118
g61
(dp3119
g69
I3
ssg70
g3113
sg63
(lp3120
g189
asbasbasbag56
(g72
g58
NtRp3121
(dp3122
g61
(dp3123
sg70
g2802
sg63
(lp3124
g56
(g77
g58
NtRp3125
(dp3126
g61
(dp3127
g81
g82
ssg70
g3121
sg63
(lp3128
S'REMOTE_PORT'
p3129
asbag56
(g77
g58
NtRp3130
(dp3131
g61
(dp3132
g88
g89
ssg70
g3121
sg63
(lp3133
S':'
asbag56
(g77
g58
NtRp3134
(dp3135
g61
(dp3136
sg70
g3121
sg63
(lp3137
g56
(g57
g58
NtRp3138
(dp3139
g61
(dp3140
g69
I3
ssg70
g3134
sg63
(lp3141
g1534
asbasbasbag56
(g72
g58
NtRp3142
(dp3143
g61
(dp3144
sg70
g2802
sg63
(lp3145
g56
(g77
g58
NtRp3146
(dp3147
g61
(dp3148
g81
g82
ssg70
g3142
sg63
(lp3149
S'REQUEST_METHOD'
p3150
asbag56
(g77
g58
NtRp3151
(dp3152
g61
(dp3153
g88
g89
ssg70
g3142
sg63
(lp3154
S':'
asbag56
(g77
g58
NtRp3155
(dp3156
g61
(dp3157
sg70
g3142
sg63
(lp3158
g56
(g57
g58
NtRp3159
(dp3160
g61
(dp3161
g69
I3
ssg70
g3155
sg63
(lp3162
g1556
asbasbasbag56
(g72
g58
NtRp3163
(dp3164
g61
(dp3165
sg70
g2802
sg63
(lp3166
g56
(g77
g58
NtRp3167
(dp3168
g61
(dp3169
g81
g82
ssg70
g3163
sg63
(lp3170
S'SCRIPT_NAME'
p3171
asbag56
(g77
g58
NtRp3172
(dp3173
g61
(dp3174
g88
g89
ssg70
g3163
sg63
(lp3175
S':'
asbag56
(g77
g58
NtRp3176
(dp3177
g61
(dp3178
sg70
g3163
sg63
(lp3179
g56
(g57
g58
NtRp3180
(dp3181
g61
(dp3182
g69
I3
ssg70
g3176
sg63
(lp3183
S''
asbasbasbag56
(g72
g58
NtRp3184
(dp3185
g61
(dp3186
sg70
g2802
sg63
(lp3187
g56
(g77
g58
NtRp3188
(dp3189
g61
(dp3190
g81
g82
ssg70
g3184
sg63
(lp3191
S'SERVER_NAME'
p3192
asbag56
(g77
g58
NtRp3193
(dp3194
g61
(dp3195
g88
g89
ssg70
g3184
sg63
(lp3196
S':'
asbag56
(g77
g58
NtRp3197
(dp3198
g61
(dp3199
sg70
g3184
sg63
(lp3200
g56
(g57
g58
NtRp3201
(dp3202
g61
(dp3203
g69
I3
ssg70
g3197
sg63
(lp3204
g1599
asbasbasbag56
(g72
g58
NtRp3205
(dp3206
g61
(dp3207
sg70
g2802
sg63
(lp3208
g56
(g77
g58
NtRp3209
(dp3210
g61
(dp3211
g81
g82
ssg70
g3205
sg63
(lp3212
S'SERVER_PORT'
p3213
asbag56
(g77
g58
NtRp3214
(dp3215
g61
(dp3216
g88
g89
ssg70
g3205
sg63
(lp3217
S':'
asbag56
(g77
g58
NtRp3218
(dp3219
g61
(dp3220
sg70
g3205
sg63
(lp3221
g56
(g57
g58
NtRp3222
(dp3223
g61
(dp3224
g69
I3
ssg70
g3218
sg63
(lp3225
g1621
asbasbasbag56
(g72
g58
NtRp3226
(dp3227
g61
(dp3228
sg70
g2802
sg63
(lp3229
g56
(g77
g58
NtRp3230
(dp3231
g61
(dp3232
g81
g82
ssg70
g3226
sg63
(lp3233
S'SERVER_PROTOCOL'
p3234
asbag56
(g77
g58
NtRp3235
(dp3236
g61
(dp3237
g88
g89
ssg70
g3226
sg63
(lp3238
S':'
asbag56
(g77
g58
NtRp3239
(dp3240
g61
(dp3241
sg70
g3226
sg63
(lp3242
g56
(g57
g58
NtRp3243
(dp3244
g61
(dp3245
g69
I3
ssg70
g3239
sg63
(lp3246
g1643
asbasbasbag56
(g72
g58
NtRp3247
(dp3248
g61
(dp3249
sg70
g2802
sg63
(lp3250
g56
(g77
g58
NtRp3251
(dp3252
g61
(dp3253
g81
g82
ssg70
g3247
sg63
(lp3254
S'SERVER_SOFTWARE'
p3255
asbag56
(g77
g58
NtRp3256
(dp3257
g61
(dp3258
g88
g89
ssg70
g3247
sg63
(lp3259
S':'
asbag56
(g77
g58
NtRp3260
(dp3261
g61
(dp3262
sg70
g3247
sg63
(lp3263
g56
(g57
g58
NtRp3264
(dp3265
g61
(dp3266
g69
I3
ssg70
g3260
sg63
(lp3267
g1665
asbasbasbag56
(g72
g58
NtRp3268
(dp3269
g61
(dp3270
sg70
g2802
sg63
(lp3271
g56
(g77
g58
NtRp3272
(dp3273
g61
(dp3274
g81
g82
ssg70
g3268
sg63
(lp3275
S'wsgi.errors'
p3276
asbag56
(g77
g58
NtRp3277
(dp3278
g61
(dp3279
g88
g89
ssg70
g3268
sg63
(lp3280
S':'
asbag56
(g77
g58
NtRp3281
(dp3282
g61
(dp3283
sg70
g3268
sg63
(lp3284
g56
(g57
g58
NtRp3285
(dp3286
g61
(dp3287
g69
I3
ssg70
g3281
sg63
(lp3288
S"<open file '<stderr>', mode 'w' at 0xb73360d0>"
p3289
asbasbasbag56
(g72
g58
NtRp3290
(dp3291
g61
(dp3292
sg70
g2802
sg63
(lp3293
g56
(g77
g58
NtRp3294
(dp3295
g61
(dp3296
g81
g82
ssg70
g3290
sg63
(lp3297
S'wsgi.file_wrapper'
p3298
asbag56
(g77
g58
NtRp3299
(dp3300
g61
(dp3301
g88
g89
ssg70
g3290
sg63
(lp3302
S':'
asbag56
(g77
g58
NtRp3303
(dp3304
g61
(dp3305
sg70
g3290
sg63
(lp3306
g56
(g57
g58
NtRp3307
(dp3308
g61
(dp3309
g69
I3
ssg70
g3303
sg63
(lp3310
S'<class wsgiref.util.FileWrapper at 0xa6e1b3c>'
p3311
asbasbasbag56
(g72
g58
NtRp3312
(dp3313
g61
(dp3314
sg70
g2802
sg63
(lp3315
g56
(g77
g58
NtRp3316
(dp3317
g61
(dp3318
g81
g82
ssg70
g3312
sg63
(lp3319
S'wsgi.input'
p3320
asbag56
(g77
g58
NtRp3321
(dp3322
g61
(dp3323
g88
g89
ssg70
g3312
sg63
(lp3324
S':'
asbag56
(g77
g58
NtRp3325
(dp3326
g61
(dp3327
sg70
g3312
sg63
(lp3328
g56
(g57
g58
NtRp3329
(dp3330
g61
(dp3331
g69
I3
ssg70
g3325
sg63
(lp3332
S"<open file '<fdopen>', mode 'w+b' at 0xb23cf338>"
p3333
asbasbasbag56
(g72
g58
NtRp3334
(dp3335
g61
(dp3336
sg70
g2802
sg63
(lp3337
g56
(g77
g58
NtRp3338
(dp3339
g61
(dp3340
g81
g82
ssg70
g3334
sg63
(lp3341
S'wsgi.multiprocess'
p3342
asbag56
(g77
g58
NtRp3343
(dp3344
g61
(dp3345
g88
g89
ssg70
g3334
sg63
(lp3346
S':'
asbag56
(g77
g58
NtRp3347
(dp3348
g61
(dp3349
sg70
g3334
sg63
(lp3350
g56
(g57
g58
NtRp3351
(dp3352
g61
(dp3353
g69
I3
ssg70
g3347
sg63
(lp3354
g99
asbasbasbag56
(g72
g58
NtRp3355
(dp3356
g61
(dp3357
sg70
g2802
sg63
(lp3358
g56
(g77
g58
NtRp3359
(dp3360
g61
(dp3361
g81
g82
ssg70
g3355
sg63
(lp3362
S'wsgi.multithread'
p3363
asbag56
(g77
g58
NtRp3364
(dp3365
g61
(dp3366
g88
g89
ssg70
g3355
sg63
(lp3367
S':'
asbag56
(g77
g58
NtRp3368
(dp3369
g61
(dp3370
sg70
g3355
sg63
(lp3371
g56
(g57
g58
NtRp3372
(dp3373
g61
(dp3374
g69
I3
ssg70
g3368
sg63
(lp3375
g1905
asbasbasbag56
(g72
g58
NtRp3376
(dp3377
g61
(dp3378
sg70
g2802
sg63
(lp3379
g56
(g77
g58
NtRp3380
(dp3381
g61
(dp3382
g81
g82
ssg70
g3376
sg63
(lp3383
S'wsgi.run_once'
p3384
asbag56
(g77
g58
NtRp3385
(dp3386
g61
(dp3387
g88
g89
ssg70
g3376
sg63
(lp3388
S':'
asbag56
(g77
g58
NtRp3389
(dp3390
g61
(dp3391
sg70
g3376
sg63
(lp3392
g56
(g57
g58
NtRp3393
(dp3394
g61
(dp3395
g69
I3
ssg70
g3389
sg63
(lp3396
g99
asbasbasbag56
(g72
g58
NtRp3397
(dp3398
g61
(dp3399
sg70
g2802
sg63
(lp3400
g56
(g77
g58
NtRp3401
(dp3402
g61
(dp3403
g81
g82
ssg70
g3397
sg63
(lp3404
S'wsgi.url_scheme'
p3405
asbag56
(g77
g58
NtRp3406
(dp3407
g61
(dp3408
g88
g89
ssg70
g3397
sg63
(lp3409
S':'
asbag56
(g77
g58
NtRp3410
(dp3411
g61
(dp3412
sg70
g3397
sg63
(lp3413
g56
(g57
g58
NtRp3414
(dp3415
g61
(dp3416
g69
I3
ssg70
g3410
sg63
(lp3417
g1948
asbasbasbag56
(g72
g58
NtRp3418
(dp3419
g61
(dp3420
sg70
g2802
sg63
(lp3421
g56
(g77
g58
NtRp3422
(dp3423
g61
(dp3424
g81
g82
ssg70
g3418
sg63
(lp3425
S'wsgi.version'
p3426
asbag56
(g77
g58
NtRp3427
(dp3428
g61
(dp3429
g88
g89
ssg70
g3418
sg63
(lp3430
S':'
asbag56
(g77
g58
NtRp3431
(dp3432
g61
(dp3433
sg70
g3418
sg63
(lp3434
g56
(g57
g58
NtRp3435
(dp3436
g61
(dp3437
g69
I3
ssg70
g3431
sg63
(lp3438
S'1'
asbasbasbasbasbasbasbasbasbasbasbasbasbsS'frames'
p3439
(lp3440
(dp3441
S'file'
p3442
S'/home/u4hcsdaw/Python/web2py/gluon/restricted.py'
p3443
sS'dump'
p3444
(dp3445
S'environment'
p3446
S"{'A': <class 'gluon.html.A'>, 'AcesCall': <function AcesCall>, 'Auth': <class 'gluon.tools.Auth'>, 'B': <class 'gluon.html.B'>, 'BEAUTIFY': <class 'gluon.html.BEAUTIFY'>, 'BODY': <class 'gluon.html.BODY'>, 'BR': <class 'gluon.html.BR'>, 'BUTTON': <class 'gluon.html.BUTTON'>, 'CAT': <class 'gluon.html.CAT'>, 'CENTER': <class 'gluon.html.CENTER'>, ...}"
p3447
sS'ccode'
p3448
S'<code object <module> at 0xad1f05c0, file "/home...plications/ACES/controllers/default.py", line 12>'
p3449
ssS'lnum'
p3450
I194
sS'lines'
p3451
(dp3452
I192
S'        else:'
p3453
sI193
S'            ccode = compile2(code,layer)'
p3454
sI194
S'        exec ccode in environment'
p3455
sI195
S'    except HTTP:'
p3456
sI196
S'        raise'
p3457
sI197
S'    except Exception, error:'
p3458
sI198
S'        # XXX Show exception in Wing IDE if running in debugger'
p3459
sI189
S'    try:'
p3460
sI190
S'        if type(code) == types.CodeType:'
p3461
sI191
S'            ccode = code'
p3462
ssS'call'
p3463
S"(code='# -*- coding: utf-8 -*-\\n# this file is released ...=crud())\\n\\nresponse._vars=response._caller(index)\\n', environment={'A': <class 'gluon.html.A'>, 'AcesCall': <function AcesCall>, 'Auth': <class 'gluon.tools.Auth'>, 'B': <class 'gluon.html.B'>, 'BEAUTIFY': <class 'gluon.html.BEAUTIFY'>, 'BODY': <class 'gluon.html.BODY'>, 'BR': <class 'gluon.html.BR'>, 'BUTTON': <class 'gluon.html.BUTTON'>, 'CAT': <class 'gluon.html.CAT'>, 'CENTER': <class 'gluon.html.CENTER'>, ...}, layer='/home/u4hcsdaw/Python/web2py/applications/ACES/controllers/default.py')"
p3464
sS'func'
p3465
S'restricted'
p3466
sa(dp3467
g3442
S'/home/u4hcsdaw/Python/web2py/applications/ACES/controllers/default.py'
p3468
sg3444
(dp3469
sg3450
I85
sg3451
(dp3470
I74
S'    http://..../[app]/default/data/update/[table]/[id]'
p3471
sI75
S'    http://..../[app]/default/data/delete/[table]/[id]'
p3472
sI76
S'    http://..../[app]/default/data/select/[table]'
p3473
sI77
S'    http://..../[app]/default/data/search/[table]'
p3474
sI78
S'    but URLs bust be signed, i.e. linked with'
p3475
sI79
S"      A('table',_href=URL('data/tables',user_signature=True))"
p3476
sI80
S'    or with the signed load operator'
p3477
sI81
S"      LOAD('default','data.load',args='tables',ajax=True,user_signature=True)"
p3478
sI82
S'    """'
p3479
sI83
S'    return dict(form=crud())'
p3480
ssg3463
S'()'
p3481
sg3465
S'<module>'
p3482
sa(dp3483
g3442
S'/home/u4hcsdaw/Python/web2py/gluon/globals.py'
p3484
sg3444
(dp3485
S'self'
p3486
S'undefined'
p3487
sS'f'
S'<function index>'
p3488
ssg3450
I149
sg3451
(dp3489
I144
S'        self.meta = Storage()      # used by web2py_ajax.html'
p3490
sI145
S'        self.menu = []             # used by the default view layout'
p3491
sI146
S'        self.files = []            # used by web2py_ajax.html'
p3492
sI147
S'        self.generic_patterns = [] # patterns to allow generic views'
p3493
sI148
S'        self._vars = None'
p3494
sI149
S'        self._caller = lambda f: f()'
p3495
sI150
S'        self._view_environment = None'
p3496
sI151
S'        self._custom_commit = None'
p3497
sI152
S'        self._custom_rollback = None'
p3498
sI153
S''
ssg3463
S'(f=<function index>)'
p3499
sg3465
S'<lambda>'
p3500
sa(dp3501
g3442
S'/home/u4hcsdaw/Python/web2py/applications/ACES/controllers/default.py'
p3502
sg3444
(dp3503
S'global AcesCall'
p3504
S'<function AcesCall>'
p3505
sS'f1'
p3506
S'<gluon.sqlhtml.SQLFORM object>'
p3507
sS'f1.vars'
p3508
S"<Storage {'waveHeight': 0.85, 'wavePeriod': 3.0,...eBreakRatio': 0.78, 'waterDepth': 0.78, 'id': 2}>"
p3509
sS't0'
p3510
g3487
ssg3450
I28
sg3451
(dp3511
I32
S''
sI23
S''
sI24
S'    f1=linearWaveForm()'
p3512
sI25
S"    #f1['vars']=dict(waveHeight=0.85,wavePeriod=8.00,waveBrk=0.78,waterDepth=4.1)"
p3513
sI26
S'    if f1.accepts(request.vars,session):'
p3514
sI27
S'        session.formVars=f1.vars'
p3515
sI28
S'        t0=AcesCall(f1.vars)'
p3516
sI29
S'        pre1=PRE(t0)'
p3517
sI30
S"        img1=IMG(_src=URL('static','images/Waves.svg?'+nowS))"
p3518
sI31
S'    return dict(form=f1,pre1=pre1,img1=img1)'
p3519
ssg3463
S'()'
p3520
sg3465
S'index'
p3521
sa(dp3522
g3442
S'/home/u4hcsdaw/Python/web2py/applications/ACES/models/functionsAces.py'
p3523
sg3444
(dp3524
S'formVars'
p3525
S"<Storage {'waveHeight': 0.85, 'wavePeriod': 3.0,...eBreakRatio': 0.78, 'waterDepth': 0.78, 'id': 2}>"
p3526
sS'WaveBrk'
p3527
g3487
sS'builtinfloat'
p3528
S"<type 'float'>"
p3529
ssg3450
I20
sg3451
(dp3530
I15
S'    WaveHeight=min(WaveHeight,3.2) ## set maximum val'
p3531
sI16
S''
sI17
S"    WavePeriod=float(formVars['wavePeriod'])"
p3532
sI18
S'    WavePeriod=min(WavePeriod,20.0) ## set maximum val'
p3533
sI19
S''
sI20
S"    WaveBrk=float(formVars['waveBrk'])"
p3534
sI21
S'    WaveBrk=min(WaveBrk,0.85) ## set maximum val'
p3535
sI22
S''
sI23
S"    WaterDepth=float(formVars['waterDepth'])"
p3536
sI24
S'    WaterDepth=min(WaterDepth,0.85) ## set maximum val'
p3537
ssg3463
S"(formVars=<Storage {'waveHeight': 0.85, 'wavePeriod': 3.0,...eBreakRatio': 0.78, 'waterDepth': 0.78, 'id': 2}>)"
p3538
sg3465
S'AcesCall'
p3539
sasS'pyver'
p3540
S'Python 2.7.3: /usr/bin/python2.7'
p3541
sS'session'
p3542
g56
(g57
g58
NtRp3543
(dp3544
g61
(dp3545
sg63
(lp3546
g56
(g65
g58
NtRp3547
(dp3548
g61
(dp3549
g69
I5
ssg70
Nsg63
(lp3550
g56
(g72
g58
NtRp3551
(dp3552
g61
(dp3553
sg70
g3547
sg63
(lp3554
g56
(g77
g58
NtRp3555
(dp3556
g61
(dp3557
g81
g82
ssg70
g3551
sg63
(lp3558
S'formVars'
p3559
asbag56
(g77
g58
NtRp3560
(dp3561
g61
(dp3562
g88
g89
ssg70
g3551
sg63
(lp3563
S':'
asbag56
(g77
g58
NtRp3564
(dp3565
g61
(dp3566
sg70
g3551
sg63
(lp3567
g56
(g57
g58
NtRp3568
(dp3569
g61
(dp3570
g69
I5
ssg70
g3564
sg63
(lp3571
g56
(g65
g58
NtRp3572
(dp3573
g61
(dp3574
g69
I4
ssg70
Nsg63
(lp3575
g56
(g72
g58
NtRp3576
(dp3577
g61
(dp3578
sg70
g3572
sg63
(lp3579
g56
(g77
g58
NtRp3580
(dp3581
g61
(dp3582
g81
g82
ssg70
g3576
sg63
(lp3583
S'id'
p3584
asbag56
(g77
g58
NtRp3585
(dp3586
g61
(dp3587
g88
g89
ssg70
g3576
sg63
(lp3588
S':'
asbag56
(g77
g58
NtRp3589
(dp3590
g61
(dp3591
sg70
g3576
sg63
(lp3592
g56
(g57
g58
NtRp3593
(dp3594
g61
(dp3595
g69
I4
ssg70
g3589
sg63
(lp3596
S'2'
asbasbasbag56
(g72
g58
NtRp3597
(dp3598
g61
(dp3599
sg70
g3572
sg63
(lp3600
g56
(g77
g58
NtRp3601
(dp3602
g61
(dp3603
g81
g82
ssg70
g3597
sg63
(lp3604
S'waterDepth'
p3605
asbag56
(g77
g58
NtRp3606
(dp3607
g61
(dp3608
g88
g89
ssg70
g3597
sg63
(lp3609
S':'
asbag56
(g77
g58
NtRp3610
(dp3611
g61
(dp3612
sg70
g3597
sg63
(lp3613
g56
(g57
g58
NtRp3614
(dp3615
g61
(dp3616
g69
I4
ssg70
g3610
sg63
(lp3617
S'0.78'
p3618
asbasbasbag56
(g72
g58
NtRp3619
(dp3620
g61
(dp3621
sg70
g3572
sg63
(lp3622
g56
(g77
g58
NtRp3623
(dp3624
g61
(dp3625
g81
g82
ssg70
g3619
sg63
(lp3626
S'waveBreakRatio'
p3627
asbag56
(g77
g58
NtRp3628
(dp3629
g61
(dp3630
g88
g89
ssg70
g3619
sg63
(lp3631
S':'
asbag56
(g77
g58
NtRp3632
(dp3633
g61
(dp3634
sg70
g3619
sg63
(lp3635
g56
(g57
g58
NtRp3636
(dp3637
g61
(dp3638
g69
I4
ssg70
g3632
sg63
(lp3639
S'0.78'
p3640
asbasbasbag56
(g72
g58
NtRp3641
(dp3642
g61
(dp3643
sg70
g3572
sg63
(lp3644
g56
(g77
g58
NtRp3645
(dp3646
g61
(dp3647
g81
g82
ssg70
g3641
sg63
(lp3648
S'waveHeight'
p3649
asbag56
(g77
g58
NtRp3650
(dp3651
g61
(dp3652
g88
g89
ssg70
g3641
sg63
(lp3653
S':'
asbag56
(g77
g58
NtRp3654
(dp3655
g61
(dp3656
sg70
g3641
sg63
(lp3657
g56
(g57
g58
NtRp3658
(dp3659
g61
(dp3660
g69
I4
ssg70
g3654
sg63
(lp3661
S'0.85'
p3662
asbasbasbag56
(g72
g58
NtRp3663
(dp3664
g61
(dp3665
sg70
g3572
sg63
(lp3666
g56
(g77
g58
NtRp3667
(dp3668
g61
(dp3669
g81
g82
ssg70
g3663
sg63
(lp3670
S'wavePeriod'
p3671
asbag56
(g77
g58
NtRp3672
(dp3673
g61
(dp3674
g88
g89
ssg70
g3663
sg63
(lp3675
S':'
asbag56
(g77
g58
NtRp3676
(dp3677
g61
(dp3678
sg70
g3663
sg63
(lp3679
g56
(g57
g58
NtRp3680
(dp3681
g61
(dp3682
g69
I4
ssg70
g3676
sg63
(lp3683
S'3.0'
p3684
asbasbasbasbasbasbasbasbasbsS'etype'
p3685
S"<type 'exceptions.KeyError'>"
p3686
sS'date'
p3687
S'Mon Sep 10 18:33:32 2012'
p3688
sS'response'
p3689
g56
(g57
g58
NtRp3690
(dp3691
g61
(dp3692
sg63
(lp3693
g56
(g65
g58
NtRp3694
(dp3695
g61
(dp3696
g69
I5
ssg70
Nsg63
(lp3697
g56
(g72
g58
NtRp3698
(dp3699
g61
(dp3700
sg70
g3694
sg63
(lp3701
g56
(g77
g58
NtRp3702
(dp3703
g61
(dp3704
g81
g82
ssg70
g3698
sg63
(lp3705
g154
asbag56
(g77
g58
NtRp3706
(dp3707
g61
(dp3708
g88
g89
ssg70
g3698
sg63
(lp3709
S':'
asbag56
(g77
g58
NtRp3710
(dp3711
g61
(dp3712
sg70
g3698
sg63
(lp3713
g56
(g57
g58
NtRp3714
(dp3715
g61
(dp3716
g69
I5
ssg70
g3710
sg63
(lp3717
S'<cStringIO.StringO object at 0xb2d929c0>'
p3718
asbasbasbag56
(g72
g58
NtRp3719
(dp3720
g61
(dp3721
sg70
g3694
sg63
(lp3722
g56
(g77
g58
NtRp3723
(dp3724
g61
(dp3725
g81
g82
ssg70
g3719
sg63
(lp3726
g220
asbag56
(g77
g58
NtRp3727
(dp3728
g61
(dp3729
g88
g89
ssg70
g3719
sg63
(lp3730
S':'
asbag56
(g77
g58
NtRp3731
(dp3732
g61
(dp3733
sg70
g3719
sg63
(lp3734
g56
(g57
g58
NtRp3735
(dp3736
g61
(dp3737
g69
I5
ssg70
g3731
sg63
(lp3738
g56
(g65
g58
NtRp3739
(dp3740
g61
(dp3741
g69
I4
ssg70
Nsg63
(lp3742
g56
(g72
g58
NtRp3743
(dp3744
g61
(dp3745
sg70
g3739
sg63
(lp3746
g56
(g77
g58
NtRp3747
(dp3748
g61
(dp3749
g81
g82
ssg70
g3743
sg63
(lp3750
S'session_id_aces'
p3751
asbag56
(g77
g58
NtRp3752
(dp3753
g61
(dp3754
g88
g89
ssg70
g3743
sg63
(lp3755
S':'
asbag56
(g77
g58
NtRp3756
(dp3757
g61
(dp3758
sg70
g3743
sg63
(lp3759
g56
(g57
g58
NtRp3760
(dp3761
g61
(dp3762
g69
I4
ssg70
g3756
sg63
(lp3763
g56
(g65
g58
NtRp3764
(dp3765
g61
(dp3766
g69
I3
ssg70
Nsg63
(lp3767
g56
(g72
g58
NtRp3768
(dp3769
g61
(dp3770
sg70
g3764
sg63
(lp3771
g56
(g77
g58
NtRp3772
(dp3773
g61
(dp3774
g81
g82
ssg70
g3768
sg63
(lp3775
g270
asbag56
(g77
g58
NtRp3776
(dp3777
g61
(dp3778
g88
g89
ssg70
g3768
sg63
(lp3779
S':'
asbag56
(g77
g58
NtRp3780
(dp3781
g61
(dp3782
sg70
g3768
sg63
(lp3783
g56
(g57
g58
NtRp3784
(dp3785
g61
(dp3786
g69
I3
ssg70
g3780
sg63
(lp3787
S''
asbasbasbag56
(g72
g58
NtRp3788
(dp3789
g61
(dp3790
sg70
g3764
sg63
(lp3791
g56
(g77
g58
NtRp3792
(dp3793
g61
(dp3794
g81
g82
ssg70
g3788
sg63
(lp3795
g291
asbag56
(g77
g58
NtRp3796
(dp3797
g61
(dp3798
g88
g89
ssg70
g3788
sg63
(lp3799
S':'
asbag56
(g77
g58
NtRp3800
(dp3801
g61
(dp3802
sg70
g3788
sg63
(lp3803
g56
(g57
g58
NtRp3804
(dp3805
g61
(dp3806
g69
I3
ssg70
g3800
sg63
(lp3807
S''
asbasbasbag56
(g72
g58
NtRp3808
(dp3809
g61
(dp3810
sg70
g3764
sg63
(lp3811
g56
(g77
g58
NtRp3812
(dp3813
g61
(dp3814
g81
g82
ssg70
g3808
sg63
(lp3815
g312
asbag56
(g77
g58
NtRp3816
(dp3817
g61
(dp3818
g88
g89
ssg70
g3808
sg63
(lp3819
S':'
asbag56
(g77
g58
NtRp3820
(dp3821
g61
(dp3822
sg70
g3808
sg63
(lp3823
g56
(g57
g58
NtRp3824
(dp3825
g61
(dp3826
g69
I3
ssg70
g3820
sg63
(lp3827
S''
asbasbasbag56
(g72
g58
NtRp3828
(dp3829
g61
(dp3830
sg70
g3764
sg63
(lp3831
g56
(g77
g58
NtRp3832
(dp3833
g61
(dp3834
g81
g82
ssg70
g3828
sg63
(lp3835
g333
asbag56
(g77
g58
NtRp3836
(dp3837
g61
(dp3838
g88
g89
ssg70
g3828
sg63
(lp3839
S':'
asbag56
(g77
g58
NtRp3840
(dp3841
g61
(dp3842
sg70
g3828
sg63
(lp3843
g56
(g57
g58
NtRp3844
(dp3845
g61
(dp3846
g69
I3
ssg70
g3840
sg63
(lp3847
S''
asbasbasbag56
(g72
g58
NtRp3848
(dp3849
g61
(dp3850
sg70
g3764
sg63
(lp3851
g56
(g77
g58
NtRp3852
(dp3853
g61
(dp3854
g81
g82
ssg70
g3848
sg63
(lp3855
g354
asbag56
(g77
g58
NtRp3856
(dp3857
g61
(dp3858
g88
g89
ssg70
g3848
sg63
(lp3859
S':'
asbag56
(g77
g58
NtRp3860
(dp3861
g61
(dp3862
sg70
g3848
sg63
(lp3863
g56
(g57
g58
NtRp3864
(dp3865
g61
(dp3866
g69
I3
ssg70
g3860
sg63
(lp3867
S''
asbasbasbag56
(g72
g58
NtRp3868
(dp3869
g61
(dp3870
sg70
g3764
sg63
(lp3871
g56
(g77
g58
NtRp3872
(dp3873
g61
(dp3874
g81
g82
ssg70
g3868
sg63
(lp3875
g375
asbag56
(g77
g58
NtRp3876
(dp3877
g61
(dp3878
g88
g89
ssg70
g3868
sg63
(lp3879
S':'
asbag56
(g77
g58
NtRp3880
(dp3881
g61
(dp3882
sg70
g3868
sg63
(lp3883
g56
(g57
g58
NtRp3884
(dp3885
g61
(dp3886
g69
I3
ssg70
g3880
sg63
(lp3887
S'/'
asbasbasbag56
(g72
g58
NtRp3888
(dp3889
g61
(dp3890
sg70
g3764
sg63
(lp3891
g56
(g77
g58
NtRp3892
(dp3893
g61
(dp3894
g81
g82
ssg70
g3888
sg63
(lp3895
g396
asbag56
(g77
g58
NtRp3896
(dp3897
g61
(dp3898
g88
g89
ssg70
g3888
sg63
(lp3899
S':'
asbag56
(g77
g58
NtRp3900
(dp3901
g61
(dp3902
sg70
g3888
sg63
(lp3903
g56
(g57
g58
NtRp3904
(dp3905
g61
(dp3906
g69
I3
ssg70
g3900
sg63
(lp3907
S''
asbasbasbag56
(g72
g58
NtRp3908
(dp3909
g61
(dp3910
sg70
g3764
sg63
(lp3911
g56
(g77
g58
NtRp3912
(dp3913
g61
(dp3914
g81
g82
ssg70
g3908
sg63
(lp3915
g417
asbag56
(g77
g58
NtRp3916
(dp3917
g61
(dp3918
g88
g89
ssg70
g3908
sg63
(lp3919
S':'
asbag56
(g77
g58
NtRp3920
(dp3921
g61
(dp3922
sg70
g3908
sg63
(lp3923
g56
(g57
g58
NtRp3924
(dp3925
g61
(dp3926
g69
I3
ssg70
g3920
sg63
(lp3927
S''
asbasbasbasbasbasbasbasbasbasbasbag56
(g72
g58
NtRp3928
(dp3929
g61
(dp3930
sg70
g3694
sg63
(lp3931
g56
(g77
g58
NtRp3932
(dp3933
g61
(dp3934
g81
g82
ssg70
g3928
sg63
(lp3935
S'files'
p3936
asbag56
(g77
g58
NtRp3937
(dp3938
g61
(dp3939
g88
g89
ssg70
g3928
sg63
(lp3940
S':'
asbag56
(g77
g58
NtRp3941
(dp3942
g61
(dp3943
sg70
g3928
sg63
(lp3944
g56
(g57
g58
NtRp3945
(dp3946
g61
(dp3947
g69
I5
ssg70
g3941
sg63
(lp3948
g56
(g65
g58
NtRp3949
(dp3950
g61
(dp3951
g69
I4
ssg70
Nsg63
(lp3952
sbasbasbasbag56
(g72
g58
NtRp3953
(dp3954
g61
(dp3955
sg70
g3694
sg63
(lp3956
g56
(g77
g58
NtRp3957
(dp3958
g61
(dp3959
g81
g82
ssg70
g3953
sg63
(lp3960
S'flash'
p3961
asbag56
(g77
g58
NtRp3962
(dp3963
g61
(dp3964
g88
g89
ssg70
g3953
sg63
(lp3965
S':'
asbag56
(g77
g58
NtRp3966
(dp3967
g61
(dp3968
sg70
g3953
sg63
(lp3969
g56
(g57
g58
NtRp3970
(dp3971
g61
(dp3972
g69
I5
ssg70
g3966
sg63
(lp3973
S''
asbasbasbag56
(g72
g58
NtRp3974
(dp3975
g61
(dp3976
sg70
g3694
sg63
(lp3977
g56
(g77
g58
NtRp3978
(dp3979
g61
(dp3980
g81
g82
ssg70
g3974
sg63
(lp3981
S'generic_patterns'
p3982
asbag56
(g77
g58
NtRp3983
(dp3984
g61
(dp3985
g88
g89
ssg70
g3974
sg63
(lp3986
S':'
asbag56
(g77
g58
NtRp3987
(dp3988
g61
(dp3989
sg70
g3974
sg63
(lp3990
g56
(g57
g58
NtRp3991
(dp3992
g61
(dp3993
g69
I5
ssg70
g3987
sg63
(lp3994
g56
(g65
g58
NtRp3995
(dp3996
g61
(dp3997
g69
I4
ssg70
Nsg63
(lp3998
g56
(g72
g58
NtRp3999
(dp4000
g61
(dp4001
sg70
g3995
sg63
(lp4002
g56
(g77
g58
NtRp4003
(dp4004
g61
(dp4005
sg70
g3999
sg63
(lp4006
g56
(g57
g58
NtRp4007
(dp4008
g61
(dp4009
g69
I4
ssg70
g4003
sg63
(lp4010
S'*'
asbasbasbasbasbasbasbag56
(g72
g58
NtRp4011
(dp4012
g61
(dp4013
sg70
g3694
sg63
(lp4014
g56
(g77
g58
NtRp4015
(dp4016
g61
(dp4017
g81
g82
ssg70
g4011
sg63
(lp4018
S'headers'
p4019
asbag56
(g77
g58
NtRp4020
(dp4021
g61
(dp4022
g88
g89
ssg70
g4011
sg63
(lp4023
S':'
asbag56
(g77
g58
NtRp4024
(dp4025
g61
(dp4026
sg70
g4011
sg63
(lp4027
g56
(g57
g58
NtRp4028
(dp4029
g61
(dp4030
g69
I5
ssg70
g4024
sg63
(lp4031
g56
(g65
g58
NtRp4032
(dp4033
g61
(dp4034
g69
I4
ssg70
Nsg63
(lp4035
g56
(g72
g58
NtRp4036
(dp4037
g61
(dp4038
sg70
g4032
sg63
(lp4039
g56
(g77
g58
NtRp4040
(dp4041
g61
(dp4042
g81
g82
ssg70
g4036
sg63
(lp4043
S'Cache-Control'
p4044
asbag56
(g77
g58
NtRp4045
(dp4046
g61
(dp4047
g88
g89
ssg70
g4036
sg63
(lp4048
S':'
asbag56
(g77
g58
NtRp4049
(dp4050
g61
(dp4051
sg70
g4036
sg63
(lp4052
g56
(g57
g58
NtRp4053
(dp4054
g61
(dp4055
g69
I4
ssg70
g4049
sg63
(lp4056
S'no-store, no-cache, must-revalidate, post-check=0, pre-check=0'
p4057
asbasbasbag56
(g72
g58
NtRp4058
(dp4059
g61
(dp4060
sg70
g4032
sg63
(lp4061
g56
(g77
g58
NtRp4062
(dp4063
g61
(dp4064
g81
g82
ssg70
g4058
sg63
(lp4065
S'Content-Type'
p4066
asbag56
(g77
g58
NtRp4067
(dp4068
g61
(dp4069
g88
g89
ssg70
g4058
sg63
(lp4070
S':'
asbag56
(g77
g58
NtRp4071
(dp4072
g61
(dp4073
sg70
g4058
sg63
(lp4074
g56
(g57
g58
NtRp4075
(dp4076
g61
(dp4077
g69
I4
ssg70
g4071
sg63
(lp4078
S'text/html; charset=utf-8'
p4079
asbasbasbag56
(g72
g58
NtRp4080
(dp4081
g61
(dp4082
sg70
g4032
sg63
(lp4083
g56
(g77
g58
NtRp4084
(dp4085
g61
(dp4086
g81
g82
ssg70
g4080
sg63
(lp4087
S'Expires'
p4088
asbag56
(g77
g58
NtRp4089
(dp4090
g61
(dp4091
g88
g89
ssg70
g4080
sg63
(lp4092
S':'
asbag56
(g77
g58
NtRp4093
(dp4094
g61
(dp4095
sg70
g4080
sg63
(lp4096
g56
(g57
g58
NtRp4097
(dp4098
g61
(dp4099
g69
I4
ssg70
g4093
sg63
(lp4100
S'Mon, 10 Sep 2012 23:33:32 GMT'
p4101
asbasbasbag56
(g72
g58
NtRp4102
(dp4103
g61
(dp4104
sg70
g4032
sg63
(lp4105
g56
(g77
g58
NtRp4106
(dp4107
g61
(dp4108
g81
g82
ssg70
g4102
sg63
(lp4109
S'Pragma'
p4110
asbag56
(g77
g58
NtRp4111
(dp4112
g61
(dp4113
g88
g89
ssg70
g4102
sg63
(lp4114
S':'
asbag56
(g77
g58
NtRp4115
(dp4116
g61
(dp4117
sg70
g4102
sg63
(lp4118
g56
(g57
g58
NtRp4119
(dp4120
g61
(dp4121
g69
I4
ssg70
g4115
sg63
(lp4122
S'no-cache'
p4123
asbasbasbag56
(g72
g58
NtRp4124
(dp4125
g61
(dp4126
sg70
g4032
sg63
(lp4127
g56
(g77
g58
NtRp4128
(dp4129
g61
(dp4130
g81
g82
ssg70
g4124
sg63
(lp4131
S'X-Powered-By'
p4132
asbag56
(g77
g58
NtRp4133
(dp4134
g61
(dp4135
g88
g89
ssg70
g4124
sg63
(lp4136
S':'
asbag56
(g77
g58
NtRp4137
(dp4138
g61
(dp4139
sg70
g4124
sg63
(lp4140
g56
(g57
g58
NtRp4141
(dp4142
g61
(dp4143
g69
I4
ssg70
g4137
sg63
(lp4144
S'web2py'
p4145
asbasbasbasbasbasbasbag56
(g72
g58
NtRp4146
(dp4147
g61
(dp4148
sg70
g3694
sg63
(lp4149
g56
(g77
g58
NtRp4150
(dp4151
g61
(dp4152
g81
g82
ssg70
g4146
sg63
(lp4153
S'menu'
p4154
asbag56
(g77
g58
NtRp4155
(dp4156
g61
(dp4157
g88
g89
ssg70
g4146
sg63
(lp4158
S':'
asbag56
(g77
g58
NtRp4159
(dp4160
g61
(dp4161
sg70
g4146
sg63
(lp4162
g56
(g57
g58
NtRp4163
(dp4164
g61
(dp4165
g69
I5
ssg70
g4159
sg63
(lp4166
g56
(g65
g58
NtRp4167
(dp4168
g61
(dp4169
g69
I4
ssg70
Nsg63
(lp4170
g56
(g72
g58
NtRp4171
(dp4172
g61
(dp4173
sg70
g4167
sg63
(lp4174
g56
(g77
g58
NtRp4175
(dp4176
g61
(dp4177
sg70
g4171
sg63
(lp4178
g56
(g57
g58
NtRp4179
(dp4180
g61
(dp4181
g69
I4
ssg70
g4175
sg63
(lp4182
g56
(g65
g58
NtRp4183
(dp4184
g61
(dp4185
g69
I3
ssg70
Nsg63
(lp4186
g56
(g72
g58
NtRp4187
(dp4188
g61
(dp4189
sg70
g4183
sg63
(lp4190
g56
(g77
g58
NtRp4191
(dp4192
g61
(dp4193
sg70
g4187
sg63
(lp4194
g56
(g57
g58
NtRp4195
(dp4196
g61
(dp4197
g69
I3
ssg70
g4191
sg63
(lp4198
cgluon.languages
lazyT_unpickle
p4199
(S't\x04\x00\x00\x00Home'
tRp4200
asbasbasbag56
(g72
g58
NtRp4201
(dp4202
g61
(dp4203
sg70
g4183
sg63
(lp4204
g56
(g77
g58
NtRp4205
(dp4206
g61
(dp4207
sg70
g4201
sg63
(lp4208
g56
(g57
g58
NtRp4209
(dp4210
g61
(dp4211
g69
I3
ssg70
g4205
sg63
(lp4212
g99
asbasbasbag56
(g72
g58
NtRp4213
(dp4214
g61
(dp4215
sg70
g4183
sg63
(lp4216
g56
(g77
g58
NtRp4217
(dp4218
g61
(dp4219
sg70
g4213
sg63
(lp4220
g56
(g57
g58
NtRp4221
(dp4222
g61
(dp4223
g69
I3
ssg70
g4217
sg63
(lp4224
S'/ACES/default/index'
p4225
asbasbasbag56
(g72
g58
NtRp4226
(dp4227
g61
(dp4228
sg70
g4183
sg63
(lp4229
g56
(g77
g58
NtRp4230
(dp4231
g61
(dp4232
sg70
g4226
sg63
(lp4233
g56
(g57
g58
NtRp4234
(dp4235
g61
(dp4236
g69
I3
ssg70
g4230
sg63
(lp4237
g56
(g65
g58
NtRp4238
(dp4239
g61
(dp4240
g69
I2
ssg70
Nsg63
(lp4241
sbasbasbasbasbasbasbasbag56
(g72
g58
NtRp4242
(dp4243
g61
(dp4244
sg70
g4167
sg63
(lp4245
g56
(g77
g58
NtRp4246
(dp4247
g61
(dp4248
sg70
g4242
sg63
(lp4249
g56
(g57
g58
NtRp4250
(dp4251
g61
(dp4252
g69
I4
ssg70
g4246
sg63
(lp4253
g56
(g65
g58
NtRp4254
(dp4255
g61
(dp4256
g69
I3
ssg70
Nsg63
(lp4257
g56
(g72
g58
NtRp4258
(dp4259
g61
(dp4260
sg70
g4254
sg63
(lp4261
g56
(g77
g58
NtRp4262
(dp4263
g61
(dp4264
sg70
g4258
sg63
(lp4265
g56
(g57
g58
NtRp4266
(dp4267
g61
(dp4268
g69
I3
ssg70
g4262
sg63
(lp4269
g4199
(S's\x08\x00\x00\x00This App'
tRp4270
asbasbasbag56
(g72
g58
NtRp4271
(dp4272
g61
(dp4273
sg70
g4254
sg63
(lp4274
g56
(g77
g58
NtRp4275
(dp4276
g61
(dp4277
sg70
g4271
sg63
(lp4278
g56
(g57
g58
NtRp4279
(dp4280
g61
(dp4281
g69
I3
ssg70
g4275
sg63
(lp4282
g99
asbasbasbag56
(g72
g58
NtRp4283
(dp4284
g61
(dp4285
sg70
g4254
sg63
(lp4286
g56
(g77
g58
NtRp4287
(dp4288
g61
(dp4289
sg70
g4283
sg63
(lp4290
g56
(g57
g58
NtRp4291
(dp4292
g61
(dp4293
g69
I3
ssg70
g4287
sg63
(lp4294
S'/admin/default/design/ACES'
p4295
asbasbasbag56
(g72
g58
NtRp4296
(dp4297
g61
(dp4298
sg70
g4254
sg63
(lp4299
g56
(g77
g58
NtRp4300
(dp4301
g61
(dp4302
sg70
g4296
sg63
(lp4303
g56
(g57
g58
NtRp4304
(dp4305
g61
(dp4306
g69
I3
ssg70
g4300
sg63
(lp4307
g56
(g65
g58
NtRp4308
(dp4309
g61
(dp4310
g69
I2
ssg70
Nsg63
(lp4311
g56
(g72
g58
NtRp4312
(dp4313
g61
(dp4314
sg70
g4308
sg63
(lp4315
g56
(g77
g58
NtRp4316
(dp4317
g61
(dp4318
sg70
g4312
sg63
(lp4319
g56
(g57
g58
NtRp4320
(dp4321
g61
(dp4322
g69
I2
ssg70
g4316
sg63
(lp4323
g56
(g65
g58
NtRp4324
(dp4325
g61
(dp4326
g69
I1
ssg70
Nsg63
(lp4327
g56
(g72
g58
NtRp4328
(dp4329
g61
(dp4330
sg70
g4324
sg63
(lp4331
g56
(g77
g58
NtRp4332
(dp4333
g61
(dp4334
sg70
g4328
sg63
(lp4335
g56
(g57
g58
NtRp4336
(dp4337
g61
(dp4338
g69
I1
ssg70
g4332
sg63
(lp4339
g4199
(S't\n\x00\x00\x00Controller'
tRp4340
asbasbasbag56
(g72
g58
NtRp4341
(dp4342
g61
(dp4343
sg70
g4324
sg63
(lp4344
g56
(g77
g58
NtRp4345
(dp4346
g61
(dp4347
sg70
g4341
sg63
(lp4348
g56
(g57
g58
NtRp4349
(dp4350
g61
(dp4351
g69
I1
ssg70
g4345
sg63
(lp4352
I00
asbasbasbag56
(g72
g58
NtRp4353
(dp4354
g61
(dp4355
sg70
g4324
sg63
(lp4356
g56
(g77
g58
NtRp4357
(dp4358
g61
(dp4359
sg70
g4353
sg63
(lp4360
g56
(g57
g58
NtRp4361
(dp4362
g61
(dp4363
g69
I1
ssg70
g4357
sg63
(lp4364
S'/admin/default/edit/ACES/controllers/default.py'
p4365
asbasbasbasbasbasbasbag56
(g72
g58
NtRp4366
(dp4367
g61
(dp4368
sg70
g4308
sg63
(lp4369
g56
(g77
g58
NtRp4370
(dp4371
g61
(dp4372
sg70
g4366
sg63
(lp4373
g56
(g57
g58
NtRp4374
(dp4375
g61
(dp4376
g69
I2
ssg70
g4370
sg63
(lp4377
g56
(g65
g58
NtRp4378
(dp4379
g61
(dp4380
g69
I1
ssg70
Nsg63
(lp4381
g56
(g72
g58
NtRp4382
(dp4383
g61
(dp4384
sg70
g4378
sg63
(lp4385
g56
(g77
g58
NtRp4386
(dp4387
g61
(dp4388
sg70
g4382
sg63
(lp4389
g56
(g57
g58
NtRp4390
(dp4391
g61
(dp4392
g69
I1
ssg70
g4386
sg63
(lp4393
g4199
(S't\x04\x00\x00\x00View'
tRp4394
asbasbasbag56
(g72
g58
NtRp4395
(dp4396
g61
(dp4397
sg70
g4378
sg63
(lp4398
g56
(g77
g58
NtRp4399
(dp4400
g61
(dp4401
sg70
g4395
sg63
(lp4402
g56
(g57
g58
NtRp4403
(dp4404
g61
(dp4405
g69
I1
ssg70
g4399
sg63
(lp4406
I00
asbasbasbag56
(g72
g58
NtRp4407
(dp4408
g61
(dp4409
sg70
g4378
sg63
(lp4410
g56
(g77
g58
NtRp4411
(dp4412
g61
(dp4413
sg70
g4407
sg63
(lp4414
g56
(g57
g58
NtRp4415
(dp4416
g61
(dp4417
g69
I1
ssg70
g4411
sg63
(lp4418
S'/admin/default/edit/ACES/views/default/index.html'
p4419
asbasbasbasbasbasbasbag56
(g72
g58
NtRp4420
(dp4421
g61
(dp4422
sg70
g4308
sg63
(lp4423
g56
(g77
g58
NtRp4424
(dp4425
g61
(dp4426
sg70
g4420
sg63
(lp4427
g56
(g57
g58
NtRp4428
(dp4429
g61
(dp4430
g69
I2
ssg70
g4424
sg63
(lp4431
g56
(g65
g58
NtRp4432
(dp4433
g61
(dp4434
g69
I1
ssg70
Nsg63
(lp4435
g56
(g72
g58
NtRp4436
(dp4437
g61
(dp4438
sg70
g4432
sg63
(lp4439
g56
(g77
g58
NtRp4440
(dp4441
g61
(dp4442
sg70
g4436
sg63
(lp4443
g56
(g57
g58
NtRp4444
(dp4445
g61
(dp4446
g69
I1
ssg70
g4440
sg63
(lp4447
g4199
(S't\x06\x00\x00\x00Layout'
tRp4448
asbasbasbag56
(g72
g58
NtRp4449
(dp4450
g61
(dp4451
sg70
g4432
sg63
(lp4452
g56
(g77
g58
NtRp4453
(dp4454
g61
(dp4455
sg70
g4449
sg63
(lp4456
g56
(g57
g58
NtRp4457
(dp4458
g61
(dp4459
g69
I1
ssg70
g4453
sg63
(lp4460
I00
asbasbasbag56
(g72
g58
NtRp4461
(dp4462
g61
(dp4463
sg70
g4432
sg63
(lp4464
g56
(g77
g58
NtRp4465
(dp4466
g61
(dp4467
sg70
g4461
sg63
(lp4468
g56
(g57
g58
NtRp4469
(dp4470
g61
(dp4471
g69
I1
ssg70
g4465
sg63
(lp4472
S'/admin/default/edit/ACES/views/layout.html'
p4473
asbasbasbasbasbasbasbag56
(g72
g58
NtRp4474
(dp4475
g61
(dp4476
sg70
g4308
sg63
(lp4477
g56
(g77
g58
NtRp4478
(dp4479
g61
(dp4480
sg70
g4474
sg63
(lp4481
g56
(g57
g58
NtRp4482
(dp4483
g61
(dp4484
g69
I2
ssg70
g4478
sg63
(lp4485
g56
(g65
g58
NtRp4486
(dp4487
g61
(dp4488
g69
I1
ssg70
Nsg63
(lp4489
g56
(g72
g58
NtRp4490
(dp4491
g61
(dp4492
sg70
g4486
sg63
(lp4493
g56
(g77
g58
NtRp4494
(dp4495
g61
(dp4496
sg70
g4490
sg63
(lp4497
g56
(g57
g58
NtRp4498
(dp4499
g61
(dp4500
g69
I1
ssg70
g4494
sg63
(lp4501
g4199
(S't\n\x00\x00\x00Stylesheet'
tRp4502
asbasbasbag56
(g72
g58
NtRp4503
(dp4504
g61
(dp4505
sg70
g4486
sg63
(lp4506
g56
(g77
g58
NtRp4507
(dp4508
g61
(dp4509
sg70
g4503
sg63
(lp4510
g56
(g57
g58
NtRp4511
(dp4512
g61
(dp4513
g69
I1
ssg70
g4507
sg63
(lp4514
I00
asbasbasbag56
(g72
g58
NtRp4515
(dp4516
g61
(dp4517
sg70
g4486
sg63
(lp4518
g56
(g77
g58
NtRp4519
(dp4520
g61
(dp4521
sg70
g4515
sg63
(lp4522
g56
(g57
g58
NtRp4523
(dp4524
g61
(dp4525
g69
I1
ssg70
g4519
sg63
(lp4526
S'/admin/default/edit/ACES/static/base.css'
p4527
asbasbasbasbasbasbasbag56
(g72
g58
NtRp4528
(dp4529
g61
(dp4530
sg70
g4308
sg63
(lp4531
g56
(g77
g58
NtRp4532
(dp4533
g61
(dp4534
sg70
g4528
sg63
(lp4535
g56
(g57
g58
NtRp4536
(dp4537
g61
(dp4538
g69
I2
ssg70
g4532
sg63
(lp4539
g56
(g65
g58
NtRp4540
(dp4541
g61
(dp4542
g69
I1
ssg70
Nsg63
(lp4543
g56
(g72
g58
NtRp4544
(dp4545
g61
(dp4546
sg70
g4540
sg63
(lp4547
g56
(g77
g58
NtRp4548
(dp4549
g61
(dp4550
sg70
g4544
sg63
(lp4551
g56
(g57
g58
NtRp4552
(dp4553
g61
(dp4554
g69
I1
ssg70
g4548
sg63
(lp4555
g4199
(S's\x08\x00\x00\x00DB Model'
tRp4556
asbasbasbag56
(g72
g58
NtRp4557
(dp4558
g61
(dp4559
sg70
g4540
sg63
(lp4560
g56
(g77
g58
NtRp4561
(dp4562
g61
(dp4563
sg70
g4557
sg63
(lp4564
g56
(g57
g58
NtRp4565
(dp4566
g61
(dp4567
g69
I1
ssg70
g4561
sg63
(lp4568
I00
asbasbasbag56
(g72
g58
NtRp4569
(dp4570
g61
(dp4571
sg70
g4540
sg63
(lp4572
g56
(g77
g58
NtRp4573
(dp4574
g61
(dp4575
sg70
g4569
sg63
(lp4576
g56
(g57
g58
NtRp4577
(dp4578
g61
(dp4579
g69
I1
ssg70
g4573
sg63
(lp4580
S'/admin/default/edit/ACES/models/db.py'
p4581
asbasbasbasbasbasbasbag56
(g72
g58
NtRp4582
(dp4583
g61
(dp4584
sg70
g4308
sg63
(lp4585
g56
(g77
g58
NtRp4586
(dp4587
g61
(dp4588
sg70
g4582
sg63
(lp4589
g56
(g57
g58
NtRp4590
(dp4591
g61
(dp4592
g69
I2
ssg70
g4586
sg63
(lp4593
g56
(g65
g58
NtRp4594
(dp4595
g61
(dp4596
g69
I1
ssg70
Nsg63
(lp4597
g56
(g72
g58
NtRp4598
(dp4599
g61
(dp4600
sg70
g4594
sg63
(lp4601
g56
(g77
g58
NtRp4602
(dp4603
g61
(dp4604
sg70
g4598
sg63
(lp4605
g56
(g57
g58
NtRp4606
(dp4607
g61
(dp4608
g69
I1
ssg70
g4602
sg63
(lp4609
g4199
(S's\n\x00\x00\x00Menu Model'
tRp4610
asbasbasbag56
(g72
g58
NtRp4611
(dp4612
g61
(dp4613
sg70
g4594
sg63
(lp4614
g56
(g77
g58
NtRp4615
(dp4616
g61
(dp4617
sg70
g4611
sg63
(lp4618
g56
(g57
g58
NtRp4619
(dp4620
g61
(dp4621
g69
I1
ssg70
g4615
sg63
(lp4622
I00
asbasbasbag56
(g72
g58
NtRp4623
(dp4624
g61
(dp4625
sg70
g4594
sg63
(lp4626
g56
(g77
g58
NtRp4627
(dp4628
g61
(dp4629
sg70
g4623
sg63
(lp4630
g56
(g57
g58
NtRp4631
(dp4632
g61
(dp4633
g69
I1
ssg70
g4627
sg63
(lp4634
S'/admin/default/edit/ACES/models/menu.py'
p4635
asbasbasbasbasbasbasbag56
(g72
g58
NtRp4636
(dp4637
g61
(dp4638
sg70
g4308
sg63
(lp4639
g56
(g77
g58
NtRp4640
(dp4641
g61
(dp4642
sg70
g4636
sg63
(lp4643
g56
(g57
g58
NtRp4644
(dp4645
g61
(dp4646
g69
I2
ssg70
g4640
sg63
(lp4647
g56
(g65
g58
NtRp4648
(dp4649
g61
(dp4650
g69
I1
ssg70
Nsg63
(lp4651
g56
(g72
g58
NtRp4652
(dp4653
g61
(dp4654
sg70
g4648
sg63
(lp4655
g56
(g77
g58
NtRp4656
(dp4657
g61
(dp4658
sg70
g4652
sg63
(lp4659
g56
(g57
g58
NtRp4660
(dp4661
g61
(dp4662
g69
I1
ssg70
g4656
sg63
(lp4663
g4199
(S't\x08\x00\x00\x00Database'
tRp4664
asbasbasbag56
(g72
g58
NtRp4665
(dp4666
g61
(dp4667
sg70
g4648
sg63
(lp4668
g56
(g77
g58
NtRp4669
(dp4670
g61
(dp4671
sg70
g4665
sg63
(lp4672
g56
(g57
g58
NtRp4673
(dp4674
g61
(dp4675
g69
I1
ssg70
g4669
sg63
(lp4676
I00
asbasbasbag56
(g72
g58
NtRp4677
(dp4678
g61
(dp4679
sg70
g4648
sg63
(lp4680
g56
(g77
g58
NtRp4681
(dp4682
g61
(dp4683
sg70
g4677
sg63
(lp4684
g56
(g57
g58
NtRp4685
(dp4686
g61
(dp4687
g69
I1
ssg70
g4681
sg63
(lp4688
S'/ACES/appadmin/index'
p4689
asbasbasbasbasbasbasbag56
(g72
g58
NtRp4690
(dp4691
g61
(dp4692
sg70
g4308
sg63
(lp4693
g56
(g77
g58
NtRp4694
(dp4695
g61
(dp4696
sg70
g4690
sg63
(lp4697
g56
(g57
g58
NtRp4698
(dp4699
g61
(dp4700
g69
I2
ssg70
g4694
sg63
(lp4701
g56
(g65
g58
NtRp4702
(dp4703
g61
(dp4704
g69
I1
ssg70
Nsg63
(lp4705
g56
(g72
g58
NtRp4706
(dp4707
g61
(dp4708
sg70
g4702
sg63
(lp4709
g56
(g77
g58
NtRp4710
(dp4711
g61
(dp4712
sg70
g4706
sg63
(lp4713
g56
(g57
g58
NtRp4714
(dp4715
g61
(dp4716
g69
I1
ssg70
g4710
sg63
(lp4717
g4199
(S't\x06\x00\x00\x00Errors'
tRp4718
asbasbasbag56
(g72
g58
NtRp4719
(dp4720
g61
(dp4721
sg70
g4702
sg63
(lp4722
g56
(g77
g58
NtRp4723
(dp4724
g61
(dp4725
sg70
g4719
sg63
(lp4726
g56
(g57
g58
NtRp4727
(dp4728
g61
(dp4729
g69
I1
ssg70
g4723
sg63
(lp4730
I00
asbasbasbag56
(g72
g58
NtRp4731
(dp4732
g61
(dp4733
sg70
g4702
sg63
(lp4734
g56
(g77
g58
NtRp4735
(dp4736
g61
(dp4737
sg70
g4731
sg63
(lp4738
g56
(g57
g58
NtRp4739
(dp4740
g61
(dp4741
g69
I1
ssg70
g4735
sg63
(lp4742
S'/admin/default/errors/ACES'
p4743
asbasbasbasbasbasbasbag56
(g72
g58
NtRp4744
(dp4745
g61
(dp4746
sg70
g4308
sg63
(lp4747
g56
(g77
g58
NtRp4748
(dp4749
g61
(dp4750
sg70
g4744
sg63
(lp4751
g56
(g57
g58
NtRp4752
(dp4753
g61
(dp4754
g69
I2
ssg70
g4748
sg63
(lp4755
g56
(g65
g58
NtRp4756
(dp4757
g61
(dp4758
g69
I1
ssg70
Nsg63
(lp4759
g56
(g72
g58
NtRp4760
(dp4761
g61
(dp4762
sg70
g4756
sg63
(lp4763
g56
(g77
g58
NtRp4764
(dp4765
g61
(dp4766
sg70
g4760
sg63
(lp4767
g56
(g57
g58
NtRp4768
(dp4769
g61
(dp4770
g69
I1
ssg70
g4764
sg63
(lp4771
g4199
(S't\x05\x00\x00\x00About'
tRp4772
asbasbasbag56
(g72
g58
NtRp4773
(dp4774
g61
(dp4775
sg70
g4756
sg63
(lp4776
g56
(g77
g58
NtRp4777
(dp4778
g61
(dp4779
sg70
g4773
sg63
(lp4780
g56
(g57
g58
NtRp4781
(dp4782
g61
(dp4783
g69
I1
ssg70
g4777
sg63
(lp4784
I00
asbasbasbag56
(g72
g58
NtRp4785
(dp4786
g61
(dp4787
sg70
g4756
sg63
(lp4788
g56
(g77
g58
NtRp4789
(dp4790
g61
(dp4791
sg70
g4785
sg63
(lp4792
g56
(g57
g58
NtRp4793
(dp4794
g61
(dp4795
g69
I1
ssg70
g4789
sg63
(lp4796
S'/admin/default/about/ACES'
p4797
asbasbasbasbasbasbasbasbasbasbasbasbasbasbasbag56
(g72
g58
NtRp4798
(dp4799
g61
(dp4800
sg70
g4167
sg63
(lp4801
g56
(g77
g58
NtRp4802
(dp4803
g61
(dp4804
sg70
g4798
sg63
(lp4805
g56
(g57
g58
NtRp4806
(dp4807
g61
(dp4808
g69
I4
ssg70
g4802
sg63
(lp4809
g56
(g65
g58
NtRp4810
(dp4811
g61
(dp4812
g69
I3
ssg70
Nsg63
(lp4813
g56
(g72
g58
NtRp4814
(dp4815
g61
(dp4816
sg70
g4810
sg63
(lp4817
g56
(g77
g58
NtRp4818
(dp4819
g61
(dp4820
sg70
g4814
sg63
(lp4821
g56
(g57
g58
NtRp4822
(dp4823
g61
(dp4824
g69
I3
ssg70
g4818
sg63
(lp4825
g4199
(S't\t\x00\x00\x00Resources'
tRp4826
asbasbasbag56
(g72
g58
NtRp4827
(dp4828
g61
(dp4829
sg70
g4810
sg63
(lp4830
g56
(g77
g58
NtRp4831
(dp4832
g61
(dp4833
sg70
g4827
sg63
(lp4834
g56
(g57
g58
NtRp4835
(dp4836
g61
(dp4837
g69
I3
ssg70
g4831
sg63
(lp4838
g99
asbasbasbag56
(g72
g58
NtRp4839
(dp4840
g61
(dp4841
sg70
g4810
sg63
(lp4842
g56
(g77
g58
NtRp4843
(dp4844
g61
(dp4845
sg70
g4839
sg63
(lp4846
g56
(g57
g58
NtRp4847
(dp4848
g61
(dp4849
g69
I3
ssg70
g4843
sg63
(lp4850
S'None'
p4851
asbasbasbag56
(g72
g58
NtRp4852
(dp4853
g61
(dp4854
sg70
g4810
sg63
(lp4855
g56
(g77
g58
NtRp4856
(dp4857
g61
(dp4858
sg70
g4852
sg63
(lp4859
g56
(g57
g58
NtRp4860
(dp4861
g61
(dp4862
g69
I3
ssg70
g4856
sg63
(lp4863
g56
(g65
g58
NtRp4864
(dp4865
g61
(dp4866
g69
I2
ssg70
Nsg63
(lp4867
g56
(g72
g58
NtRp4868
(dp4869
g61
(dp4870
sg70
g4864
sg63
(lp4871
g56
(g77
g58
NtRp4872
(dp4873
g61
(dp4874
sg70
g4868
sg63
(lp4875
g56
(g57
g58
NtRp4876
(dp4877
g61
(dp4878
g69
I2
ssg70
g4872
sg63
(lp4879
g56
(g65
g58
NtRp4880
(dp4881
g61
(dp4882
g69
I1
ssg70
Nsg63
(lp4883
g56
(g72
g58
NtRp4884
(dp4885
g61
(dp4886
sg70
g4880
sg63
(lp4887
g56
(g77
g58
NtRp4888
(dp4889
g61
(dp4890
sg70
g4884
sg63
(lp4891
g56
(g57
g58
NtRp4892
(dp4893
g61
(dp4894
g69
I1
ssg70
g4888
sg63
(lp4895
g4199
(S't\r\x00\x00\x00Documentation'
tRp4896
asbasbasbag56
(g72
g58
NtRp4897
(dp4898
g61
(dp4899
sg70
g4880
sg63
(lp4900
g56
(g77
g58
NtRp4901
(dp4902
g61
(dp4903
sg70
g4897
sg63
(lp4904
g56
(g57
g58
NtRp4905
(dp4906
g61
(dp4907
g69
I1
ssg70
g4901
sg63
(lp4908
I00
asbasbasbag56
(g72
g58
NtRp4909
(dp4910
g61
(dp4911
sg70
g4880
sg63
(lp4912
g56
(g77
g58
NtRp4913
(dp4914
g61
(dp4915
sg70
g4909
sg63
(lp4916
g56
(g57
g58
NtRp4917
(dp4918
g61
(dp4919
g69
I1
ssg70
g4913
sg63
(lp4920
S'http://www.web2py.com/book'
p4921
asbasbasbag56
(g72
g58
NtRp4922
(dp4923
g61
(dp4924
sg70
g4880
sg63
(lp4925
g56
(g77
g58
NtRp4926
(dp4927
g61
(dp4928
sg70
g4922
sg63
(lp4929
g56
(g57
g58
NtRp4930
(dp4931
g61
(dp4932
g69
I1
ssg70
g4926
sg63
(lp4933
(lp4934
(g4199
(S't\x07\x00\x00\x00Preface'
tRp4935
I00
S'http://www.web2py.com/book/default/chapter/00'
p4936
tp4937
a(g4199
(S't\x0c\x00\x00\x00Introduction'
tRp4938
I00
S'http://www.web2py.com/book/default/chapter/01'
p4939
tp4940
a(g4199
(S't\x06\x00\x00\x00Python'
tRp4941
I00
S'http://www.web2py.com/book/default/chapter/02'
p4942
tp4943
a(g4199
(S't\x08\x00\x00\x00Overview'
tRp4944
I00
S'http://www.web2py.com/book/default/chapter/03'
p4945
tp4946
a(g4199
(S's\x08\x00\x00\x00The Core'
tRp4947
I00
S'http://www.web2py.com/book/default/chapter/04'
p4948
tp4949
a(g4199
(S's\t\x00\x00\x00The Views'
tRp4950
I00
S'http://www.web2py.com/book/default/chapter/05'
p4951
tp4952
a(g4199
(S't\x08\x00\x00\x00Database'
tRp4953
I00
S'http://www.web2py.com/book/default/chapter/06'
p4954
tp4955
a(g4199
(S's\x14\x00\x00\x00Forms and Validators'
tRp4956
I00
S'http://www.web2py.com/book/default/chapter/07'
p4957
tp4958
a(g4199
(S's\x0e\x00\x00\x00Access Control'
tRp4959
I00
S'http://www.web2py.com/book/default/chapter/08'
p4960
tp4961
a(g4199
(S't\x08\x00\x00\x00Services'
tRp4962
I00
S'http://www.web2py.com/book/default/chapter/09'
p4963
tp4964
a(g4199
(S's\x0c\x00\x00\x00Ajax Recipes'
tRp4965
I00
S'http://www.web2py.com/book/default/chapter/10'
p4966
tp4967
a(g4199
(S's\x12\x00\x00\x00Deployment Recipes'
tRp4968
I00
S'http://www.web2py.com/book/default/chapter/11'
p4969
tp4970
a(g4199
(S's\r\x00\x00\x00Other Recipes'
tRp4971
I00
S'http://www.web2py.com/book/default/chapter/12'
p4972
tp4973
a(g4199
(S's\r\x00\x00\x00Buy this book'
tRp4974
I00
S'http://stores.lulu.com/web2py'
p4975
tp4976
aasbasbasbasbasbasbasbag56
(g72
g58
NtRp4977
(dp4978
g61
(dp4979
sg70
g4864
sg63
(lp4980
g56
(g77
g58
NtRp4981
(dp4982
g61
(dp4983
sg70
g4977
sg63
(lp4984
g56
(g57
g58
NtRp4985
(dp4986
g61
(dp4987
g69
I2
ssg70
g4981
sg63
(lp4988
g56
(g65
g58
NtRp4989
(dp4990
g61
(dp4991
g69
I1
ssg70
Nsg63
(lp4992
g56
(g72
g58
NtRp4993
(dp4994
g61
(dp4995
sg70
g4989
sg63
(lp4996
g56
(g77
g58
NtRp4997
(dp4998
g61
(dp4999
sg70
g4993
sg63
(lp5000
g56
(g57
g58
NtRp5001
(dp5002
g61
(dp5003
g69
I1
ssg70
g4997
sg63
(lp5004
g4199
(S't\t\x00\x00\x00Community'
tRp5005
asbasbasbag56
(g72
g58
NtRp5006
(dp5007
g61
(dp5008
sg70
g4989
sg63
(lp5009
g56
(g77
g58
NtRp5010
(dp5011
g61
(dp5012
sg70
g5006
sg63
(lp5013
g56
(g57
g58
NtRp5014
(dp5015
g61
(dp5016
g69
I1
ssg70
g5010
sg63
(lp5017
I00
asbasbasbag56
(g72
g58
NtRp5018
(dp5019
g61
(dp5020
sg70
g4989
sg63
(lp5021
g56
(g77
g58
NtRp5022
(dp5023
g61
(dp5024
sg70
g5018
sg63
(lp5025
g56
(g57
g58
NtRp5026
(dp5027
g61
(dp5028
g69
I1
ssg70
g5022
sg63
(lp5029
Nasbasbasbag56
(g72
g58
NtRp5030
(dp5031
g61
(dp5032
sg70
g4989
sg63
(lp5033
g56
(g77
g58
NtRp5034
(dp5035
g61
(dp5036
sg70
g5030
sg63
(lp5037
g56
(g57
g58
NtRp5038
(dp5039
g61
(dp5040
g69
I1
ssg70
g5034
sg63
(lp5041
(lp5042
(g4199
(S't\x06\x00\x00\x00Groups'
tRp5043
I00
S'http://www.web2py.com/examples/default/usergroups'
p5044
tp5045
a(g4199
(S't\x07\x00\x00\x00Twitter'
tRp5046
I00
S'http://twitter.com/web2py'
p5047
tp5048
a(g4199
(S's\t\x00\x00\x00Live chat'
tRp5049
I00
S'http://mibbit.com/?channel=%23web2py&server=irc.mibbit.net'
p5050
tp5051
a(g4199
(S's\n\x00\x00\x00User Voice'
tRp5052
I00
S'http://web2py.uservoice.com/'
p5053
tp5054
aasbasbasbasbasbasbasbag56
(g72
g58
NtRp5055
(dp5056
g61
(dp5057
sg70
g4864
sg63
(lp5058
g56
(g77
g58
NtRp5059
(dp5060
g61
(dp5061
sg70
g5055
sg63
(lp5062
g56
(g57
g58
NtRp5063
(dp5064
g61
(dp5065
g69
I2
ssg70
g5059
sg63
(lp5066
g56
(g65
g58
NtRp5067
(dp5068
g61
(dp5069
g69
I1
ssg70
Nsg63
(lp5070
g56
(g72
g58
NtRp5071
(dp5072
g61
(dp5073
sg70
g5067
sg63
(lp5074
g56
(g77
g58
NtRp5075
(dp5076
g61
(dp5077
sg70
g5071
sg63
(lp5078
g56
(g57
g58
NtRp5079
(dp5080
g61
(dp5081
g69
I1
ssg70
g5075
sg63
(lp5082
g4199
(S't\x06\x00\x00\x00Web2py'
tRp5083
asbasbasbag56
(g72
g58
NtRp5084
(dp5085
g61
(dp5086
sg70
g5067
sg63
(lp5087
g56
(g77
g58
NtRp5088
(dp5089
g61
(dp5090
sg70
g5084
sg63
(lp5091
g56
(g57
g58
NtRp5092
(dp5093
g61
(dp5094
g69
I1
ssg70
g5088
sg63
(lp5095
I00
asbasbasbag56
(g72
g58
NtRp5096
(dp5097
g61
(dp5098
sg70
g5067
sg63
(lp5099
g56
(g77
g58
NtRp5100
(dp5101
g61
(dp5102
sg70
g5096
sg63
(lp5103
g56
(g57
g58
NtRp5104
(dp5105
g61
(dp5106
g69
I1
ssg70
g5100
sg63
(lp5107
S'http://www.web2py.com'
p5108
asbasbasbag56
(g72
g58
NtRp5109
(dp5110
g61
(dp5111
sg70
g5067
sg63
(lp5112
g56
(g77
g58
NtRp5113
(dp5114
g61
(dp5115
sg70
g5109
sg63
(lp5116
g56
(g57
g58
NtRp5117
(dp5118
g61
(dp5119
g69
I1
ssg70
g5113
sg63
(lp5120
(lp5121
(g4199
(S't\x08\x00\x00\x00Download'
tRp5122
I00
S'http://www.web2py.com/examples/default/download'
p5123
tp5124
a(g4199
(S't\x07\x00\x00\x00Support'
tRp5125
I00
S'http://www.web2py.com/examples/default/support'
p5126
tp5127
a(g4199
(S's\x0e\x00\x00\x00Quick Examples'
tRp5128
I00
S'http://web2py.com/examples/default/examples'
p5129
tp5130
a(g4199
(S't\x03\x00\x00\x00FAQ'
tRp5131
I00
S'http://web2py.com/AlterEgo'
p5132
tp5133
a(g4199
(S's\x11\x00\x00\x00Free Applications'
tRp5134
I00
S'http://web2py.com/appliances'
p5135
tp5136
a(g4199
(S't\x07\x00\x00\x00Plugins'
tRp5137
I00
S'http://web2py.com/plugins'
p5138
tp5139
a(g4199
(S't\x07\x00\x00\x00Recipes'
tRp5140
I00
S'http://web2pyslices.com/'
p5141
tp5142
a(g4199
(S't\x04\x00\x00\x00Demo'
tRp5143
I00
S'http://web2py.com/demo_admin'
p5144
tp5145
a(g4199
(S't\x08\x00\x00\x00Semantic'
tRp5146
I00
S'http://web2py.com/semantic'
p5147
tp5148
a(g4199
(S't\x07\x00\x00\x00Layouts'
tRp5149
I00
S'http://web2py.com/layouts'
p5150
tp5151
a(g4199
(S't\x06\x00\x00\x00Videos'
tRp5152
I00
S'http://www.web2py.com/examples/default/videos/'
p5153
tp5154
aasbasbasbasbasbasbasbasbasbasbasbasbasbasbasbasbasbasbasbag56
(g72
g58
NtRp5155
(dp5156
g61
(dp5157
sg70
g3694
sg63
(lp5158
g56
(g77
g58
NtRp5159
(dp5160
g61
(dp5161
g81
g82
ssg70
g5155
sg63
(lp5162
S'meta'
p5163
asbag56
(g77
g58
NtRp5164
(dp5165
g61
(dp5166
g88
g89
ssg70
g5155
sg63
(lp5167
S':'
asbag56
(g77
g58
NtRp5168
(dp5169
g61
(dp5170
sg70
g5155
sg63
(lp5171
g56
(g57
g58
NtRp5172
(dp5173
g61
(dp5174
g69
I5
ssg70
g5168
sg63
(lp5175
g56
(g65
g58
NtRp5176
(dp5177
g61
(dp5178
g69
I4
ssg70
Nsg63
(lp5179
g56
(g72
g58
NtRp5180
(dp5181
g61
(dp5182
sg70
g5176
sg63
(lp5183
g56
(g77
g58
NtRp5184
(dp5185
g61
(dp5186
g81
g82
ssg70
g5180
sg63
(lp5187
S'author'
p5188
asbag56
(g77
g58
NtRp5189
(dp5190
g61
(dp5191
g88
g89
ssg70
g5180
sg63
(lp5192
S':'
asbag56
(g77
g58
NtRp5193
(dp5194
g61
(dp5195
sg70
g5180
sg63
(lp5196
g56
(g57
g58
NtRp5197
(dp5198
g61
(dp5199
g69
I4
ssg70
g5193
sg63
(lp5200
S'Your Name <you@example.com>'
p5201
asbasbasbag56
(g72
g58
NtRp5202
(dp5203
g61
(dp5204
sg70
g5176
sg63
(lp5205
g56
(g77
g58
NtRp5206
(dp5207
g61
(dp5208
g81
g82
ssg70
g5202
sg63
(lp5209
S'copyright'
p5210
asbag56
(g77
g58
NtRp5211
(dp5212
g61
(dp5213
g88
g89
ssg70
g5202
sg63
(lp5214
S':'
asbag56
(g77
g58
NtRp5215
(dp5216
g61
(dp5217
sg70
g5202
sg63
(lp5218
g56
(g57
g58
NtRp5219
(dp5220
g61
(dp5221
g69
I4
ssg70
g5215
sg63
(lp5222
S'Copyright 2011'
p5223
asbasbasbag56
(g72
g58
NtRp5224
(dp5225
g61
(dp5226
sg70
g5176
sg63
(lp5227
g56
(g77
g58
NtRp5228
(dp5229
g61
(dp5230
g81
g82
ssg70
g5224
sg63
(lp5231
S'description'
p5232
asbag56
(g77
g58
NtRp5233
(dp5234
g61
(dp5235
g88
g89
ssg70
g5224
sg63
(lp5236
S':'
asbag56
(g77
g58
NtRp5237
(dp5238
g61
(dp5239
sg70
g5224
sg63
(lp5240
g56
(g57
g58
NtRp5241
(dp5242
g61
(dp5243
g69
I4
ssg70
g5237
sg63
(lp5244
S'a cool new app'
p5245
asbasbasbag56
(g72
g58
NtRp5246
(dp5247
g61
(dp5248
sg70
g5176
sg63
(lp5249
g56
(g77
g58
NtRp5250
(dp5251
g61
(dp5252
g81
g82
ssg70
g5246
sg63
(lp5253
S'generator'
p5254
asbag56
(g77
g58
NtRp5255
(dp5256
g61
(dp5257
g88
g89
ssg70
g5246
sg63
(lp5258
S':'
asbag56
(g77
g58
NtRp5259
(dp5260
g61
(dp5261
sg70
g5246
sg63
(lp5262
g56
(g57
g58
NtRp5263
(dp5264
g61
(dp5265
g69
I4
ssg70
g5259
sg63
(lp5266
S'Web2py Web Framework'
p5267
asbasbasbag56
(g72
g58
NtRp5268
(dp5269
g61
(dp5270
sg70
g5176
sg63
(lp5271
g56
(g77
g58
NtRp5272
(dp5273
g61
(dp5274
g81
g82
ssg70
g5268
sg63
(lp5275
S'keywords'
p5276
asbag56
(g77
g58
NtRp5277
(dp5278
g61
(dp5279
g88
g89
ssg70
g5268
sg63
(lp5280
S':'
asbag56
(g77
g58
NtRp5281
(dp5282
g61
(dp5283
sg70
g5268
sg63
(lp5284
g56
(g57
g58
NtRp5285
(dp5286
g61
(dp5287
g69
I4
ssg70
g5281
sg63
(lp5288
S'web2py, python, framework'
p5289
asbasbasbasbasbasbasbag56
(g72
g58
NtRp5290
(dp5291
g61
(dp5292
sg70
g3694
sg63
(lp5293
g56
(g77
g58
NtRp5294
(dp5295
g61
(dp5296
g81
g82
ssg70
g5290
sg63
(lp5297
S'postprocessing'
p5298
asbag56
(g77
g58
NtRp5299
(dp5300
g61
(dp5301
g88
g89
ssg70
g5290
sg63
(lp5302
S':'
asbag56
(g77
g58
NtRp5303
(dp5304
g61
(dp5305
sg70
g5290
sg63
(lp5306
g56
(g57
g58
NtRp5307
(dp5308
g61
(dp5309
g69
I5
ssg70
g5303
sg63
(lp5310
g56
(g65
g58
NtRp5311
(dp5312
g61
(dp5313
g69
I4
ssg70
Nsg63
(lp5314
sbasbasbasbag56
(g72
g58
NtRp5315
(dp5316
g61
(dp5317
sg70
g3694
sg63
(lp5318
g56
(g77
g58
NtRp5319
(dp5320
g61
(dp5321
g81
g82
ssg70
g5315
sg63
(lp5322
S'session_file'
p5323
asbag56
(g77
g58
NtRp5324
(dp5325
g61
(dp5326
g88
g89
ssg70
g5315
sg63
(lp5327
S':'
asbag56
(g77
g58
NtRp5328
(dp5329
g61
(dp5330
sg70
g5315
sg63
(lp5331
g56
(g57
g58
NtRp5332
(dp5333
g61
(dp5334
g69
I5
ssg70
g5328
sg63
(lp5335
S"<open file '/home/u4hcsdaw/Python/web2py/applications/ACES/sessions/127.0.0.1-fa323a39-b4f7-4824-aae1-5c3174579522', mode 'rb+' at 0xaded0910>"
p5336
asbasbasbag56
(g72
g58
NtRp5337
(dp5338
g61
(dp5339
sg70
g3694
sg63
(lp5340
g56
(g77
g58
NtRp5341
(dp5342
g61
(dp5343
g81
g82
ssg70
g5337
sg63
(lp5344
S'session_filename'
p5345
asbag56
(g77
g58
NtRp5346
(dp5347
g61
(dp5348
g88
g89
ssg70
g5337
sg63
(lp5349
S':'
asbag56
(g77
g58
NtRp5350
(dp5351
g61
(dp5352
sg70
g5337
sg63
(lp5353
g56
(g57
g58
NtRp5354
(dp5355
g61
(dp5356
g69
I5
ssg70
g5350
sg63
(lp5357
S'/home/u4hcsdaw/Python/web2py/applications/ACES/sessions/127.0.0.1-fa323a39-b4f7-4824-aae1-5c3174579522'
p5358
asbasbasbag56
(g72
g58
NtRp5359
(dp5360
g61
(dp5361
sg70
g3694
sg63
(lp5362
g56
(g77
g58
NtRp5363
(dp5364
g61
(dp5365
g81
g82
ssg70
g5359
sg63
(lp5366
S'session_id'
p5367
asbag56
(g77
g58
NtRp5368
(dp5369
g61
(dp5370
g88
g89
ssg70
g5359
sg63
(lp5371
S':'
asbag56
(g77
g58
NtRp5372
(dp5373
g61
(dp5374
sg70
g5359
sg63
(lp5375
g56
(g57
g58
NtRp5376
(dp5377
g61
(dp5378
g69
I5
ssg70
g5372
sg63
(lp5379
S'127.0.0.1-fa323a39-b4f7-4824-aae1-5c3174579522'
p5380
asbasbasbag56
(g72
g58
NtRp5381
(dp5382
g61
(dp5383
sg70
g3694
sg63
(lp5384
g56
(g77
g58
NtRp5385
(dp5386
g61
(dp5387
g81
g82
ssg70
g5381
sg63
(lp5388
S'session_id_name'
p5389
asbag56
(g77
g58
NtRp5390
(dp5391
g61
(dp5392
g88
g89
ssg70
g5381
sg63
(lp5393
S':'
asbag56
(g77
g58
NtRp5394
(dp5395
g61
(dp5396
sg70
g5381
sg63
(lp5397
g56
(g57
g58
NtRp5398
(dp5399
g61
(dp5400
g69
I5
ssg70
g5394
sg63
(lp5401
g3751
asbasbasbag56
(g72
g58
NtRp5402
(dp5403
g61
(dp5404
sg70
g3694
sg63
(lp5405
g56
(g77
g58
NtRp5406
(dp5407
g61
(dp5408
g81
g82
ssg70
g5402
sg63
(lp5409
S'session_locked'
p5410
asbag56
(g77
g58
NtRp5411
(dp5412
g61
(dp5413
g88
g89
ssg70
g5402
sg63
(lp5414
S':'
asbag56
(g77
g58
NtRp5415
(dp5416
g61
(dp5417
sg70
g5402
sg63
(lp5418
g56
(g57
g58
NtRp5419
(dp5420
g61
(dp5421
g69
I5
ssg70
g5415
sg63
(lp5422
g1905
asbasbasbag56
(g72
g58
NtRp5423
(dp5424
g61
(dp5425
sg70
g3694
sg63
(lp5426
g56
(g77
g58
NtRp5427
(dp5428
g61
(dp5429
g81
g82
ssg70
g5423
sg63
(lp5430
S'session_new'
p5431
asbag56
(g77
g58
NtRp5432
(dp5433
g61
(dp5434
g88
g89
ssg70
g5423
sg63
(lp5435
S':'
asbag56
(g77
g58
NtRp5436
(dp5437
g61
(dp5438
sg70
g5423
sg63
(lp5439
g56
(g57
g58
NtRp5440
(dp5441
g61
(dp5442
g69
I5
ssg70
g5436
sg63
(lp5443
g99
asbasbasbag56
(g72
g58
NtRp5444
(dp5445
g61
(dp5446
sg70
g3694
sg63
(lp5447
g56
(g77
g58
NtRp5448
(dp5449
g61
(dp5450
g81
g82
ssg70
g5444
sg63
(lp5451
S'status'
p5452
asbag56
(g77
g58
NtRp5453
(dp5454
g61
(dp5455
g88
g89
ssg70
g5444
sg63
(lp5456
S':'
asbag56
(g77
g58
NtRp5457
(dp5458
g61
(dp5459
sg70
g5444
sg63
(lp5460
g56
(g57
g58
NtRp5461
(dp5462
g61
(dp5463
g69
I5
ssg70
g5457
sg63
(lp5464
S'200'
p5465
asbasbasbag56
(g72
g58
NtRp5466
(dp5467
g61
(dp5468
sg70
g3694
sg63
(lp5469
g56
(g77
g58
NtRp5470
(dp5471
g61
(dp5472
g81
g82
ssg70
g5466
sg63
(lp5473
S'subtitle'
p5474
asbag56
(g77
g58
NtRp5475
(dp5476
g61
(dp5477
g88
g89
ssg70
g5466
sg63
(lp5478
S':'
asbag56
(g77
g58
NtRp5479
(dp5480
g61
(dp5481
sg70
g5466
sg63
(lp5482
g56
(g57
g58
NtRp5483
(dp5484
g61
(dp5485
g69
I5
ssg70
g5479
sg63
(lp5486
g4199
(S's\r\x00\x00\x00customize me!'
tRp5487
asbasbasbag56
(g72
g58
NtRp5488
(dp5489
g61
(dp5490
sg70
g3694
sg63
(lp5491
g56
(g77
g58
NtRp5492
(dp5493
g61
(dp5494
g81
g82
ssg70
g5488
sg63
(lp5495
S'title'
p5496
asbag56
(g77
g58
NtRp5497
(dp5498
g61
(dp5499
g88
g89
ssg70
g5488
sg63
(lp5500
S':'
asbag56
(g77
g58
NtRp5501
(dp5502
g61
(dp5503
sg70
g5488
sg63
(lp5504
g56
(g57
g58
NtRp5505
(dp5506
g61
(dp5507
g69
I5
ssg70
g5501
sg63
(lp5508
g121
asbasbasbag56
(g72
g58
NtRp5509
(dp5510
g61
(dp5511
sg70
g3694
sg63
(lp5512
g56
(g77
g58
NtRp5513
(dp5514
g61
(dp5515
g81
g82
ssg70
g5509
sg63
(lp5516
g2637
asbag56
(g77
g58
NtRp5517
(dp5518
g61
(dp5519
g88
g89
ssg70
g5509
sg63
(lp5520
S':'
asbag56
(g77
g58
NtRp5521
(dp5522
g61
(dp5523
sg70
g5509
sg63
(lp5524
g56
(g57
g58
NtRp5525
(dp5526
g61
(dp5527
g69
I5
ssg70
g5521
sg63
(lp5528
g2650
asbasbasbag56
(g72
g58
NtRp5529
(dp5530
g61
(dp5531
sg70
g3694
sg63
(lp5532
g56
(g77
g58
NtRp5533
(dp5534
g61
(dp5535
g81
g82
ssg70
g5529
sg63
(lp5536
S'view'
p5537
asbag56
(g77
g58
NtRp5538
(dp5539
g61
(dp5540
g88
g89
ssg70
g5529
sg63
(lp5541
S':'
asbag56
(g77
g58
NtRp5542
(dp5543
g61
(dp5544
sg70
g5529
sg63
(lp5545
g56
(g57
g58
NtRp5546
(dp5547
g61
(dp5548
g69
I5
ssg70
g5542
sg63
(lp5549
S'default/index.html'
p5550
asbasbasbasbasbsS'locals'
p5551
(dp5552
S'WaveHeight'
p5553
S'0.85'
p5554
sg3559
S"<Storage {'waveHeight': 0.85, 'wavePeriod': 3.0,...eBreakRatio': 0.78, 'waterDepth': 0.78, 'id': 2}>"
p5555
sS'WavePeriod'
p5556
S'3.0'
p5557
sS'subprocess'
p5558
S"<module 'subprocess' from '/usr/lib/python2.7/subprocess.pyc'>"
p5559
sssS'traceback'
p5560
S'Traceback (most recent call last):\n  File "/home/u4hcsdaw/Python/web2py/gluon/restricted.py", line 194, in restricted\n    exec ccode in environment\n  File "/home/u4hcsdaw/Python/web2py/applications/ACES/controllers/default.py", line 85, in <module>\n  File "/home/u4hcsdaw/Python/web2py/gluon/globals.py", line 149, in <lambda>\n    self._caller = lambda f: f()\n  File "/home/u4hcsdaw/Python/web2py/applications/ACES/controllers/default.py", line 28, in index\n    t0=AcesCall(f1.vars)\n  File "/home/u4hcsdaw/Python/web2py/applications/ACES/models/functionsAces.py", line 20, in AcesCall\n    WaveBrk=float(formVars[\'waveBrk\'])\nKeyError: \'waveBrk\'\n'
p5561
s.