(dp1
S'waveheight'
p2
(dp3
S'type'
p4
S'double'
p5
sS'sortable'
p6
I2
sS'sql'
p7
S'DOUBLE'
p8
ssS'waveperiod'
p9
(dp10
g4
g5
sg6
I3
sg7
S'DOUBLE'
p11
ssS'wavebreakratio'
p12
(dp13
g4
g5
sg6
I4
sg7
S'DOUBLE'
p14
ssS'waterdepth'
p15
(dp16
g4
g5
sg6
I5
sg7
S'DOUBLE'
p17
ssS'id'
p18
(dp19
g4
S'id'
p20
sg6
I1
sg7
S'INTEGER PRIMARY KEY AUTOINCREMENT'
p21
ss.