(dp1
S'output'
p2
S"<type 'exceptions.ImportError'> Cannot import module 'applications.aces.modules.helper_functions'"
p3
sS'layer'
p4
S'/home/linux/aces/web2py/applications/aces/controllers/linearwavetheory.py'
p5
sS'code'
p6
S'import helper_functions\nimport math\n# import numpy as np\n# import matplotlib.pyplot as plt\n\n###############################################################################\n## ACES Update to Python\n#-------------------------------------------------------------\n# Driver for Linear Wave Theory (page 2-1 in ACES User\'s Guide)\n# Yields first-order approximations for various wave parameters of wave\n# motion as predicted by linear wave theory\n\n# Updated by: Evan Hataishi\n# Date Created: February 6, 2017\n# Date Verified: --\n\n# Requires the following functions:\n# ERRWAVBRK1\n# WAVELEN\n\n# MAIN VARIABLE LIST:\n#   INPUT\n#   H: wave height (m or ft)\n#   T: wave period (sec)\n#   d: water depth (m or ft)\n#   z: vertical coordinate (m or ft)\n#   xL: horizontal coordinate as fraction of wavelength (x/L)\n\n#   OUTPUT\n#   L: wavelength (m or ft)\n#   C: wave celerity (m/sec or ft/sec)\n#   Cg: group celerity (m/sec or ft/sec)\n#   E: energy density (N-m/m^2 or ft-lb/ft^2)\n#   Ef: energy flux (N-m/sec-m or ft-lb/sec-ft)\n#   Ur: Ursell number\n#   eta: surface elevation (m or ft)\n#   px: horizontal particle displacement (m or ft)\n#   pz: vertical particle displacement (m or ft)\n#   u: horizontal particle velocity (m/sec or ft/sec)\n#   w: vertical particle velocity (m/sec or ft/sec)\n#   dudt: horizontal particle acceleration (m/sec^2 or ft/sec^2)\n#   dwdt: vertical particle accleration (m/sec^2 or ft/sec^2)\n#   pres: pressure (N/m^2 or lb ft^2 )\n###############################################################################\ndef index(): return dict(message="hello from linearwavetest.py")\ndef linearWaveTheory(H, T, d, z, xL, unitSystem):\n    ## *********** Don\'t change anything here ******************\n    twopi = 2 * math.pi\n    nIteration = 50\n    if unitSystem == \'I\': # imperial\n        g = 32.17 # gravitational acceleration (ft/sec^2)\n        rho = 1.989 # rho/g = 63.99/32.17 lb sec^2/ft^4 (sea water)\n    elif unitSystem == \'M\': # metric\n        rho = 1025.09\n        g = 9.81\n\n    L, k = wavelen(d, T, nIteration, g)\n\n    theta =  xL * twopi # theta=(kx-wt) where arbitrarily t=0 and k=2*pi/L\n\n    # Check for monochromatic wave breaking (depth limited - no slope)\n    Hb = errwavbrk1(d, 0.78)\n    if (H >= Hb):\n        print("Error: Input wave broken (Hb = %6.2f m)" % Hb)\n        return\n\n    # Check to make sure vertical coordinate is within waveform\n    eta = (H / 2) * math.cos(theta)\n    if not (z < eta and (z + d) > 0):\n        print("Error: Point outside waveform.")\n        return\n\n    # Main computations\n    arg = (2 * k * d / (math.sinh(2 * k * d)))\n    tot = d + z\n\n    C = L / T\n    Cg = 0.5 * (1 + arg) * C\n    # come back to this - check math when multiplying (1 / 8) * ...\n    E = rho * g * (H**2) / 8\n    Ef = E * Cg\n    Ur = L**2 * H / (d**3)\n    px = (-H / 2) * (math.cosh(k * tot) / math.sinh( k * d)) * math.sin(theta)\n    py = ( H / 2) * (math.sinh(k * tot) / math.sinh(k * d)) * math.cos(theta)\n    u = (H * math.pi / T) * (math.cosh(k * tot) / math.sinh( k * d)) * math.cos(theta)\n    w = (H * math.pi / T) * (math.sinh(k * tot) / math.sinh(k * d)) * math.sin(theta)\n    dudt = (H * 2 * math.pi**2 / (T**2)) * (math.cosh(k * tot) / math.sinh(k * d)) * math.sin(theta)\n    dwdt = (-H * 2 * math.pi**2 / (T**2)) * (math.sinh(k * tot) / math.sinh(k * d)) * math.cos(theta)\n    pres = -rho * g * z + rho * g * (H / 2) * (math.cosh(k * tot) / math.cosh(k * d)) * math.cos(theta)\n    # come back to this!!! supposed to be py rather than pz??\n    pz = 0\n\n    \'\'\' plotting waveform\n    t = np.arange(-1, 1, 0.001)\n    plottheta = t * np.pi * 2\n\n    ploteta = (H / 2) * np.cos(plottheta)\n    plotu = (H * np.pi / T) * (np.cosh(k * tot) / np.sinh(k * d)) * np.cos(plottheta)\n    plotw = (H * np.pi / T) * (np.sinh(k * tot) / np.sinh(k * d)) * np.sin(plottheta)\n\n    plt.subplot(3, 1, 1)\n    plt.plot(t, ploteta, lw=2)\n    plt.ylabel(\'Elevation [m]\')\n    plt.ylim(-4, 4)\n    plt.axhline(color = \'r\', linestyle = \'--\')\n\n    # subplot\n    plt.subplot(3, 1, 2)\n    plt.plot(t, plotu, lw=2)\n    plt.axhline(color = \'r\', linestyle = \'--\')\n    plt.ylabel(\'Velocity, u [m/s]\')\n    plt.ylim(-2, 2)\n\n    # subplot\n    plt.subplot(3, 1, 3)\n    plt.plot(t, plotw, lw=2)\n    plt.axhline(color = \'r\', linestyle = \'--\')\n    plt.ylabel(\'Velocity, w [m/s]\')\n    plt.ylim(-1, 1)\n\n    plt.tight_layout(pad=0.4)\n\n    plt.show() \'\'\'\n\n    return H, T, d, z, xL, L, C, Cg, E, Ef, Ur, eta, px, py, pz, u, w, dudt, dwdt, pres\n\nclass LinearWaveTheoryOutput:\n    # Default INPUT\n    H = 6.30\n    T = 8\n    d = 20.0\n    z = -12.0\n    xL = 0.75\n\n    # OUTPUT\n    L = 0\n    C = 0\n    Cg = 0\n    E = 0\n    Ef = 0\n    Ur = 0\n    eta = 0\n    px = 0\n    # missing py from matlab documentation\n    py = 0\n    pz = 0\n    u = 0\n    w = 0\n    dudt = 0\n    dwdt = 0\n    pres = 0\n\n    def __init__(self): pass\n\n    def toString(self):\n        print("\\t\\t\\t\\t\\t %s \\n" % ("Units"))\n        print("%s \\t\\t %-6.2f \\t %s \\n" % ("Wavelength", self.L, "m"))\n        print("%s \\t\\t %-6.2f \\t %s \\n" % ("Celerity", self.C, "m/s"))\n        print("%s \\t\\t %-6.2f \\t %s \\n" % ("Group speed", self.Cg, "m/s"))\n        print("%s \\t\\t %-8.2f \\t %s \\n" % ("Energy density", self.E, "N-m/m^2"))\n        print("%s \\t\\t %-8.2f \\t %s \\n" % ("Energy flux", self.Ef, "N-m/m-s"))\n        print("%s \\t\\t %-6.2f \\n" % ("Ursell number", self.Ur))\n        print("%s \\t\\t %-6.2f \\t %s \\n" % ("Elevation", self.eta, "m"))\n        print("%s \\t %-6.2f \\t %s \\n" % ("Horz. displacement", self.px, "m"))\n        print("%s \\t %-6.2f \\t %s \\n" % ("Vert. displacement", self.py, "m"))\n        print("%s \\t\\t %-6.2f \\t %s \\n" % ("Horz. velocity", self.u, "m/s"))\n        print("%s \\t\\t %-6.2f \\t %s \\n" % ("Vert. velocity", self.w,"m/s"))\n        print("%s \\t %-6.2f \\t %s \\n" % ("Horz. acceleration", self.dudt, "m/s^2"))\n        print("%s \\t %-6.2f \\t %s \\n" % ("Vert. acceleration", self.dwdt, "m/s^2"))\n        print("%s \\t\\t %-8.2f \\t %s \\n" % ("Pressure", self.pres, "N/m^2"))\n\nresponse._vars=response._caller(index)\n'
p7
sS'snapshot'
p8
(dp9
S'exception'
p10
(dp11
S'__hash__'
p12
S"<method-wrapper '__hash__' of exceptions.ImportError object>"
p13
sS'__setattr__'
p14
S"<method-wrapper '__setattr__' of exceptions.ImportError object>"
p15
sS'__reduce_ex__'
p16
S'<built-in method __reduce_ex__ of exceptions.ImportError object>'
p17
sS'__getslice__'
p18
S"<method-wrapper '__getslice__' of exceptions.ImportError object>"
p19
sS'__getitem__'
p20
S"<method-wrapper '__getitem__' of exceptions.ImportError object>"
p21
sS'__setstate__'
p22
S'<built-in method __setstate__ of exceptions.ImportError object>'
p23
sS'args'
p24
S'("Cannot import module \'applications.aces.modules.helper_functions\'",)'
p25
sS'__reduce__'
p26
S'<built-in method __reduce__ of exceptions.ImportError object>'
p27
sS'__str__'
p28
S"<method-wrapper '__str__' of exceptions.ImportError object>"
p29
sS'__format__'
p30
S'<built-in method __format__ of exceptions.ImportError object>'
p31
sS'__getattribute__'
p32
S"<method-wrapper '__getattribute__' of exceptions.ImportError object>"
p33
sS'__class__'
p34
S"<type 'exceptions.ImportError'>"
p35
sS'__unicode__'
p36
S'<built-in method __unicode__ of exceptions.ImportError object>'
p37
sS'__delattr__'
p38
S"<method-wrapper '__delattr__' of exceptions.ImportError object>"
p39
sS'__subclasshook__'
p40
S'<built-in method __subclasshook__ of type object>'
p41
sS'__repr__'
p42
S"<method-wrapper '__repr__' of exceptions.ImportError object>"
p43
sS'__dict__'
p44
S'{}'
p45
sS'__sizeof__'
p46
S'<built-in method __sizeof__ of exceptions.ImportError object>'
p47
sS'__doc__'
p48
S'"Import can\'t find module, or can\'t find name in module."'
p49
sS'__init__'
p50
S"<method-wrapper '__init__' of exceptions.ImportError object>"
p51
sS'__new__'
p52
S'<built-in method __new__ of type object>'
p53
ssS'evalue'
p54
S"Cannot import module 'applications.aces.modules.helper_functions'"
p55
sS'request'
p56
cgluon.html
XML_unpickle
p57
(S's\xa2Z\x00\x00<div><table><tr><td style="font-weight:bold;vertical-align:top;">ajax</td><td style="vertical-align:top;">:</td><td><div>False</div></td></tr><tr><td style="font-weight:bold;vertical-align:top;">application</td><td style="vertical-align:top;">:</td><td><div>aces</div></td></tr><tr><td style="font-weight:bold;vertical-align:top;">args</td><td style="vertical-align:top;">:</td><td><div><table></table></div></td></tr><tr><td style="font-weight:bold;vertical-align:top;">cid</td><td style="vertical-align:top;">:</td><td><div>None</div></td></tr><tr><td style="font-weight:bold;vertical-align:top;">client</td><td style="vertical-align:top;">:</td><td><div>127.0.0.1</div></td></tr><tr><td style="font-weight:bold;vertical-align:top;">controller</td><td style="vertical-align:top;">:</td><td><div>linearwavetheory</div></td></tr><tr><td style="font-weight:bold;vertical-align:top;">cookies</td><td style="vertical-align:top;">:</td><td><div><table><tr><td style="font-weight:bold;vertical-align:top;">session_id_aces</td><td style="vertical-align:top;">:</td><td><div>127.0.0.1-110b71fd-873d-4761-bd5a-3249f35cd4d7<table><tr><td style="font-weight:bold;vertical-align:top;">comment</td><td style="vertical-align:top;">:</td><td><div></div></td></tr><tr><td style="font-weight:bold;vertical-align:top;">domain</td><td style="vertical-align:top;">:</td><td><div></div></td></tr><tr><td style="font-weight:bold;vertical-align:top;">expires</td><td style="vertical-align:top;">:</td><td><div></div></td></tr><tr><td style="font-weight:bold;vertical-align:top;">httponly</td><td style="vertical-align:top;">:</td><td><div></div></td></tr><tr><td style="font-weight:bold;vertical-align:top;">max-age</td><td style="vertical-align:top;">:</td><td><div></div></td></tr><tr><td style="font-weight:bold;vertical-align:top;">path</td><td style="vertical-align:top;">:</td><td><div></div></td></tr><tr><td style="font-weight:bold;vertical-align:top;">secure</td><td style="vertical-align:top;">:</td><td><div></div></td></tr><tr><td style="font-weight:bold;vertical-align:top;">version</td><td style="vertical-align:top;">:</td><td><div></div></td></tr></table></div></td></tr><tr><td style="font-weight:bold;vertical-align:top;">session_id_admin</td><td style="vertical-align:top;">:</td><td><div>127.0.0.1-8182f3a5-cb9c-4736-9627-1fb3cfc39596<table><tr><td style="font-weight:bold;vertical-align:top;">comment</td><td style="vertical-align:top;">:</td><td><div></div></td></tr><tr><td style="font-weight:bold;vertical-align:top;">domain</td><td style="vertical-align:top;">:</td><td><div></div></td></tr><tr><td style="font-weight:bold;vertical-align:top;">expires</td><td style="vertical-align:top;">:</td><td><div></div></td></tr><tr><td style="font-weight:bold;vertical-align:top;">httponly</td><td style="vertical-align:top;">:</td><td><div></div></td></tr><tr><td style="font-weight:bold;vertical-align:top;">max-age</td><td style="vertical-align:top;">:</td><td><div></div></td></tr><tr><td style="font-weight:bold;vertical-align:top;">path</td><td style="vertical-align:top;">:</td><td><div></div></td></tr><tr><td style="font-weight:bold;vertical-align:top;">secure</td><td style="vertical-align:top;">:</td><td><div></div></td></tr><tr><td style="font-weight:bold;vertical-align:top;">version</td><td style="vertical-align:top;">:</td><td><div></div></td></tr></table></div></td></tr><tr><td style="font-weight:bold;vertical-align:top;">session_id_welcome</td><td style="vertical-align:top;">:</td><td><div>127.0.0.1-3f9b0409-53d3-44d8-884f-b1ab3df8ff15<table><tr><td style="font-weight:bold;vertical-align:top;">comment</td><td style="vertical-align:top;">:</td><td><div></div></td></tr><tr><td style="font-weight:bold;vertical-align:top;">domain</td><td style="vertical-align:top;">:</td><td><div></div></td></tr><tr><td style="font-weight:bold;vertical-align:top;">expires</td><td style="vertical-align:top;">:</td><td><div></div></td></tr><tr><td style="font-weight:bold;vertical-align:top;">httponly</td><td style="vertical-align:top;">:</td><td><div></div></td></tr><tr><td style="font-weight:bold;vertical-align:top;">max-age</td><td style="vertical-align:top;">:</td><td><div></div></td></tr><tr><td style="font-weight:bold;vertical-align:top;">path</td><td style="vertical-align:top;">:</td><td><div></div></td></tr><tr><td style="font-weight:bold;vertical-align:top;">secure</td><td style="vertical-align:top;">:</td><td><div></div></td></tr><tr><td style="font-weight:bold;vertical-align:top;">version</td><td style="vertical-align:top;">:</td><td><div></div></td></tr></table></div></td></tr></table></div></td></tr><tr><td style="font-weight:bold;vertical-align:top;">env</td><td style="vertical-align:top;">:</td><td><div><table><tr><td style="font-weight:bold;vertical-align:top;">HTTP_ACCEPT</td><td style="vertical-align:top;">:</td><td><div>text/html,application/xhtml+xml,application/xml;q=0.9,*/*;q=0.8</div></td></tr><tr><td style="font-weight:bold;vertical-align:top;">HTTP_ACCEPT_ENCODING</td><td style="vertical-align:top;">:</td><td><div>gzip, deflate</div></td></tr><tr><td style="font-weight:bold;vertical-align:top;">HTTP_ACCEPT_LANGUAGE</td><td style="vertical-align:top;">:</td><td><div>en-US,en;q=0.5</div></td></tr><tr><td style="font-weight:bold;vertical-align:top;">HTTP_CACHE_CONTROL</td><td style="vertical-align:top;">:</td><td><div>max-age=0</div></td></tr><tr><td style="font-weight:bold;vertical-align:top;">HTTP_CONNECTION</td><td style="vertical-align:top;">:</td><td><div>keep-alive</div></td></tr><tr><td style="font-weight:bold;vertical-align:top;">HTTP_COOKIE</td><td style="vertical-align:top;">:</td><td><div>session_id_welcome=127.0.0.1-3f9b0409-53d3-44d8-884f-b1ab3df8ff15; session_id_aces=127.0.0.1-110b71fd-873d-4761-bd5a-3249f35cd4d7; session_id_admin=127.0.0.1-8182f3a5-cb9c-4736-9627-1fb3cfc39596</div></td></tr><tr><td style="font-weight:bold;vertical-align:top;">HTTP_DNT</td><td style="vertical-align:top;">:</td><td><div>1</div></td></tr><tr><td style="font-weight:bold;vertical-align:top;">HTTP_HOST</td><td style="vertical-align:top;">:</td><td><div>127.0.0.1:8000</div></td></tr><tr><td style="font-weight:bold;vertical-align:top;">HTTP_USER_AGENT</td><td style="vertical-align:top;">:</td><td><div>Mozilla/5.0 (X11; Linux x86_64; rv:45.0) Gecko/20100101 Firefox/45.0</div></td></tr><tr><td style="font-weight:bold;vertical-align:top;">PATH_INFO</td><td style="vertical-align:top;">:</td><td><div>/aces/linearwavetheory</div></td></tr><tr><td style="font-weight:bold;vertical-align:top;">QUERY_STRING</td><td style="vertical-align:top;">:</td><td><div></div></td></tr><tr><td style="font-weight:bold;vertical-align:top;">REMOTE_ADDR</td><td style="vertical-align:top;">:</td><td><div>127.0.0.1</div></td></tr><tr><td style="font-weight:bold;vertical-align:top;">REMOTE_PORT</td><td style="vertical-align:top;">:</td><td><div>53980</div></td></tr><tr><td style="font-weight:bold;vertical-align:top;">REQUEST_METHOD</td><td style="vertical-align:top;">:</td><td><div>GET</div></td></tr><tr><td style="font-weight:bold;vertical-align:top;">SCRIPT_NAME</td><td style="vertical-align:top;">:</td><td><div></div></td></tr><tr><td style="font-weight:bold;vertical-align:top;">SERVER_NAME</td><td style="vertical-align:top;">:</td><td><div>X201</div></td></tr><tr><td style="font-weight:bold;vertical-align:top;">SERVER_PORT</td><td style="vertical-align:top;">:</td><td><div>8000</div></td></tr><tr><td style="font-weight:bold;vertical-align:top;">SERVER_PROTOCOL</td><td style="vertical-align:top;">:</td><td><div>HTTP/1.1</div></td></tr><tr><td style="font-weight:bold;vertical-align:top;">SERVER_SOFTWARE</td><td style="vertical-align:top;">:</td><td><div>Rocket 1.2.6</div></td></tr><tr><td style="font-weight:bold;vertical-align:top;">app_folders</td><td style="vertical-align:top;">:</td><td><div>set([&#x27;/home/linux/aces/web2py/applications/admin/&#x27;, &#x27;/home/linux/aces/web2py/applications/welcome/&#x27;, &#x27;/home/linux/aces/web2py/applications/aces/&#x27;])</div></td></tr><tr><td style="font-weight:bold;vertical-align:top;">applications_parent</td><td style="vertical-align:top;">:</td><td><div>/home/linux/aces/web2py</div></td></tr><tr><td style="font-weight:bold;vertical-align:top;">cmd_args</td><td style="vertical-align:top;">:</td><td><div><table></table></div></td></tr><tr><td style="font-weight:bold;vertical-align:top;">cmd_options</td><td style="vertical-align:top;">:</td><td><div>&lt;Values at 0x7fae7d03f8c0: {&#x27;verbose&#x27;: False, &#x27;ip&#x27;: &#x27;127.0.0.1&#x27;, &#x27;debuglevel&#x27;: 30, &#x27;with_scheduler&#x27;: False, &#x27;shutdown_timeout&#x27;: 5, &#x27;taskbar&#x27;: False, &#x27;with_coverage&#x27;: False, &#x27;pid_filename&#x27;: &#x27;httpserver.pid&#x27;, &#x27;maxthreads&#x27;: None, &#x27;softcron&#x27;: False, &#x27;server_name&#x27;: &#x27;X201&#x27;, &#x27;bpython&#x27;: False, &#x27;nogui&#x27;: False, &#x27;port&#x27;: 8000, &#x27;print_errors&#x27;: False, &#x27;extcron&#x27;: False, &#x27;runcron&#x27;: False, &#x27;run_system_tests&#x27;: False, &#x27;test&#x27;: None, &#x27;folder&#x27;: &#x27;/home/linux/aces/web2py&#x27;, &#x27;config&#x27;: &#x27;&#x27;, &#x27;minthreads&#x27;: None, &#x27;shell&#x27;: None, &#x27;run&#x27;: &#x27;&#x27;, &#x27;log_filename&#x27;: &#x27;httpserver.log&#x27;, &#x27;profiler_dir&#x27;: None, &#x27;args&#x27;: [&#x27;&#x27;], &#x27;socket_timeout&#x27;: 5, &#x27;ssl_ca_certificate&#x27;: None, &#x27;scheduler&#x27;: None, &#x27;interfaces&#x27;: None, &#x27;ssl_private_key&#x27;: &#x27;&#x27;, &#x27;gae&#x27;: None, &#x27;password&#x27;: &#x27;******&#x27;, &#x27;request_queue_size&#x27;: 5, &#x27;ssl_certificate&#x27;: &#x27;&#x27;, &#x27;cronjob&#x27;: False, &#x27;numthreads&#x27;: None, &#x27;quiet&#x27;: False, &#x27;import_models&#x27;: False, &#x27;timeout&#x27;: 10, &#x27;plain&#x27;: False, &#x27;nobanner&#x27;: False}&gt;</div></td></tr><tr><td style="font-weight:bold;vertical-align:top;">db_sessions</td><td style="vertical-align:top;">:</td><td><div>set([])</div></td></tr><tr><td style="font-weight:bold;vertical-align:top;">debugging</td><td style="vertical-align:top;">:</td><td><div>True</div></td></tr><tr><td style="font-weight:bold;vertical-align:top;">gluon_parent</td><td style="vertical-align:top;">:</td><td><div>/home/linux/aces/web2py</div></td></tr><tr><td style="font-weight:bold;vertical-align:top;">http_accept</td><td style="vertical-align:top;">:</td><td><div>text/html,application/xhtml+xml,application/xml;q=0.9,*/*;q=0.8</div></td></tr><tr><td style="font-weight:bold;vertical-align:top;">http_accept_encoding</td><td style="vertical-align:top;">:</td><td><div>gzip, deflate</div></td></tr><tr><td style="font-weight:bold;vertical-align:top;">http_accept_language</td><td style="vertical-align:top;">:</td><td><div>en-US,en;q=0.5</div></td></tr><tr><td style="font-weight:bold;vertical-align:top;">http_cache_control</td><td style="vertical-align:top;">:</td><td><div>max-age=0</div></td></tr><tr><td style="font-weight:bold;vertical-align:top;">http_connection</td><td style="vertical-align:top;">:</td><td><div>keep-alive</div></td></tr><tr><td style="font-weight:bold;vertical-align:top;">http_cookie</td><td style="vertical-align:top;">:</td><td><div>session_id_welcome=127.0.0.1-3f9b0409-53d3-44d8-884f-b1ab3df8ff15; session_id_aces=127.0.0.1-110b71fd-873d-4761-bd5a-3249f35cd4d7; session_id_admin=127.0.0.1-8182f3a5-cb9c-4736-9627-1fb3cfc39596</div></td></tr><tr><td style="font-weight:bold;vertical-align:top;">http_dnt</td><td style="vertical-align:top;">:</td><td><div>1</div></td></tr><tr><td style="font-weight:bold;vertical-align:top;">http_host</td><td style="vertical-align:top;">:</td><td><div>127.0.0.1:8000</div></td></tr><tr><td style="font-weight:bold;vertical-align:top;">http_user_agent</td><td style="vertical-align:top;">:</td><td><div>Mozilla/5.0 (X11; Linux x86_64; rv:45.0) Gecko/20100101 Firefox/45.0</div></td></tr><tr><td style="font-weight:bold;vertical-align:top;">is_jython</td><td style="vertical-align:top;">:</td><td><div>False</div></td></tr><tr><td style="font-weight:bold;vertical-align:top;">is_pypy</td><td style="vertical-align:top;">:</td><td><div>False</div></td></tr><tr><td style="font-weight:bold;vertical-align:top;">is_source</td><td style="vertical-align:top;">:</td><td><div>True</div></td></tr><tr><td style="font-weight:bold;vertical-align:top;">local_hosts</td><td style="vertical-align:top;">:</td><td><div><table><tr><td><div>::ffff:127.0.0.1</div></td></tr><tr><td><div>::1</div></td></tr><tr><td><div>X201</div></td></tr><tr><td><div>X201.gateway.thinkpad.net</div></td></tr><tr><td><div>127.0.1.1</div></td></tr><tr><td><div>127.0.0.1</div></td></tr></table></div></td></tr><tr><td style="font-weight:bold;vertical-align:top;">path_info</td><td style="vertical-align:top;">:</td><td><div>/aces/linearwavetheory</div></td></tr><tr><td style="font-weight:bold;vertical-align:top;">query_string</td><td style="vertical-align:top;">:</td><td><div></div></td></tr><tr><td style="font-weight:bold;vertical-align:top;">remote_addr</td><td style="vertical-align:top;">:</td><td><div>127.0.0.1</div></td></tr><tr><td style="font-weight:bold;vertical-align:top;">remote_port</td><td style="vertical-align:top;">:</td><td><div>53980</div></td></tr><tr><td style="font-weight:bold;vertical-align:top;">request_method</td><td style="vertical-align:top;">:</td><td><div>GET</div></td></tr><tr><td style="font-weight:bold;vertical-align:top;">request_uri</td><td style="vertical-align:top;">:</td><td><div>/aces/linearwavetheory</div></td></tr><tr><td style="font-weight:bold;vertical-align:top;">script_name</td><td style="vertical-align:top;">:</td><td><div></div></td></tr><tr><td style="font-weight:bold;vertical-align:top;">server_name</td><td style="vertical-align:top;">:</td><td><div>X201</div></td></tr><tr><td style="font-weight:bold;vertical-align:top;">server_port</td><td style="vertical-align:top;">:</td><td><div>8000</div></td></tr><tr><td style="font-weight:bold;vertical-align:top;">server_protocol</td><td style="vertical-align:top;">:</td><td><div>HTTP/1.1</div></td></tr><tr><td style="font-weight:bold;vertical-align:top;">server_software</td><td style="vertical-align:top;">:</td><td><div>Rocket 1.2.6</div></td></tr><tr><td style="font-weight:bold;vertical-align:top;">web2py_path</td><td style="vertical-align:top;">:</td><td><div>/home/linux/aces/web2py</div></td></tr><tr><td style="font-weight:bold;vertical-align:top;">web2py_version</td><td style="vertical-align:top;">:</td><td><div>2.14.6-stable+timestamp.2016.05.10.00.21.47</div></td></tr><tr><td style="font-weight:bold;vertical-align:top;">wsgi.errors</td><td style="vertical-align:top;">:</td><td><div>&lt;open file &#x27;&lt;stderr&gt;&#x27;, mode &#x27;w&#x27; at 0x7fae83ecf1e0&gt;</div></td></tr><tr><td style="font-weight:bold;vertical-align:top;">wsgi.file_wrapper</td><td style="vertical-align:top;">:</td><td><div>&lt;class wsgiref.util.FileWrapper at 0x7fae7d0daa78&gt;</div></td></tr><tr><td style="font-weight:bold;vertical-align:top;">wsgi.input</td><td style="vertical-align:top;">:</td><td><div>&lt;socket._fileobject object at 0x7fae3f525850&gt;</div></td></tr><tr><td style="font-weight:bold;vertical-align:top;">wsgi.multiprocess</td><td style="vertical-align:top;">:</td><td><div>False</div></td></tr><tr><td style="font-weight:bold;vertical-align:top;">wsgi.multithread</td><td style="vertical-align:top;">:</td><td><div>True</div></td></tr><tr><td style="font-weight:bold;vertical-align:top;">wsgi.run_once</td><td style="vertical-align:top;">:</td><td><div>False</div></td></tr><tr><td style="font-weight:bold;vertical-align:top;">wsgi.url_scheme</td><td style="vertical-align:top;">:</td><td><div>http</div></td></tr><tr><td style="font-weight:bold;vertical-align:top;">wsgi.version</td><td style="vertical-align:top;">:</td><td><div><table><tr><td><div>1</div></td></tr><tr><td><div>0</div></td></tr></table></div></td></tr><tr><td style="font-weight:bold;vertical-align:top;">wsgi_errors</td><td style="vertical-align:top;">:</td><td><div>&lt;open file &#x27;&lt;stderr&gt;&#x27;, mode &#x27;w&#x27; at 0x7fae83ecf1e0&gt;</div></td></tr><tr><td style="font-weight:bold;vertical-align:top;">wsgi_file_wrapper</td><td style="vertical-align:top;">:</td><td><div>&lt;class wsgiref.util.FileWrapper at 0x7fae7d0daa78&gt;</div></td></tr><tr><td style="font-weight:bold;vertical-align:top;">wsgi_input</td><td style="vertical-align:top;">:</td><td><div>&lt;socket._fileobject object at 0x7fae3f525850&gt;</div></td></tr><tr><td style="font-weight:bold;vertical-align:top;">wsgi_multiprocess</td><td style="vertical-align:top;">:</td><td><div>False</div></td></tr><tr><td style="font-weight:bold;vertical-align:top;">wsgi_multithread</td><td style="vertical-align:top;">:</td><td><div>True</div></td></tr><tr><td style="font-weight:bold;vertical-align:top;">wsgi_run_once</td><td style="vertical-align:top;">:</td><td><div>False</div></td></tr><tr><td style="font-weight:bold;vertical-align:top;">wsgi_url_scheme</td><td style="vertical-align:top;">:</td><td><div>http</div></td></tr><tr><td style="font-weight:bold;vertical-align:top;">wsgi_version</td><td style="vertical-align:top;">:</td><td><div><table><tr><td><div>1</div></td></tr><tr><td><div>0</div></td></tr></table></div></td></tr></table></div></td></tr><tr><td style="font-weight:bold;vertical-align:top;">extension</td><td style="vertical-align:top;">:</td><td><div>html</div></td></tr><tr><td style="font-weight:bold;vertical-align:top;">folder</td><td style="vertical-align:top;">:</td><td><div>/home/linux/aces/web2py/applications/aces/</div></td></tr><tr><td style="font-weight:bold;vertical-align:top;">function</td><td style="vertical-align:top;">:</td><td><div>index</div></td></tr><tr><td style="font-weight:bold;vertical-align:top;">global_settings</td><td style="vertical-align:top;">:</td><td><div><table><tr><td style="font-weight:bold;vertical-align:top;">app_folders</td><td style="vertical-align:top;">:</td><td><div>set([&#x27;/home/linux/aces/web2py/applications/admin/&#x27;, &#x27;/home/linux/aces/web2py/applications/welcome/&#x27;, &#x27;/home/linux/aces/web2py/applications/aces/&#x27;])</div></td></tr><tr><td style="font-weight:bold;vertical-align:top;">applications_parent</td><td style="vertical-align:top;">:</td><td><div>/home/linux/aces/web2py</div></td></tr><tr><td style="font-weight:bold;vertical-align:top;">cmd_args</td><td style="vertical-align:top;">:</td><td><div><table></table></div></td></tr><tr><td style="font-weight:bold;vertical-align:top;">cmd_options</td><td style="vertical-align:top;">:</td><td><div>&lt;Values at 0x7fae7d03f8c0: {&#x27;verbose&#x27;: False, &#x27;ip&#x27;: &#x27;127.0.0.1&#x27;, &#x27;debuglevel&#x27;: 30, &#x27;with_scheduler&#x27;: False, &#x27;shutdown_timeout&#x27;: 5, &#x27;taskbar&#x27;: False, &#x27;with_coverage&#x27;: False, &#x27;pid_filename&#x27;: &#x27;httpserver.pid&#x27;, &#x27;maxthreads&#x27;: None, &#x27;softcron&#x27;: False, &#x27;server_name&#x27;: &#x27;X201&#x27;, &#x27;bpython&#x27;: False, &#x27;nogui&#x27;: False, &#x27;port&#x27;: 8000, &#x27;print_errors&#x27;: False, &#x27;extcron&#x27;: False, &#x27;runcron&#x27;: False, &#x27;run_system_tests&#x27;: False, &#x27;test&#x27;: None, &#x27;folder&#x27;: &#x27;/home/linux/aces/web2py&#x27;, &#x27;config&#x27;: &#x27;&#x27;, &#x27;minthreads&#x27;: None, &#x27;shell&#x27;: None, &#x27;run&#x27;: &#x27;&#x27;, &#x27;log_filename&#x27;: &#x27;httpserver.log&#x27;, &#x27;profiler_dir&#x27;: None, &#x27;args&#x27;: [&#x27;&#x27;], &#x27;socket_timeout&#x27;: 5, &#x27;ssl_ca_certificate&#x27;: None, &#x27;scheduler&#x27;: None, &#x27;interfaces&#x27;: None, &#x27;ssl_private_key&#x27;: &#x27;&#x27;, &#x27;gae&#x27;: None, &#x27;password&#x27;: &#x27;******&#x27;, &#x27;request_queue_size&#x27;: 5, &#x27;ssl_certificate&#x27;: &#x27;&#x27;, &#x27;cronjob&#x27;: False, &#x27;numthreads&#x27;: None, &#x27;quiet&#x27;: False, &#x27;import_models&#x27;: False, &#x27;timeout&#x27;: 10, &#x27;plain&#x27;: False, &#x27;nobanner&#x27;: False}&gt;</div></td></tr><tr><td style="font-weight:bold;vertical-align:top;">db_sessions</td><td style="vertical-align:top;">:</td><td><div>set([])</div></td></tr><tr><td style="font-weight:bold;vertical-align:top;">debugging</td><td style="vertical-align:top;">:</td><td><div>True</div></td></tr><tr><td style="font-weight:bold;vertical-align:top;">gluon_parent</td><td style="vertical-align:top;">:</td><td><div>/home/linux/aces/web2py</div></td></tr><tr><td style="font-weight:bold;vertical-align:top;">is_jython</td><td style="vertical-align:top;">:</td><td><div>False</div></td></tr><tr><td style="font-weight:bold;vertical-align:top;">is_pypy</td><td style="vertical-align:top;">:</td><td><div>False</div></td></tr><tr><td style="font-weight:bold;vertical-align:top;">is_source</td><td style="vertical-align:top;">:</td><td><div>True</div></td></tr><tr><td style="font-weight:bold;vertical-align:top;">local_hosts</td><td style="vertical-align:top;">:</td><td><div><table><tr><td><div>::ffff:127.0.0.1</div></td></tr><tr><td><div>::1</div></td></tr><tr><td><div>X201</div></td></tr><tr><td><div>X201.gateway.thinkpad.net</div></td></tr><tr><td><div>127.0.1.1</div></td></tr><tr><td><div>127.0.0.1</div></td></tr></table></div></td></tr><tr><td style="font-weight:bold;vertical-align:top;">web2py_version</td><td style="vertical-align:top;">:</td><td><div>2.14.6-stable+timestamp.2016.05.10.00.21.47</div></td></tr></table></div></td></tr><tr><td style="font-weight:bold;vertical-align:top;">is_https</td><td style="vertical-align:top;">:</td><td><div>False</div></td></tr><tr><td style="font-weight:bold;vertical-align:top;">is_local</td><td style="vertical-align:top;">:</td><td><div>True</div></td></tr><tr><td style="font-weight:bold;vertical-align:top;">is_restful</td><td style="vertical-align:top;">:</td><td><div>False</div></td></tr><tr><td style="font-weight:bold;vertical-align:top;">is_scheduler</td><td style="vertical-align:top;">:</td><td><div>False</div></td></tr><tr><td style="font-weight:bold;vertical-align:top;">is_shell</td><td style="vertical-align:top;">:</td><td><div>False</div></td></tr><tr><td style="font-weight:bold;vertical-align:top;">now</td><td style="vertical-align:top;">:</td><td><div>datetime.datetime(2017, 2, 26, 19, 1, 57, 864399)</div></td></tr><tr><td style="font-weight:bold;vertical-align:top;">raw_args</td><td style="vertical-align:top;">:</td><td><div></div></td></tr><tr><td style="font-weight:bold;vertical-align:top;">raw_extension</td><td style="vertical-align:top;">:</td><td><div>None</div></td></tr><tr><td style="font-weight:bold;vertical-align:top;">url</td><td style="vertical-align:top;">:</td><td><div>/aces/linearwavetheory</div></td></tr><tr><td style="font-weight:bold;vertical-align:top;">utcnow</td><td style="vertical-align:top;">:</td><td><div>datetime.datetime(2017, 2, 27, 5, 1, 57, 864455)</div></td></tr><tr><td style="font-weight:bold;vertical-align:top;">wsgi</td><td style="vertical-align:top;">:</td><td><div>&lt;gluon.main.LazyWSGI object at 0x7fae3f2a6a90&gt;</div></td></tr></table></div>'
tRp58
sS'frames'
p59
(lp60
(dp61
S'file'
p62
S'/home/linux/aces/web2py/gluon/restricted.py'
p63
sS'dump'
p64
(dp65
S'environment'
p66
S"{'A': <class 'gluon.html.A'>, 'ANY_OF': <class 'gluon.validators.ANY_OF'>, 'ASSIGNJS': <function ASSIGNJS>, 'AppConfig': <function AppConfig>, 'Auth': <class 'gluon.tools.Auth'>, 'B': <class 'gluon.html.B'>, 'BEAUTIFY': <class 'gluon.html.BEAUTIFY'>, 'BODY': <class 'gluon.html.BODY'>, 'BR': <class 'gluon.html.BR'>, 'BUTTON': <class 'gluon.html.BUTTON'>, ...}"
p67
sS'ccode'
p68
S'<code object <module> at 0x7fae3f57d830, file "/...ns/aces/controllers/linearwavetheory.py", line 1>'
p69
ssS'lnum'
p70
I227
sS'lines'
p71
(dp72
I224
S'            ccode = code'
p73
sI225
S'        else:'
p74
sI226
S'            ccode = compile2(code, layer)'
p75
sI227
S'        exec ccode in environment'
p76
sI228
S'    except HTTP:'
p77
sI229
S'        raise'
p78
sI230
S'    except RestrictedError:'
p79
sI231
S'        # do not encapsulate (obfuscate) the original RestrictedError'
p80
sI222
S'    try:'
p81
sI223
S'        if isinstance(code, types.CodeType):'
p82
ssS'call'
p83
S'(code=\'import helper_functions\\nimport math\\n# import num...N/m^2"))\\n\\nresponse._vars=response._caller(index)\\n\', environment={\'A\': <class \'gluon.html.A\'>, \'ANY_OF\': <class \'gluon.validators.ANY_OF\'>, \'ASSIGNJS\': <function ASSIGNJS>, \'AppConfig\': <function AppConfig>, \'Auth\': <class \'gluon.tools.Auth\'>, \'B\': <class \'gluon.html.B\'>, \'BEAUTIFY\': <class \'gluon.html.BEAUTIFY\'>, \'BODY\': <class \'gluon.html.BODY\'>, \'BR\': <class \'gluon.html.BR\'>, \'BUTTON\': <class \'gluon.html.BUTTON\'>, ...}, layer=\'/home/linux/aces/web2py/applications/aces/controllers/linearwavetheory.py\')'
p84
sS'func'
p85
S'restricted'
p86
sa(dp87
g62
S'/home/linux/aces/web2py/applications/aces/controllers/linearwavetheory.py'
p88
sg64
(dp89
S'helper_functions'
p90
S'undefined'
p91
ssg70
I1
sg71
(dp92
I2
S'import math'
p93
sI3
S'# import numpy as np'
p94
sI4
S'# import matplotlib.pyplot as plt'
p95
sI5
S''
sI6
S'###############################################################################'
p96
sI7
S'## ACES Update to Python'
p97
sI8
S'#-------------------------------------------------------------'
p98
sI9
S"# Driver for Linear Wave Theory (page 2-1 in ACES User's Guide)"
p99
sI10
S'# Yields first-order approximations for various wave parameters of wave'
p100
sI11
S'# motion as predicted by linear wave theory'
p101
ssg83
S'()'
p102
sg85
S'<module>'
p103
sa(dp104
g62
S'/home/linux/aces/web2py/gluon/custom_import.py'
p105
sg64
(dp106
S'builtinstr'
p107
S"<type 'str'>"
p108
sS'builtinImportError'
p109
S"<type 'exceptions.ImportError'>"
p110
sS'e'
S"KeyError('applications.aces.modules.helper_functions',)"
p111
ssg70
I89
sg71
(dp112
I84
S'                        new_mod = base_importer('
p113
sI85
S'                            modules_prefix, globals, locals, [itemname], level)'
p114
sI86
S'                        try:'
p115
sI87
S"                            result = result or sys.modules[modules_prefix+'.'+itemname]"
p116
sI88
S'                        except KeyError, e:'
p117
sI89
S"                            raise ImportError, 'Cannot import module %s' % str(e)"
p118
sI90
S'                        modules_prefix += "." + itemname'
p119
sI91
S'                    return result'
p120
sI92
S'                else:'
p121
sI93
S'                    # import like "from x import a, b, ..."'
p122
ssg83
S"(name='helper_functions', globals={'A': <class 'gluon.html.A'>, 'ANY_OF': <class 'gluon.validators.ANY_OF'>, 'ASSIGNJS': <function ASSIGNJS>, 'AppConfig': <function AppConfig>, 'Auth': <class 'gluon.tools.Auth'>, 'B': <class 'gluon.html.B'>, 'BEAUTIFY': <class 'gluon.html.BEAUTIFY'>, 'BODY': <class 'gluon.html.BODY'>, 'BR': <class 'gluon.html.BR'>, 'BUTTON': <class 'gluon.html.BUTTON'>, ...}, locals={'A': <class 'gluon.html.A'>, 'ANY_OF': <class 'gluon.validators.ANY_OF'>, 'ASSIGNJS': <function ASSIGNJS>, 'AppConfig': <function AppConfig>, 'Auth': <class 'gluon.tools.Auth'>, 'B': <class 'gluon.html.B'>, 'BEAUTIFY': <class 'gluon.html.BEAUTIFY'>, 'BODY': <class 'gluon.html.BODY'>, 'BR': <class 'gluon.html.BR'>, 'BUTTON': <class 'gluon.html.BUTTON'>, ...}, fromlist=[], level=-1)"
p123
sg85
S'custom_importer'
p124
sasS'pyver'
p125
S'Python 2.7.9: /usr/bin/python (prefix: /usr)'
p126
sS'session'
p127
g57
(S's\x1a\x00\x00\x00<div><table></table></div>'
tRp128
sS'etype'
p129
S"<type 'exceptions.ImportError'>"
p130
sS'date'
p131
S'Sun Feb 26 19:01:58 2017'
p132
sS'response'
p133
g57
(S's[/\x00\x00<div><table><tr><td style="font-weight:bold;vertical-align:top;">body</td><td style="vertical-align:top;">:</td><td><div>&lt;cStringIO.StringO object at 0x7fae3f3847a0&gt;</div></td></tr><tr><td style="font-weight:bold;vertical-align:top;">cookies</td><td style="vertical-align:top;">:</td><td><div><table><tr><td style="font-weight:bold;vertical-align:top;">session_id_aces</td><td style="vertical-align:top;">:</td><td><div>127.0.0.1-b9be4215-a6f6-4c92-b067-660f2b1f34f7<table><tr><td style="font-weight:bold;vertical-align:top;">comment</td><td style="vertical-align:top;">:</td><td><div></div></td></tr><tr><td style="font-weight:bold;vertical-align:top;">domain</td><td style="vertical-align:top;">:</td><td><div></div></td></tr><tr><td style="font-weight:bold;vertical-align:top;">expires</td><td style="vertical-align:top;">:</td><td><div></div></td></tr><tr><td style="font-weight:bold;vertical-align:top;">httponly</td><td style="vertical-align:top;">:</td><td><div></div></td></tr><tr><td style="font-weight:bold;vertical-align:top;">max-age</td><td style="vertical-align:top;">:</td><td><div></div></td></tr><tr><td style="font-weight:bold;vertical-align:top;">path</td><td style="vertical-align:top;">:</td><td><div>/</div></td></tr><tr><td style="font-weight:bold;vertical-align:top;">secure</td><td style="vertical-align:top;">:</td><td><div></div></td></tr><tr><td style="font-weight:bold;vertical-align:top;">version</td><td style="vertical-align:top;">:</td><td><div></div></td></tr></table></div></td></tr></table></div></td></tr><tr><td style="font-weight:bold;vertical-align:top;">delimiters</td><td style="vertical-align:top;">:</td><td><div><table><tr><td><div>{{</div></td></tr><tr><td><div>}}</div></td></tr></table></div></td></tr><tr><td style="font-weight:bold;vertical-align:top;">files</td><td style="vertical-align:top;">:</td><td><div><table></table></div></td></tr><tr><td style="font-weight:bold;vertical-align:top;">flash</td><td style="vertical-align:top;">:</td><td><div></div></td></tr><tr><td style="font-weight:bold;vertical-align:top;">form_label_separator</td><td style="vertical-align:top;">:</td><td><div></div></td></tr><tr><td style="font-weight:bold;vertical-align:top;">formstyle</td><td style="vertical-align:top;">:</td><td><div>bootstrap3_inline</div></td></tr><tr><td style="font-weight:bold;vertical-align:top;">generic_patterns</td><td style="vertical-align:top;">:</td><td><div><table><tr><td><div>*</div></td></tr></table></div></td></tr><tr><td style="font-weight:bold;vertical-align:top;">google_analytics_id</td><td style="vertical-align:top;">:</td><td><div>None</div></td></tr><tr><td style="font-weight:bold;vertical-align:top;">headers</td><td style="vertical-align:top;">:</td><td><div><table><tr><td style="font-weight:bold;vertical-align:top;">X-Powered-By</td><td style="vertical-align:top;">:</td><td><div>web2py</div></td></tr></table></div></td></tr><tr><td style="font-weight:bold;vertical-align:top;">logo</td><td style="vertical-align:top;">:</td><td><div><a class="navbar-brand" href="http://www.web2py.com/" id="web2py-logo"><b>web<span>2</span>py</b>&trade;&nbsp;</a></div></td></tr><tr><td style="font-weight:bold;vertical-align:top;">menu</td><td style="vertical-align:top;">:</td><td><div><table><tr><td><div><table><tr><td><div>Home</div></td></tr><tr><td><div>False</div></td></tr><tr><td><div>/aces/default/index</div></td></tr><tr><td><div><table></table></div></td></tr></table></div></td></tr><tr><td><div><table><tr><td><div>Inlet Process</div></td></tr><tr><td><div>False</div></td></tr><tr><td><div>/aces/test/inlet_process</div></td></tr><tr><td><div><table></table></div></td></tr></table></div></td></tr><tr><td><div><table><tr><td><div>Littoral Proceess</div></td></tr><tr><td><div>False</div></td></tr><tr><td><div>#</div></td></tr><tr><td><div><table><tr><td><div><table><tr><td><div>Beach Nourishment</div></td></tr><tr><td><div>False</div></td></tr><tr><td><div>#</div></td></tr></table></div></td></tr><tr><td><div><table><tr><td><div>Composite Grain-Size Distrobution</div></td></tr><tr><td><div>False</div></td></tr><tr><td><div>#</div></td></tr></table></div></td></tr><tr><td><div><table><tr><td><div>Longshore Sediment Transport</div></td></tr><tr><td><div>False</div></td></tr><tr><td><div>#</div></td></tr></table></div></td></tr><tr><td><div><table><tr><td><div>Time-Dependent Erosion</div></td></tr><tr><td><div>False</div></td></tr><tr><td><div>#</div></td></tr></table></div></td></tr></table></div></td></tr></table></div></td></tr><tr><td><div><table><tr><td><div>Structural Design</div></td></tr><tr><td><div>False</div></td></tr><tr><td><div>#</div></td></tr><tr><td><div><table><tr><td><div><table><tr><td><div>Breakwater Design</div></td></tr><tr><td><div>False</div></td></tr><tr><td><div>#</div></td></tr></table></div></td></tr><tr><td><div><table><tr><td><div>Nonbreaking Wave Forces</div></td></tr><tr><td><div>False</div></td></tr><tr><td><div>#</div></td></tr></table></div></td></tr><tr><td><div><table><tr><td><div>Rubble-Mound Revetment</div></td></tr><tr><td><div>False</div></td></tr><tr><td><div>#</div></td></tr></table></div></td></tr><tr><td><div><table><tr><td><div>Toe Procetion Design</div></td></tr><tr><td><div>False</div></td></tr><tr><td><div>#</div></td></tr></table></div></td></tr></table></div></td></tr></table></div></td></tr><tr><td><div><table><tr><td><div>Wave Prediction</div></td></tr><tr><td><div>False</div></td></tr><tr><td><div>#</div></td></tr><tr><td><div><table><tr><td><div><table><tr><td><div>Beta-Rayleigh</div></td></tr><tr><td><div>False</div></td></tr><tr><td><div>#</div></td></tr></table></div></td></tr><tr><td><div><table><tr><td><div>Constituent Tide</div></td></tr><tr><td><div>False</div></td></tr><tr><td><div>#</div></td></tr></table></div></td></tr><tr><td><div><table><tr><td><div>Extremal Significant Wave Height</div></td></tr><tr><td><div>False</div></td></tr><tr><td><div>#</div></td></tr></table></div></td></tr><tr><td><div><table><tr><td><div>Windspeed Adjustment</div></td></tr><tr><td><div>False</div></td></tr><tr><td><div>#</div></td></tr></table></div></td></tr></table></div></td></tr></table></div></td></tr><tr><td><div><table><tr><td><div>Wave Runup</div></td></tr><tr><td><div>False</div></td></tr><tr><td><div>#</div></td></tr><tr><td><div><table><tr><td><div><table><tr><td><div>Irregular Wave Runup</div></td></tr><tr><td><div>False</div></td></tr><tr><td><div>#</div></td></tr></table></div></td></tr><tr><td><div><table><tr><td><div>Wave Runup</div></td></tr><tr><td><div>False</div></td></tr><tr><td><div>#</div></td></tr></table></div></td></tr><tr><td><div><table><tr><td><div>Wave Transmission on Structures</div></td></tr><tr><td><div>False</div></td></tr><tr><td><div>#</div></td></tr></table></div></td></tr><tr><td><div><table><tr><td><div>Wave Transmission through Structures</div></td></tr><tr><td><div>False</div></td></tr><tr><td><div>#</div></td></tr></table></div></td></tr></table></div></td></tr></table></div></td></tr><tr><td><div><table><tr><td><div>Wave Theory</div></td></tr><tr><td><div>False</div></td></tr><tr><td><div>#</div></td></tr><tr><td><div><table><tr><td><div><table><tr><td><div>Cnoidal Wave</div></td></tr><tr><td><div>False</div></td></tr><tr><td><div>#</div></td></tr></table></div></td></tr><tr><td><div><table><tr><td><div>Fourier Series</div></td></tr><tr><td><div>False</div></td></tr><tr><td><div>#</div></td></tr></table></div></td></tr><tr><td><div><table><tr><td><div>Linear Wave</div></td></tr><tr><td><div>False</div></td></tr><tr><td><div>#</div></td></tr></table></div></td></tr></table></div></td></tr></table></div></td></tr><tr><td><div><table><tr><td><div>Wave Transforms</div></td></tr><tr><td><div>False</div></td></tr><tr><td><div>#</div></td></tr><tr><td><div><table><tr><td><div><table><tr><td><div>Combined Diffraction</div></td></tr><tr><td><div>False</div></td></tr><tr><td><div>#</div></td></tr></table></div></td></tr><tr><td><div><table><tr><td><div>Irregular Wave Transformation</div></td></tr><tr><td><div>False</div></td></tr><tr><td><div>#</div></td></tr></table></div></td></tr><tr><td><div><table><tr><td><div>Linear Wave with Snell\'s Law</div></td></tr><tr><td><div>False</div></td></tr><tr><td><div>#</div></td></tr></table></div></td></tr></table></div></td></tr></table></div></td></tr></table></div></td></tr><tr><td style="font-weight:bold;vertical-align:top;">meta</td><td style="vertical-align:top;">:</td><td><div><table><tr><td style="font-weight:bold;vertical-align:top;">author</td><td style="vertical-align:top;">:</td><td><div>Your Name &lt;you@example.com&gt;</div></td></tr><tr><td style="font-weight:bold;vertical-align:top;">description</td><td style="vertical-align:top;">:</td><td><div>a cool new app</div></td></tr><tr><td style="font-weight:bold;vertical-align:top;">generator</td><td style="vertical-align:top;">:</td><td><div>Web2py Web Framework</div></td></tr><tr><td style="font-weight:bold;vertical-align:top;">keywords</td><td style="vertical-align:top;">:</td><td><div><table><tr><td><div>web2py</div></td></tr><tr><td><div>python</div></td></tr><tr><td><div>framework</div></td></tr></table></div></td></tr></table></div></td></tr><tr><td style="font-weight:bold;vertical-align:top;">models_to_run</td><td style="vertical-align:top;">:</td><td><div><table><tr><td><div>^\\w+\\.py$</div></td></tr><tr><td><div>^linearwavetheory/\\w+\\.py$</div></td></tr><tr><td><div>^linearwavetheory/index/\\w+\\.py$</div></td></tr></table></div></td></tr><tr><td style="font-weight:bold;vertical-align:top;">postprocessing</td><td style="vertical-align:top;">:</td><td><div><table></table></div></td></tr><tr><td style="font-weight:bold;vertical-align:top;">session_client</td><td style="vertical-align:top;">:</td><td><div>127.0.0.1</div></td></tr><tr><td style="font-weight:bold;vertical-align:top;">session_cookie_compression_level</td><td style="vertical-align:top;">:</td><td><div>None</div></td></tr><tr><td style="font-weight:bold;vertical-align:top;">session_cookie_expires</td><td style="vertical-align:top;">:</td><td><div>None</div></td></tr><tr><td style="font-weight:bold;vertical-align:top;">session_data_name</td><td style="vertical-align:top;">:</td><td><div>session_data_aces</div></td></tr><tr><td style="font-weight:bold;vertical-align:top;">session_file</td><td style="vertical-align:top;">:</td><td><div>None</div></td></tr><tr><td style="font-weight:bold;vertical-align:top;">session_filename</td><td style="vertical-align:top;">:</td><td><div>/home/linux/aces/web2py/applications/aces/sessions/127.0.0.1-b9be4215-a6f6-4c92-b067-660f2b1f34f7</div></td></tr><tr><td style="font-weight:bold;vertical-align:top;">session_hash</td><td style="vertical-align:top;">:</td><td><div>c0762cbf4baf7f9af97c051e7fcb8083</div></td></tr><tr><td style="font-weight:bold;vertical-align:top;">session_id</td><td style="vertical-align:top;">:</td><td><div>127.0.0.1-b9be4215-a6f6-4c92-b067-660f2b1f34f7</div></td></tr><tr><td style="font-weight:bold;vertical-align:top;">session_id_name</td><td style="vertical-align:top;">:</td><td><div>session_id_aces</div></td></tr><tr><td style="font-weight:bold;vertical-align:top;">session_masterapp</td><td style="vertical-align:top;">:</td><td><div>aces</div></td></tr><tr><td style="font-weight:bold;vertical-align:top;">session_new</td><td style="vertical-align:top;">:</td><td><div>True</div></td></tr><tr><td style="font-weight:bold;vertical-align:top;">session_storage_type</td><td style="vertical-align:top;">:</td><td><div>file</div></td></tr><tr><td style="font-weight:bold;vertical-align:top;">status</td><td style="vertical-align:top;">:</td><td><div>200</div></td></tr><tr><td style="font-weight:bold;vertical-align:top;">subtitle</td><td style="vertical-align:top;">:</td><td><div></div></td></tr><tr><td style="font-weight:bold;vertical-align:top;">title</td><td style="vertical-align:top;">:</td><td><div>Aces</div></td></tr><tr><td style="font-weight:bold;vertical-align:top;">view</td><td style="vertical-align:top;">:</td><td><div>linearwavetheory/index.html</div></td></tr></table></div>'
tRp134
sS'locals'
p135
(dp136
S'fromlist'
p137
S'[]'
p138
sS'itemname'
p139
S"'helper_functions'"
p140
sS'modules_prefix'
p141
S"'applications.aces.modules'"
p142
sS'name'
p143
S"'helper_functions'"
p144
sS'level'
p145
S'-1'
p146
sS'items'
p147
S"['', 'home', 'linux', 'aces', 'web2py', 'applications', 'aces']"
p148
sS'base_importer'
p149
S'<built-in function __import__>'
p150
sg135
S"{'A': <class 'gluon.html.A'>, 'ANY_OF': <class 'gluon.validators.ANY_OF'>, 'ASSIGNJS': <function ASSIGNJS>, 'AppConfig': <function AppConfig>, 'Auth': <class 'gluon.tools.Auth'>, 'B': <class 'gluon.html.B'>, 'BEAUTIFY': <class 'gluon.html.BEAUTIFY'>, 'BODY': <class 'gluon.html.BODY'>, 'BR': <class 'gluon.html.BR'>, 'BUTTON': <class 'gluon.html.BUTTON'>, ...}"
p151
sS'globals'
p152
S"{'A': <class 'gluon.html.A'>, 'ANY_OF': <class 'gluon.validators.ANY_OF'>, 'ASSIGNJS': <function ASSIGNJS>, 'AppConfig': <function AppConfig>, 'Auth': <class 'gluon.tools.Auth'>, 'B': <class 'gluon.html.B'>, 'BEAUTIFY': <class 'gluon.html.BEAUTIFY'>, 'BODY': <class 'gluon.html.BODY'>, 'BR': <class 'gluon.html.BR'>, 'BUTTON': <class 'gluon.html.BUTTON'>, ...}"
p153
sS'result'
p154
S'None'
p155
sS'e'
S"KeyError('applications.aces.modules.helper_functions',)"
p156
sS'new_mod'
p157
S"<module 'applications.aces.modules' from 'applications/aces/modules/__init__.pyc'>"
p158
sS'e1'
p159
S'ImportError("Cannot import module \'applications.aces.modules.helper_functions\'",)'
p160
sS'import_tb'
p161
S'None'
p162
sS'e3'
p163
S"ImportError('No module named helper_functions',)"
p164
sS'oname'
p165
S"'helper_functions'"
p166
sssS'traceback'
p167
S'Traceback (most recent call last):\n  File "/home/linux/aces/web2py/gluon/restricted.py", line 227, in restricted\n    exec ccode in environment\n  File "/home/linux/aces/web2py/applications/aces/controllers/linearwavetheory.py", line 1, in <module>\n    import helper_functions\n  File "/home/linux/aces/web2py/gluon/custom_import.py", line 89, in custom_importer\n    raise ImportError, \'Cannot import module %s\' % str(e)\nImportError: Cannot import module \'applications.aces.modules.helper_functions\'\n'
p168
s.