(dp1
S'output'
p2
S"<type 'exceptions.TypeError'> float() argument must be a string or a number"
p3
sS'layer'
p4
S'/home/linux/aces/web2py/applications/aces/controllers/linearwavetheory.py'
p5
sS'code'
p6
S'from helper_functions import *\nimport json\nimport math\n\n#def index():\n#    return dict(message="hello world")\n\ndef index():\n    attributes = {\'_type\':\'tel\', \'_autocomplete\':\'off\', \'_style\':\'height:80px; width:80px\'}\n    form = SQLFORM.factory(\n        Field(\'H\', requires=[IS_NOT_EMPTY(), IS_FLOAT_IN_RANGE(0, 1, dot=".")]),\n        Field(\'T\', requires=IS_NOT_EMPTY()),\n        Field(\'d\', requires=IS_NOT_EMPTY()),\n        Field(\'z\', requires=IS_NOT_EMPTY()),\n        Field(\'Water_Type\', requires=IS_IN_SET([\'Salt Water\', \'Fresh Water\'])),\n        Field(\'Unit_of_Measurment\', requires=IS_IN_SET([\'Imperial\', \'Metric\'])),\n    )\n    form.custom.submit[\'_value\'] = \'Submit\'\n    form[\'_style\'] = \'width:450px;height:50px;\'\n    #form.element(\'select[name=T]\')[\'_style\']=\'width:400px;\'\n    #form = form.element(\'select[name=H\')[\'_style\']=\'width:400px;\'\n    if form.process().accepted:\n        redirect(URL(\'second\', vars=dict(form.vars)))\n    return dict(form=form)\n\ndef second():\n    attributes = {\'_type\':\'tel\', \'_autocomplete\':\'off\', \'_style\':\'height:80px; width:80px\'}\n    form = SQLFORM.factory(\n        Field(\'H\', requires=[IS_NOT_EMPTY(), IS_FLOAT_IN_RANGE(0, 1, dot=".")]),\n        Field(\'T\', requires=IS_NOT_EMPTY()),\n        Field(\'d\', requires=IS_NOT_EMPTY()),\n        Field(\'z\', requires=IS_NOT_EMPTY()),\n        Field(\'Water_Type\', requires=IS_IN_SET([\'Salt Water\', \'Fresh Water\'])),\n        Field(\'Unit_of_Measurment\', requires=IS_IN_SET([\'Imperial\', \'Metric\'])),\n    )\n    form.custom.submit[\'_value\'] = \'Submit\'\n    form[\'_style\'] = \'width:450px;height:50px;\'\n    #form.element(\'select[name=T]\')[\'_style\']=\'width:400px;\'\n    values = dict(request.vars) or redirect(URL(\'index\'))\n    dict(lwt(values))\n    return dict(form=form)\n\ndef lwt(input_dict):\n#def lwt(H, T, d, z, xL, unitSystem):\n    #internal = list(input_dict.values())\n    H = float(input_dict.get(\'H\'))\n    T = float(input_dict.get(\'T\'))\n    d = float(input_dict.get(\'d\'))\n    z = float(input_dict.get(\'z\'))\n    xL = 4\n    unitSystem = \'I\'\n    ## *********** Don\'t change anything here ******************\n    twopi = 2 * math.pi\n    nIteration = 50\n    if unitSystem == \'I\': # imperial\n        g = 32.17 # gravitational acceleration (ft/sec^2)\n        rho = 1.989 # rho/g = 63.99/32.17 lb sec^2/ft^4 (sea water)\n    elif unitSystem == \'M\': # metric\n        rho = 1025.09\n        g = 9.81\n\n    L, k = wavelen(d, T, nIteration, g)\n\n    theta =  xL * twopi # theta=(kx-wt) where arbitrarily t=0 and k=2*pi/L\n\n    \'\'\'\n    # Check for monochromatic wave breaking (depth limited - no slope)\n    Hb = errwavbrk1(d, 0.78)\n    if (H >= Hb):\n        print("Error: Input wave broken (Hb = %6.2f m)" % Hb)\n        return\n\n    # Check to make sure vertical coordinate is within waveform\n    eta = (H / 2) * math.cos(theta)\n    if not (z < eta and (z + d) > 0):\n        print("Error: Point outside waveform.")\n        return\n        \'\'\'\n\n    # Main computations\n    arg = (2 * k * d / (math.sinh(2 * k * d)))\n    tot = d + z\n\n    C = L / T\n    Cg = 0.5 * (1 + arg) * C\n    # come back to this - check math when multiplying (1 / 8) * ...\n    E = rho * g * (H**2) / 8\n    Ef = E * Cg\n    Ur = L**2 * H / (d**3)\n    px = (-H / 2) * (math.cosh(k * tot) / math.sinh( k * d)) * math.sin(theta)\n    py = ( H / 2) * (math.sinh(k * tot) / math.sinh(k * d)) * math.cos(theta)\n    u = (H * math.pi / T) * (math.cosh(k * tot) / math.sinh( k * d)) * math.cos(theta)\n    w = (H * math.pi / T) * (math.sinh(k * tot) / math.sinh(k * d)) * math.sin(theta)\n    dudt = (H * 2 * math.pi**2 / (T**2)) * (math.cosh(k * tot) / math.sinh(k * d)) * math.sin(theta)\n    dwdt = (-H * 2 * math.pi**2 / (T**2)) * (math.sinh(k * tot) / math.sinh(k * d)) * math.cos(theta)\n    pres = -rho * g * z + rho * g * (H / 2) * (math.cosh(k * tot) / math.cosh(k * d)) * math.cos(theta)\n    # come back to this!!! supposed to be py rather than pz??\n    pz = 0\n\n    localVars = locals()\n    return dict(localVars=localVars)\n    #return H, T, d, z, xL, L, C, Cg, E, Ef, Ur, eta, px, py, pz, u, w, dudt, dwdt, pres\n\n    \'\'\' plotting waveform\n    t = np.arange(-1, 1, 0.001)\n    plottheta = t * np.pi * 2\n\n    ploteta = (H / 2) * np.cos(plottheta)\n    plotu = (H * np.pi / T) * (np.cosh(k * tot) / np.sinh(k * d)) * np.cos(plottheta)\n    plotw = (H * np.pi / T) * (np.sinh(k * tot) / np.sinh(k * d)) * np.sin(plottheta)\n\n    plt.subplot(3, 1, 1)\n    plt.plot(t, ploteta, lw=2)\n    plt.ylabel(\'Elevation [m]\')\n    plt.ylim(-4, 4)\n    plt.axhline(color = \'r\', linestyle = \'--\')\n\n    # subplot\n    plt.subplot(3, 1, 2)\n    plt.plot(t, plotu, lw=2)\n    plt.axhline(color = \'r\', linestyle = \'--\')\n    plt.ylabel(\'Velocity, u [m/s]\')\n    plt.ylim(-2, 2)\n\n    # subplot\n    plt.subplot(3, 1, 3)\n    plt.plot(t, plotw, lw=2)\n    plt.axhline(color = \'r\', linestyle = \'--\')\n    plt.ylabel(\'Velocity, w [m/s]\')\n    plt.ylim(-1, 1)\n\n    plt.tight_layout(pad=0.4)\n\n    plt.show() \'\'\'\n\n\nclass LinearWaveTheoryOutput:\n    # Default INPUT\n    H = 6.30\n    T = 8\n    d = 20.0\n    z = -12.0\n    xL = 0.75\n\n    # OUTPUT\n    L = 0\n    C = 0\n    Cg = 0\n    E = 0\n    Ef = 0\n    Ur = 0\n    eta = 0\n    px = 0\n    # missing py from matlab documentation\n    py = 0\n    pz = 0\n    u = 0\n    w = 0\n    dudt = 0\n    dwdt = 0\n    pres = 0\n\n    def __init__(self): pass\n\n    def toString(self):\n        print("\\t\\t\\t\\t\\t %s \\n" % ("Units"))\n        print("%s \\t\\t %-6.2f \\t %s \\n" % ("Wavelength", self.L, "m"))\n        print("%s \\t\\t %-6.2f \\t %s \\n" % ("Celerity", self.C, "m/s"))\n        print("%s \\t\\t %-6.2f \\t %s \\n" % ("Group speed", self.Cg, "m/s"))\n        print("%s \\t\\t %-8.2f \\t %s \\n" % ("Energy density", self.E, "N-m/m^2"))\n        print("%s \\t\\t %-8.2f \\t %s \\n" % ("Energy flux", self.Ef, "N-m/m-s"))\n        print("%s \\t\\t %-6.2f \\n" % ("Ursell number", self.Ur))\n        print("%s \\t\\t %-6.2f \\t %s \\n" % ("Elevation", self.eta, "m"))\n        print("%s \\t %-6.2f \\t %s \\n" % ("Horz. displacement", self.px, "m"))\n        print("%s \\t %-6.2f \\t %s \\n" % ("Vert. displacement", self.py, "m"))\n        print("%s \\t\\t %-6.2f \\t %s \\n" % ("Horz. velocity", self.u, "m/s"))\n        print("%s \\t\\t %-6.2f \\t %s \\n" % ("Vert. velocity", self.w,"m/s"))\n        print("%s \\t %-6.2f \\t %s \\n" % ("Horz. acceleration", self.dudt, "m/s^2"))\n        print("%s \\t %-6.2f \\t %s \\n" % ("Vert. acceleration", self.dwdt, "m/s^2"))\n        print("%s \\t\\t %-8.2f \\t %s \\n" % ("Pressure", self.pres, "N/m^2"))\n\nresponse._vars=response._caller(second)\n'
p7
sS'snapshot'
p8
(dp9
S'exception'
p10
(dp11
S'__hash__'
p12
S"<method-wrapper '__hash__' of exceptions.TypeError object>"
p13
sS'__setattr__'
p14
S"<method-wrapper '__setattr__' of exceptions.TypeError object>"
p15
sS'__reduce_ex__'
p16
S'<built-in method __reduce_ex__ of exceptions.TypeError object>'
p17
sS'__getslice__'
p18
S"<method-wrapper '__getslice__' of exceptions.TypeError object>"
p19
sS'__getitem__'
p20
S"<method-wrapper '__getitem__' of exceptions.TypeError object>"
p21
sS'__setstate__'
p22
S'<built-in method __setstate__ of exceptions.TypeError object>'
p23
sS'args'
p24
S"('float() argument must be a string or a number',)"
p25
sS'__reduce__'
p26
S'<built-in method __reduce__ of exceptions.TypeError object>'
p27
sS'__str__'
p28
S"<method-wrapper '__str__' of exceptions.TypeError object>"
p29
sS'__format__'
p30
S'<built-in method __format__ of exceptions.TypeError object>'
p31
sS'__getattribute__'
p32
S"<method-wrapper '__getattribute__' of exceptions.TypeError object>"
p33
sS'__class__'
p34
S"<type 'exceptions.TypeError'>"
p35
sS'__unicode__'
p36
S'<built-in method __unicode__ of exceptions.TypeError object>'
p37
sS'__delattr__'
p38
S"<method-wrapper '__delattr__' of exceptions.TypeError object>"
p39
sS'__subclasshook__'
p40
S'<built-in method __subclasshook__ of type object>'
p41
sS'__repr__'
p42
S"<method-wrapper '__repr__' of exceptions.TypeError object>"
p43
sS'__dict__'
p44
S'{}'
p45
sS'__sizeof__'
p46
S'<built-in method __sizeof__ of exceptions.TypeError object>'
p47
sS'__doc__'
p48
S"'Inappropriate argument type.'"
p49
sS'__init__'
p50
S"<method-wrapper '__init__' of exceptions.TypeError object>"
p51
sS'__new__'
p52
S'<built-in method __new__ of type object>'
p53
ssS'evalue'
p54
S'float() argument must be a string or a number'
p55
sS'request'
p56
cgluon.html
XML_unpickle
p57
(S'sgb\x00\x00<div><table><tr><td style="font-weight:bold;vertical-align:top;">ajax</td><td style="vertical-align:top;">:</td><td><div>False</div></td></tr><tr><td style="font-weight:bold;vertical-align:top;">application</td><td style="vertical-align:top;">:</td><td><div>aces</div></td></tr><tr><td style="font-weight:bold;vertical-align:top;">args</td><td style="vertical-align:top;">:</td><td><div><table></table></div></td></tr><tr><td style="font-weight:bold;vertical-align:top;">cid</td><td style="vertical-align:top;">:</td><td><div>None</div></td></tr><tr><td style="font-weight:bold;vertical-align:top;">client</td><td style="vertical-align:top;">:</td><td><div>127.0.0.1</div></td></tr><tr><td style="font-weight:bold;vertical-align:top;">controller</td><td style="vertical-align:top;">:</td><td><div>linearwavetheory</div></td></tr><tr><td style="font-weight:bold;vertical-align:top;">cookies</td><td style="vertical-align:top;">:</td><td><div><table><tr><td style="font-weight:bold;vertical-align:top;">session_id_aces</td><td style="vertical-align:top;">:</td><td><div>127.0.0.1-c0fa136a-bda2-4928-afc5-ebc29a68f510<table><tr><td style="font-weight:bold;vertical-align:top;">comment</td><td style="vertical-align:top;">:</td><td><div></div></td></tr><tr><td style="font-weight:bold;vertical-align:top;">domain</td><td style="vertical-align:top;">:</td><td><div></div></td></tr><tr><td style="font-weight:bold;vertical-align:top;">expires</td><td style="vertical-align:top;">:</td><td><div></div></td></tr><tr><td style="font-weight:bold;vertical-align:top;">httponly</td><td style="vertical-align:top;">:</td><td><div></div></td></tr><tr><td style="font-weight:bold;vertical-align:top;">max-age</td><td style="vertical-align:top;">:</td><td><div></div></td></tr><tr><td style="font-weight:bold;vertical-align:top;">path</td><td style="vertical-align:top;">:</td><td><div></div></td></tr><tr><td style="font-weight:bold;vertical-align:top;">secure</td><td style="vertical-align:top;">:</td><td><div></div></td></tr><tr><td style="font-weight:bold;vertical-align:top;">version</td><td style="vertical-align:top;">:</td><td><div></div></td></tr></table></div></td></tr><tr><td style="font-weight:bold;vertical-align:top;">session_id_admin</td><td style="vertical-align:top;">:</td><td><div>127.0.0.1-92874c0c-5d21-4608-b7c7-bc1accb0e688<table><tr><td style="font-weight:bold;vertical-align:top;">comment</td><td style="vertical-align:top;">:</td><td><div></div></td></tr><tr><td style="font-weight:bold;vertical-align:top;">domain</td><td style="vertical-align:top;">:</td><td><div></div></td></tr><tr><td style="font-weight:bold;vertical-align:top;">expires</td><td style="vertical-align:top;">:</td><td><div></div></td></tr><tr><td style="font-weight:bold;vertical-align:top;">httponly</td><td style="vertical-align:top;">:</td><td><div></div></td></tr><tr><td style="font-weight:bold;vertical-align:top;">max-age</td><td style="vertical-align:top;">:</td><td><div></div></td></tr><tr><td style="font-weight:bold;vertical-align:top;">path</td><td style="vertical-align:top;">:</td><td><div></div></td></tr><tr><td style="font-weight:bold;vertical-align:top;">secure</td><td style="vertical-align:top;">:</td><td><div></div></td></tr><tr><td style="font-weight:bold;vertical-align:top;">version</td><td style="vertical-align:top;">:</td><td><div></div></td></tr></table></div></td></tr><tr><td style="font-weight:bold;vertical-align:top;">session_id_welcome</td><td style="vertical-align:top;">:</td><td><div>127.0.0.1-7c5aa595-9d2f-45f8-abbd-6f004a85a1ef<table><tr><td style="font-weight:bold;vertical-align:top;">comment</td><td style="vertical-align:top;">:</td><td><div></div></td></tr><tr><td style="font-weight:bold;vertical-align:top;">domain</td><td style="vertical-align:top;">:</td><td><div></div></td></tr><tr><td style="font-weight:bold;vertical-align:top;">expires</td><td style="vertical-align:top;">:</td><td><div></div></td></tr><tr><td style="font-weight:bold;vertical-align:top;">httponly</td><td style="vertical-align:top;">:</td><td><div></div></td></tr><tr><td style="font-weight:bold;vertical-align:top;">max-age</td><td style="vertical-align:top;">:</td><td><div></div></td></tr><tr><td style="font-weight:bold;vertical-align:top;">path</td><td style="vertical-align:top;">:</td><td><div></div></td></tr><tr><td style="font-weight:bold;vertical-align:top;">secure</td><td style="vertical-align:top;">:</td><td><div></div></td></tr><tr><td style="font-weight:bold;vertical-align:top;">version</td><td style="vertical-align:top;">:</td><td><div></div></td></tr></table></div></td></tr></table></div></td></tr><tr><td style="font-weight:bold;vertical-align:top;">env</td><td style="vertical-align:top;">:</td><td><div><table><tr><td style="font-weight:bold;vertical-align:top;">CONTENT_LENGTH</td><td style="vertical-align:top;">:</td><td><div>746</div></td></tr><tr><td style="font-weight:bold;vertical-align:top;">CONTENT_TYPE</td><td style="vertical-align:top;">:</td><td><div>multipart/form-data; boundary=---------------------------35748082613590407381287059113</div></td></tr><tr><td style="font-weight:bold;vertical-align:top;">HTTP_ACCEPT</td><td style="vertical-align:top;">:</td><td><div>text/html,application/xhtml+xml,application/xml;q=0.9,*/*;q=0.8</div></td></tr><tr><td style="font-weight:bold;vertical-align:top;">HTTP_ACCEPT_ENCODING</td><td style="vertical-align:top;">:</td><td><div>gzip, deflate</div></td></tr><tr><td style="font-weight:bold;vertical-align:top;">HTTP_ACCEPT_LANGUAGE</td><td style="vertical-align:top;">:</td><td><div>en-US,en;q=0.5</div></td></tr><tr><td style="font-weight:bold;vertical-align:top;">HTTP_CONNECTION</td><td style="vertical-align:top;">:</td><td><div>keep-alive</div></td></tr><tr><td style="font-weight:bold;vertical-align:top;">HTTP_CONTENT_LENGTH</td><td style="vertical-align:top;">:</td><td><div>746</div></td></tr><tr><td style="font-weight:bold;vertical-align:top;">HTTP_CONTENT_TYPE</td><td style="vertical-align:top;">:</td><td><div>multipart/form-data; boundary=---------------------------35748082613590407381287059113</div></td></tr><tr><td style="font-weight:bold;vertical-align:top;">HTTP_COOKIE</td><td style="vertical-align:top;">:</td><td><div>session_id_welcome=127.0.0.1-7c5aa595-9d2f-45f8-abbd-6f004a85a1ef; session_id_aces=127.0.0.1-c0fa136a-bda2-4928-afc5-ebc29a68f510; session_id_admin=127.0.0.1-92874c0c-5d21-4608-b7c7-bc1accb0e688</div></td></tr><tr><td style="font-weight:bold;vertical-align:top;">HTTP_DNT</td><td style="vertical-align:top;">:</td><td><div>1</div></td></tr><tr><td style="font-weight:bold;vertical-align:top;">HTTP_HOST</td><td style="vertical-align:top;">:</td><td><div>127.0.0.1:8000</div></td></tr><tr><td style="font-weight:bold;vertical-align:top;">HTTP_REFERER</td><td style="vertical-align:top;">:</td><td><div>http://127.0.0.1:8000/aces/linearwavetheory/second?H=1.0&amp;T=1&amp;Unit_of_Measurment=Imperial&amp;Water_Type=Salt+Water&amp;d=1&amp;z=1</div></td></tr><tr><td style="font-weight:bold;vertical-align:top;">HTTP_USER_AGENT</td><td style="vertical-align:top;">:</td><td><div>Mozilla/5.0 (X11; Linux x86_64; rv:45.0) Gecko/20100101 Firefox/45.0</div></td></tr><tr><td style="font-weight:bold;vertical-align:top;">PATH_INFO</td><td style="vertical-align:top;">:</td><td><div>/aces/linearwavetheory/second</div></td></tr><tr><td style="font-weight:bold;vertical-align:top;">QUERY_STRING</td><td style="vertical-align:top;">:</td><td><div>H=1.0&amp;T=1&amp;Unit_of_Measurment=Imperial&amp;Water_Type=Salt+Water&amp;d=1&amp;z=1</div></td></tr><tr><td style="font-weight:bold;vertical-align:top;">REMOTE_ADDR</td><td style="vertical-align:top;">:</td><td><div>127.0.0.1</div></td></tr><tr><td style="font-weight:bold;vertical-align:top;">REMOTE_PORT</td><td style="vertical-align:top;">:</td><td><div>35946</div></td></tr><tr><td style="font-weight:bold;vertical-align:top;">REQUEST_METHOD</td><td style="vertical-align:top;">:</td><td><div>POST</div></td></tr><tr><td style="font-weight:bold;vertical-align:top;">SCRIPT_NAME</td><td style="vertical-align:top;">:</td><td><div></div></td></tr><tr><td style="font-weight:bold;vertical-align:top;">SERVER_NAME</td><td style="vertical-align:top;">:</td><td><div>X201</div></td></tr><tr><td style="font-weight:bold;vertical-align:top;">SERVER_PORT</td><td style="vertical-align:top;">:</td><td><div>8000</div></td></tr><tr><td style="font-weight:bold;vertical-align:top;">SERVER_PROTOCOL</td><td style="vertical-align:top;">:</td><td><div>HTTP/1.1</div></td></tr><tr><td style="font-weight:bold;vertical-align:top;">SERVER_SOFTWARE</td><td style="vertical-align:top;">:</td><td><div>Rocket 1.2.6</div></td></tr><tr><td style="font-weight:bold;vertical-align:top;">app_folders</td><td style="vertical-align:top;">:</td><td><div>set([&#x27;/home/linux/aces/web2py/applications/admin/&#x27;, &#x27;/home/linux/aces/web2py/applications/welcome/&#x27;, &#x27;/home/linux/aces/web2py/applications/aces/&#x27;])</div></td></tr><tr><td style="font-weight:bold;vertical-align:top;">applications_parent</td><td style="vertical-align:top;">:</td><td><div>/home/linux/aces/web2py</div></td></tr><tr><td style="font-weight:bold;vertical-align:top;">cmd_args</td><td style="vertical-align:top;">:</td><td><div><table></table></div></td></tr><tr><td style="font-weight:bold;vertical-align:top;">cmd_options</td><td style="vertical-align:top;">:</td><td><div>&lt;Values at 0x7f817f7ef440: {&#x27;verbose&#x27;: False, &#x27;ip&#x27;: &#x27;127.0.0.1&#x27;, &#x27;debuglevel&#x27;: 30, &#x27;with_scheduler&#x27;: False, &#x27;shutdown_timeout&#x27;: 5, &#x27;taskbar&#x27;: False, &#x27;with_coverage&#x27;: False, &#x27;pid_filename&#x27;: &#x27;httpserver.pid&#x27;, &#x27;maxthreads&#x27;: None, &#x27;softcron&#x27;: False, &#x27;server_name&#x27;: &#x27;X201&#x27;, &#x27;bpython&#x27;: False, &#x27;nogui&#x27;: False, &#x27;port&#x27;: 8000, &#x27;print_errors&#x27;: False, &#x27;extcron&#x27;: False, &#x27;runcron&#x27;: False, &#x27;run_system_tests&#x27;: False, &#x27;test&#x27;: None, &#x27;folder&#x27;: &#x27;/home/linux/aces/web2py&#x27;, &#x27;config&#x27;: &#x27;&#x27;, &#x27;minthreads&#x27;: None, &#x27;shell&#x27;: None, &#x27;run&#x27;: &#x27;&#x27;, &#x27;log_filename&#x27;: &#x27;httpserver.log&#x27;, &#x27;profiler_dir&#x27;: None, &#x27;args&#x27;: [&#x27;&#x27;], &#x27;socket_timeout&#x27;: 5, &#x27;ssl_ca_certificate&#x27;: None, &#x27;scheduler&#x27;: None, &#x27;interfaces&#x27;: None, &#x27;ssl_private_key&#x27;: &#x27;&#x27;, &#x27;gae&#x27;: None, &#x27;password&#x27;: &#x27;******&#x27;, &#x27;request_queue_size&#x27;: 5, &#x27;ssl_certificate&#x27;: &#x27;&#x27;, &#x27;cronjob&#x27;: False, &#x27;numthreads&#x27;: None, &#x27;quiet&#x27;: False, &#x27;import_models&#x27;: False, &#x27;timeout&#x27;: 10, &#x27;plain&#x27;: False, &#x27;nobanner&#x27;: False}&gt;</div></td></tr><tr><td style="font-weight:bold;vertical-align:top;">content_length</td><td style="vertical-align:top;">:</td><td><div>746</div></td></tr><tr><td style="font-weight:bold;vertical-align:top;">content_type</td><td style="vertical-align:top;">:</td><td><div>multipart/form-data; boundary=---------------------------35748082613590407381287059113</div></td></tr><tr><td style="font-weight:bold;vertical-align:top;">db_sessions</td><td style="vertical-align:top;">:</td><td><div>set([])</div></td></tr><tr><td style="font-weight:bold;vertical-align:top;">debugging</td><td style="vertical-align:top;">:</td><td><div>False</div></td></tr><tr><td style="font-weight:bold;vertical-align:top;">gluon_parent</td><td style="vertical-align:top;">:</td><td><div>/home/linux/aces/web2py</div></td></tr><tr><td style="font-weight:bold;vertical-align:top;">http_accept</td><td style="vertical-align:top;">:</td><td><div>text/html,application/xhtml+xml,application/xml;q=0.9,*/*;q=0.8</div></td></tr><tr><td style="font-weight:bold;vertical-align:top;">http_accept_encoding</td><td style="vertical-align:top;">:</td><td><div>gzip, deflate</div></td></tr><tr><td style="font-weight:bold;vertical-align:top;">http_accept_language</td><td style="vertical-align:top;">:</td><td><div>en-US,en;q=0.5</div></td></tr><tr><td style="font-weight:bold;vertical-align:top;">http_connection</td><td style="vertical-align:top;">:</td><td><div>keep-alive</div></td></tr><tr><td style="font-weight:bold;vertical-align:top;">http_content_length</td><td style="vertical-align:top;">:</td><td><div>746</div></td></tr><tr><td style="font-weight:bold;vertical-align:top;">http_content_type</td><td style="vertical-align:top;">:</td><td><div>multipart/form-data; boundary=---------------------------35748082613590407381287059113</div></td></tr><tr><td style="font-weight:bold;vertical-align:top;">http_cookie</td><td style="vertical-align:top;">:</td><td><div>session_id_welcome=127.0.0.1-7c5aa595-9d2f-45f8-abbd-6f004a85a1ef; session_id_aces=127.0.0.1-c0fa136a-bda2-4928-afc5-ebc29a68f510; session_id_admin=127.0.0.1-92874c0c-5d21-4608-b7c7-bc1accb0e688</div></td></tr><tr><td style="font-weight:bold;vertical-align:top;">http_dnt</td><td style="vertical-align:top;">:</td><td><div>1</div></td></tr><tr><td style="font-weight:bold;vertical-align:top;">http_host</td><td style="vertical-align:top;">:</td><td><div>127.0.0.1:8000</div></td></tr><tr><td style="font-weight:bold;vertical-align:top;">http_referer</td><td style="vertical-align:top;">:</td><td><div>http://127.0.0.1:8000/aces/linearwavetheory/second?H=1.0&amp;T=1&amp;Unit_of_Measurment=Imperial&amp;Water_Type=Salt+Water&amp;d=1&amp;z=1</div></td></tr><tr><td style="font-weight:bold;vertical-align:top;">http_user_agent</td><td style="vertical-align:top;">:</td><td><div>Mozilla/5.0 (X11; Linux x86_64; rv:45.0) Gecko/20100101 Firefox/45.0</div></td></tr><tr><td style="font-weight:bold;vertical-align:top;">is_jython</td><td style="vertical-align:top;">:</td><td><div>False</div></td></tr><tr><td style="font-weight:bold;vertical-align:top;">is_pypy</td><td style="vertical-align:top;">:</td><td><div>False</div></td></tr><tr><td style="font-weight:bold;vertical-align:top;">is_source</td><td style="vertical-align:top;">:</td><td><div>True</div></td></tr><tr><td style="font-weight:bold;vertical-align:top;">local_hosts</td><td style="vertical-align:top;">:</td><td><div><table><tr><td><div>::ffff:127.0.0.1</div></td></tr><tr><td><div>::1</div></td></tr><tr><td><div>X201</div></td></tr><tr><td><div>X201.gateway.thinkpad.net</div></td></tr><tr><td><div>127.0.1.1</div></td></tr><tr><td><div>127.0.0.1</div></td></tr></table></div></td></tr><tr><td style="font-weight:bold;vertical-align:top;">path_info</td><td style="vertical-align:top;">:</td><td><div>/aces/linearwavetheory/second</div></td></tr><tr><td style="font-weight:bold;vertical-align:top;">query_string</td><td style="vertical-align:top;">:</td><td><div>H=1.0&amp;T=1&amp;Unit_of_Measurment=Imperial&amp;Water_Type=Salt+Water&amp;d=1&amp;z=1</div></td></tr><tr><td style="font-weight:bold;vertical-align:top;">remote_addr</td><td style="vertical-align:top;">:</td><td><div>127.0.0.1</div></td></tr><tr><td style="font-weight:bold;vertical-align:top;">remote_port</td><td style="vertical-align:top;">:</td><td><div>35946</div></td></tr><tr><td style="font-weight:bold;vertical-align:top;">request_method</td><td style="vertical-align:top;">:</td><td><div>POST</div></td></tr><tr><td style="font-weight:bold;vertical-align:top;">request_uri</td><td style="vertical-align:top;">:</td><td><div>/aces/linearwavetheory/second?H=1.0&amp;T=1&amp;Unit_of_Measurment=Imperial&amp;Water_Type=Salt+Water&amp;d=1&amp;z=1</div></td></tr><tr><td style="font-weight:bold;vertical-align:top;">script_name</td><td style="vertical-align:top;">:</td><td><div></div></td></tr><tr><td style="font-weight:bold;vertical-align:top;">server_name</td><td style="vertical-align:top;">:</td><td><div>X201</div></td></tr><tr><td style="font-weight:bold;vertical-align:top;">server_port</td><td style="vertical-align:top;">:</td><td><div>8000</div></td></tr><tr><td style="font-weight:bold;vertical-align:top;">server_protocol</td><td style="vertical-align:top;">:</td><td><div>HTTP/1.1</div></td></tr><tr><td style="font-weight:bold;vertical-align:top;">server_software</td><td style="vertical-align:top;">:</td><td><div>Rocket 1.2.6</div></td></tr><tr><td style="font-weight:bold;vertical-align:top;">web2py_path</td><td style="vertical-align:top;">:</td><td><div>/home/linux/aces/web2py</div></td></tr><tr><td style="font-weight:bold;vertical-align:top;">web2py_version</td><td style="vertical-align:top;">:</td><td><div>2.14.6-stable+timestamp.2016.05.10.00.21.47</div></td></tr><tr><td style="font-weight:bold;vertical-align:top;">wsgi.errors</td><td style="vertical-align:top;">:</td><td><div>&lt;open file &#x27;&lt;stderr&gt;&#x27;, mode &#x27;w&#x27; at 0x7f8186b5a1e0&gt;</div></td></tr><tr><td style="font-weight:bold;vertical-align:top;">wsgi.file_wrapper</td><td style="vertical-align:top;">:</td><td><div>&lt;class wsgiref.util.FileWrapper at 0x7f817f895390&gt;</div></td></tr><tr><td style="font-weight:bold;vertical-align:top;">wsgi.input</td><td style="vertical-align:top;">:</td><td><div>&lt;socket._fileobject object at 0x7f816424f750&gt;</div></td></tr><tr><td style="font-weight:bold;vertical-align:top;">wsgi.multiprocess</td><td style="vertical-align:top;">:</td><td><div>False</div></td></tr><tr><td style="font-weight:bold;vertical-align:top;">wsgi.multithread</td><td style="vertical-align:top;">:</td><td><div>True</div></td></tr><tr><td style="font-weight:bold;vertical-align:top;">wsgi.run_once</td><td style="vertical-align:top;">:</td><td><div>False</div></td></tr><tr><td style="font-weight:bold;vertical-align:top;">wsgi.url_scheme</td><td style="vertical-align:top;">:</td><td><div>http</div></td></tr><tr><td style="font-weight:bold;vertical-align:top;">wsgi.version</td><td style="vertical-align:top;">:</td><td><div><table><tr><td><div>1</div></td></tr><tr><td><div>0</div></td></tr></table></div></td></tr><tr><td style="font-weight:bold;vertical-align:top;">wsgi_errors</td><td style="vertical-align:top;">:</td><td><div>&lt;open file &#x27;&lt;stderr&gt;&#x27;, mode &#x27;w&#x27; at 0x7f8186b5a1e0&gt;</div></td></tr><tr><td style="font-weight:bold;vertical-align:top;">wsgi_file_wrapper</td><td style="vertical-align:top;">:</td><td><div>&lt;class wsgiref.util.FileWrapper at 0x7f817f895390&gt;</div></td></tr><tr><td style="font-weight:bold;vertical-align:top;">wsgi_input</td><td style="vertical-align:top;">:</td><td><div>&lt;socket._fileobject object at 0x7f816424f750&gt;</div></td></tr><tr><td style="font-weight:bold;vertical-align:top;">wsgi_multiprocess</td><td style="vertical-align:top;">:</td><td><div>False</div></td></tr><tr><td style="font-weight:bold;vertical-align:top;">wsgi_multithread</td><td style="vertical-align:top;">:</td><td><div>True</div></td></tr><tr><td style="font-weight:bold;vertical-align:top;">wsgi_run_once</td><td style="vertical-align:top;">:</td><td><div>False</div></td></tr><tr><td style="font-weight:bold;vertical-align:top;">wsgi_url_scheme</td><td style="vertical-align:top;">:</td><td><div>http</div></td></tr><tr><td style="font-weight:bold;vertical-align:top;">wsgi_version</td><td style="vertical-align:top;">:</td><td><div><table><tr><td><div>1</div></td></tr><tr><td><div>0</div></td></tr></table></div></td></tr></table></div></td></tr><tr><td style="font-weight:bold;vertical-align:top;">extension</td><td style="vertical-align:top;">:</td><td><div>html</div></td></tr><tr><td style="font-weight:bold;vertical-align:top;">folder</td><td style="vertical-align:top;">:</td><td><div>/home/linux/aces/web2py/applications/aces/</div></td></tr><tr><td style="font-weight:bold;vertical-align:top;">function</td><td style="vertical-align:top;">:</td><td><div>second</div></td></tr><tr><td style="font-weight:bold;vertical-align:top;">global_settings</td><td style="vertical-align:top;">:</td><td><div><table><tr><td style="font-weight:bold;vertical-align:top;">app_folders</td><td style="vertical-align:top;">:</td><td><div>set([&#x27;/home/linux/aces/web2py/applications/admin/&#x27;, &#x27;/home/linux/aces/web2py/applications/welcome/&#x27;, &#x27;/home/linux/aces/web2py/applications/aces/&#x27;])</div></td></tr><tr><td style="font-weight:bold;vertical-align:top;">applications_parent</td><td style="vertical-align:top;">:</td><td><div>/home/linux/aces/web2py</div></td></tr><tr><td style="font-weight:bold;vertical-align:top;">cmd_args</td><td style="vertical-align:top;">:</td><td><div><table></table></div></td></tr><tr><td style="font-weight:bold;vertical-align:top;">cmd_options</td><td style="vertical-align:top;">:</td><td><div>&lt;Values at 0x7f817f7ef440: {&#x27;verbose&#x27;: False, &#x27;ip&#x27;: &#x27;127.0.0.1&#x27;, &#x27;debuglevel&#x27;: 30, &#x27;with_scheduler&#x27;: False, &#x27;shutdown_timeout&#x27;: 5, &#x27;taskbar&#x27;: False, &#x27;with_coverage&#x27;: False, &#x27;pid_filename&#x27;: &#x27;httpserver.pid&#x27;, &#x27;maxthreads&#x27;: None, &#x27;softcron&#x27;: False, &#x27;server_name&#x27;: &#x27;X201&#x27;, &#x27;bpython&#x27;: False, &#x27;nogui&#x27;: False, &#x27;port&#x27;: 8000, &#x27;print_errors&#x27;: False, &#x27;extcron&#x27;: False, &#x27;runcron&#x27;: False, &#x27;run_system_tests&#x27;: False, &#x27;test&#x27;: None, &#x27;folder&#x27;: &#x27;/home/linux/aces/web2py&#x27;, &#x27;config&#x27;: &#x27;&#x27;, &#x27;minthreads&#x27;: None, &#x27;shell&#x27;: None, &#x27;run&#x27;: &#x27;&#x27;, &#x27;log_filename&#x27;: &#x27;httpserver.log&#x27;, &#x27;profiler_dir&#x27;: None, &#x27;args&#x27;: [&#x27;&#x27;], &#x27;socket_timeout&#x27;: 5, &#x27;ssl_ca_certificate&#x27;: None, &#x27;scheduler&#x27;: None, &#x27;interfaces&#x27;: None, &#x27;ssl_private_key&#x27;: &#x27;&#x27;, &#x27;gae&#x27;: None, &#x27;password&#x27;: &#x27;******&#x27;, &#x27;request_queue_size&#x27;: 5, &#x27;ssl_certificate&#x27;: &#x27;&#x27;, &#x27;cronjob&#x27;: False, &#x27;numthreads&#x27;: None, &#x27;quiet&#x27;: False, &#x27;import_models&#x27;: False, &#x27;timeout&#x27;: 10, &#x27;plain&#x27;: False, &#x27;nobanner&#x27;: False}&gt;</div></td></tr><tr><td style="font-weight:bold;vertical-align:top;">db_sessions</td><td style="vertical-align:top;">:</td><td><div>set([])</div></td></tr><tr><td style="font-weight:bold;vertical-align:top;">debugging</td><td style="vertical-align:top;">:</td><td><div>False</div></td></tr><tr><td style="font-weight:bold;vertical-align:top;">gluon_parent</td><td style="vertical-align:top;">:</td><td><div>/home/linux/aces/web2py</div></td></tr><tr><td style="font-weight:bold;vertical-align:top;">is_jython</td><td style="vertical-align:top;">:</td><td><div>False</div></td></tr><tr><td style="font-weight:bold;vertical-align:top;">is_pypy</td><td style="vertical-align:top;">:</td><td><div>False</div></td></tr><tr><td style="font-weight:bold;vertical-align:top;">is_source</td><td style="vertical-align:top;">:</td><td><div>True</div></td></tr><tr><td style="font-weight:bold;vertical-align:top;">local_hosts</td><td style="vertical-align:top;">:</td><td><div><table><tr><td><div>::ffff:127.0.0.1</div></td></tr><tr><td><div>::1</div></td></tr><tr><td><div>X201</div></td></tr><tr><td><div>X201.gateway.thinkpad.net</div></td></tr><tr><td><div>127.0.1.1</div></td></tr><tr><td><div>127.0.0.1</div></td></tr></table></div></td></tr><tr><td style="font-weight:bold;vertical-align:top;">web2py_version</td><td style="vertical-align:top;">:</td><td><div>2.14.6-stable+timestamp.2016.05.10.00.21.47</div></td></tr></table></div></td></tr><tr><td style="font-weight:bold;vertical-align:top;">is_https</td><td style="vertical-align:top;">:</td><td><div>False</div></td></tr><tr><td style="font-weight:bold;vertical-align:top;">is_local</td><td style="vertical-align:top;">:</td><td><div>True</div></td></tr><tr><td style="font-weight:bold;vertical-align:top;">is_restful</td><td style="vertical-align:top;">:</td><td><div>False</div></td></tr><tr><td style="font-weight:bold;vertical-align:top;">is_scheduler</td><td style="vertical-align:top;">:</td><td><div>False</div></td></tr><tr><td style="font-weight:bold;vertical-align:top;">is_shell</td><td style="vertical-align:top;">:</td><td><div>False</div></td></tr><tr><td style="font-weight:bold;vertical-align:top;">now</td><td style="vertical-align:top;">:</td><td><div>datetime.datetime(2017, 4, 3, 15, 28, 48, 118087)</div></td></tr><tr><td style="font-weight:bold;vertical-align:top;">raw_args</td><td style="vertical-align:top;">:</td><td><div></div></td></tr><tr><td style="font-weight:bold;vertical-align:top;">raw_extension</td><td style="vertical-align:top;">:</td><td><div>None</div></td></tr><tr><td style="font-weight:bold;vertical-align:top;">url</td><td style="vertical-align:top;">:</td><td><div>/aces/linearwavetheory/second</div></td></tr><tr><td style="font-weight:bold;vertical-align:top;">utcnow</td><td style="vertical-align:top;">:</td><td><div>datetime.datetime(2017, 4, 4, 1, 28, 48, 118123)</div></td></tr><tr><td style="font-weight:bold;vertical-align:top;">wsgi</td><td style="vertical-align:top;">:</td><td><div>&lt;gluon.main.LazyWSGI object at 0x7f8146a2cd90&gt;</div></td></tr></table></div>'
tRp58
sS'frames'
p59
(lp60
(dp61
S'file'
p62
S'/home/linux/aces/web2py/gluon/restricted.py'
p63
sS'dump'
p64
(dp65
S'environment'
p66
S"{'A': <class 'gluon.html.A'>, 'ANY_OF': <class 'gluon.validators.ANY_OF'>, 'ASSIGNJS': <function ASSIGNJS>, 'AppConfig': <function AppConfig>, 'Auth': <class 'gluon.tools.Auth'>, 'B': <class 'gluon.html.B'>, 'BEAUTIFY': <class 'gluon.html.BEAUTIFY'>, 'BODY': <class 'gluon.html.BODY'>, 'BR': <class 'gluon.html.BR'>, 'BUTTON': <class 'gluon.html.BUTTON'>, ...}"
p67
sS'ccode'
p68
S'<code object <module> at 0x7f81640d01b0, file "/...ns/aces/controllers/linearwavetheory.py", line 1>'
p69
ssS'lnum'
p70
I227
sS'lines'
p71
(dp72
I224
S'            ccode = code'
p73
sI225
S'        else:'
p74
sI226
S'            ccode = compile2(code, layer)'
p75
sI227
S'        exec ccode in environment'
p76
sI228
S'    except HTTP:'
p77
sI229
S'        raise'
p78
sI230
S'    except RestrictedError:'
p79
sI231
S'        # do not encapsulate (obfuscate) the original RestrictedError'
p80
sI222
S'    try:'
p81
sI223
S'        if isinstance(code, types.CodeType):'
p82
ssS'call'
p83
S'(code=\'from helper_functions import *\\nimport json\\nimpor.../m^2"))\\n\\nresponse._vars=response._caller(second)\\n\', environment={\'A\': <class \'gluon.html.A\'>, \'ANY_OF\': <class \'gluon.validators.ANY_OF\'>, \'ASSIGNJS\': <function ASSIGNJS>, \'AppConfig\': <function AppConfig>, \'Auth\': <class \'gluon.tools.Auth\'>, \'B\': <class \'gluon.html.B\'>, \'BEAUTIFY\': <class \'gluon.html.BEAUTIFY\'>, \'BODY\': <class \'gluon.html.BODY\'>, \'BR\': <class \'gluon.html.BR\'>, \'BUTTON\': <class \'gluon.html.BUTTON\'>, ...}, layer=\'/home/linux/aces/web2py/applications/aces/controllers/linearwavetheory.py\')'
p84
sS'func'
p85
S'restricted'
p86
sa(dp87
g62
S'/home/linux/aces/web2py/applications/aces/controllers/linearwavetheory.py'
p88
sg64
(dp89
sg70
I182
sg71
(dp90
I171
S'        print("%s \\t\\t %-8.2f \\t %s \\n" % ("Energy flux", self.Ef, "N-m/m-s"))'
p91
sI172
S'        print("%s \\t\\t %-6.2f \\n" % ("Ursell number", self.Ur))'
p92
sI173
S'        print("%s \\t\\t %-6.2f \\t %s \\n" % ("Elevation", self.eta, "m"))'
p93
sI174
S'        print("%s \\t %-6.2f \\t %s \\n" % ("Horz. displacement", self.px, "m"))'
p94
sI175
S'        print("%s \\t %-6.2f \\t %s \\n" % ("Vert. displacement", self.py, "m"))'
p95
sI176
S'        print("%s \\t\\t %-6.2f \\t %s \\n" % ("Horz. velocity", self.u, "m/s"))'
p96
sI177
S'        print("%s \\t\\t %-6.2f \\t %s \\n" % ("Vert. velocity", self.w,"m/s"))'
p97
sI178
S'        print("%s \\t %-6.2f \\t %s \\n" % ("Horz. acceleration", self.dudt, "m/s^2"))'
p98
sI179
S'        print("%s \\t %-6.2f \\t %s \\n" % ("Vert. acceleration", self.dwdt, "m/s^2"))'
p99
sI180
S'        print("%s \\t\\t %-8.2f \\t %s \\n" % ("Pressure", self.pres, "N/m^2"))'
p100
ssg83
S'()'
p101
sg85
S'<module>'
p102
sa(dp103
g62
S'/home/linux/aces/web2py/gluon/globals.py'
p104
sg64
(dp105
S'self'
p106
S'undefined'
p107
sS'f'
S'<function second>'
p108
ssg70
I417
sg71
(dp109
I416
S'        self._vars = None'
p110
sI417
S'        self._caller = lambda f: f()'
p111
sI418
S'        self._view_environment = None'
p112
sI419
S'        self._custom_commit = None'
p113
sI420
S'        self._custom_rollback = None'
p114
sI421
S"        self.generic_patterns = ['*']"
p115
sI412
S"        self.flash = ''            # used by the default view layout"
p116
sI413
S'        self.meta = Storage()      # used by web2py_ajax.html'
p117
sI414
S'        self.menu = []             # used by the default view layout'
p118
sI415
S'        self.files = []            # used by web2py_ajax.html'
p119
ssg83
S'(f=<function second>)'
p120
sg85
S'<lambda>'
p121
sa(dp122
g62
S'/home/linux/aces/web2py/applications/aces/controllers/linearwavetheory.py'
p123
sg64
(dp124
S'global lwt'
p125
S'<function lwt>'
p126
sS'values'
p127
S"{'H': ['1.0', '1'], 'T': ['1', '1'], 'Unit_of_Measurment': ['Imperial', 'Imperial'], 'Water_Type': ['Salt Water', 'Salt Water'], 'd': ['1', '1'], 'z': ['1', '1']}"
p128
sS'builtindict'
p129
S"<type 'dict'>"
p130
ssg70
I40
sg71
(dp131
I35
S'    )'
p132
sI36
S"    form.custom.submit['_value'] = 'Submit'"
p133
sI37
S"    form['_style'] = 'width:450px;height:50px;'"
p134
sI38
S"    #form.element('select[name=T]')['_style']='width:400px;'"
p135
sI39
S"    values = dict(request.vars) or redirect(URL('index'))"
p136
sI40
S'    dict(lwt(values))'
p137
sI41
S'    return dict(form=form)'
p138
sI42
S''
sI43
S'def lwt(input_dict):'
p139
sI44
S'#def lwt(H, T, d, z, xL, unitSystem):'
p140
ssg83
S'()'
p141
sg85
S'second'
p142
sa(dp143
g62
S'/home/linux/aces/web2py/applications/aces/controllers/linearwavetheory.py'
p144
sg64
(dp145
S'H'
g107
sS'input_dict.get'
p146
S'<built-in method get of dict object>'
p147
sS'builtinfloat'
p148
S"<type 'float'>"
p149
sS'input_dict'
p150
S"{'H': ['1.0', '1'], 'T': ['1', '1'], 'Unit_of_Measurment': ['Imperial', 'Imperial'], 'Water_Type': ['Salt Water', 'Salt Water'], 'd': ['1', '1'], 'z': ['1', '1']}"
p151
ssg70
I46
sg71
(dp152
I41
S'    return dict(form=form)'
p153
sI42
S''
sI43
S'def lwt(input_dict):'
p154
sI44
S'#def lwt(H, T, d, z, xL, unitSystem):'
p155
sI45
S'    #internal = list(input_dict.values())'
p156
sI46
S"    H = float(input_dict.get('H'))"
p157
sI47
S"    T = float(input_dict.get('T'))"
p158
sI48
S"    d = float(input_dict.get('d'))"
p159
sI49
S"    z = float(input_dict.get('z'))"
p160
sI50
S'    xL = 4'
p161
ssg83
S"(input_dict={'H': ['1.0', '1'], 'T': ['1', '1'], 'Unit_of_Measurment': ['Imperial', 'Imperial'], 'Water_Type': ['Salt Water', 'Salt Water'], 'd': ['1', '1'], 'z': ['1', '1']})"
p162
sg85
S'lwt'
p163
sasS'pyver'
p164
S'Python 2.7.9: /usr/bin/python (prefix: /usr)'
p165
sS'session'
p166
g57
(S's\x1a\x00\x00\x00<div><table></table></div>'
tRp167
sS'etype'
p168
S"<type 'exceptions.TypeError'>"
p169
sS'date'
p170
S'Mon Apr  3 15:28:48 2017'
p171
sS'response'
p172
g57
(S's\xaf0\x00\x00<div><table><tr><td style="font-weight:bold;vertical-align:top;">body</td><td style="vertical-align:top;">:</td><td><div>&lt;cStringIO.StringO object at 0x7f8146bef378&gt;</div></td></tr><tr><td style="font-weight:bold;vertical-align:top;">cookies</td><td style="vertical-align:top;">:</td><td><div><table><tr><td style="font-weight:bold;vertical-align:top;">session_id_aces</td><td style="vertical-align:top;">:</td><td><div>127.0.0.1-c0fa136a-bda2-4928-afc5-ebc29a68f510<table><tr><td style="font-weight:bold;vertical-align:top;">comment</td><td style="vertical-align:top;">:</td><td><div></div></td></tr><tr><td style="font-weight:bold;vertical-align:top;">domain</td><td style="vertical-align:top;">:</td><td><div></div></td></tr><tr><td style="font-weight:bold;vertical-align:top;">expires</td><td style="vertical-align:top;">:</td><td><div></div></td></tr><tr><td style="font-weight:bold;vertical-align:top;">httponly</td><td style="vertical-align:top;">:</td><td><div></div></td></tr><tr><td style="font-weight:bold;vertical-align:top;">max-age</td><td style="vertical-align:top;">:</td><td><div></div></td></tr><tr><td style="font-weight:bold;vertical-align:top;">path</td><td style="vertical-align:top;">:</td><td><div>/</div></td></tr><tr><td style="font-weight:bold;vertical-align:top;">secure</td><td style="vertical-align:top;">:</td><td><div></div></td></tr><tr><td style="font-weight:bold;vertical-align:top;">version</td><td style="vertical-align:top;">:</td><td><div></div></td></tr></table></div></td></tr></table></div></td></tr><tr><td style="font-weight:bold;vertical-align:top;">delimiters</td><td style="vertical-align:top;">:</td><td><div><table><tr><td><div>{{</div></td></tr><tr><td><div>}}</div></td></tr></table></div></td></tr><tr><td style="font-weight:bold;vertical-align:top;">files</td><td style="vertical-align:top;">:</td><td><div><table></table></div></td></tr><tr><td style="font-weight:bold;vertical-align:top;">flash</td><td style="vertical-align:top;">:</td><td><div></div></td></tr><tr><td style="font-weight:bold;vertical-align:top;">form_label_separator</td><td style="vertical-align:top;">:</td><td><div></div></td></tr><tr><td style="font-weight:bold;vertical-align:top;">formstyle</td><td style="vertical-align:top;">:</td><td><div>bootstrap3_inline</div></td></tr><tr><td style="font-weight:bold;vertical-align:top;">generic_patterns</td><td style="vertical-align:top;">:</td><td><div><table><tr><td><div>*</div></td></tr></table></div></td></tr><tr><td style="font-weight:bold;vertical-align:top;">google_analytics_id</td><td style="vertical-align:top;">:</td><td><div>None</div></td></tr><tr><td style="font-weight:bold;vertical-align:top;">headers</td><td style="vertical-align:top;">:</td><td><div><table><tr><td style="font-weight:bold;vertical-align:top;">X-Powered-By</td><td style="vertical-align:top;">:</td><td><div>web2py</div></td></tr></table></div></td></tr><tr><td style="font-weight:bold;vertical-align:top;">logo</td><td style="vertical-align:top;">:</td><td><div><a class="navbar-brand" href="http://www.web2py.com/" id="web2py-logo"><b>web<span>2</span>py</b>&trade;&nbsp;</a></div></td></tr><tr><td style="font-weight:bold;vertical-align:top;">menu</td><td style="vertical-align:top;">:</td><td><div><table><tr><td><div><table><tr><td><div>Home</div></td></tr><tr><td><div>False</div></td></tr><tr><td><div>/aces/default/index</div></td></tr><tr><td><div><table></table></div></td></tr></table></div></td></tr><tr><td><div><table><tr><td><div>Inlet Process</div></td></tr><tr><td><div>False</div></td></tr><tr><td><div>/aces/test/inlet_process</div></td></tr><tr><td><div><table></table></div></td></tr></table></div></td></tr><tr><td><div><table><tr><td><div>Littoral Proceess</div></td></tr><tr><td><div>False</div></td></tr><tr><td><div>#</div></td></tr><tr><td><div><table><tr><td><div><table><tr><td><div>Beach Nourishment</div></td></tr><tr><td><div>False</div></td></tr><tr><td><div>#</div></td></tr></table></div></td></tr><tr><td><div><table><tr><td><div>Composite Grain-Size Distrobution</div></td></tr><tr><td><div>False</div></td></tr><tr><td><div>#</div></td></tr></table></div></td></tr><tr><td><div><table><tr><td><div>Longshore Sediment Transport</div></td></tr><tr><td><div>False</div></td></tr><tr><td><div>#</div></td></tr></table></div></td></tr><tr><td><div><table><tr><td><div>Time-Dependent Erosion</div></td></tr><tr><td><div>False</div></td></tr><tr><td><div>#</div></td></tr></table></div></td></tr></table></div></td></tr></table></div></td></tr><tr><td><div><table><tr><td><div>Structural Design</div></td></tr><tr><td><div>False</div></td></tr><tr><td><div>#</div></td></tr><tr><td><div><table><tr><td><div><table><tr><td><div>Breakwater Design</div></td></tr><tr><td><div>False</div></td></tr><tr><td><div>#</div></td></tr></table></div></td></tr><tr><td><div><table><tr><td><div>Nonbreaking Wave Forces</div></td></tr><tr><td><div>False</div></td></tr><tr><td><div>#</div></td></tr></table></div></td></tr><tr><td><div><table><tr><td><div>Rubble-Mound Revetment</div></td></tr><tr><td><div>False</div></td></tr><tr><td><div>#</div></td></tr></table></div></td></tr><tr><td><div><table><tr><td><div>Toe Procetion Design</div></td></tr><tr><td><div>False</div></td></tr><tr><td><div>#</div></td></tr></table></div></td></tr></table></div></td></tr></table></div></td></tr><tr><td><div><table><tr><td><div>Wave Prediction</div></td></tr><tr><td><div>False</div></td></tr><tr><td><div>#</div></td></tr><tr><td><div><table><tr><td><div><table><tr><td><div>Beta-Rayleigh</div></td></tr><tr><td><div>False</div></td></tr><tr><td><div>#</div></td></tr></table></div></td></tr><tr><td><div><table><tr><td><div>Constituent Tide</div></td></tr><tr><td><div>False</div></td></tr><tr><td><div>#</div></td></tr></table></div></td></tr><tr><td><div><table><tr><td><div>Extremal Significant Wave Height</div></td></tr><tr><td><div>False</div></td></tr><tr><td><div>#</div></td></tr></table></div></td></tr><tr><td><div><table><tr><td><div>Windspeed Adjustment</div></td></tr><tr><td><div>False</div></td></tr><tr><td><div>#</div></td></tr></table></div></td></tr></table></div></td></tr></table></div></td></tr><tr><td><div><table><tr><td><div>Wave Runup</div></td></tr><tr><td><div>False</div></td></tr><tr><td><div>#</div></td></tr><tr><td><div><table><tr><td><div><table><tr><td><div>Irregular Wave Runup</div></td></tr><tr><td><div>False</div></td></tr><tr><td><div>#</div></td></tr></table></div></td></tr><tr><td><div><table><tr><td><div>Wave Runup</div></td></tr><tr><td><div>False</div></td></tr><tr><td><div>#</div></td></tr></table></div></td></tr><tr><td><div><table><tr><td><div>Wave Transmission on Structures</div></td></tr><tr><td><div>False</div></td></tr><tr><td><div>#</div></td></tr></table></div></td></tr><tr><td><div><table><tr><td><div>Wave Transmission through Structures</div></td></tr><tr><td><div>False</div></td></tr><tr><td><div>#</div></td></tr></table></div></td></tr></table></div></td></tr></table></div></td></tr><tr><td><div><table><tr><td><div>Wave Theory</div></td></tr><tr><td><div>False</div></td></tr><tr><td><div>#</div></td></tr><tr><td><div><table><tr><td><div><table><tr><td><div>Cnoidal Wave</div></td></tr><tr><td><div>False</div></td></tr><tr><td><div>#</div></td></tr></table></div></td></tr><tr><td><div><table><tr><td><div>Fourier Series</div></td></tr><tr><td><div>False</div></td></tr><tr><td><div>#</div></td></tr></table></div></td></tr><tr><td><div><table><tr><td><div>Linear Wave</div></td></tr><tr><td><div>False</div></td></tr><tr><td><div>/aces/linearwavetheory/index</div></td></tr></table></div></td></tr></table></div></td></tr></table></div></td></tr><tr><td><div><table><tr><td><div>Wave Transforms</div></td></tr><tr><td><div>False</div></td></tr><tr><td><div>#</div></td></tr><tr><td><div><table><tr><td><div><table><tr><td><div>Combined Diffraction</div></td></tr><tr><td><div>False</div></td></tr><tr><td><div>#</div></td></tr></table></div></td></tr><tr><td><div><table><tr><td><div>Irregular Wave Transformation</div></td></tr><tr><td><div>False</div></td></tr><tr><td><div>#</div></td></tr></table></div></td></tr><tr><td><div><table><tr><td><div>Linear Wave with Snell\'s Law</div></td></tr><tr><td><div>False</div></td></tr><tr><td><div>#</div></td></tr></table></div></td></tr></table></div></td></tr></table></div></td></tr></table></div></td></tr><tr><td style="font-weight:bold;vertical-align:top;">meta</td><td style="vertical-align:top;">:</td><td><div><table><tr><td style="font-weight:bold;vertical-align:top;">author</td><td style="vertical-align:top;">:</td><td><div>Your Name &lt;you@example.com&gt;</div></td></tr><tr><td style="font-weight:bold;vertical-align:top;">description</td><td style="vertical-align:top;">:</td><td><div>a cool new app</div></td></tr><tr><td style="font-weight:bold;vertical-align:top;">generator</td><td style="vertical-align:top;">:</td><td><div>Web2py Web Framework</div></td></tr><tr><td style="font-weight:bold;vertical-align:top;">keywords</td><td style="vertical-align:top;">:</td><td><div><table><tr><td><div>web2py</div></td></tr><tr><td><div>python</div></td></tr><tr><td><div>framework</div></td></tr></table></div></td></tr></table></div></td></tr><tr><td style="font-weight:bold;vertical-align:top;">models_to_run</td><td style="vertical-align:top;">:</td><td><div><table><tr><td><div>^\\w+\\.py$</div></td></tr><tr><td><div>^linearwavetheory/\\w+\\.py$</div></td></tr><tr><td><div>^linearwavetheory/second/\\w+\\.py$</div></td></tr></table></div></td></tr><tr><td style="font-weight:bold;vertical-align:top;">postprocessing</td><td style="vertical-align:top;">:</td><td><div><table></table></div></td></tr><tr><td style="font-weight:bold;vertical-align:top;">session_client</td><td style="vertical-align:top;">:</td><td><div>127.0.0.1</div></td></tr><tr><td style="font-weight:bold;vertical-align:top;">session_cookie_compression_level</td><td style="vertical-align:top;">:</td><td><div>None</div></td></tr><tr><td style="font-weight:bold;vertical-align:top;">session_cookie_expires</td><td style="vertical-align:top;">:</td><td><div>None</div></td></tr><tr><td style="font-weight:bold;vertical-align:top;">session_data_name</td><td style="vertical-align:top;">:</td><td><div>session_data_aces</div></td></tr><tr><td style="font-weight:bold;vertical-align:top;">session_file</td><td style="vertical-align:top;">:</td><td><div>&lt;open file &#x27;/home/linux/aces/web2py/applications/aces/sessions/089/1f2/127.0.0.1-c0fa136a-bda2-4928-afc5-ebc29a68f510&#x27;, mode &#x27;rb+&#x27; at 0x7f81468d6030&gt;</div></td></tr><tr><td style="font-weight:bold;vertical-align:top;">session_filename</td><td style="vertical-align:top;">:</td><td><div>/home/linux/aces/web2py/applications/aces/sessions/127.0.0.1-c0fa136a-bda2-4928-afc5-ebc29a68f510</div></td></tr><tr><td style="font-weight:bold;vertical-align:top;">session_hash</td><td style="vertical-align:top;">:</td><td><div>8bfc723c15eb343bce79f6cbf3d3afd0</div></td></tr><tr><td style="font-weight:bold;vertical-align:top;">session_id</td><td style="vertical-align:top;">:</td><td><div>127.0.0.1-c0fa136a-bda2-4928-afc5-ebc29a68f510</div></td></tr><tr><td style="font-weight:bold;vertical-align:top;">session_id_name</td><td style="vertical-align:top;">:</td><td><div>session_id_aces</div></td></tr><tr><td style="font-weight:bold;vertical-align:top;">session_locked</td><td style="vertical-align:top;">:</td><td><div>True</div></td></tr><tr><td style="font-weight:bold;vertical-align:top;">session_masterapp</td><td style="vertical-align:top;">:</td><td><div>aces</div></td></tr><tr><td style="font-weight:bold;vertical-align:top;">session_new</td><td style="vertical-align:top;">:</td><td><div>False</div></td></tr><tr><td style="font-weight:bold;vertical-align:top;">session_storage_type</td><td style="vertical-align:top;">:</td><td><div>file</div></td></tr><tr><td style="font-weight:bold;vertical-align:top;">status</td><td style="vertical-align:top;">:</td><td><div>200</div></td></tr><tr><td style="font-weight:bold;vertical-align:top;">subtitle</td><td style="vertical-align:top;">:</td><td><div></div></td></tr><tr><td style="font-weight:bold;vertical-align:top;">title</td><td style="vertical-align:top;">:</td><td><div>Aces</div></td></tr><tr><td style="font-weight:bold;vertical-align:top;">view</td><td style="vertical-align:top;">:</td><td><div>linearwavetheory/second.html</div></td></tr></table></div>'
tRp173
sS'locals'
p174
(dp175
S'input_dict'
p176
S"{'H': ['1.0', '1'], 'T': ['1', '1'], 'Unit_of_Measurment': ['Imperial', 'Imperial'], 'Water_Type': ['Salt Water', 'Salt Water'], 'd': ['1', '1'], 'z': ['1', '1']}"
p177
sssS'traceback'
p178
S'Traceback (most recent call last):\n  File "/home/linux/aces/web2py/gluon/restricted.py", line 227, in restricted\n    exec ccode in environment\n  File "/home/linux/aces/web2py/applications/aces/controllers/linearwavetheory.py", line 182, in <module>\n  File "/home/linux/aces/web2py/gluon/globals.py", line 417, in <lambda>\n    self._caller = lambda f: f()\n  File "/home/linux/aces/web2py/applications/aces/controllers/linearwavetheory.py", line 40, in second\n    dict(lwt(values))\n  File "/home/linux/aces/web2py/applications/aces/controllers/linearwavetheory.py", line 46, in lwt\n    H = float(input_dict.get(\'H\'))\nTypeError: float() argument must be a string or a number\n'
p179
s.