(dp1
S'output'
p2
S''
sS'layer'
p3
S'/home/u4hcsdaw/Python/web2py/applications/ACES/controllers/default.py'
p4
sS'code'
p5
S'# -*- coding: utf-8 -*-\n# this file is released under public domain and you can use without limitations\n\n#########################################################################\n## This is a samples controller\n## - index is the default action of any application\n## - user is required for authentication and authorization\n## - download is for downloading files uploaded in the db (does streaming)\n## - call exposes all registered services (none by default)\n#########################################################################\n\ndef index():\n    """\n    example action using the internationalization operator T and flash\n    rendered by views/default/index.html or views/generic.html\n    """\n    import datetime\n    now=datetime.datetime.now()\n    nowS=now.strftime(\'%s\')\n    pre1=\'\'\n    img1=\'\'\n    \n    \n    f1=linearWaveForm()\n    if session.has_key(\'formVars\'):\n        for key in session[\'formVars\']:\n            f1.vars[key]=session[\'formVars\'][key]\n    #f1[\'vars\']=dict(waveHeight=0.85,wavePeriod=8.00,waveBrk=0.78,waterDepth=4.1)\n    if f1.accepts(request.vars,session):\n        session[\'formVars\']=f1.vars\n        t0=AcesCall(f1.vars)\n        pre1=PRE(t0)\n        img1=IMG(_src=URL(\'static\',\'images/Waves.svg?\'+nowS))\n    return dict(form=f1,pre1=pre1,img1=img1)\n\ndef user():\n    """ \n    exposes:\n    http://..../[app]/default/user/login\n    http://..../[app]/default/user/logout\n    http://..../[app]/default/user/register\n    http://..../[app]/default/user/profile\n    http://..../[app]/default/user/retrieve_password\n    http://..../[app]/default/user/change_password\n    use @auth.requires_login()\n        @auth.requires_membership(\'group name\')\n        @auth.requires_permission(\'read\',\'table name\',record_id)\n    to decorate functions that need access control\n    """\n    return dict(form=auth())\n\n\ndef download():\n    """\n    allows downloading of uploaded files\n    http://..../[app]/default/download/[filename]\n    """\n    return response.download(request,db)\n\n\ndef call():\n    """\n    exposes services. for example:\n    http://..../[app]/default/call/jsonrpc\n    decorate with @services.jsonrpc the functions to expose\n    supports xml, json, xmlrpc, jsonrpc, amfrpc, rss, csv\n    """\n    return service()\n\n\n@auth.requires_signature()\ndef data():\n    """\n    http://..../[app]/default/data/tables\n    http://..../[app]/default/data/create/[table]\n    http://..../[app]/default/data/read/[table]/[id]\n    http://..../[app]/default/data/update/[table]/[id]\n    http://..../[app]/default/data/delete/[table]/[id]\n    http://..../[app]/default/data/select/[table]\n    http://..../[app]/default/data/search/[table]\n    but URLs bust be signed, i.e. linked with\n      A(\'table\',_href=URL(\'data/tables\',user_signature=True))\n    or with the signed load operator\n      LOAD(\'default\',\'data.load\',args=\'tables\',ajax=True,user_signature=True)\n    """\n    return dict(form=crud())\n\nresponse._vars=response._caller(index)\n'
p6
sS'snapshot'
p7
(dp8
S'exception'
p9
(dp10
S'__module__'
p11
S"'sqlite3'"
p12
sS'__getslice__'
p13
S"<method-wrapper '__getslice__' of IntegrityError object>"
p14
sS'__str__'
p15
S"<method-wrapper '__str__' of IntegrityError object>"
p16
sS'__reduce__'
p17
S'<built-in method __reduce__ of IntegrityError object>'
p18
sS'__dict__'
p19
S'{}'
p20
sS'__sizeof__'
p21
S'<built-in method __sizeof__ of IntegrityError object>'
p22
sS'__weakref__'
p23
S'None'
p24
sS'__init__'
p25
S"<method-wrapper '__init__' of IntegrityError object>"
p26
sS'__setattr__'
p27
S"<method-wrapper '__setattr__' of IntegrityError object>"
p28
sS'__reduce_ex__'
p29
S'<built-in method __reduce_ex__ of IntegrityError object>'
p30
sS'__new__'
p31
S'<built-in method __new__ of type object>'
p32
sS'__format__'
p33
S'<built-in method __format__ of IntegrityError object>'
p34
sS'__class__'
p35
S"<class 'sqlite3.IntegrityError'>"
p36
sS'__doc__'
p37
S'None'
p38
sS'__getitem__'
p39
S"<method-wrapper '__getitem__' of IntegrityError object>"
p40
sS'__setstate__'
p41
S'<built-in method __setstate__ of IntegrityError object>'
p42
sS'__getattribute__'
p43
S"<method-wrapper '__getattribute__' of IntegrityError object>"
p44
sS'args'
p45
S"('PRIMARY KEY must be unique',)"
p46
sS'__subclasshook__'
p47
S'<built-in method __subclasshook__ of type object>'
p48
sS'__unicode__'
p49
S'<built-in method __unicode__ of IntegrityError object>'
p50
sS'__delattr__'
p51
S"<method-wrapper '__delattr__' of IntegrityError object>"
p52
sS'__repr__'
p53
S"<method-wrapper '__repr__' of IntegrityError object>"
p54
sS'__hash__'
p55
S"<method-wrapper '__hash__' of IntegrityError object>"
p56
ssS'evalue'
p57
S'PRIMARY KEY must be unique'
p58
sS'request'
p59
ccopy_reg
_reconstructor
p60
(cgluon.html
BEAUTIFY
p61
c__builtin__
object
p62
NtRp63
(dp64
S'attributes'
p65
(dp66
sS'components'
p67
(lp68
g60
(cgluon.html
TABLE
p69
g62
NtRp70
(dp71
g65
(dp72
S'level'
p73
I5
ssS'parent'
p74
Nsg67
(lp75
g60
(cgluon.html
TR
p76
g62
NtRp77
(dp78
g65
(dp79
sg74
g70
sg67
(lp80
g60
(cgluon.html
TD
p81
g62
NtRp82
(dp83
g65
(dp84
S'_style'
p85
S'font-weight:bold;'
p86
ssg74
g77
sg67
(lp87
S'ajax'
p88
asbag60
(g81
g62
NtRp89
(dp90
g65
(dp91
S'_valign'
p92
S'top'
p93
ssg74
g77
sg67
(lp94
S':'
asbag60
(g81
g62
NtRp95
(dp96
g65
(dp97
sg74
g77
sg67
(lp98
g60
(g61
g62
NtRp99
(dp100
g65
(dp101
g73
I5
ssg74
g95
sg67
(lp102
S'False'
p103
asbasbasbag60
(g76
g62
NtRp104
(dp105
g65
(dp106
sg74
g70
sg67
(lp107
g60
(g81
g62
NtRp108
(dp109
g65
(dp110
g85
g86
ssg74
g104
sg67
(lp111
S'application'
p112
asbag60
(g81
g62
NtRp113
(dp114
g65
(dp115
g92
g93
ssg74
g104
sg67
(lp116
S':'
asbag60
(g81
g62
NtRp117
(dp118
g65
(dp119
sg74
g104
sg67
(lp120
g60
(g61
g62
NtRp121
(dp122
g65
(dp123
g73
I5
ssg74
g117
sg67
(lp124
S'ACES'
p125
asbasbasbag60
(g76
g62
NtRp126
(dp127
g65
(dp128
sg74
g70
sg67
(lp129
g60
(g81
g62
NtRp130
(dp131
g65
(dp132
g85
g86
ssg74
g126
sg67
(lp133
g45
asbag60
(g81
g62
NtRp134
(dp135
g65
(dp136
g92
g93
ssg74
g126
sg67
(lp137
S':'
asbag60
(g81
g62
NtRp138
(dp139
g65
(dp140
sg74
g126
sg67
(lp141
g60
(g61
g62
NtRp142
(dp143
g65
(dp144
g73
I5
ssg74
g138
sg67
(lp145
g60
(g69
g62
NtRp146
(dp147
g65
(dp148
g73
I4
ssg74
Nsg67
(lp149
sbasbasbasbag60
(g76
g62
NtRp150
(dp151
g65
(dp152
sg74
g70
sg67
(lp153
g60
(g81
g62
NtRp154
(dp155
g65
(dp156
g85
g86
ssg74
g150
sg67
(lp157
S'body'
p158
asbag60
(g81
g62
NtRp159
(dp160
g65
(dp161
g92
g93
ssg74
g150
sg67
(lp162
S':'
asbag60
(g81
g62
NtRp163
(dp164
g65
(dp165
sg74
g150
sg67
(lp166
g60
(g61
g62
NtRp167
(dp168
g65
(dp169
g73
I5
ssg74
g163
sg67
(lp170
S"<open file '<fdopen>', mode 'w+b' at 0xacab6f40>"
p171
asbasbasbag60
(g76
g62
NtRp172
(dp173
g65
(dp174
sg74
g70
sg67
(lp175
g60
(g81
g62
NtRp176
(dp177
g65
(dp178
g85
g86
ssg74
g172
sg67
(lp179
S'client'
p180
asbag60
(g81
g62
NtRp181
(dp182
g65
(dp183
g92
g93
ssg74
g172
sg67
(lp184
S':'
asbag60
(g81
g62
NtRp185
(dp186
g65
(dp187
sg74
g172
sg67
(lp188
g60
(g61
g62
NtRp189
(dp190
g65
(dp191
g73
I5
ssg74
g185
sg67
(lp192
S'127.0.0.1'
p193
asbasbasbag60
(g76
g62
NtRp194
(dp195
g65
(dp196
sg74
g70
sg67
(lp197
g60
(g81
g62
NtRp198
(dp199
g65
(dp200
g85
g86
ssg74
g194
sg67
(lp201
S'controller'
p202
asbag60
(g81
g62
NtRp203
(dp204
g65
(dp205
g92
g93
ssg74
g194
sg67
(lp206
S':'
asbag60
(g81
g62
NtRp207
(dp208
g65
(dp209
sg74
g194
sg67
(lp210
g60
(g61
g62
NtRp211
(dp212
g65
(dp213
g73
I5
ssg74
g207
sg67
(lp214
S'default'
p215
asbasbasbag60
(g76
g62
NtRp216
(dp217
g65
(dp218
sg74
g70
sg67
(lp219
g60
(g81
g62
NtRp220
(dp221
g65
(dp222
g85
g86
ssg74
g216
sg67
(lp223
S'cookies'
p224
asbag60
(g81
g62
NtRp225
(dp226
g65
(dp227
g92
g93
ssg74
g216
sg67
(lp228
S':'
asbag60
(g81
g62
NtRp229
(dp230
g65
(dp231
sg74
g216
sg67
(lp232
g60
(g61
g62
NtRp233
(dp234
g65
(dp235
g73
I5
ssg74
g229
sg67
(lp236
g60
(g69
g62
NtRp237
(dp238
g65
(dp239
g73
I4
ssg74
Nsg67
(lp240
g60
(g76
g62
NtRp241
(dp242
g65
(dp243
sg74
g237
sg67
(lp244
g60
(g81
g62
NtRp245
(dp246
g65
(dp247
g85
g86
ssg74
g241
sg67
(lp248
S'session_id_aces'
p249
asbag60
(g81
g62
NtRp250
(dp251
g65
(dp252
g92
g93
ssg74
g241
sg67
(lp253
S':'
asbag60
(g81
g62
NtRp254
(dp255
g65
(dp256
sg74
g241
sg67
(lp257
g60
(g61
g62
NtRp258
(dp259
g65
(dp260
g73
I4
ssg74
g254
sg67
(lp261
g60
(g69
g62
NtRp262
(dp263
g65
(dp264
g73
I3
ssg74
Nsg67
(lp265
g60
(g76
g62
NtRp266
(dp267
g65
(dp268
sg74
g262
sg67
(lp269
g60
(g81
g62
NtRp270
(dp271
g65
(dp272
g85
g86
ssg74
g266
sg67
(lp273
S'comment'
p274
asbag60
(g81
g62
NtRp275
(dp276
g65
(dp277
g92
g93
ssg74
g266
sg67
(lp278
S':'
asbag60
(g81
g62
NtRp279
(dp280
g65
(dp281
sg74
g266
sg67
(lp282
g60
(g61
g62
NtRp283
(dp284
g65
(dp285
g73
I3
ssg74
g279
sg67
(lp286
S''
asbasbasbag60
(g76
g62
NtRp287
(dp288
g65
(dp289
sg74
g262
sg67
(lp290
g60
(g81
g62
NtRp291
(dp292
g65
(dp293
g85
g86
ssg74
g287
sg67
(lp294
S'domain'
p295
asbag60
(g81
g62
NtRp296
(dp297
g65
(dp298
g92
g93
ssg74
g287
sg67
(lp299
S':'
asbag60
(g81
g62
NtRp300
(dp301
g65
(dp302
sg74
g287
sg67
(lp303
g60
(g61
g62
NtRp304
(dp305
g65
(dp306
g73
I3
ssg74
g300
sg67
(lp307
S''
asbasbasbag60
(g76
g62
NtRp308
(dp309
g65
(dp310
sg74
g262
sg67
(lp311
g60
(g81
g62
NtRp312
(dp313
g65
(dp314
g85
g86
ssg74
g308
sg67
(lp315
S'expires'
p316
asbag60
(g81
g62
NtRp317
(dp318
g65
(dp319
g92
g93
ssg74
g308
sg67
(lp320
S':'
asbag60
(g81
g62
NtRp321
(dp322
g65
(dp323
sg74
g308
sg67
(lp324
g60
(g61
g62
NtRp325
(dp326
g65
(dp327
g73
I3
ssg74
g321
sg67
(lp328
S''
asbasbasbag60
(g76
g62
NtRp329
(dp330
g65
(dp331
sg74
g262
sg67
(lp332
g60
(g81
g62
NtRp333
(dp334
g65
(dp335
g85
g86
ssg74
g329
sg67
(lp336
S'httponly'
p337
asbag60
(g81
g62
NtRp338
(dp339
g65
(dp340
g92
g93
ssg74
g329
sg67
(lp341
S':'
asbag60
(g81
g62
NtRp342
(dp343
g65
(dp344
sg74
g329
sg67
(lp345
g60
(g61
g62
NtRp346
(dp347
g65
(dp348
g73
I3
ssg74
g342
sg67
(lp349
S''
asbasbasbag60
(g76
g62
NtRp350
(dp351
g65
(dp352
sg74
g262
sg67
(lp353
g60
(g81
g62
NtRp354
(dp355
g65
(dp356
g85
g86
ssg74
g350
sg67
(lp357
S'max-age'
p358
asbag60
(g81
g62
NtRp359
(dp360
g65
(dp361
g92
g93
ssg74
g350
sg67
(lp362
S':'
asbag60
(g81
g62
NtRp363
(dp364
g65
(dp365
sg74
g350
sg67
(lp366
g60
(g61
g62
NtRp367
(dp368
g65
(dp369
g73
I3
ssg74
g363
sg67
(lp370
S''
asbasbasbag60
(g76
g62
NtRp371
(dp372
g65
(dp373
sg74
g262
sg67
(lp374
g60
(g81
g62
NtRp375
(dp376
g65
(dp377
g85
g86
ssg74
g371
sg67
(lp378
S'path'
p379
asbag60
(g81
g62
NtRp380
(dp381
g65
(dp382
g92
g93
ssg74
g371
sg67
(lp383
S':'
asbag60
(g81
g62
NtRp384
(dp385
g65
(dp386
sg74
g371
sg67
(lp387
g60
(g61
g62
NtRp388
(dp389
g65
(dp390
g73
I3
ssg74
g384
sg67
(lp391
S''
asbasbasbag60
(g76
g62
NtRp392
(dp393
g65
(dp394
sg74
g262
sg67
(lp395
g60
(g81
g62
NtRp396
(dp397
g65
(dp398
g85
g86
ssg74
g392
sg67
(lp399
S'secure'
p400
asbag60
(g81
g62
NtRp401
(dp402
g65
(dp403
g92
g93
ssg74
g392
sg67
(lp404
S':'
asbag60
(g81
g62
NtRp405
(dp406
g65
(dp407
sg74
g392
sg67
(lp408
g60
(g61
g62
NtRp409
(dp410
g65
(dp411
g73
I3
ssg74
g405
sg67
(lp412
S''
asbasbasbag60
(g76
g62
NtRp413
(dp414
g65
(dp415
sg74
g262
sg67
(lp416
g60
(g81
g62
NtRp417
(dp418
g65
(dp419
g85
g86
ssg74
g413
sg67
(lp420
S'version'
p421
asbag60
(g81
g62
NtRp422
(dp423
g65
(dp424
g92
g93
ssg74
g413
sg67
(lp425
S':'
asbag60
(g81
g62
NtRp426
(dp427
g65
(dp428
sg74
g413
sg67
(lp429
g60
(g61
g62
NtRp430
(dp431
g65
(dp432
g73
I3
ssg74
g426
sg67
(lp433
S''
asbasbasbasbasbasbasbag60
(g76
g62
NtRp434
(dp435
g65
(dp436
sg74
g237
sg67
(lp437
g60
(g81
g62
NtRp438
(dp439
g65
(dp440
g85
g86
ssg74
g434
sg67
(lp441
S'session_id_admin'
p442
asbag60
(g81
g62
NtRp443
(dp444
g65
(dp445
g92
g93
ssg74
g434
sg67
(lp446
S':'
asbag60
(g81
g62
NtRp447
(dp448
g65
(dp449
sg74
g434
sg67
(lp450
g60
(g61
g62
NtRp451
(dp452
g65
(dp453
g73
I4
ssg74
g447
sg67
(lp454
g60
(g69
g62
NtRp455
(dp456
g65
(dp457
g73
I3
ssg74
Nsg67
(lp458
g60
(g76
g62
NtRp459
(dp460
g65
(dp461
sg74
g455
sg67
(lp462
g60
(g81
g62
NtRp463
(dp464
g65
(dp465
g85
g86
ssg74
g459
sg67
(lp466
g274
asbag60
(g81
g62
NtRp467
(dp468
g65
(dp469
g92
g93
ssg74
g459
sg67
(lp470
S':'
asbag60
(g81
g62
NtRp471
(dp472
g65
(dp473
sg74
g459
sg67
(lp474
g60
(g61
g62
NtRp475
(dp476
g65
(dp477
g73
I3
ssg74
g471
sg67
(lp478
S''
asbasbasbag60
(g76
g62
NtRp479
(dp480
g65
(dp481
sg74
g455
sg67
(lp482
g60
(g81
g62
NtRp483
(dp484
g65
(dp485
g85
g86
ssg74
g479
sg67
(lp486
g295
asbag60
(g81
g62
NtRp487
(dp488
g65
(dp489
g92
g93
ssg74
g479
sg67
(lp490
S':'
asbag60
(g81
g62
NtRp491
(dp492
g65
(dp493
sg74
g479
sg67
(lp494
g60
(g61
g62
NtRp495
(dp496
g65
(dp497
g73
I3
ssg74
g491
sg67
(lp498
S''
asbasbasbag60
(g76
g62
NtRp499
(dp500
g65
(dp501
sg74
g455
sg67
(lp502
g60
(g81
g62
NtRp503
(dp504
g65
(dp505
g85
g86
ssg74
g499
sg67
(lp506
g316
asbag60
(g81
g62
NtRp507
(dp508
g65
(dp509
g92
g93
ssg74
g499
sg67
(lp510
S':'
asbag60
(g81
g62
NtRp511
(dp512
g65
(dp513
sg74
g499
sg67
(lp514
g60
(g61
g62
NtRp515
(dp516
g65
(dp517
g73
I3
ssg74
g511
sg67
(lp518
S''
asbasbasbag60
(g76
g62
NtRp519
(dp520
g65
(dp521
sg74
g455
sg67
(lp522
g60
(g81
g62
NtRp523
(dp524
g65
(dp525
g85
g86
ssg74
g519
sg67
(lp526
g337
asbag60
(g81
g62
NtRp527
(dp528
g65
(dp529
g92
g93
ssg74
g519
sg67
(lp530
S':'
asbag60
(g81
g62
NtRp531
(dp532
g65
(dp533
sg74
g519
sg67
(lp534
g60
(g61
g62
NtRp535
(dp536
g65
(dp537
g73
I3
ssg74
g531
sg67
(lp538
S''
asbasbasbag60
(g76
g62
NtRp539
(dp540
g65
(dp541
sg74
g455
sg67
(lp542
g60
(g81
g62
NtRp543
(dp544
g65
(dp545
g85
g86
ssg74
g539
sg67
(lp546
g358
asbag60
(g81
g62
NtRp547
(dp548
g65
(dp549
g92
g93
ssg74
g539
sg67
(lp550
S':'
asbag60
(g81
g62
NtRp551
(dp552
g65
(dp553
sg74
g539
sg67
(lp554
g60
(g61
g62
NtRp555
(dp556
g65
(dp557
g73
I3
ssg74
g551
sg67
(lp558
S''
asbasbasbag60
(g76
g62
NtRp559
(dp560
g65
(dp561
sg74
g455
sg67
(lp562
g60
(g81
g62
NtRp563
(dp564
g65
(dp565
g85
g86
ssg74
g559
sg67
(lp566
g379
asbag60
(g81
g62
NtRp567
(dp568
g65
(dp569
g92
g93
ssg74
g559
sg67
(lp570
S':'
asbag60
(g81
g62
NtRp571
(dp572
g65
(dp573
sg74
g559
sg67
(lp574
g60
(g61
g62
NtRp575
(dp576
g65
(dp577
g73
I3
ssg74
g571
sg67
(lp578
S''
asbasbasbag60
(g76
g62
NtRp579
(dp580
g65
(dp581
sg74
g455
sg67
(lp582
g60
(g81
g62
NtRp583
(dp584
g65
(dp585
g85
g86
ssg74
g579
sg67
(lp586
g400
asbag60
(g81
g62
NtRp587
(dp588
g65
(dp589
g92
g93
ssg74
g579
sg67
(lp590
S':'
asbag60
(g81
g62
NtRp591
(dp592
g65
(dp593
sg74
g579
sg67
(lp594
g60
(g61
g62
NtRp595
(dp596
g65
(dp597
g73
I3
ssg74
g591
sg67
(lp598
S''
asbasbasbag60
(g76
g62
NtRp599
(dp600
g65
(dp601
sg74
g455
sg67
(lp602
g60
(g81
g62
NtRp603
(dp604
g65
(dp605
g85
g86
ssg74
g599
sg67
(lp606
g421
asbag60
(g81
g62
NtRp607
(dp608
g65
(dp609
g92
g93
ssg74
g599
sg67
(lp610
S':'
asbag60
(g81
g62
NtRp611
(dp612
g65
(dp613
sg74
g599
sg67
(lp614
g60
(g61
g62
NtRp615
(dp616
g65
(dp617
g73
I3
ssg74
g611
sg67
(lp618
S''
asbasbasbasbasbasbasbag60
(g76
g62
NtRp619
(dp620
g65
(dp621
sg74
g237
sg67
(lp622
g60
(g81
g62
NtRp623
(dp624
g65
(dp625
g85
g86
ssg74
g619
sg67
(lp626
S'session_id_dalex1'
p627
asbag60
(g81
g62
NtRp628
(dp629
g65
(dp630
g92
g93
ssg74
g619
sg67
(lp631
S':'
asbag60
(g81
g62
NtRp632
(dp633
g65
(dp634
sg74
g619
sg67
(lp635
g60
(g61
g62
NtRp636
(dp637
g65
(dp638
g73
I4
ssg74
g632
sg67
(lp639
g60
(g69
g62
NtRp640
(dp641
g65
(dp642
g73
I3
ssg74
Nsg67
(lp643
g60
(g76
g62
NtRp644
(dp645
g65
(dp646
sg74
g640
sg67
(lp647
g60
(g81
g62
NtRp648
(dp649
g65
(dp650
g85
g86
ssg74
g644
sg67
(lp651
g274
asbag60
(g81
g62
NtRp652
(dp653
g65
(dp654
g92
g93
ssg74
g644
sg67
(lp655
S':'
asbag60
(g81
g62
NtRp656
(dp657
g65
(dp658
sg74
g644
sg67
(lp659
g60
(g61
g62
NtRp660
(dp661
g65
(dp662
g73
I3
ssg74
g656
sg67
(lp663
S''
asbasbasbag60
(g76
g62
NtRp664
(dp665
g65
(dp666
sg74
g640
sg67
(lp667
g60
(g81
g62
NtRp668
(dp669
g65
(dp670
g85
g86
ssg74
g664
sg67
(lp671
g295
asbag60
(g81
g62
NtRp672
(dp673
g65
(dp674
g92
g93
ssg74
g664
sg67
(lp675
S':'
asbag60
(g81
g62
NtRp676
(dp677
g65
(dp678
sg74
g664
sg67
(lp679
g60
(g61
g62
NtRp680
(dp681
g65
(dp682
g73
I3
ssg74
g676
sg67
(lp683
S''
asbasbasbag60
(g76
g62
NtRp684
(dp685
g65
(dp686
sg74
g640
sg67
(lp687
g60
(g81
g62
NtRp688
(dp689
g65
(dp690
g85
g86
ssg74
g684
sg67
(lp691
g316
asbag60
(g81
g62
NtRp692
(dp693
g65
(dp694
g92
g93
ssg74
g684
sg67
(lp695
S':'
asbag60
(g81
g62
NtRp696
(dp697
g65
(dp698
sg74
g684
sg67
(lp699
g60
(g61
g62
NtRp700
(dp701
g65
(dp702
g73
I3
ssg74
g696
sg67
(lp703
S''
asbasbasbag60
(g76
g62
NtRp704
(dp705
g65
(dp706
sg74
g640
sg67
(lp707
g60
(g81
g62
NtRp708
(dp709
g65
(dp710
g85
g86
ssg74
g704
sg67
(lp711
g337
asbag60
(g81
g62
NtRp712
(dp713
g65
(dp714
g92
g93
ssg74
g704
sg67
(lp715
S':'
asbag60
(g81
g62
NtRp716
(dp717
g65
(dp718
sg74
g704
sg67
(lp719
g60
(g61
g62
NtRp720
(dp721
g65
(dp722
g73
I3
ssg74
g716
sg67
(lp723
S''
asbasbasbag60
(g76
g62
NtRp724
(dp725
g65
(dp726
sg74
g640
sg67
(lp727
g60
(g81
g62
NtRp728
(dp729
g65
(dp730
g85
g86
ssg74
g724
sg67
(lp731
g358
asbag60
(g81
g62
NtRp732
(dp733
g65
(dp734
g92
g93
ssg74
g724
sg67
(lp735
S':'
asbag60
(g81
g62
NtRp736
(dp737
g65
(dp738
sg74
g724
sg67
(lp739
g60
(g61
g62
NtRp740
(dp741
g65
(dp742
g73
I3
ssg74
g736
sg67
(lp743
S''
asbasbasbag60
(g76
g62
NtRp744
(dp745
g65
(dp746
sg74
g640
sg67
(lp747
g60
(g81
g62
NtRp748
(dp749
g65
(dp750
g85
g86
ssg74
g744
sg67
(lp751
g379
asbag60
(g81
g62
NtRp752
(dp753
g65
(dp754
g92
g93
ssg74
g744
sg67
(lp755
S':'
asbag60
(g81
g62
NtRp756
(dp757
g65
(dp758
sg74
g744
sg67
(lp759
g60
(g61
g62
NtRp760
(dp761
g65
(dp762
g73
I3
ssg74
g756
sg67
(lp763
S''
asbasbasbag60
(g76
g62
NtRp764
(dp765
g65
(dp766
sg74
g640
sg67
(lp767
g60
(g81
g62
NtRp768
(dp769
g65
(dp770
g85
g86
ssg74
g764
sg67
(lp771
g400
asbag60
(g81
g62
NtRp772
(dp773
g65
(dp774
g92
g93
ssg74
g764
sg67
(lp775
S':'
asbag60
(g81
g62
NtRp776
(dp777
g65
(dp778
sg74
g764
sg67
(lp779
g60
(g61
g62
NtRp780
(dp781
g65
(dp782
g73
I3
ssg74
g776
sg67
(lp783
S''
asbasbasbag60
(g76
g62
NtRp784
(dp785
g65
(dp786
sg74
g640
sg67
(lp787
g60
(g81
g62
NtRp788
(dp789
g65
(dp790
g85
g86
ssg74
g784
sg67
(lp791
g421
asbag60
(g81
g62
NtRp792
(dp793
g65
(dp794
g92
g93
ssg74
g784
sg67
(lp795
S':'
asbag60
(g81
g62
NtRp796
(dp797
g65
(dp798
sg74
g784
sg67
(lp799
g60
(g61
g62
NtRp800
(dp801
g65
(dp802
g73
I3
ssg74
g796
sg67
(lp803
S''
asbasbasbasbasbasbasbag60
(g76
g62
NtRp804
(dp805
g65
(dp806
sg74
g237
sg67
(lp807
g60
(g81
g62
NtRp808
(dp809
g65
(dp810
g85
g86
ssg74
g804
sg67
(lp811
S'session_id_welcome'
p812
asbag60
(g81
g62
NtRp813
(dp814
g65
(dp815
g92
g93
ssg74
g804
sg67
(lp816
S':'
asbag60
(g81
g62
NtRp817
(dp818
g65
(dp819
sg74
g804
sg67
(lp820
g60
(g61
g62
NtRp821
(dp822
g65
(dp823
g73
I4
ssg74
g817
sg67
(lp824
g60
(g69
g62
NtRp825
(dp826
g65
(dp827
g73
I3
ssg74
Nsg67
(lp828
g60
(g76
g62
NtRp829
(dp830
g65
(dp831
sg74
g825
sg67
(lp832
g60
(g81
g62
NtRp833
(dp834
g65
(dp835
g85
g86
ssg74
g829
sg67
(lp836
g274
asbag60
(g81
g62
NtRp837
(dp838
g65
(dp839
g92
g93
ssg74
g829
sg67
(lp840
S':'
asbag60
(g81
g62
NtRp841
(dp842
g65
(dp843
sg74
g829
sg67
(lp844
g60
(g61
g62
NtRp845
(dp846
g65
(dp847
g73
I3
ssg74
g841
sg67
(lp848
S''
asbasbasbag60
(g76
g62
NtRp849
(dp850
g65
(dp851
sg74
g825
sg67
(lp852
g60
(g81
g62
NtRp853
(dp854
g65
(dp855
g85
g86
ssg74
g849
sg67
(lp856
g295
asbag60
(g81
g62
NtRp857
(dp858
g65
(dp859
g92
g93
ssg74
g849
sg67
(lp860
S':'
asbag60
(g81
g62
NtRp861
(dp862
g65
(dp863
sg74
g849
sg67
(lp864
g60
(g61
g62
NtRp865
(dp866
g65
(dp867
g73
I3
ssg74
g861
sg67
(lp868
S''
asbasbasbag60
(g76
g62
NtRp869
(dp870
g65
(dp871
sg74
g825
sg67
(lp872
g60
(g81
g62
NtRp873
(dp874
g65
(dp875
g85
g86
ssg74
g869
sg67
(lp876
g316
asbag60
(g81
g62
NtRp877
(dp878
g65
(dp879
g92
g93
ssg74
g869
sg67
(lp880
S':'
asbag60
(g81
g62
NtRp881
(dp882
g65
(dp883
sg74
g869
sg67
(lp884
g60
(g61
g62
NtRp885
(dp886
g65
(dp887
g73
I3
ssg74
g881
sg67
(lp888
S''
asbasbasbag60
(g76
g62
NtRp889
(dp890
g65
(dp891
sg74
g825
sg67
(lp892
g60
(g81
g62
NtRp893
(dp894
g65
(dp895
g85
g86
ssg74
g889
sg67
(lp896
g337
asbag60
(g81
g62
NtRp897
(dp898
g65
(dp899
g92
g93
ssg74
g889
sg67
(lp900
S':'
asbag60
(g81
g62
NtRp901
(dp902
g65
(dp903
sg74
g889
sg67
(lp904
g60
(g61
g62
NtRp905
(dp906
g65
(dp907
g73
I3
ssg74
g901
sg67
(lp908
S''
asbasbasbag60
(g76
g62
NtRp909
(dp910
g65
(dp911
sg74
g825
sg67
(lp912
g60
(g81
g62
NtRp913
(dp914
g65
(dp915
g85
g86
ssg74
g909
sg67
(lp916
g358
asbag60
(g81
g62
NtRp917
(dp918
g65
(dp919
g92
g93
ssg74
g909
sg67
(lp920
S':'
asbag60
(g81
g62
NtRp921
(dp922
g65
(dp923
sg74
g909
sg67
(lp924
g60
(g61
g62
NtRp925
(dp926
g65
(dp927
g73
I3
ssg74
g921
sg67
(lp928
S''
asbasbasbag60
(g76
g62
NtRp929
(dp930
g65
(dp931
sg74
g825
sg67
(lp932
g60
(g81
g62
NtRp933
(dp934
g65
(dp935
g85
g86
ssg74
g929
sg67
(lp936
g379
asbag60
(g81
g62
NtRp937
(dp938
g65
(dp939
g92
g93
ssg74
g929
sg67
(lp940
S':'
asbag60
(g81
g62
NtRp941
(dp942
g65
(dp943
sg74
g929
sg67
(lp944
g60
(g61
g62
NtRp945
(dp946
g65
(dp947
g73
I3
ssg74
g941
sg67
(lp948
S''
asbasbasbag60
(g76
g62
NtRp949
(dp950
g65
(dp951
sg74
g825
sg67
(lp952
g60
(g81
g62
NtRp953
(dp954
g65
(dp955
g85
g86
ssg74
g949
sg67
(lp956
g400
asbag60
(g81
g62
NtRp957
(dp958
g65
(dp959
g92
g93
ssg74
g949
sg67
(lp960
S':'
asbag60
(g81
g62
NtRp961
(dp962
g65
(dp963
sg74
g949
sg67
(lp964
g60
(g61
g62
NtRp965
(dp966
g65
(dp967
g73
I3
ssg74
g961
sg67
(lp968
S''
asbasbasbag60
(g76
g62
NtRp969
(dp970
g65
(dp971
sg74
g825
sg67
(lp972
g60
(g81
g62
NtRp973
(dp974
g65
(dp975
g85
g86
ssg74
g969
sg67
(lp976
g421
asbag60
(g81
g62
NtRp977
(dp978
g65
(dp979
g92
g93
ssg74
g969
sg67
(lp980
S':'
asbag60
(g81
g62
NtRp981
(dp982
g65
(dp983
sg74
g969
sg67
(lp984
g60
(g61
g62
NtRp985
(dp986
g65
(dp987
g73
I3
ssg74
g981
sg67
(lp988
S''
asbasbasbasbasbasbasbasbasbasbasbag60
(g76
g62
NtRp989
(dp990
g65
(dp991
sg74
g70
sg67
(lp992
g60
(g81
g62
NtRp993
(dp994
g65
(dp995
g85
g86
ssg74
g989
sg67
(lp996
S'env'
p997
asbag60
(g81
g62
NtRp998
(dp999
g65
(dp1000
g92
g93
ssg74
g989
sg67
(lp1001
S':'
asbag60
(g81
g62
NtRp1002
(dp1003
g65
(dp1004
sg74
g989
sg67
(lp1005
g60
(g61
g62
NtRp1006
(dp1007
g65
(dp1008
g73
I5
ssg74
g1002
sg67
(lp1009
g60
(g69
g62
NtRp1010
(dp1011
g65
(dp1012
g73
I4
ssg74
Nsg67
(lp1013
g60
(g76
g62
NtRp1014
(dp1015
g65
(dp1016
sg74
g1010
sg67
(lp1017
g60
(g81
g62
NtRp1018
(dp1019
g65
(dp1020
g85
g86
ssg74
g1014
sg67
(lp1021
S'app_folders'
p1022
asbag60
(g81
g62
NtRp1023
(dp1024
g65
(dp1025
g92
g93
ssg74
g1014
sg67
(lp1026
S':'
asbag60
(g81
g62
NtRp1027
(dp1028
g65
(dp1029
sg74
g1014
sg67
(lp1030
g60
(g61
g62
NtRp1031
(dp1032
g65
(dp1033
g73
I4
ssg74
g1027
sg67
(lp1034
S"set(['/home/u4hcsdaw/Python/web2py/applications/ACES/', '/home/u4hcsdaw/Python/web2py/applications/admin/', '/home/u4hcsdaw/Python/web2py/applications/welcome/', '/home/u4hcsdaw/Python/web2py/applications/DALEX1/'])"
p1035
asbasbasbag60
(g76
g62
NtRp1036
(dp1037
g65
(dp1038
sg74
g1010
sg67
(lp1039
g60
(g81
g62
NtRp1040
(dp1041
g65
(dp1042
g85
g86
ssg74
g1036
sg67
(lp1043
S'applications_parent'
p1044
asbag60
(g81
g62
NtRp1045
(dp1046
g65
(dp1047
g92
g93
ssg74
g1036
sg67
(lp1048
S':'
asbag60
(g81
g62
NtRp1049
(dp1050
g65
(dp1051
sg74
g1036
sg67
(lp1052
g60
(g61
g62
NtRp1053
(dp1054
g65
(dp1055
g73
I4
ssg74
g1049
sg67
(lp1056
S'/home/u4hcsdaw/Python/web2py'
p1057
asbasbasbag60
(g76
g62
NtRp1058
(dp1059
g65
(dp1060
sg74
g1010
sg67
(lp1061
g60
(g81
g62
NtRp1062
(dp1063
g65
(dp1064
g85
g86
ssg74
g1058
sg67
(lp1065
S'cmd_args'
p1066
asbag60
(g81
g62
NtRp1067
(dp1068
g65
(dp1069
g92
g93
ssg74
g1058
sg67
(lp1070
S':'
asbag60
(g81
g62
NtRp1071
(dp1072
g65
(dp1073
sg74
g1058
sg67
(lp1074
g60
(g61
g62
NtRp1075
(dp1076
g65
(dp1077
g73
I4
ssg74
g1071
sg67
(lp1078
g60
(g69
g62
NtRp1079
(dp1080
g65
(dp1081
g73
I3
ssg74
Nsg67
(lp1082
sbasbasbasbag60
(g76
g62
NtRp1083
(dp1084
g65
(dp1085
sg74
g1010
sg67
(lp1086
g60
(g81
g62
NtRp1087
(dp1088
g65
(dp1089
g85
g86
ssg74
g1083
sg67
(lp1090
S'cmd_options'
p1091
asbag60
(g81
g62
NtRp1092
(dp1093
g65
(dp1094
g92
g93
ssg74
g1083
sg67
(lp1095
S':'
asbag60
(g81
g62
NtRp1096
(dp1097
g65
(dp1098
sg74
g1083
sg67
(lp1099
g60
(g61
g62
NtRp1100
(dp1101
g65
(dp1102
g73
I4
ssg74
g1096
sg67
(lp1103
S"<Values at 0xa7a4aec: {'verbose': False, 'ip': '127.0.0.1', 'shutdown_timeout': 5, 'taskbar': False, 'nocron': False, 'pid_filename': 'httpserver.pid', 'maxthreads': None, 'softcron': False, 'server_name': 'chl-5833E', 'bpython': False, 'nogui': False, 'port': 8000, 'extcron': False, 'debuglevel': 30, 'test': None, 'folder': '/home/u4hcsdaw/Python/web2py', 'config': '', 'import_models': False, 'winservice': '', 'shell': None, 'run': '', 'log_filename': 'httpserver.log', 'args': [''], 'ssl_ca_certificate': None, 'scheduler': None, 'profiler_filename': None, 'ssl_private_key': '', 'password': '<ask>', 'request_queue_size': 5, 'ssl_certificate': '', 'cronjob': False, 'plain': False, 'quiet': False, 'interfaces': None, 'minthreads': None, 'timeout': 10, 'numthreads': None, 'nobanner': False}>"
p1104
asbasbasbag60
(g76
g62
NtRp1105
(dp1106
g65
(dp1107
sg74
g1010
sg67
(lp1108
g60
(g81
g62
NtRp1109
(dp1110
g65
(dp1111
g85
g86
ssg74
g1105
sg67
(lp1112
S'content_length'
p1113
asbag60
(g81
g62
NtRp1114
(dp1115
g65
(dp1116
g92
g93
ssg74
g1105
sg67
(lp1117
S':'
asbag60
(g81
g62
NtRp1118
(dp1119
g65
(dp1120
sg74
g1105
sg67
(lp1121
g60
(g61
g62
NtRp1122
(dp1123
g65
(dp1124
g73
I4
ssg74
g1118
sg67
(lp1125
S'919'
p1126
asbasbasbag60
(g76
g62
NtRp1127
(dp1128
g65
(dp1129
sg74
g1010
sg67
(lp1130
g60
(g81
g62
NtRp1131
(dp1132
g65
(dp1133
g85
g86
ssg74
g1127
sg67
(lp1134
S'content_type'
p1135
asbag60
(g81
g62
NtRp1136
(dp1137
g65
(dp1138
g92
g93
ssg74
g1127
sg67
(lp1139
S':'
asbag60
(g81
g62
NtRp1140
(dp1141
g65
(dp1142
sg74
g1127
sg67
(lp1143
g60
(g61
g62
NtRp1144
(dp1145
g65
(dp1146
g73
I4
ssg74
g1140
sg67
(lp1147
S'multipart/form-data; boundary=---------------------------1824517979133569832905969869'
p1148
asbasbasbag60
(g76
g62
NtRp1149
(dp1150
g65
(dp1151
sg74
g1010
sg67
(lp1152
g60
(g81
g62
NtRp1153
(dp1154
g65
(dp1155
g85
g86
ssg74
g1149
sg67
(lp1156
S'db_sessions'
p1157
asbag60
(g81
g62
NtRp1158
(dp1159
g65
(dp1160
g92
g93
ssg74
g1149
sg67
(lp1161
S':'
asbag60
(g81
g62
NtRp1162
(dp1163
g65
(dp1164
sg74
g1149
sg67
(lp1165
g60
(g61
g62
NtRp1166
(dp1167
g65
(dp1168
g73
I4
ssg74
g1162
sg67
(lp1169
S'set([])'
p1170
asbasbasbag60
(g76
g62
NtRp1171
(dp1172
g65
(dp1173
sg74
g1010
sg67
(lp1174
g60
(g81
g62
NtRp1175
(dp1176
g65
(dp1177
g85
g86
ssg74
g1171
sg67
(lp1178
S'debugging'
p1179
asbag60
(g81
g62
NtRp1180
(dp1181
g65
(dp1182
g92
g93
ssg74
g1171
sg67
(lp1183
S':'
asbag60
(g81
g62
NtRp1184
(dp1185
g65
(dp1186
sg74
g1171
sg67
(lp1187
g60
(g61
g62
NtRp1188
(dp1189
g65
(dp1190
g73
I4
ssg74
g1184
sg67
(lp1191
g103
asbasbasbag60
(g76
g62
NtRp1192
(dp1193
g65
(dp1194
sg74
g1010
sg67
(lp1195
g60
(g81
g62
NtRp1196
(dp1197
g65
(dp1198
g85
g86
ssg74
g1192
sg67
(lp1199
S'gluon_parent'
p1200
asbag60
(g81
g62
NtRp1201
(dp1202
g65
(dp1203
g92
g93
ssg74
g1192
sg67
(lp1204
S':'
asbag60
(g81
g62
NtRp1205
(dp1206
g65
(dp1207
sg74
g1192
sg67
(lp1208
g60
(g61
g62
NtRp1209
(dp1210
g65
(dp1211
g73
I4
ssg74
g1205
sg67
(lp1212
S'/home/u4hcsdaw/Python/web2py'
p1213
asbasbasbag60
(g76
g62
NtRp1214
(dp1215
g65
(dp1216
sg74
g1010
sg67
(lp1217
g60
(g81
g62
NtRp1218
(dp1219
g65
(dp1220
g85
g86
ssg74
g1214
sg67
(lp1221
S'http_accept'
p1222
asbag60
(g81
g62
NtRp1223
(dp1224
g65
(dp1225
g92
g93
ssg74
g1214
sg67
(lp1226
S':'
asbag60
(g81
g62
NtRp1227
(dp1228
g65
(dp1229
sg74
g1214
sg67
(lp1230
g60
(g61
g62
NtRp1231
(dp1232
g65
(dp1233
g73
I4
ssg74
g1227
sg67
(lp1234
S'text/html,application/xhtml+xml,application/xml;q=0.9,*/*;q=0.8'
p1235
asbasbasbag60
(g76
g62
NtRp1236
(dp1237
g65
(dp1238
sg74
g1010
sg67
(lp1239
g60
(g81
g62
NtRp1240
(dp1241
g65
(dp1242
g85
g86
ssg74
g1236
sg67
(lp1243
S'http_accept_encoding'
p1244
asbag60
(g81
g62
NtRp1245
(dp1246
g65
(dp1247
g92
g93
ssg74
g1236
sg67
(lp1248
S':'
asbag60
(g81
g62
NtRp1249
(dp1250
g65
(dp1251
sg74
g1236
sg67
(lp1252
g60
(g61
g62
NtRp1253
(dp1254
g65
(dp1255
g73
I4
ssg74
g1249
sg67
(lp1256
S'gzip, deflate'
p1257
asbasbasbag60
(g76
g62
NtRp1258
(dp1259
g65
(dp1260
sg74
g1010
sg67
(lp1261
g60
(g81
g62
NtRp1262
(dp1263
g65
(dp1264
g85
g86
ssg74
g1258
sg67
(lp1265
S'http_accept_language'
p1266
asbag60
(g81
g62
NtRp1267
(dp1268
g65
(dp1269
g92
g93
ssg74
g1258
sg67
(lp1270
S':'
asbag60
(g81
g62
NtRp1271
(dp1272
g65
(dp1273
sg74
g1258
sg67
(lp1274
g60
(g61
g62
NtRp1275
(dp1276
g65
(dp1277
g73
I4
ssg74
g1271
sg67
(lp1278
S'en-us,en;q=0.5'
p1279
asbasbasbag60
(g76
g62
NtRp1280
(dp1281
g65
(dp1282
sg74
g1010
sg67
(lp1283
g60
(g81
g62
NtRp1284
(dp1285
g65
(dp1286
g85
g86
ssg74
g1280
sg67
(lp1287
S'http_cache_control'
p1288
asbag60
(g81
g62
NtRp1289
(dp1290
g65
(dp1291
g92
g93
ssg74
g1280
sg67
(lp1292
S':'
asbag60
(g81
g62
NtRp1293
(dp1294
g65
(dp1295
sg74
g1280
sg67
(lp1296
g60
(g61
g62
NtRp1297
(dp1298
g65
(dp1299
g73
I4
ssg74
g1293
sg67
(lp1300
S'max-age=0'
p1301
asbasbasbag60
(g76
g62
NtRp1302
(dp1303
g65
(dp1304
sg74
g1010
sg67
(lp1305
g60
(g81
g62
NtRp1306
(dp1307
g65
(dp1308
g85
g86
ssg74
g1302
sg67
(lp1309
S'http_connection'
p1310
asbag60
(g81
g62
NtRp1311
(dp1312
g65
(dp1313
g92
g93
ssg74
g1302
sg67
(lp1314
S':'
asbag60
(g81
g62
NtRp1315
(dp1316
g65
(dp1317
sg74
g1302
sg67
(lp1318
g60
(g61
g62
NtRp1319
(dp1320
g65
(dp1321
g73
I4
ssg74
g1315
sg67
(lp1322
S'keep-alive'
p1323
asbasbasbag60
(g76
g62
NtRp1324
(dp1325
g65
(dp1326
sg74
g1010
sg67
(lp1327
g60
(g81
g62
NtRp1328
(dp1329
g65
(dp1330
g85
g86
ssg74
g1324
sg67
(lp1331
S'http_content_length'
p1332
asbag60
(g81
g62
NtRp1333
(dp1334
g65
(dp1335
g92
g93
ssg74
g1324
sg67
(lp1336
S':'
asbag60
(g81
g62
NtRp1337
(dp1338
g65
(dp1339
sg74
g1324
sg67
(lp1340
g60
(g61
g62
NtRp1341
(dp1342
g65
(dp1343
g73
I4
ssg74
g1337
sg67
(lp1344
g1126
asbasbasbag60
(g76
g62
NtRp1345
(dp1346
g65
(dp1347
sg74
g1010
sg67
(lp1348
g60
(g81
g62
NtRp1349
(dp1350
g65
(dp1351
g85
g86
ssg74
g1345
sg67
(lp1352
S'http_content_type'
p1353
asbag60
(g81
g62
NtRp1354
(dp1355
g65
(dp1356
g92
g93
ssg74
g1345
sg67
(lp1357
S':'
asbag60
(g81
g62
NtRp1358
(dp1359
g65
(dp1360
sg74
g1345
sg67
(lp1361
g60
(g61
g62
NtRp1362
(dp1363
g65
(dp1364
g73
I4
ssg74
g1358
sg67
(lp1365
g1148
asbasbasbag60
(g76
g62
NtRp1366
(dp1367
g65
(dp1368
sg74
g1010
sg67
(lp1369
g60
(g81
g62
NtRp1370
(dp1371
g65
(dp1372
g85
g86
ssg74
g1366
sg67
(lp1373
S'http_cookie'
p1374
asbag60
(g81
g62
NtRp1375
(dp1376
g65
(dp1377
g92
g93
ssg74
g1366
sg67
(lp1378
S':'
asbag60
(g81
g62
NtRp1379
(dp1380
g65
(dp1381
sg74
g1366
sg67
(lp1382
g60
(g61
g62
NtRp1383
(dp1384
g65
(dp1385
g73
I4
ssg74
g1379
sg67
(lp1386
S'session_id_welcome=127.0.0.1-78623fe9-ce00-476c-927f-eafcf49cd1de; session_id_admin=127.0.0.1-3a2cfaf5-caac-46cf-9bb6-feec5e929e91; session_id_dalex1=127.0.0.1-9de07f4f-e749-4ea4-acf8-21d98c9698ae; session_id_aces=127.0.0.1-fa323a39-b4f7-4824-aae1-5c3174579522'
p1387
asbasbasbag60
(g76
g62
NtRp1388
(dp1389
g65
(dp1390
sg74
g1010
sg67
(lp1391
g60
(g81
g62
NtRp1392
(dp1393
g65
(dp1394
g85
g86
ssg74
g1388
sg67
(lp1395
S'http_host'
p1396
asbag60
(g81
g62
NtRp1397
(dp1398
g65
(dp1399
g92
g93
ssg74
g1388
sg67
(lp1400
S':'
asbag60
(g81
g62
NtRp1401
(dp1402
g65
(dp1403
sg74
g1388
sg67
(lp1404
g60
(g61
g62
NtRp1405
(dp1406
g65
(dp1407
g73
I4
ssg74
g1401
sg67
(lp1408
S'127.0.0.1:8000'
p1409
asbasbasbag60
(g76
g62
NtRp1410
(dp1411
g65
(dp1412
sg74
g1010
sg67
(lp1413
g60
(g81
g62
NtRp1414
(dp1415
g65
(dp1416
g85
g86
ssg74
g1410
sg67
(lp1417
S'http_referer'
p1418
asbag60
(g81
g62
NtRp1419
(dp1420
g65
(dp1421
g92
g93
ssg74
g1410
sg67
(lp1422
S':'
asbag60
(g81
g62
NtRp1423
(dp1424
g65
(dp1425
sg74
g1410
sg67
(lp1426
g60
(g61
g62
NtRp1427
(dp1428
g65
(dp1429
g73
I4
ssg74
g1423
sg67
(lp1430
S'http://127.0.0.1:8000/ACES/default/index'
p1431
asbasbasbag60
(g76
g62
NtRp1432
(dp1433
g65
(dp1434
sg74
g1010
sg67
(lp1435
g60
(g81
g62
NtRp1436
(dp1437
g65
(dp1438
g85
g86
ssg74
g1432
sg67
(lp1439
S'http_user_agent'
p1440
asbag60
(g81
g62
NtRp1441
(dp1442
g65
(dp1443
g92
g93
ssg74
g1432
sg67
(lp1444
S':'
asbag60
(g81
g62
NtRp1445
(dp1446
g65
(dp1447
sg74
g1432
sg67
(lp1448
g60
(g61
g62
NtRp1449
(dp1450
g65
(dp1451
g73
I4
ssg74
g1445
sg67
(lp1452
S'Mozilla/5.0 (X11; Ubuntu; Linux i686; rv:13.0) Gecko/20100101 Firefox/13.0.1'
p1453
asbasbasbag60
(g76
g62
NtRp1454
(dp1455
g65
(dp1456
sg74
g1010
sg67
(lp1457
g60
(g81
g62
NtRp1458
(dp1459
g65
(dp1460
g85
g86
ssg74
g1454
sg67
(lp1461
S'is_jython'
p1462
asbag60
(g81
g62
NtRp1463
(dp1464
g65
(dp1465
g92
g93
ssg74
g1454
sg67
(lp1466
S':'
asbag60
(g81
g62
NtRp1467
(dp1468
g65
(dp1469
sg74
g1454
sg67
(lp1470
g60
(g61
g62
NtRp1471
(dp1472
g65
(dp1473
g73
I4
ssg74
g1467
sg67
(lp1474
g103
asbasbasbag60
(g76
g62
NtRp1475
(dp1476
g65
(dp1477
sg74
g1010
sg67
(lp1478
g60
(g81
g62
NtRp1479
(dp1480
g65
(dp1481
g85
g86
ssg74
g1475
sg67
(lp1482
S'path_info'
p1483
asbag60
(g81
g62
NtRp1484
(dp1485
g65
(dp1486
g92
g93
ssg74
g1475
sg67
(lp1487
S':'
asbag60
(g81
g62
NtRp1488
(dp1489
g65
(dp1490
sg74
g1475
sg67
(lp1491
g60
(g61
g62
NtRp1492
(dp1493
g65
(dp1494
g73
I4
ssg74
g1488
sg67
(lp1495
S'/ACES/default/index'
p1496
asbasbasbag60
(g76
g62
NtRp1497
(dp1498
g65
(dp1499
sg74
g1010
sg67
(lp1500
g60
(g81
g62
NtRp1501
(dp1502
g65
(dp1503
g85
g86
ssg74
g1497
sg67
(lp1504
S'query_string'
p1505
asbag60
(g81
g62
NtRp1506
(dp1507
g65
(dp1508
g92
g93
ssg74
g1497
sg67
(lp1509
S':'
asbag60
(g81
g62
NtRp1510
(dp1511
g65
(dp1512
sg74
g1497
sg67
(lp1513
g60
(g61
g62
NtRp1514
(dp1515
g65
(dp1516
g73
I4
ssg74
g1510
sg67
(lp1517
S''
asbasbasbag60
(g76
g62
NtRp1518
(dp1519
g65
(dp1520
sg74
g1010
sg67
(lp1521
g60
(g81
g62
NtRp1522
(dp1523
g65
(dp1524
g85
g86
ssg74
g1518
sg67
(lp1525
S'remote_addr'
p1526
asbag60
(g81
g62
NtRp1527
(dp1528
g65
(dp1529
g92
g93
ssg74
g1518
sg67
(lp1530
S':'
asbag60
(g81
g62
NtRp1531
(dp1532
g65
(dp1533
sg74
g1518
sg67
(lp1534
g60
(g61
g62
NtRp1535
(dp1536
g65
(dp1537
g73
I4
ssg74
g1531
sg67
(lp1538
g193
asbasbasbag60
(g76
g62
NtRp1539
(dp1540
g65
(dp1541
sg74
g1010
sg67
(lp1542
g60
(g81
g62
NtRp1543
(dp1544
g65
(dp1545
g85
g86
ssg74
g1539
sg67
(lp1546
S'remote_port'
p1547
asbag60
(g81
g62
NtRp1548
(dp1549
g65
(dp1550
g92
g93
ssg74
g1539
sg67
(lp1551
S':'
asbag60
(g81
g62
NtRp1552
(dp1553
g65
(dp1554
sg74
g1539
sg67
(lp1555
g60
(g61
g62
NtRp1556
(dp1557
g65
(dp1558
g73
I4
ssg74
g1552
sg67
(lp1559
S'56335'
p1560
asbasbasbag60
(g76
g62
NtRp1561
(dp1562
g65
(dp1563
sg74
g1010
sg67
(lp1564
g60
(g81
g62
NtRp1565
(dp1566
g65
(dp1567
g85
g86
ssg74
g1561
sg67
(lp1568
S'request_method'
p1569
asbag60
(g81
g62
NtRp1570
(dp1571
g65
(dp1572
g92
g93
ssg74
g1561
sg67
(lp1573
S':'
asbag60
(g81
g62
NtRp1574
(dp1575
g65
(dp1576
sg74
g1561
sg67
(lp1577
g60
(g61
g62
NtRp1578
(dp1579
g65
(dp1580
g73
I4
ssg74
g1574
sg67
(lp1581
S'POST'
p1582
asbasbasbag60
(g76
g62
NtRp1583
(dp1584
g65
(dp1585
sg74
g1010
sg67
(lp1586
g60
(g81
g62
NtRp1587
(dp1588
g65
(dp1589
g85
g86
ssg74
g1583
sg67
(lp1590
S'script_name'
p1591
asbag60
(g81
g62
NtRp1592
(dp1593
g65
(dp1594
g92
g93
ssg74
g1583
sg67
(lp1595
S':'
asbag60
(g81
g62
NtRp1596
(dp1597
g65
(dp1598
sg74
g1583
sg67
(lp1599
g60
(g61
g62
NtRp1600
(dp1601
g65
(dp1602
g73
I4
ssg74
g1596
sg67
(lp1603
S''
asbasbasbag60
(g76
g62
NtRp1604
(dp1605
g65
(dp1606
sg74
g1010
sg67
(lp1607
g60
(g81
g62
NtRp1608
(dp1609
g65
(dp1610
g85
g86
ssg74
g1604
sg67
(lp1611
S'server_name'
p1612
asbag60
(g81
g62
NtRp1613
(dp1614
g65
(dp1615
g92
g93
ssg74
g1604
sg67
(lp1616
S':'
asbag60
(g81
g62
NtRp1617
(dp1618
g65
(dp1619
sg74
g1604
sg67
(lp1620
g60
(g61
g62
NtRp1621
(dp1622
g65
(dp1623
g73
I4
ssg74
g1617
sg67
(lp1624
S'chl-5833E'
p1625
asbasbasbag60
(g76
g62
NtRp1626
(dp1627
g65
(dp1628
sg74
g1010
sg67
(lp1629
g60
(g81
g62
NtRp1630
(dp1631
g65
(dp1632
g85
g86
ssg74
g1626
sg67
(lp1633
S'server_port'
p1634
asbag60
(g81
g62
NtRp1635
(dp1636
g65
(dp1637
g92
g93
ssg74
g1626
sg67
(lp1638
S':'
asbag60
(g81
g62
NtRp1639
(dp1640
g65
(dp1641
sg74
g1626
sg67
(lp1642
g60
(g61
g62
NtRp1643
(dp1644
g65
(dp1645
g73
I4
ssg74
g1639
sg67
(lp1646
S'8000'
p1647
asbasbasbag60
(g76
g62
NtRp1648
(dp1649
g65
(dp1650
sg74
g1010
sg67
(lp1651
g60
(g81
g62
NtRp1652
(dp1653
g65
(dp1654
g85
g86
ssg74
g1648
sg67
(lp1655
S'server_protocol'
p1656
asbag60
(g81
g62
NtRp1657
(dp1658
g65
(dp1659
g92
g93
ssg74
g1648
sg67
(lp1660
S':'
asbag60
(g81
g62
NtRp1661
(dp1662
g65
(dp1663
sg74
g1648
sg67
(lp1664
g60
(g61
g62
NtRp1665
(dp1666
g65
(dp1667
g73
I4
ssg74
g1661
sg67
(lp1668
S'HTTP/1.1'
p1669
asbasbasbag60
(g76
g62
NtRp1670
(dp1671
g65
(dp1672
sg74
g1010
sg67
(lp1673
g60
(g81
g62
NtRp1674
(dp1675
g65
(dp1676
g85
g86
ssg74
g1670
sg67
(lp1677
S'server_software'
p1678
asbag60
(g81
g62
NtRp1679
(dp1680
g65
(dp1681
g92
g93
ssg74
g1670
sg67
(lp1682
S':'
asbag60
(g81
g62
NtRp1683
(dp1684
g65
(dp1685
sg74
g1670
sg67
(lp1686
g60
(g61
g62
NtRp1687
(dp1688
g65
(dp1689
g73
I4
ssg74
g1683
sg67
(lp1690
S'Rocket 1.2.4'
p1691
asbasbasbag60
(g76
g62
NtRp1692
(dp1693
g65
(dp1694
sg74
g1010
sg67
(lp1695
g60
(g81
g62
NtRp1696
(dp1697
g65
(dp1698
g85
g86
ssg74
g1692
sg67
(lp1699
S'web2py_crontype'
p1700
asbag60
(g81
g62
NtRp1701
(dp1702
g65
(dp1703
g92
g93
ssg74
g1692
sg67
(lp1704
S':'
asbag60
(g81
g62
NtRp1705
(dp1706
g65
(dp1707
sg74
g1692
sg67
(lp1708
g60
(g61
g62
NtRp1709
(dp1710
g65
(dp1711
g73
I4
ssg74
g1705
sg67
(lp1712
S'hard'
p1713
asbasbasbag60
(g76
g62
NtRp1714
(dp1715
g65
(dp1716
sg74
g1010
sg67
(lp1717
g60
(g81
g62
NtRp1718
(dp1719
g65
(dp1720
g85
g86
ssg74
g1714
sg67
(lp1721
S'web2py_path'
p1722
asbag60
(g81
g62
NtRp1723
(dp1724
g65
(dp1725
g92
g93
ssg74
g1714
sg67
(lp1726
S':'
asbag60
(g81
g62
NtRp1727
(dp1728
g65
(dp1729
sg74
g1714
sg67
(lp1730
g60
(g61
g62
NtRp1731
(dp1732
g65
(dp1733
g73
I4
ssg74
g1727
sg67
(lp1734
g1057
asbasbasbag60
(g76
g62
NtRp1735
(dp1736
g65
(dp1737
sg74
g1010
sg67
(lp1738
g60
(g81
g62
NtRp1739
(dp1740
g65
(dp1741
g85
g86
ssg74
g1735
sg67
(lp1742
S'web2py_version'
p1743
asbag60
(g81
g62
NtRp1744
(dp1745
g65
(dp1746
g92
g93
ssg74
g1735
sg67
(lp1747
S':'
asbag60
(g81
g62
NtRp1748
(dp1749
g65
(dp1750
sg74
g1735
sg67
(lp1751
g60
(g61
g62
NtRp1752
(dp1753
g65
(dp1754
g73
I4
ssg74
g1748
sg67
(lp1755
g60
(g69
g62
NtRp1756
(dp1757
g65
(dp1758
g73
I3
ssg74
Nsg67
(lp1759
g60
(g76
g62
NtRp1760
(dp1761
g65
(dp1762
sg74
g1756
sg67
(lp1763
g60
(g81
g62
NtRp1764
(dp1765
g65
(dp1766
sg74
g1760
sg67
(lp1767
g60
(g61
g62
NtRp1768
(dp1769
g65
(dp1770
g73
I3
ssg74
g1764
sg67
(lp1771
S'1'
asbasbasbag60
(g76
g62
NtRp1772
(dp1773
g65
(dp1774
sg74
g1756
sg67
(lp1775
g60
(g81
g62
NtRp1776
(dp1777
g65
(dp1778
sg74
g1772
sg67
(lp1779
g60
(g61
g62
NtRp1780
(dp1781
g65
(dp1782
g73
I3
ssg74
g1776
sg67
(lp1783
S'99'
p1784
asbasbasbag60
(g76
g62
NtRp1785
(dp1786
g65
(dp1787
sg74
g1756
sg67
(lp1788
g60
(g81
g62
NtRp1789
(dp1790
g65
(dp1791
sg74
g1785
sg67
(lp1792
g60
(g61
g62
NtRp1793
(dp1794
g65
(dp1795
g73
I3
ssg74
g1789
sg67
(lp1796
S'2'
asbasbasbag60
(g76
g62
NtRp1797
(dp1798
g65
(dp1799
sg74
g1756
sg67
(lp1800
g60
(g81
g62
NtRp1801
(dp1802
g65
(dp1803
sg74
g1797
sg67
(lp1804
g60
(g61
g62
NtRp1805
(dp1806
g65
(dp1807
g73
I3
ssg74
g1801
sg67
(lp1808
S'datetime.datetime(2011, 9, 26, 6, 55, 33)'
p1809
asbasbasbag60
(g76
g62
NtRp1810
(dp1811
g65
(dp1812
sg74
g1756
sg67
(lp1813
g60
(g81
g62
NtRp1814
(dp1815
g65
(dp1816
sg74
g1810
sg67
(lp1817
g60
(g61
g62
NtRp1818
(dp1819
g65
(dp1820
g73
I3
ssg74
g1814
sg67
(lp1821
S'stable'
p1822
asbasbasbasbasbasbasbag60
(g76
g62
NtRp1823
(dp1824
g65
(dp1825
sg74
g1010
sg67
(lp1826
g60
(g81
g62
NtRp1827
(dp1828
g65
(dp1829
g85
g86
ssg74
g1823
sg67
(lp1830
S'wsgi_errors'
p1831
asbag60
(g81
g62
NtRp1832
(dp1833
g65
(dp1834
g92
g93
ssg74
g1823
sg67
(lp1835
S':'
asbag60
(g81
g62
NtRp1836
(dp1837
g65
(dp1838
sg74
g1823
sg67
(lp1839
g60
(g61
g62
NtRp1840
(dp1841
g65
(dp1842
g73
I4
ssg74
g1836
sg67
(lp1843
S"<open file '<stderr>', mode 'w' at 0xb73360d0>"
p1844
asbasbasbag60
(g76
g62
NtRp1845
(dp1846
g65
(dp1847
sg74
g1010
sg67
(lp1848
g60
(g81
g62
NtRp1849
(dp1850
g65
(dp1851
g85
g86
ssg74
g1845
sg67
(lp1852
S'wsgi_file_wrapper'
p1853
asbag60
(g81
g62
NtRp1854
(dp1855
g65
(dp1856
g92
g93
ssg74
g1845
sg67
(lp1857
S':'
asbag60
(g81
g62
NtRp1858
(dp1859
g65
(dp1860
sg74
g1845
sg67
(lp1861
g60
(g61
g62
NtRp1862
(dp1863
g65
(dp1864
g73
I4
ssg74
g1858
sg67
(lp1865
S'<class wsgiref.util.FileWrapper at 0xa6e1b3c>'
p1866
asbasbasbag60
(g76
g62
NtRp1867
(dp1868
g65
(dp1869
sg74
g1010
sg67
(lp1870
g60
(g81
g62
NtRp1871
(dp1872
g65
(dp1873
g85
g86
ssg74
g1867
sg67
(lp1874
S'wsgi_input'
p1875
asbag60
(g81
g62
NtRp1876
(dp1877
g65
(dp1878
g92
g93
ssg74
g1867
sg67
(lp1879
S':'
asbag60
(g81
g62
NtRp1880
(dp1881
g65
(dp1882
sg74
g1867
sg67
(lp1883
g60
(g61
g62
NtRp1884
(dp1885
g65
(dp1886
g73
I4
ssg74
g1880
sg67
(lp1887
S'<socket._fileobject object at 0xad17c8ac>'
p1888
asbasbasbag60
(g76
g62
NtRp1889
(dp1890
g65
(dp1891
sg74
g1010
sg67
(lp1892
g60
(g81
g62
NtRp1893
(dp1894
g65
(dp1895
g85
g86
ssg74
g1889
sg67
(lp1896
S'wsgi_multiprocess'
p1897
asbag60
(g81
g62
NtRp1898
(dp1899
g65
(dp1900
g92
g93
ssg74
g1889
sg67
(lp1901
S':'
asbag60
(g81
g62
NtRp1902
(dp1903
g65
(dp1904
sg74
g1889
sg67
(lp1905
g60
(g61
g62
NtRp1906
(dp1907
g65
(dp1908
g73
I4
ssg74
g1902
sg67
(lp1909
g103
asbasbasbag60
(g76
g62
NtRp1910
(dp1911
g65
(dp1912
sg74
g1010
sg67
(lp1913
g60
(g81
g62
NtRp1914
(dp1915
g65
(dp1916
g85
g86
ssg74
g1910
sg67
(lp1917
S'wsgi_multithread'
p1918
asbag60
(g81
g62
NtRp1919
(dp1920
g65
(dp1921
g92
g93
ssg74
g1910
sg67
(lp1922
S':'
asbag60
(g81
g62
NtRp1923
(dp1924
g65
(dp1925
sg74
g1910
sg67
(lp1926
g60
(g61
g62
NtRp1927
(dp1928
g65
(dp1929
g73
I4
ssg74
g1923
sg67
(lp1930
S'True'
p1931
asbasbasbag60
(g76
g62
NtRp1932
(dp1933
g65
(dp1934
sg74
g1010
sg67
(lp1935
g60
(g81
g62
NtRp1936
(dp1937
g65
(dp1938
g85
g86
ssg74
g1932
sg67
(lp1939
S'wsgi_run_once'
p1940
asbag60
(g81
g62
NtRp1941
(dp1942
g65
(dp1943
g92
g93
ssg74
g1932
sg67
(lp1944
S':'
asbag60
(g81
g62
NtRp1945
(dp1946
g65
(dp1947
sg74
g1932
sg67
(lp1948
g60
(g61
g62
NtRp1949
(dp1950
g65
(dp1951
g73
I4
ssg74
g1945
sg67
(lp1952
g103
asbasbasbag60
(g76
g62
NtRp1953
(dp1954
g65
(dp1955
sg74
g1010
sg67
(lp1956
g60
(g81
g62
NtRp1957
(dp1958
g65
(dp1959
g85
g86
ssg74
g1953
sg67
(lp1960
S'wsgi_url_scheme'
p1961
asbag60
(g81
g62
NtRp1962
(dp1963
g65
(dp1964
g92
g93
ssg74
g1953
sg67
(lp1965
S':'
asbag60
(g81
g62
NtRp1966
(dp1967
g65
(dp1968
sg74
g1953
sg67
(lp1969
g60
(g61
g62
NtRp1970
(dp1971
g65
(dp1972
g73
I4
ssg74
g1966
sg67
(lp1973
S'http'
p1974
asbasbasbag60
(g76
g62
NtRp1975
(dp1976
g65
(dp1977
sg74
g1010
sg67
(lp1978
g60
(g81
g62
NtRp1979
(dp1980
g65
(dp1981
g85
g86
ssg74
g1975
sg67
(lp1982
S'wsgi_version'
p1983
asbag60
(g81
g62
NtRp1984
(dp1985
g65
(dp1986
g92
g93
ssg74
g1975
sg67
(lp1987
S':'
asbag60
(g81
g62
NtRp1988
(dp1989
g65
(dp1990
sg74
g1975
sg67
(lp1991
g60
(g61
g62
NtRp1992
(dp1993
g65
(dp1994
g73
I4
ssg74
g1988
sg67
(lp1995
g60
(g69
g62
NtRp1996
(dp1997
g65
(dp1998
g73
I3
ssg74
Nsg67
(lp1999
g60
(g76
g62
NtRp2000
(dp2001
g65
(dp2002
sg74
g1996
sg67
(lp2003
g60
(g81
g62
NtRp2004
(dp2005
g65
(dp2006
sg74
g2000
sg67
(lp2007
g60
(g61
g62
NtRp2008
(dp2009
g65
(dp2010
g73
I3
ssg74
g2004
sg67
(lp2011
S'1'
asbasbasbag60
(g76
g62
NtRp2012
(dp2013
g65
(dp2014
sg74
g1996
sg67
(lp2015
g60
(g81
g62
NtRp2016
(dp2017
g65
(dp2018
sg74
g2012
sg67
(lp2019
g60
(g61
g62
NtRp2020
(dp2021
g65
(dp2022
g73
I3
ssg74
g2016
sg67
(lp2023
S'0'
asbasbasbasbasbasbasbasbasbasbasbag60
(g76
g62
NtRp2024
(dp2025
g65
(dp2026
sg74
g70
sg67
(lp2027
g60
(g81
g62
NtRp2028
(dp2029
g65
(dp2030
g85
g86
ssg74
g2024
sg67
(lp2031
S'extension'
p2032
asbag60
(g81
g62
NtRp2033
(dp2034
g65
(dp2035
g92
g93
ssg74
g2024
sg67
(lp2036
S':'
asbag60
(g81
g62
NtRp2037
(dp2038
g65
(dp2039
sg74
g2024
sg67
(lp2040
g60
(g61
g62
NtRp2041
(dp2042
g65
(dp2043
g73
I5
ssg74
g2037
sg67
(lp2044
S'html'
p2045
asbasbasbag60
(g76
g62
NtRp2046
(dp2047
g65
(dp2048
sg74
g70
sg67
(lp2049
g60
(g81
g62
NtRp2050
(dp2051
g65
(dp2052
g85
g86
ssg74
g2046
sg67
(lp2053
S'folder'
p2054
asbag60
(g81
g62
NtRp2055
(dp2056
g65
(dp2057
g92
g93
ssg74
g2046
sg67
(lp2058
S':'
asbag60
(g81
g62
NtRp2059
(dp2060
g65
(dp2061
sg74
g2046
sg67
(lp2062
g60
(g61
g62
NtRp2063
(dp2064
g65
(dp2065
g73
I5
ssg74
g2059
sg67
(lp2066
S'/home/u4hcsdaw/Python/web2py/applications/ACES/'
p2067
asbasbasbag60
(g76
g62
NtRp2068
(dp2069
g65
(dp2070
sg74
g70
sg67
(lp2071
g60
(g81
g62
NtRp2072
(dp2073
g65
(dp2074
g85
g86
ssg74
g2068
sg67
(lp2075
S'function'
p2076
asbag60
(g81
g62
NtRp2077
(dp2078
g65
(dp2079
g92
g93
ssg74
g2068
sg67
(lp2080
S':'
asbag60
(g81
g62
NtRp2081
(dp2082
g65
(dp2083
sg74
g2068
sg67
(lp2084
g60
(g61
g62
NtRp2085
(dp2086
g65
(dp2087
g73
I5
ssg74
g2081
sg67
(lp2088
S'index'
p2089
asbasbasbag60
(g76
g62
NtRp2090
(dp2091
g65
(dp2092
sg74
g70
sg67
(lp2093
g60
(g81
g62
NtRp2094
(dp2095
g65
(dp2096
g85
g86
ssg74
g2090
sg67
(lp2097
S'get_vars'
p2098
asbag60
(g81
g62
NtRp2099
(dp2100
g65
(dp2101
g92
g93
ssg74
g2090
sg67
(lp2102
S':'
asbag60
(g81
g62
NtRp2103
(dp2104
g65
(dp2105
sg74
g2090
sg67
(lp2106
g60
(g61
g62
NtRp2107
(dp2108
g65
(dp2109
g73
I5
ssg74
g2103
sg67
(lp2110
g60
(g69
g62
NtRp2111
(dp2112
g65
(dp2113
g73
I4
ssg74
Nsg67
(lp2114
sbasbasbasbag60
(g76
g62
NtRp2115
(dp2116
g65
(dp2117
sg74
g70
sg67
(lp2118
g60
(g81
g62
NtRp2119
(dp2120
g65
(dp2121
g85
g86
ssg74
g2115
sg67
(lp2122
S'global_settings'
p2123
asbag60
(g81
g62
NtRp2124
(dp2125
g65
(dp2126
g92
g93
ssg74
g2115
sg67
(lp2127
S':'
asbag60
(g81
g62
NtRp2128
(dp2129
g65
(dp2130
sg74
g2115
sg67
(lp2131
g60
(g61
g62
NtRp2132
(dp2133
g65
(dp2134
g73
I5
ssg74
g2128
sg67
(lp2135
g60
(g69
g62
NtRp2136
(dp2137
g65
(dp2138
g73
I4
ssg74
Nsg67
(lp2139
g60
(g76
g62
NtRp2140
(dp2141
g65
(dp2142
sg74
g2136
sg67
(lp2143
g60
(g81
g62
NtRp2144
(dp2145
g65
(dp2146
g85
g86
ssg74
g2140
sg67
(lp2147
g1022
asbag60
(g81
g62
NtRp2148
(dp2149
g65
(dp2150
g92
g93
ssg74
g2140
sg67
(lp2151
S':'
asbag60
(g81
g62
NtRp2152
(dp2153
g65
(dp2154
sg74
g2140
sg67
(lp2155
g60
(g61
g62
NtRp2156
(dp2157
g65
(dp2158
g73
I4
ssg74
g2152
sg67
(lp2159
S"set(['/home/u4hcsdaw/Python/web2py/applications/ACES/', '/home/u4hcsdaw/Python/web2py/applications/admin/', '/home/u4hcsdaw/Python/web2py/applications/welcome/', '/home/u4hcsdaw/Python/web2py/applications/DALEX1/'])"
p2160
asbasbasbag60
(g76
g62
NtRp2161
(dp2162
g65
(dp2163
sg74
g2136
sg67
(lp2164
g60
(g81
g62
NtRp2165
(dp2166
g65
(dp2167
g85
g86
ssg74
g2161
sg67
(lp2168
g1044
asbag60
(g81
g62
NtRp2169
(dp2170
g65
(dp2171
g92
g93
ssg74
g2161
sg67
(lp2172
S':'
asbag60
(g81
g62
NtRp2173
(dp2174
g65
(dp2175
sg74
g2161
sg67
(lp2176
g60
(g61
g62
NtRp2177
(dp2178
g65
(dp2179
g73
I4
ssg74
g2173
sg67
(lp2180
g1057
asbasbasbag60
(g76
g62
NtRp2181
(dp2182
g65
(dp2183
sg74
g2136
sg67
(lp2184
g60
(g81
g62
NtRp2185
(dp2186
g65
(dp2187
g85
g86
ssg74
g2181
sg67
(lp2188
g1066
asbag60
(g81
g62
NtRp2189
(dp2190
g65
(dp2191
g92
g93
ssg74
g2181
sg67
(lp2192
S':'
asbag60
(g81
g62
NtRp2193
(dp2194
g65
(dp2195
sg74
g2181
sg67
(lp2196
g60
(g61
g62
NtRp2197
(dp2198
g65
(dp2199
g73
I4
ssg74
g2193
sg67
(lp2200
g60
(g69
g62
NtRp2201
(dp2202
g65
(dp2203
g73
I3
ssg74
Nsg67
(lp2204
sbasbasbasbag60
(g76
g62
NtRp2205
(dp2206
g65
(dp2207
sg74
g2136
sg67
(lp2208
g60
(g81
g62
NtRp2209
(dp2210
g65
(dp2211
g85
g86
ssg74
g2205
sg67
(lp2212
g1091
asbag60
(g81
g62
NtRp2213
(dp2214
g65
(dp2215
g92
g93
ssg74
g2205
sg67
(lp2216
S':'
asbag60
(g81
g62
NtRp2217
(dp2218
g65
(dp2219
sg74
g2205
sg67
(lp2220
g60
(g61
g62
NtRp2221
(dp2222
g65
(dp2223
g73
I4
ssg74
g2217
sg67
(lp2224
S"<Values at 0xa7a4aec: {'verbose': False, 'ip': '127.0.0.1', 'shutdown_timeout': 5, 'taskbar': False, 'nocron': False, 'pid_filename': 'httpserver.pid', 'maxthreads': None, 'softcron': False, 'server_name': 'chl-5833E', 'bpython': False, 'nogui': False, 'port': 8000, 'extcron': False, 'debuglevel': 30, 'test': None, 'folder': '/home/u4hcsdaw/Python/web2py', 'config': '', 'import_models': False, 'winservice': '', 'shell': None, 'run': '', 'log_filename': 'httpserver.log', 'args': [''], 'ssl_ca_certificate': None, 'scheduler': None, 'profiler_filename': None, 'ssl_private_key': '', 'password': '<ask>', 'request_queue_size': 5, 'ssl_certificate': '', 'cronjob': False, 'plain': False, 'quiet': False, 'interfaces': None, 'minthreads': None, 'timeout': 10, 'numthreads': None, 'nobanner': False}>"
p2225
asbasbasbag60
(g76
g62
NtRp2226
(dp2227
g65
(dp2228
sg74
g2136
sg67
(lp2229
g60
(g81
g62
NtRp2230
(dp2231
g65
(dp2232
g85
g86
ssg74
g2226
sg67
(lp2233
g1157
asbag60
(g81
g62
NtRp2234
(dp2235
g65
(dp2236
g92
g93
ssg74
g2226
sg67
(lp2237
S':'
asbag60
(g81
g62
NtRp2238
(dp2239
g65
(dp2240
sg74
g2226
sg67
(lp2241
g60
(g61
g62
NtRp2242
(dp2243
g65
(dp2244
g73
I4
ssg74
g2238
sg67
(lp2245
S'set([])'
p2246
asbasbasbag60
(g76
g62
NtRp2247
(dp2248
g65
(dp2249
sg74
g2136
sg67
(lp2250
g60
(g81
g62
NtRp2251
(dp2252
g65
(dp2253
g85
g86
ssg74
g2247
sg67
(lp2254
g1179
asbag60
(g81
g62
NtRp2255
(dp2256
g65
(dp2257
g92
g93
ssg74
g2247
sg67
(lp2258
S':'
asbag60
(g81
g62
NtRp2259
(dp2260
g65
(dp2261
sg74
g2247
sg67
(lp2262
g60
(g61
g62
NtRp2263
(dp2264
g65
(dp2265
g73
I4
ssg74
g2259
sg67
(lp2266
g103
asbasbasbag60
(g76
g62
NtRp2267
(dp2268
g65
(dp2269
sg74
g2136
sg67
(lp2270
g60
(g81
g62
NtRp2271
(dp2272
g65
(dp2273
g85
g86
ssg74
g2267
sg67
(lp2274
g1200
asbag60
(g81
g62
NtRp2275
(dp2276
g65
(dp2277
g92
g93
ssg74
g2267
sg67
(lp2278
S':'
asbag60
(g81
g62
NtRp2279
(dp2280
g65
(dp2281
sg74
g2267
sg67
(lp2282
g60
(g61
g62
NtRp2283
(dp2284
g65
(dp2285
g73
I4
ssg74
g2279
sg67
(lp2286
g1213
asbasbasbag60
(g76
g62
NtRp2287
(dp2288
g65
(dp2289
sg74
g2136
sg67
(lp2290
g60
(g81
g62
NtRp2291
(dp2292
g65
(dp2293
g85
g86
ssg74
g2287
sg67
(lp2294
g1462
asbag60
(g81
g62
NtRp2295
(dp2296
g65
(dp2297
g92
g93
ssg74
g2287
sg67
(lp2298
S':'
asbag60
(g81
g62
NtRp2299
(dp2300
g65
(dp2301
sg74
g2287
sg67
(lp2302
g60
(g61
g62
NtRp2303
(dp2304
g65
(dp2305
g73
I4
ssg74
g2299
sg67
(lp2306
g103
asbasbasbag60
(g76
g62
NtRp2307
(dp2308
g65
(dp2309
sg74
g2136
sg67
(lp2310
g60
(g81
g62
NtRp2311
(dp2312
g65
(dp2313
g85
g86
ssg74
g2307
sg67
(lp2314
g1700
asbag60
(g81
g62
NtRp2315
(dp2316
g65
(dp2317
g92
g93
ssg74
g2307
sg67
(lp2318
S':'
asbag60
(g81
g62
NtRp2319
(dp2320
g65
(dp2321
sg74
g2307
sg67
(lp2322
g60
(g61
g62
NtRp2323
(dp2324
g65
(dp2325
g73
I4
ssg74
g2319
sg67
(lp2326
g1713
asbasbasbag60
(g76
g62
NtRp2327
(dp2328
g65
(dp2329
sg74
g2136
sg67
(lp2330
g60
(g81
g62
NtRp2331
(dp2332
g65
(dp2333
g85
g86
ssg74
g2327
sg67
(lp2334
g1743
asbag60
(g81
g62
NtRp2335
(dp2336
g65
(dp2337
g92
g93
ssg74
g2327
sg67
(lp2338
S':'
asbag60
(g81
g62
NtRp2339
(dp2340
g65
(dp2341
sg74
g2327
sg67
(lp2342
g60
(g61
g62
NtRp2343
(dp2344
g65
(dp2345
g73
I4
ssg74
g2339
sg67
(lp2346
g60
(g69
g62
NtRp2347
(dp2348
g65
(dp2349
g73
I3
ssg74
Nsg67
(lp2350
g60
(g76
g62
NtRp2351
(dp2352
g65
(dp2353
sg74
g2347
sg67
(lp2354
g60
(g81
g62
NtRp2355
(dp2356
g65
(dp2357
sg74
g2351
sg67
(lp2358
g60
(g61
g62
NtRp2359
(dp2360
g65
(dp2361
g73
I3
ssg74
g2355
sg67
(lp2362
S'1'
asbasbasbag60
(g76
g62
NtRp2363
(dp2364
g65
(dp2365
sg74
g2347
sg67
(lp2366
g60
(g81
g62
NtRp2367
(dp2368
g65
(dp2369
sg74
g2363
sg67
(lp2370
g60
(g61
g62
NtRp2371
(dp2372
g65
(dp2373
g73
I3
ssg74
g2367
sg67
(lp2374
S'99'
p2375
asbasbasbag60
(g76
g62
NtRp2376
(dp2377
g65
(dp2378
sg74
g2347
sg67
(lp2379
g60
(g81
g62
NtRp2380
(dp2381
g65
(dp2382
sg74
g2376
sg67
(lp2383
g60
(g61
g62
NtRp2384
(dp2385
g65
(dp2386
g73
I3
ssg74
g2380
sg67
(lp2387
S'2'
asbasbasbag60
(g76
g62
NtRp2388
(dp2389
g65
(dp2390
sg74
g2347
sg67
(lp2391
g60
(g81
g62
NtRp2392
(dp2393
g65
(dp2394
sg74
g2388
sg67
(lp2395
g60
(g61
g62
NtRp2396
(dp2397
g65
(dp2398
g73
I3
ssg74
g2392
sg67
(lp2399
S'datetime.datetime(2011, 9, 26, 6, 55, 33)'
p2400
asbasbasbag60
(g76
g62
NtRp2401
(dp2402
g65
(dp2403
sg74
g2347
sg67
(lp2404
g60
(g81
g62
NtRp2405
(dp2406
g65
(dp2407
sg74
g2401
sg67
(lp2408
g60
(g61
g62
NtRp2409
(dp2410
g65
(dp2411
g73
I3
ssg74
g2405
sg67
(lp2412
g1822
asbasbasbasbasbasbasbasbasbasbasbag60
(g76
g62
NtRp2413
(dp2414
g65
(dp2415
sg74
g70
sg67
(lp2416
g60
(g81
g62
NtRp2417
(dp2418
g65
(dp2419
g85
g86
ssg74
g2413
sg67
(lp2420
S'is_https'
p2421
asbag60
(g81
g62
NtRp2422
(dp2423
g65
(dp2424
g92
g93
ssg74
g2413
sg67
(lp2425
S':'
asbag60
(g81
g62
NtRp2426
(dp2427
g65
(dp2428
sg74
g2413
sg67
(lp2429
g60
(g61
g62
NtRp2430
(dp2431
g65
(dp2432
g73
I5
ssg74
g2426
sg67
(lp2433
g103
asbasbasbag60
(g76
g62
NtRp2434
(dp2435
g65
(dp2436
sg74
g70
sg67
(lp2437
g60
(g81
g62
NtRp2438
(dp2439
g65
(dp2440
g85
g86
ssg74
g2434
sg67
(lp2441
S'is_local'
p2442
asbag60
(g81
g62
NtRp2443
(dp2444
g65
(dp2445
g92
g93
ssg74
g2434
sg67
(lp2446
S':'
asbag60
(g81
g62
NtRp2447
(dp2448
g65
(dp2449
sg74
g2434
sg67
(lp2450
g60
(g61
g62
NtRp2451
(dp2452
g65
(dp2453
g73
I5
ssg74
g2447
sg67
(lp2454
g1931
asbasbasbag60
(g76
g62
NtRp2455
(dp2456
g65
(dp2457
sg74
g70
sg67
(lp2458
g60
(g81
g62
NtRp2459
(dp2460
g65
(dp2461
g85
g86
ssg74
g2455
sg67
(lp2462
S'is_restful'
p2463
asbag60
(g81
g62
NtRp2464
(dp2465
g65
(dp2466
g92
g93
ssg74
g2455
sg67
(lp2467
S':'
asbag60
(g81
g62
NtRp2468
(dp2469
g65
(dp2470
sg74
g2455
sg67
(lp2471
g60
(g61
g62
NtRp2472
(dp2473
g65
(dp2474
g73
I5
ssg74
g2468
sg67
(lp2475
g103
asbasbasbag60
(g76
g62
NtRp2476
(dp2477
g65
(dp2478
sg74
g70
sg67
(lp2479
g60
(g81
g62
NtRp2480
(dp2481
g65
(dp2482
g85
g86
ssg74
g2476
sg67
(lp2483
S'now'
p2484
asbag60
(g81
g62
NtRp2485
(dp2486
g65
(dp2487
g92
g93
ssg74
g2476
sg67
(lp2488
S':'
asbag60
(g81
g62
NtRp2489
(dp2490
g65
(dp2491
sg74
g2476
sg67
(lp2492
g60
(g61
g62
NtRp2493
(dp2494
g65
(dp2495
g73
I5
ssg74
g2489
sg67
(lp2496
S'datetime.datetime(2012, 9, 10, 19, 18, 15, 805676)'
p2497
asbasbasbag60
(g76
g62
NtRp2498
(dp2499
g65
(dp2500
sg74
g70
sg67
(lp2501
g60
(g81
g62
NtRp2502
(dp2503
g65
(dp2504
g85
g86
ssg74
g2498
sg67
(lp2505
S'post_vars'
p2506
asbag60
(g81
g62
NtRp2507
(dp2508
g65
(dp2509
g92
g93
ssg74
g2498
sg67
(lp2510
S':'
asbag60
(g81
g62
NtRp2511
(dp2512
g65
(dp2513
sg74
g2498
sg67
(lp2514
g60
(g61
g62
NtRp2515
(dp2516
g65
(dp2517
g73
I5
ssg74
g2511
sg67
(lp2518
g60
(g69
g62
NtRp2519
(dp2520
g65
(dp2521
g73
I4
ssg74
Nsg67
(lp2522
g60
(g76
g62
NtRp2523
(dp2524
g65
(dp2525
sg74
g2519
sg67
(lp2526
g60
(g81
g62
NtRp2527
(dp2528
g65
(dp2529
g85
g86
ssg74
g2523
sg67
(lp2530
S'id'
p2531
asbag60
(g81
g62
NtRp2532
(dp2533
g65
(dp2534
g92
g93
ssg74
g2523
sg67
(lp2535
S':'
asbag60
(g81
g62
NtRp2536
(dp2537
g65
(dp2538
sg74
g2523
sg67
(lp2539
g60
(g61
g62
NtRp2540
(dp2541
g65
(dp2542
g73
I4
ssg74
g2536
sg67
(lp2543
S'8'
asbasbasbag60
(g76
g62
NtRp2544
(dp2545
g65
(dp2546
sg74
g2519
sg67
(lp2547
g60
(g81
g62
NtRp2548
(dp2549
g65
(dp2550
g85
g86
ssg74
g2544
sg67
(lp2551
S'waterDepth'
p2552
asbag60
(g81
g62
NtRp2553
(dp2554
g65
(dp2555
g92
g93
ssg74
g2544
sg67
(lp2556
S':'
asbag60
(g81
g62
NtRp2557
(dp2558
g65
(dp2559
sg74
g2544
sg67
(lp2560
g60
(g61
g62
NtRp2561
(dp2562
g65
(dp2563
g73
I4
ssg74
g2557
sg67
(lp2564
S'8.0'
p2565
asbasbasbag60
(g76
g62
NtRp2566
(dp2567
g65
(dp2568
sg74
g2519
sg67
(lp2569
g60
(g81
g62
NtRp2570
(dp2571
g65
(dp2572
g85
g86
ssg74
g2566
sg67
(lp2573
S'waveBreakRatio'
p2574
asbag60
(g81
g62
NtRp2575
(dp2576
g65
(dp2577
g92
g93
ssg74
g2566
sg67
(lp2578
S':'
asbag60
(g81
g62
NtRp2579
(dp2580
g65
(dp2581
sg74
g2566
sg67
(lp2582
g60
(g61
g62
NtRp2583
(dp2584
g65
(dp2585
g73
I4
ssg74
g2579
sg67
(lp2586
S'0.78'
p2587
asbasbasbag60
(g76
g62
NtRp2588
(dp2589
g65
(dp2590
sg74
g2519
sg67
(lp2591
g60
(g81
g62
NtRp2592
(dp2593
g65
(dp2594
g85
g86
ssg74
g2588
sg67
(lp2595
S'waveHeight'
p2596
asbag60
(g81
g62
NtRp2597
(dp2598
g65
(dp2599
g92
g93
ssg74
g2588
sg67
(lp2600
S':'
asbag60
(g81
g62
NtRp2601
(dp2602
g65
(dp2603
sg74
g2588
sg67
(lp2604
g60
(g61
g62
NtRp2605
(dp2606
g65
(dp2607
g73
I4
ssg74
g2601
sg67
(lp2608
S'0.85'
p2609
asbasbasbag60
(g76
g62
NtRp2610
(dp2611
g65
(dp2612
sg74
g2519
sg67
(lp2613
g60
(g81
g62
NtRp2614
(dp2615
g65
(dp2616
g85
g86
ssg74
g2610
sg67
(lp2617
S'wavePeriod'
p2618
asbag60
(g81
g62
NtRp2619
(dp2620
g65
(dp2621
g92
g93
ssg74
g2610
sg67
(lp2622
S':'
asbag60
(g81
g62
NtRp2623
(dp2624
g65
(dp2625
sg74
g2610
sg67
(lp2626
g60
(g61
g62
NtRp2627
(dp2628
g65
(dp2629
g73
I4
ssg74
g2623
sg67
(lp2630
S'3.0'
p2631
asbasbasbasbasbasbasbag60
(g76
g62
NtRp2632
(dp2633
g65
(dp2634
sg74
g70
sg67
(lp2635
g60
(g81
g62
NtRp2636
(dp2637
g65
(dp2638
g85
g86
ssg74
g2632
sg67
(lp2639
S'url'
p2640
asbag60
(g81
g62
NtRp2641
(dp2642
g65
(dp2643
g92
g93
ssg74
g2632
sg67
(lp2644
S':'
asbag60
(g81
g62
NtRp2645
(dp2646
g65
(dp2647
sg74
g2632
sg67
(lp2648
g60
(g61
g62
NtRp2649
(dp2650
g65
(dp2651
g73
I5
ssg74
g2645
sg67
(lp2652
S'/ACES/default/index'
p2653
asbasbasbag60
(g76
g62
NtRp2654
(dp2655
g65
(dp2656
sg74
g70
sg67
(lp2657
g60
(g81
g62
NtRp2658
(dp2659
g65
(dp2660
g85
g86
ssg74
g2654
sg67
(lp2661
S'utcnow'
p2662
asbag60
(g81
g62
NtRp2663
(dp2664
g65
(dp2665
g92
g93
ssg74
g2654
sg67
(lp2666
S':'
asbag60
(g81
g62
NtRp2667
(dp2668
g65
(dp2669
sg74
g2654
sg67
(lp2670
g60
(g61
g62
NtRp2671
(dp2672
g65
(dp2673
g73
I5
ssg74
g2667
sg67
(lp2674
S'datetime.datetime(2012, 9, 11, 0, 18, 15, 805711)'
p2675
asbasbasbag60
(g76
g62
NtRp2676
(dp2677
g65
(dp2678
sg74
g70
sg67
(lp2679
g60
(g81
g62
NtRp2680
(dp2681
g65
(dp2682
g85
g86
ssg74
g2676
sg67
(lp2683
S'uuid'
p2684
asbag60
(g81
g62
NtRp2685
(dp2686
g65
(dp2687
g92
g93
ssg74
g2676
sg67
(lp2688
S':'
asbag60
(g81
g62
NtRp2689
(dp2690
g65
(dp2691
sg74
g2676
sg67
(lp2692
g60
(g61
g62
NtRp2693
(dp2694
g65
(dp2695
g73
I5
ssg74
g2689
sg67
(lp2696
S'ACES/127.0.0.1.2012-09-10.19-18-15.7b874a17-7fcf-46f2-833f-f9cf21fac916'
p2697
asbasbasbag60
(g76
g62
NtRp2698
(dp2699
g65
(dp2700
sg74
g70
sg67
(lp2701
g60
(g81
g62
NtRp2702
(dp2703
g65
(dp2704
g85
g86
ssg74
g2698
sg67
(lp2705
S'vars'
p2706
asbag60
(g81
g62
NtRp2707
(dp2708
g65
(dp2709
g92
g93
ssg74
g2698
sg67
(lp2710
S':'
asbag60
(g81
g62
NtRp2711
(dp2712
g65
(dp2713
sg74
g2698
sg67
(lp2714
g60
(g61
g62
NtRp2715
(dp2716
g65
(dp2717
g73
I5
ssg74
g2711
sg67
(lp2718
g60
(g69
g62
NtRp2719
(dp2720
g65
(dp2721
g73
I4
ssg74
Nsg67
(lp2722
g60
(g76
g62
NtRp2723
(dp2724
g65
(dp2725
sg74
g2719
sg67
(lp2726
g60
(g81
g62
NtRp2727
(dp2728
g65
(dp2729
g85
g86
ssg74
g2723
sg67
(lp2730
g2531
asbag60
(g81
g62
NtRp2731
(dp2732
g65
(dp2733
g92
g93
ssg74
g2723
sg67
(lp2734
S':'
asbag60
(g81
g62
NtRp2735
(dp2736
g65
(dp2737
sg74
g2723
sg67
(lp2738
g60
(g61
g62
NtRp2739
(dp2740
g65
(dp2741
g73
I4
ssg74
g2735
sg67
(lp2742
S'8'
asbasbasbag60
(g76
g62
NtRp2743
(dp2744
g65
(dp2745
sg74
g2719
sg67
(lp2746
g60
(g81
g62
NtRp2747
(dp2748
g65
(dp2749
g85
g86
ssg74
g2743
sg67
(lp2750
g2552
asbag60
(g81
g62
NtRp2751
(dp2752
g65
(dp2753
g92
g93
ssg74
g2743
sg67
(lp2754
S':'
asbag60
(g81
g62
NtRp2755
(dp2756
g65
(dp2757
sg74
g2743
sg67
(lp2758
g60
(g61
g62
NtRp2759
(dp2760
g65
(dp2761
g73
I4
ssg74
g2755
sg67
(lp2762
g2565
asbasbasbag60
(g76
g62
NtRp2763
(dp2764
g65
(dp2765
sg74
g2719
sg67
(lp2766
g60
(g81
g62
NtRp2767
(dp2768
g65
(dp2769
g85
g86
ssg74
g2763
sg67
(lp2770
g2574
asbag60
(g81
g62
NtRp2771
(dp2772
g65
(dp2773
g92
g93
ssg74
g2763
sg67
(lp2774
S':'
asbag60
(g81
g62
NtRp2775
(dp2776
g65
(dp2777
sg74
g2763
sg67
(lp2778
g60
(g61
g62
NtRp2779
(dp2780
g65
(dp2781
g73
I4
ssg74
g2775
sg67
(lp2782
g2587
asbasbasbag60
(g76
g62
NtRp2783
(dp2784
g65
(dp2785
sg74
g2719
sg67
(lp2786
g60
(g81
g62
NtRp2787
(dp2788
g65
(dp2789
g85
g86
ssg74
g2783
sg67
(lp2790
g2596
asbag60
(g81
g62
NtRp2791
(dp2792
g65
(dp2793
g92
g93
ssg74
g2783
sg67
(lp2794
S':'
asbag60
(g81
g62
NtRp2795
(dp2796
g65
(dp2797
sg74
g2783
sg67
(lp2798
g60
(g61
g62
NtRp2799
(dp2800
g65
(dp2801
g73
I4
ssg74
g2795
sg67
(lp2802
g2609
asbasbasbag60
(g76
g62
NtRp2803
(dp2804
g65
(dp2805
sg74
g2719
sg67
(lp2806
g60
(g81
g62
NtRp2807
(dp2808
g65
(dp2809
g85
g86
ssg74
g2803
sg67
(lp2810
g2618
asbag60
(g81
g62
NtRp2811
(dp2812
g65
(dp2813
g92
g93
ssg74
g2803
sg67
(lp2814
S':'
asbag60
(g81
g62
NtRp2815
(dp2816
g65
(dp2817
sg74
g2803
sg67
(lp2818
g60
(g61
g62
NtRp2819
(dp2820
g65
(dp2821
g73
I4
ssg74
g2815
sg67
(lp2822
g2631
asbasbasbasbasbasbasbag60
(g76
g62
NtRp2823
(dp2824
g65
(dp2825
sg74
g70
sg67
(lp2826
g60
(g81
g62
NtRp2827
(dp2828
g65
(dp2829
g85
g86
ssg74
g2823
sg67
(lp2830
S'wsgi'
p2831
asbag60
(g81
g62
NtRp2832
(dp2833
g65
(dp2834
g92
g93
ssg74
g2823
sg67
(lp2835
S':'
asbag60
(g81
g62
NtRp2836
(dp2837
g65
(dp2838
sg74
g2823
sg67
(lp2839
g60
(g61
g62
NtRp2840
(dp2841
g65
(dp2842
g73
I5
ssg74
g2836
sg67
(lp2843
g60
(g69
g62
NtRp2844
(dp2845
g65
(dp2846
g73
I4
ssg74
Nsg67
(lp2847
g60
(g76
g62
NtRp2848
(dp2849
g65
(dp2850
sg74
g2844
sg67
(lp2851
g60
(g81
g62
NtRp2852
(dp2853
g65
(dp2854
g85
g86
ssg74
g2848
sg67
(lp2855
S'environ'
p2856
asbag60
(g81
g62
NtRp2857
(dp2858
g65
(dp2859
g92
g93
ssg74
g2848
sg67
(lp2860
S':'
asbag60
(g81
g62
NtRp2861
(dp2862
g65
(dp2863
sg74
g2848
sg67
(lp2864
g60
(g61
g62
NtRp2865
(dp2866
g65
(dp2867
g73
I4
ssg74
g2861
sg67
(lp2868
g60
(g69
g62
NtRp2869
(dp2870
g65
(dp2871
g73
I3
ssg74
Nsg67
(lp2872
g60
(g76
g62
NtRp2873
(dp2874
g65
(dp2875
sg74
g2869
sg67
(lp2876
g60
(g81
g62
NtRp2877
(dp2878
g65
(dp2879
g85
g86
ssg74
g2873
sg67
(lp2880
S'CONTENT_LENGTH'
p2881
asbag60
(g81
g62
NtRp2882
(dp2883
g65
(dp2884
g92
g93
ssg74
g2873
sg67
(lp2885
S':'
asbag60
(g81
g62
NtRp2886
(dp2887
g65
(dp2888
sg74
g2873
sg67
(lp2889
g60
(g61
g62
NtRp2890
(dp2891
g65
(dp2892
g73
I3
ssg74
g2886
sg67
(lp2893
g1126
asbasbasbag60
(g76
g62
NtRp2894
(dp2895
g65
(dp2896
sg74
g2869
sg67
(lp2897
g60
(g81
g62
NtRp2898
(dp2899
g65
(dp2900
g85
g86
ssg74
g2894
sg67
(lp2901
S'CONTENT_TYPE'
p2902
asbag60
(g81
g62
NtRp2903
(dp2904
g65
(dp2905
g92
g93
ssg74
g2894
sg67
(lp2906
S':'
asbag60
(g81
g62
NtRp2907
(dp2908
g65
(dp2909
sg74
g2894
sg67
(lp2910
g60
(g61
g62
NtRp2911
(dp2912
g65
(dp2913
g73
I3
ssg74
g2907
sg67
(lp2914
g1148
asbasbasbag60
(g76
g62
NtRp2915
(dp2916
g65
(dp2917
sg74
g2869
sg67
(lp2918
g60
(g81
g62
NtRp2919
(dp2920
g65
(dp2921
g85
g86
ssg74
g2915
sg67
(lp2922
S'HTTP_ACCEPT'
p2923
asbag60
(g81
g62
NtRp2924
(dp2925
g65
(dp2926
g92
g93
ssg74
g2915
sg67
(lp2927
S':'
asbag60
(g81
g62
NtRp2928
(dp2929
g65
(dp2930
sg74
g2915
sg67
(lp2931
g60
(g61
g62
NtRp2932
(dp2933
g65
(dp2934
g73
I3
ssg74
g2928
sg67
(lp2935
g1235
asbasbasbag60
(g76
g62
NtRp2936
(dp2937
g65
(dp2938
sg74
g2869
sg67
(lp2939
g60
(g81
g62
NtRp2940
(dp2941
g65
(dp2942
g85
g86
ssg74
g2936
sg67
(lp2943
S'HTTP_ACCEPT_ENCODING'
p2944
asbag60
(g81
g62
NtRp2945
(dp2946
g65
(dp2947
g92
g93
ssg74
g2936
sg67
(lp2948
S':'
asbag60
(g81
g62
NtRp2949
(dp2950
g65
(dp2951
sg74
g2936
sg67
(lp2952
g60
(g61
g62
NtRp2953
(dp2954
g65
(dp2955
g73
I3
ssg74
g2949
sg67
(lp2956
g1257
asbasbasbag60
(g76
g62
NtRp2957
(dp2958
g65
(dp2959
sg74
g2869
sg67
(lp2960
g60
(g81
g62
NtRp2961
(dp2962
g65
(dp2963
g85
g86
ssg74
g2957
sg67
(lp2964
S'HTTP_ACCEPT_LANGUAGE'
p2965
asbag60
(g81
g62
NtRp2966
(dp2967
g65
(dp2968
g92
g93
ssg74
g2957
sg67
(lp2969
S':'
asbag60
(g81
g62
NtRp2970
(dp2971
g65
(dp2972
sg74
g2957
sg67
(lp2973
g60
(g61
g62
NtRp2974
(dp2975
g65
(dp2976
g73
I3
ssg74
g2970
sg67
(lp2977
g1279
asbasbasbag60
(g76
g62
NtRp2978
(dp2979
g65
(dp2980
sg74
g2869
sg67
(lp2981
g60
(g81
g62
NtRp2982
(dp2983
g65
(dp2984
g85
g86
ssg74
g2978
sg67
(lp2985
S'HTTP_CACHE_CONTROL'
p2986
asbag60
(g81
g62
NtRp2987
(dp2988
g65
(dp2989
g92
g93
ssg74
g2978
sg67
(lp2990
S':'
asbag60
(g81
g62
NtRp2991
(dp2992
g65
(dp2993
sg74
g2978
sg67
(lp2994
g60
(g61
g62
NtRp2995
(dp2996
g65
(dp2997
g73
I3
ssg74
g2991
sg67
(lp2998
g1301
asbasbasbag60
(g76
g62
NtRp2999
(dp3000
g65
(dp3001
sg74
g2869
sg67
(lp3002
g60
(g81
g62
NtRp3003
(dp3004
g65
(dp3005
g85
g86
ssg74
g2999
sg67
(lp3006
S'HTTP_CONNECTION'
p3007
asbag60
(g81
g62
NtRp3008
(dp3009
g65
(dp3010
g92
g93
ssg74
g2999
sg67
(lp3011
S':'
asbag60
(g81
g62
NtRp3012
(dp3013
g65
(dp3014
sg74
g2999
sg67
(lp3015
g60
(g61
g62
NtRp3016
(dp3017
g65
(dp3018
g73
I3
ssg74
g3012
sg67
(lp3019
g1323
asbasbasbag60
(g76
g62
NtRp3020
(dp3021
g65
(dp3022
sg74
g2869
sg67
(lp3023
g60
(g81
g62
NtRp3024
(dp3025
g65
(dp3026
g85
g86
ssg74
g3020
sg67
(lp3027
S'HTTP_CONTENT_LENGTH'
p3028
asbag60
(g81
g62
NtRp3029
(dp3030
g65
(dp3031
g92
g93
ssg74
g3020
sg67
(lp3032
S':'
asbag60
(g81
g62
NtRp3033
(dp3034
g65
(dp3035
sg74
g3020
sg67
(lp3036
g60
(g61
g62
NtRp3037
(dp3038
g65
(dp3039
g73
I3
ssg74
g3033
sg67
(lp3040
g1126
asbasbasbag60
(g76
g62
NtRp3041
(dp3042
g65
(dp3043
sg74
g2869
sg67
(lp3044
g60
(g81
g62
NtRp3045
(dp3046
g65
(dp3047
g85
g86
ssg74
g3041
sg67
(lp3048
S'HTTP_CONTENT_TYPE'
p3049
asbag60
(g81
g62
NtRp3050
(dp3051
g65
(dp3052
g92
g93
ssg74
g3041
sg67
(lp3053
S':'
asbag60
(g81
g62
NtRp3054
(dp3055
g65
(dp3056
sg74
g3041
sg67
(lp3057
g60
(g61
g62
NtRp3058
(dp3059
g65
(dp3060
g73
I3
ssg74
g3054
sg67
(lp3061
g1148
asbasbasbag60
(g76
g62
NtRp3062
(dp3063
g65
(dp3064
sg74
g2869
sg67
(lp3065
g60
(g81
g62
NtRp3066
(dp3067
g65
(dp3068
g85
g86
ssg74
g3062
sg67
(lp3069
S'HTTP_COOKIE'
p3070
asbag60
(g81
g62
NtRp3071
(dp3072
g65
(dp3073
g92
g93
ssg74
g3062
sg67
(lp3074
S':'
asbag60
(g81
g62
NtRp3075
(dp3076
g65
(dp3077
sg74
g3062
sg67
(lp3078
g60
(g61
g62
NtRp3079
(dp3080
g65
(dp3081
g73
I3
ssg74
g3075
sg67
(lp3082
g1387
asbasbasbag60
(g76
g62
NtRp3083
(dp3084
g65
(dp3085
sg74
g2869
sg67
(lp3086
g60
(g81
g62
NtRp3087
(dp3088
g65
(dp3089
g85
g86
ssg74
g3083
sg67
(lp3090
S'HTTP_HOST'
p3091
asbag60
(g81
g62
NtRp3092
(dp3093
g65
(dp3094
g92
g93
ssg74
g3083
sg67
(lp3095
S':'
asbag60
(g81
g62
NtRp3096
(dp3097
g65
(dp3098
sg74
g3083
sg67
(lp3099
g60
(g61
g62
NtRp3100
(dp3101
g65
(dp3102
g73
I3
ssg74
g3096
sg67
(lp3103
g1409
asbasbasbag60
(g76
g62
NtRp3104
(dp3105
g65
(dp3106
sg74
g2869
sg67
(lp3107
g60
(g81
g62
NtRp3108
(dp3109
g65
(dp3110
g85
g86
ssg74
g3104
sg67
(lp3111
S'HTTP_REFERER'
p3112
asbag60
(g81
g62
NtRp3113
(dp3114
g65
(dp3115
g92
g93
ssg74
g3104
sg67
(lp3116
S':'
asbag60
(g81
g62
NtRp3117
(dp3118
g65
(dp3119
sg74
g3104
sg67
(lp3120
g60
(g61
g62
NtRp3121
(dp3122
g65
(dp3123
g73
I3
ssg74
g3117
sg67
(lp3124
g1431
asbasbasbag60
(g76
g62
NtRp3125
(dp3126
g65
(dp3127
sg74
g2869
sg67
(lp3128
g60
(g81
g62
NtRp3129
(dp3130
g65
(dp3131
g85
g86
ssg74
g3125
sg67
(lp3132
S'HTTP_USER_AGENT'
p3133
asbag60
(g81
g62
NtRp3134
(dp3135
g65
(dp3136
g92
g93
ssg74
g3125
sg67
(lp3137
S':'
asbag60
(g81
g62
NtRp3138
(dp3139
g65
(dp3140
sg74
g3125
sg67
(lp3141
g60
(g61
g62
NtRp3142
(dp3143
g65
(dp3144
g73
I3
ssg74
g3138
sg67
(lp3145
g1453
asbasbasbag60
(g76
g62
NtRp3146
(dp3147
g65
(dp3148
sg74
g2869
sg67
(lp3149
g60
(g81
g62
NtRp3150
(dp3151
g65
(dp3152
g85
g86
ssg74
g3146
sg67
(lp3153
S'PATH_INFO'
p3154
asbag60
(g81
g62
NtRp3155
(dp3156
g65
(dp3157
g92
g93
ssg74
g3146
sg67
(lp3158
S':'
asbag60
(g81
g62
NtRp3159
(dp3160
g65
(dp3161
sg74
g3146
sg67
(lp3162
g60
(g61
g62
NtRp3163
(dp3164
g65
(dp3165
g73
I3
ssg74
g3159
sg67
(lp3166
g1496
asbasbasbag60
(g76
g62
NtRp3167
(dp3168
g65
(dp3169
sg74
g2869
sg67
(lp3170
g60
(g81
g62
NtRp3171
(dp3172
g65
(dp3173
g85
g86
ssg74
g3167
sg67
(lp3174
S'QUERY_STRING'
p3175
asbag60
(g81
g62
NtRp3176
(dp3177
g65
(dp3178
g92
g93
ssg74
g3167
sg67
(lp3179
S':'
asbag60
(g81
g62
NtRp3180
(dp3181
g65
(dp3182
sg74
g3167
sg67
(lp3183
g60
(g61
g62
NtRp3184
(dp3185
g65
(dp3186
g73
I3
ssg74
g3180
sg67
(lp3187
S''
asbasbasbag60
(g76
g62
NtRp3188
(dp3189
g65
(dp3190
sg74
g2869
sg67
(lp3191
g60
(g81
g62
NtRp3192
(dp3193
g65
(dp3194
g85
g86
ssg74
g3188
sg67
(lp3195
S'REMOTE_ADDR'
p3196
asbag60
(g81
g62
NtRp3197
(dp3198
g65
(dp3199
g92
g93
ssg74
g3188
sg67
(lp3200
S':'
asbag60
(g81
g62
NtRp3201
(dp3202
g65
(dp3203
sg74
g3188
sg67
(lp3204
g60
(g61
g62
NtRp3205
(dp3206
g65
(dp3207
g73
I3
ssg74
g3201
sg67
(lp3208
g193
asbasbasbag60
(g76
g62
NtRp3209
(dp3210
g65
(dp3211
sg74
g2869
sg67
(lp3212
g60
(g81
g62
NtRp3213
(dp3214
g65
(dp3215
g85
g86
ssg74
g3209
sg67
(lp3216
S'REMOTE_PORT'
p3217
asbag60
(g81
g62
NtRp3218
(dp3219
g65
(dp3220
g92
g93
ssg74
g3209
sg67
(lp3221
S':'
asbag60
(g81
g62
NtRp3222
(dp3223
g65
(dp3224
sg74
g3209
sg67
(lp3225
g60
(g61
g62
NtRp3226
(dp3227
g65
(dp3228
g73
I3
ssg74
g3222
sg67
(lp3229
g1560
asbasbasbag60
(g76
g62
NtRp3230
(dp3231
g65
(dp3232
sg74
g2869
sg67
(lp3233
g60
(g81
g62
NtRp3234
(dp3235
g65
(dp3236
g85
g86
ssg74
g3230
sg67
(lp3237
S'REQUEST_METHOD'
p3238
asbag60
(g81
g62
NtRp3239
(dp3240
g65
(dp3241
g92
g93
ssg74
g3230
sg67
(lp3242
S':'
asbag60
(g81
g62
NtRp3243
(dp3244
g65
(dp3245
sg74
g3230
sg67
(lp3246
g60
(g61
g62
NtRp3247
(dp3248
g65
(dp3249
g73
I3
ssg74
g3243
sg67
(lp3250
g1582
asbasbasbag60
(g76
g62
NtRp3251
(dp3252
g65
(dp3253
sg74
g2869
sg67
(lp3254
g60
(g81
g62
NtRp3255
(dp3256
g65
(dp3257
g85
g86
ssg74
g3251
sg67
(lp3258
S'SCRIPT_NAME'
p3259
asbag60
(g81
g62
NtRp3260
(dp3261
g65
(dp3262
g92
g93
ssg74
g3251
sg67
(lp3263
S':'
asbag60
(g81
g62
NtRp3264
(dp3265
g65
(dp3266
sg74
g3251
sg67
(lp3267
g60
(g61
g62
NtRp3268
(dp3269
g65
(dp3270
g73
I3
ssg74
g3264
sg67
(lp3271
S''
asbasbasbag60
(g76
g62
NtRp3272
(dp3273
g65
(dp3274
sg74
g2869
sg67
(lp3275
g60
(g81
g62
NtRp3276
(dp3277
g65
(dp3278
g85
g86
ssg74
g3272
sg67
(lp3279
S'SERVER_NAME'
p3280
asbag60
(g81
g62
NtRp3281
(dp3282
g65
(dp3283
g92
g93
ssg74
g3272
sg67
(lp3284
S':'
asbag60
(g81
g62
NtRp3285
(dp3286
g65
(dp3287
sg74
g3272
sg67
(lp3288
g60
(g61
g62
NtRp3289
(dp3290
g65
(dp3291
g73
I3
ssg74
g3285
sg67
(lp3292
g1625
asbasbasbag60
(g76
g62
NtRp3293
(dp3294
g65
(dp3295
sg74
g2869
sg67
(lp3296
g60
(g81
g62
NtRp3297
(dp3298
g65
(dp3299
g85
g86
ssg74
g3293
sg67
(lp3300
S'SERVER_PORT'
p3301
asbag60
(g81
g62
NtRp3302
(dp3303
g65
(dp3304
g92
g93
ssg74
g3293
sg67
(lp3305
S':'
asbag60
(g81
g62
NtRp3306
(dp3307
g65
(dp3308
sg74
g3293
sg67
(lp3309
g60
(g61
g62
NtRp3310
(dp3311
g65
(dp3312
g73
I3
ssg74
g3306
sg67
(lp3313
g1647
asbasbasbag60
(g76
g62
NtRp3314
(dp3315
g65
(dp3316
sg74
g2869
sg67
(lp3317
g60
(g81
g62
NtRp3318
(dp3319
g65
(dp3320
g85
g86
ssg74
g3314
sg67
(lp3321
S'SERVER_PROTOCOL'
p3322
asbag60
(g81
g62
NtRp3323
(dp3324
g65
(dp3325
g92
g93
ssg74
g3314
sg67
(lp3326
S':'
asbag60
(g81
g62
NtRp3327
(dp3328
g65
(dp3329
sg74
g3314
sg67
(lp3330
g60
(g61
g62
NtRp3331
(dp3332
g65
(dp3333
g73
I3
ssg74
g3327
sg67
(lp3334
g1669
asbasbasbag60
(g76
g62
NtRp3335
(dp3336
g65
(dp3337
sg74
g2869
sg67
(lp3338
g60
(g81
g62
NtRp3339
(dp3340
g65
(dp3341
g85
g86
ssg74
g3335
sg67
(lp3342
S'SERVER_SOFTWARE'
p3343
asbag60
(g81
g62
NtRp3344
(dp3345
g65
(dp3346
g92
g93
ssg74
g3335
sg67
(lp3347
S':'
asbag60
(g81
g62
NtRp3348
(dp3349
g65
(dp3350
sg74
g3335
sg67
(lp3351
g60
(g61
g62
NtRp3352
(dp3353
g65
(dp3354
g73
I3
ssg74
g3348
sg67
(lp3355
g1691
asbasbasbag60
(g76
g62
NtRp3356
(dp3357
g65
(dp3358
sg74
g2869
sg67
(lp3359
g60
(g81
g62
NtRp3360
(dp3361
g65
(dp3362
g85
g86
ssg74
g3356
sg67
(lp3363
S'wsgi.errors'
p3364
asbag60
(g81
g62
NtRp3365
(dp3366
g65
(dp3367
g92
g93
ssg74
g3356
sg67
(lp3368
S':'
asbag60
(g81
g62
NtRp3369
(dp3370
g65
(dp3371
sg74
g3356
sg67
(lp3372
g60
(g61
g62
NtRp3373
(dp3374
g65
(dp3375
g73
I3
ssg74
g3369
sg67
(lp3376
S"<open file '<stderr>', mode 'w' at 0xb73360d0>"
p3377
asbasbasbag60
(g76
g62
NtRp3378
(dp3379
g65
(dp3380
sg74
g2869
sg67
(lp3381
g60
(g81
g62
NtRp3382
(dp3383
g65
(dp3384
g85
g86
ssg74
g3378
sg67
(lp3385
S'wsgi.file_wrapper'
p3386
asbag60
(g81
g62
NtRp3387
(dp3388
g65
(dp3389
g92
g93
ssg74
g3378
sg67
(lp3390
S':'
asbag60
(g81
g62
NtRp3391
(dp3392
g65
(dp3393
sg74
g3378
sg67
(lp3394
g60
(g61
g62
NtRp3395
(dp3396
g65
(dp3397
g73
I3
ssg74
g3391
sg67
(lp3398
S'<class wsgiref.util.FileWrapper at 0xa6e1b3c>'
p3399
asbasbasbag60
(g76
g62
NtRp3400
(dp3401
g65
(dp3402
sg74
g2869
sg67
(lp3403
g60
(g81
g62
NtRp3404
(dp3405
g65
(dp3406
g85
g86
ssg74
g3400
sg67
(lp3407
S'wsgi.input'
p3408
asbag60
(g81
g62
NtRp3409
(dp3410
g65
(dp3411
g92
g93
ssg74
g3400
sg67
(lp3412
S':'
asbag60
(g81
g62
NtRp3413
(dp3414
g65
(dp3415
sg74
g3400
sg67
(lp3416
g60
(g61
g62
NtRp3417
(dp3418
g65
(dp3419
g73
I3
ssg74
g3413
sg67
(lp3420
S"<open file '<fdopen>', mode 'w+b' at 0xacab6f40>"
p3421
asbasbasbag60
(g76
g62
NtRp3422
(dp3423
g65
(dp3424
sg74
g2869
sg67
(lp3425
g60
(g81
g62
NtRp3426
(dp3427
g65
(dp3428
g85
g86
ssg74
g3422
sg67
(lp3429
S'wsgi.multiprocess'
p3430
asbag60
(g81
g62
NtRp3431
(dp3432
g65
(dp3433
g92
g93
ssg74
g3422
sg67
(lp3434
S':'
asbag60
(g81
g62
NtRp3435
(dp3436
g65
(dp3437
sg74
g3422
sg67
(lp3438
g60
(g61
g62
NtRp3439
(dp3440
g65
(dp3441
g73
I3
ssg74
g3435
sg67
(lp3442
g103
asbasbasbag60
(g76
g62
NtRp3443
(dp3444
g65
(dp3445
sg74
g2869
sg67
(lp3446
g60
(g81
g62
NtRp3447
(dp3448
g65
(dp3449
g85
g86
ssg74
g3443
sg67
(lp3450
S'wsgi.multithread'
p3451
asbag60
(g81
g62
NtRp3452
(dp3453
g65
(dp3454
g92
g93
ssg74
g3443
sg67
(lp3455
S':'
asbag60
(g81
g62
NtRp3456
(dp3457
g65
(dp3458
sg74
g3443
sg67
(lp3459
g60
(g61
g62
NtRp3460
(dp3461
g65
(dp3462
g73
I3
ssg74
g3456
sg67
(lp3463
g1931
asbasbasbag60
(g76
g62
NtRp3464
(dp3465
g65
(dp3466
sg74
g2869
sg67
(lp3467
g60
(g81
g62
NtRp3468
(dp3469
g65
(dp3470
g85
g86
ssg74
g3464
sg67
(lp3471
S'wsgi.run_once'
p3472
asbag60
(g81
g62
NtRp3473
(dp3474
g65
(dp3475
g92
g93
ssg74
g3464
sg67
(lp3476
S':'
asbag60
(g81
g62
NtRp3477
(dp3478
g65
(dp3479
sg74
g3464
sg67
(lp3480
g60
(g61
g62
NtRp3481
(dp3482
g65
(dp3483
g73
I3
ssg74
g3477
sg67
(lp3484
g103
asbasbasbag60
(g76
g62
NtRp3485
(dp3486
g65
(dp3487
sg74
g2869
sg67
(lp3488
g60
(g81
g62
NtRp3489
(dp3490
g65
(dp3491
g85
g86
ssg74
g3485
sg67
(lp3492
S'wsgi.url_scheme'
p3493
asbag60
(g81
g62
NtRp3494
(dp3495
g65
(dp3496
g92
g93
ssg74
g3485
sg67
(lp3497
S':'
asbag60
(g81
g62
NtRp3498
(dp3499
g65
(dp3500
sg74
g3485
sg67
(lp3501
g60
(g61
g62
NtRp3502
(dp3503
g65
(dp3504
g73
I3
ssg74
g3498
sg67
(lp3505
g1974
asbasbasbag60
(g76
g62
NtRp3506
(dp3507
g65
(dp3508
sg74
g2869
sg67
(lp3509
g60
(g81
g62
NtRp3510
(dp3511
g65
(dp3512
g85
g86
ssg74
g3506
sg67
(lp3513
S'wsgi.version'
p3514
asbag60
(g81
g62
NtRp3515
(dp3516
g65
(dp3517
g92
g93
ssg74
g3506
sg67
(lp3518
S':'
asbag60
(g81
g62
NtRp3519
(dp3520
g65
(dp3521
sg74
g3506
sg67
(lp3522
g60
(g61
g62
NtRp3523
(dp3524
g65
(dp3525
g73
I3
ssg74
g3519
sg67
(lp3526
S'1'
asbasbasbasbasbasbasbasbasbasbasbasbasbsS'frames'
p3527
(lp3528
(dp3529
S'file'
p3530
S'/home/u4hcsdaw/Python/web2py/gluon/restricted.py'
p3531
sS'dump'
p3532
(dp3533
S'environment'
p3534
S"{'A': <class 'gluon.html.A'>, 'AcesCall': <function AcesCall>, 'Auth': <class 'gluon.tools.Auth'>, 'B': <class 'gluon.html.B'>, 'BEAUTIFY': <class 'gluon.html.BEAUTIFY'>, 'BODY': <class 'gluon.html.BODY'>, 'BR': <class 'gluon.html.BR'>, 'BUTTON': <class 'gluon.html.BUTTON'>, 'CAT': <class 'gluon.html.CAT'>, 'CENTER': <class 'gluon.html.CENTER'>, ...}"
p3535
sS'ccode'
p3536
S'<code object <module> at 0xace4ea40, file "/home...plications/ACES/controllers/default.py", line 12>'
p3537
ssS'lnum'
p3538
I194
sS'lines'
p3539
(dp3540
I192
S'        else:'
p3541
sI193
S'            ccode = compile2(code,layer)'
p3542
sI194
S'        exec ccode in environment'
p3543
sI195
S'    except HTTP:'
p3544
sI196
S'        raise'
p3545
sI197
S'    except Exception, error:'
p3546
sI198
S'        # XXX Show exception in Wing IDE if running in debugger'
p3547
sI189
S'    try:'
p3548
sI190
S'        if type(code) == types.CodeType:'
p3549
sI191
S'            ccode = code'
p3550
ssS'call'
p3551
S"(code='# -*- coding: utf-8 -*-\\n# this file is released ...=crud())\\n\\nresponse._vars=response._caller(index)\\n', environment={'A': <class 'gluon.html.A'>, 'AcesCall': <function AcesCall>, 'Auth': <class 'gluon.tools.Auth'>, 'B': <class 'gluon.html.B'>, 'BEAUTIFY': <class 'gluon.html.BEAUTIFY'>, 'BODY': <class 'gluon.html.BODY'>, 'BR': <class 'gluon.html.BR'>, 'BUTTON': <class 'gluon.html.BUTTON'>, 'CAT': <class 'gluon.html.CAT'>, 'CENTER': <class 'gluon.html.CENTER'>, ...}, layer='/home/u4hcsdaw/Python/web2py/applications/ACES/controllers/default.py')"
p3552
sS'func'
p3553
S'restricted'
p3554
sa(dp3555
g3530
S'/home/u4hcsdaw/Python/web2py/applications/ACES/controllers/default.py'
p3556
sg3532
(dp3557
sg3538
I88
sg3539
(dp3558
I77
S'    http://..../[app]/default/data/update/[table]/[id]'
p3559
sI78
S'    http://..../[app]/default/data/delete/[table]/[id]'
p3560
sI79
S'    http://..../[app]/default/data/select/[table]'
p3561
sI80
S'    http://..../[app]/default/data/search/[table]'
p3562
sI81
S'    but URLs bust be signed, i.e. linked with'
p3563
sI82
S"      A('table',_href=URL('data/tables',user_signature=True))"
p3564
sI83
S'    or with the signed load operator'
p3565
sI84
S"      LOAD('default','data.load',args='tables',ajax=True,user_signature=True)"
p3566
sI85
S'    """'
p3567
sI86
S'    return dict(form=crud())'
p3568
ssg3551
S'()'
p3569
sg3553
S'<module>'
p3570
sa(dp3571
g3530
S'/home/u4hcsdaw/Python/web2py/gluon/globals.py'
p3572
sg3532
(dp3573
S'self'
p3574
S'undefined'
p3575
sS'f'
S'<function index>'
p3576
ssg3538
I149
sg3539
(dp3577
I144
S'        self.meta = Storage()      # used by web2py_ajax.html'
p3578
sI145
S'        self.menu = []             # used by the default view layout'
p3579
sI146
S'        self.files = []            # used by web2py_ajax.html'
p3580
sI147
S'        self.generic_patterns = [] # patterns to allow generic views'
p3581
sI148
S'        self._vars = None'
p3582
sI149
S'        self._caller = lambda f: f()'
p3583
sI150
S'        self._view_environment = None'
p3584
sI151
S'        self._custom_commit = None'
p3585
sI152
S'        self._custom_rollback = None'
p3586
sI153
S''
ssg3551
S'(f=<function index>)'
p3587
sg3553
S'<lambda>'
p3588
sa(dp3589
g3530
S'/home/u4hcsdaw/Python/web2py/applications/ACES/controllers/default.py'
p3590
sg3532
(dp3591
S'f1.accepts'
p3592
S'<bound method SQLFORM.accepts of <gluon.sqlhtml.SQLFORM object>>'
p3593
sS'f1'
p3594
S'<gluon.sqlhtml.SQLFORM object>'
p3595
sS'global request'
p3596
S"<Storage {'body': <open file '<fdopen>', mode 'w...34a4f062113', '_formname': 'linearWaveForm/8'}>}>"
p3597
sS'global session'
p3598
S"<Storage {'WaveHeight': 0.85, '_formkey[linearWa...orm/7]': '345d6274-6436-4e2a-b398-ee926483febe'}>"
p3599
sS'request.vars'
p3600
S"<Storage {'wavePeriod': '3.0', 'waveHeight': '0....-834a4f062113', '_formname': 'linearWaveForm/8'}>"
p3601
ssg3538
I29
sg3539
(dp3602
I32
S'        pre1=PRE(t0)'
p3603
sI33
S"        img1=IMG(_src=URL('static','images/Waves.svg?'+nowS))"
p3604
sI24
S'    f1=linearWaveForm()'
p3605
sI25
S"    if session.has_key('formVars'):"
p3606
sI26
S"        for key in session['formVars']:"
p3607
sI27
S"            f1.vars[key]=session['formVars'][key]"
p3608
sI28
S"    #f1['vars']=dict(waveHeight=0.85,wavePeriod=8.00,waveBrk=0.78,waterDepth=4.1)"
p3609
sI29
S'    if f1.accepts(request.vars,session):'
p3610
sI30
S"        session['formVars']=f1.vars"
p3611
sI31
S'        t0=AcesCall(f1.vars)'
p3612
ssg3551
S'()'
p3613
sg3553
S'index'
p3614
sa(dp3615
g3530
S'/home/u4hcsdaw/Python/web2py/gluon/sqlhtml.py'
p3616
sg3532
(dp3617
S'self.record'
p3618
S"<Row {'wavePeriod': 3.0, 'update_record': <funct...lete_record': <function <lambda> at 0xace4f764>}>"
p3619
sS'fields'
p3620
S"{'id': 10, 'waterDepth': 8.0, 'waveBreakRatio': 0.78, 'waveHeight': 0.85, 'wavePeriod': 3.0}"
p3621
sS'self'
p3622
S'<gluon.sqlhtml.SQLFORM object>'
p3623
sS'self.table._db'
p3624
S"<DAL {'auth_event': <Table {'origin': <gluon.dal... 'id': <gluon.dal.Field object at 0xadcb534c>}>}>"
p3625
sS').update'
p3626
g3575
sS'self.table._id'
p3627
S'<gluon.dal.Field object>'
p3628
sS'self.table'
p3629
S"<Table {'wavePeriod': <gluon.dal.Field object at...>, 'id': <gluon.dal.Field object at 0xad26054c>}>"
p3630
sS'self.record.id'
p3631
S'8'
ssg3538
I1257
sg3539
(dp3632
I1252
S'                        ret = False'
p3633
sI1253
S'            else:'
p3634
sI1254
S'                if record_id:'
p3635
sI1255
S'                    self.vars.id = self.record.id'
p3636
sI1256
S'                    if fields:'
p3637
sI1257
S'                        self.table._db(self.table._id == self.record.id).update(**fields)'
p3638
sI1258
S'                else:'
p3639
sI1259
S'                    self.vars.id = self.table.insert(**fields)'
p3640
sI1260
S'        self.accepted = ret'
p3641
sI1261
S'        return ret'
p3642
ssg3551
S"(self=<gluon.sqlhtml.SQLFORM object>, request_vars=<Storage {'wavePeriod': '3.0', 'waveHeight': '0....-834a4f062113', '_formname': 'linearWaveForm/8'}>, session=<Storage {'WaveHeight': 0.85, '_formkey[linearWa...orm/7]': '345d6274-6436-4e2a-b398-ee926483febe'}>, formname='linearWaveForm/8', keepvalues=True, onvalidation=None, dbio=True, hideerror=False, detect_record_change=False)"
p3643
sg3553
S'accepts'
p3644
sa(dp3645
g3530
S'/home/u4hcsdaw/Python/web2py/gluon/dal.py'
p3646
sg3532
(dp3647
S'self.query'
p3648
S'<gluon.dal.Query object>'
p3649
sS'fields'
p3650
S'[(<gluon.dal.Field object>, 0.85), (<gluon.dal.Field object>, 3.0), (<gluon.dal.Field object>, 0.78), (<gluon.dal.Field object>, 8.0), (<gluon.dal.Field object>, 10)]'
p3651
sS'self'
p3652
S'<gluon.dal.Set object>'
p3653
sS'tablename'
p3654
S"'linearWaveForm'"
p3655
sS'self.db._adapter.update'
p3656
S'<bound method SQLiteAdapter.update of <gluon.dal.SQLiteAdapter object>>'
p3657
sS'self.db._adapter'
p3658
S'<gluon.dal.SQLiteAdapter object>'
p3659
sS'self.db'
p3660
S"<DAL {'auth_event': <Table {'origin': <gluon.dal... 'id': <gluon.dal.Field object at 0xadcb534c>}>}>"
p3661
ssg3538
I5779
sg3539
(dp3662
I5774
S'        tablename = self.db._adapter.get_table(self.query)'
p3663
sI5775
S'        fields = self.db[tablename]._listify(update_fields,update=True)'
p3664
sI5776
S'        if not fields:'
p3665
sI5777
S'            raise SyntaxError, "No fields to update"'
p3666
sI5778
S'        self.delete_uploaded_files(update_fields)'
p3667
sI5779
S'        return self.db._adapter.update(tablename,self.query,fields)'
p3668
sI5780
S''
sI5781
S'    def validate_and_update(self, **update_fields):'
p3669
sI5782
S'        tablename = self.db._adapter.get_table(self.query)'
p3670
sI5783
S'        response = Row()'
p3671
ssg3551
S"(self=<gluon.dal.Set object>, **update_fields={'id': 10, 'waterDepth': 8.0, 'waveBreakRatio': 0.78, 'waveHeight': 0.85, 'wavePeriod': 3.0})"
p3672
sg3553
S'update'
p3673
sa(dp3674
g3530
S'/home/u4hcsdaw/Python/web2py/gluon/dal.py'
p3675
sg3532
(dp3676
S'self'
p3677
S'<gluon.dal.SQLiteAdapter object>'
p3678
sS'self.execute'
p3679
S'<bound method SQLiteAdapter.execute of <gluon.dal.SQLiteAdapter object>>'
p3680
sS'sql'
p3681
S"'UPDATE linearWaveForm SET waveHeight=0.85,wavePe...terDepth=8.0,id=10 WHERE (linearWaveForm.id = 8);'"
p3682
ssg3538
I1055
sg3539
(dp3683
I1056
S'        try:'
p3684
sI1057
S'            return self.cursor.rowcount'
p3685
sI1058
S'        except:'
p3686
sI1059
S'            return None'
p3687
sI1050
S"        sql_v = ','.join(['%s=%s' % (field.name, self.expand(value,field.type)) for (field,value) in fields])"
p3688
sI1051
S"        return 'UPDATE %s SET %s%s;' % (tablename, sql_v, sql_w)"
p3689
sI1052
S''
sI1053
S'    def update(self,tablename,query,fields):'
p3690
sI1054
S'        sql = self._update(tablename,query,fields)'
p3691
sI1055
S'        self.execute(sql)'
p3692
ssg3551
S"(self=<gluon.dal.SQLiteAdapter object>, tablename='linearWaveForm', query=<gluon.dal.Query object>, fields=[(<gluon.dal.Field object>, 0.85), (<gluon.dal.Field object>, 3.0), (<gluon.dal.Field object>, 0.78), (<gluon.dal.Field object>, 8.0), (<gluon.dal.Field object>, 10)])"
p3693
sg3553
g3673
sa(dp3694
g3530
S'/home/u4hcsdaw/Python/web2py/gluon/dal.py'
p3695
sg3532
(dp3696
S'a'
S"('UPDATE linearWaveForm SET waveHeight=0.85,wavePe...terDepth=8.0,id=10 WHERE (linearWaveForm.id = 8);',)"
p3697
sS'self'
p3698
S'<gluon.dal.SQLiteAdapter object>'
p3699
sS'b'
g20
sS'self.log_execute'
p3700
S'<bound method SQLiteAdapter.log_execute of <gluon.dal.SQLiteAdapter object>>'
p3701
ssg3538
I1309
sg3539
(dp3702
I1312
S'        if isinstance(obj,CALLABLETYPES):'
p3703
sI1313
S'            obj = obj()'
p3704
sI1304
S'        ret = self.cursor.execute(*a,**b)'
p3705
sI1305
S'        self.db._timings.append((a[0],time.time()-t0))'
p3706
sI1306
S'        return ret'
p3707
sI1307
S''
sI1308
S'    def execute(self,*a,**b):'
p3708
sI1309
S'        return self.log_execute(*a, **b)'
p3709
sI1310
S''
sI1311
S'    def represent(self, obj, fieldtype):'
p3710
ssg3551
S"(self=<gluon.dal.SQLiteAdapter object>, *a=('UPDATE linearWaveForm SET waveHeight=0.85,wavePe...terDepth=8.0,id=10 WHERE (linearWaveForm.id = 8);',), **b={})"
p3711
sg3553
S'execute'
p3712
sa(dp3713
g3530
S'/home/u4hcsdaw/Python/web2py/gluon/dal.py'
p3714
sg3532
(dp3715
S'a'
S"('UPDATE linearWaveForm SET waveHeight=0.85,wavePe...terDepth=8.0,id=10 WHERE (linearWaveForm.id = 8);',)"
p3716
sS'b'
g20
sS'self'
p3717
S'<gluon.dal.SQLiteAdapter object>'
p3718
sS'ret'
p3719
g3575
sS'self.cursor'
p3720
S'<sqlite3.Cursor object>'
p3721
sS'self.cursor.execute'
p3722
S'<built-in method execute of sqlite3.Cursor object>'
p3723
ssg3538
I1304
sg3539
(dp3724
I1299
S'        self.execute(query)'
p3725
sI1300
S''
sI1301
S'    def log_execute(self,*a,**b):'
p3726
sI1302
S'        self.db._lastsql = a[0]'
p3727
sI1303
S'        t0 = time.time()'
p3728
sI1304
S'        ret = self.cursor.execute(*a,**b)'
p3729
sI1305
S'        self.db._timings.append((a[0],time.time()-t0))'
p3730
sI1306
S'        return ret'
p3731
sI1307
S''
sI1308
S'    def execute(self,*a,**b):'
p3732
ssg3551
S"(self=<gluon.dal.SQLiteAdapter object>, *a=('UPDATE linearWaveForm SET waveHeight=0.85,wavePe...terDepth=8.0,id=10 WHERE (linearWaveForm.id = 8);',), **b={})"
p3733
sg3553
S'log_execute'
p3734
sasS'pyver'
p3735
S'Python 2.7.3: /usr/bin/python2.7'
p3736
sS'session'
p3737
g60
(g61
g62
NtRp3738
(dp3739
g65
(dp3740
sg67
(lp3741
g60
(g69
g62
NtRp3742
(dp3743
g65
(dp3744
g73
I5
ssg74
Nsg67
(lp3745
g60
(g76
g62
NtRp3746
(dp3747
g65
(dp3748
sg74
g3742
sg67
(lp3749
g60
(g81
g62
NtRp3750
(dp3751
g65
(dp3752
g85
g86
ssg74
g3746
sg67
(lp3753
S'WaveHeight'
p3754
asbag60
(g81
g62
NtRp3755
(dp3756
g65
(dp3757
g92
g93
ssg74
g3746
sg67
(lp3758
S':'
asbag60
(g81
g62
NtRp3759
(dp3760
g65
(dp3761
sg74
g3746
sg67
(lp3762
g60
(g61
g62
NtRp3763
(dp3764
g65
(dp3765
g73
I5
ssg74
g3759
sg67
(lp3766
S'0.85'
p3767
asbasbasbag60
(g76
g62
NtRp3768
(dp3769
g65
(dp3770
sg74
g3742
sg67
(lp3771
g60
(g81
g62
NtRp3772
(dp3773
g65
(dp3774
g85
g86
ssg74
g3768
sg67
(lp3775
S'formVars'
p3776
asbag60
(g81
g62
NtRp3777
(dp3778
g65
(dp3779
g92
g93
ssg74
g3768
sg67
(lp3780
S':'
asbag60
(g81
g62
NtRp3781
(dp3782
g65
(dp3783
sg74
g3768
sg67
(lp3784
g60
(g61
g62
NtRp3785
(dp3786
g65
(dp3787
g73
I5
ssg74
g3781
sg67
(lp3788
g60
(g69
g62
NtRp3789
(dp3790
g65
(dp3791
g73
I4
ssg74
Nsg67
(lp3792
g60
(g76
g62
NtRp3793
(dp3794
g65
(dp3795
sg74
g3789
sg67
(lp3796
g60
(g81
g62
NtRp3797
(dp3798
g65
(dp3799
g85
g86
ssg74
g3793
sg67
(lp3800
S'id'
p3801
asbag60
(g81
g62
NtRp3802
(dp3803
g65
(dp3804
g92
g93
ssg74
g3793
sg67
(lp3805
S':'
asbag60
(g81
g62
NtRp3806
(dp3807
g65
(dp3808
sg74
g3793
sg67
(lp3809
g60
(g61
g62
NtRp3810
(dp3811
g65
(dp3812
g73
I4
ssg74
g3806
sg67
(lp3813
S'10'
p3814
asbasbasbag60
(g76
g62
NtRp3815
(dp3816
g65
(dp3817
sg74
g3789
sg67
(lp3818
g60
(g81
g62
NtRp3819
(dp3820
g65
(dp3821
g85
g86
ssg74
g3815
sg67
(lp3822
S'waterDepth'
p3823
asbag60
(g81
g62
NtRp3824
(dp3825
g65
(dp3826
g92
g93
ssg74
g3815
sg67
(lp3827
S':'
asbag60
(g81
g62
NtRp3828
(dp3829
g65
(dp3830
sg74
g3815
sg67
(lp3831
g60
(g61
g62
NtRp3832
(dp3833
g65
(dp3834
g73
I4
ssg74
g3828
sg67
(lp3835
S'7.0'
p3836
asbasbasbag60
(g76
g62
NtRp3837
(dp3838
g65
(dp3839
sg74
g3789
sg67
(lp3840
g60
(g81
g62
NtRp3841
(dp3842
g65
(dp3843
g85
g86
ssg74
g3837
sg67
(lp3844
S'waveBreakRatio'
p3845
asbag60
(g81
g62
NtRp3846
(dp3847
g65
(dp3848
g92
g93
ssg74
g3837
sg67
(lp3849
S':'
asbag60
(g81
g62
NtRp3850
(dp3851
g65
(dp3852
sg74
g3837
sg67
(lp3853
g60
(g61
g62
NtRp3854
(dp3855
g65
(dp3856
g73
I4
ssg74
g3850
sg67
(lp3857
S'0.78'
p3858
asbasbasbag60
(g76
g62
NtRp3859
(dp3860
g65
(dp3861
sg74
g3789
sg67
(lp3862
g60
(g81
g62
NtRp3863
(dp3864
g65
(dp3865
g85
g86
ssg74
g3859
sg67
(lp3866
S'waveHeight'
p3867
asbag60
(g81
g62
NtRp3868
(dp3869
g65
(dp3870
g92
g93
ssg74
g3859
sg67
(lp3871
S':'
asbag60
(g81
g62
NtRp3872
(dp3873
g65
(dp3874
sg74
g3859
sg67
(lp3875
g60
(g61
g62
NtRp3876
(dp3877
g65
(dp3878
g73
I4
ssg74
g3872
sg67
(lp3879
S'0.85'
p3880
asbasbasbag60
(g76
g62
NtRp3881
(dp3882
g65
(dp3883
sg74
g3789
sg67
(lp3884
g60
(g81
g62
NtRp3885
(dp3886
g65
(dp3887
g85
g86
ssg74
g3881
sg67
(lp3888
S'wavePeriod'
p3889
asbag60
(g81
g62
NtRp3890
(dp3891
g65
(dp3892
g92
g93
ssg74
g3881
sg67
(lp3893
S':'
asbag60
(g81
g62
NtRp3894
(dp3895
g65
(dp3896
sg74
g3881
sg67
(lp3897
g60
(g61
g62
NtRp3898
(dp3899
g65
(dp3900
g73
I4
ssg74
g3894
sg67
(lp3901
S'3.0'
p3902
asbasbasbasbasbasbasbasbasbsS'etype'
p3903
S"<class 'sqlite3.IntegrityError'>"
p3904
sS'date'
p3905
S'Mon Sep 10 19:18:15 2012'
p3906
sS'response'
p3907
g60
(g61
g62
NtRp3908
(dp3909
g65
(dp3910
sg67
(lp3911
g60
(g69
g62
NtRp3912
(dp3913
g65
(dp3914
g73
I5
ssg74
Nsg67
(lp3915
g60
(g76
g62
NtRp3916
(dp3917
g65
(dp3918
sg74
g3912
sg67
(lp3919
g60
(g81
g62
NtRp3920
(dp3921
g65
(dp3922
g85
g86
ssg74
g3916
sg67
(lp3923
g158
asbag60
(g81
g62
NtRp3924
(dp3925
g65
(dp3926
g92
g93
ssg74
g3916
sg67
(lp3927
S':'
asbag60
(g81
g62
NtRp3928
(dp3929
g65
(dp3930
sg74
g3916
sg67
(lp3931
g60
(g61
g62
NtRp3932
(dp3933
g65
(dp3934
g73
I5
ssg74
g3928
sg67
(lp3935
S'<cStringIO.StringO object at 0xab43840>'
p3936
asbasbasbag60
(g76
g62
NtRp3937
(dp3938
g65
(dp3939
sg74
g3912
sg67
(lp3940
g60
(g81
g62
NtRp3941
(dp3942
g65
(dp3943
g85
g86
ssg74
g3937
sg67
(lp3944
g224
asbag60
(g81
g62
NtRp3945
(dp3946
g65
(dp3947
g92
g93
ssg74
g3937
sg67
(lp3948
S':'
asbag60
(g81
g62
NtRp3949
(dp3950
g65
(dp3951
sg74
g3937
sg67
(lp3952
g60
(g61
g62
NtRp3953
(dp3954
g65
(dp3955
g73
I5
ssg74
g3949
sg67
(lp3956
g60
(g69
g62
NtRp3957
(dp3958
g65
(dp3959
g73
I4
ssg74
Nsg67
(lp3960
g60
(g76
g62
NtRp3961
(dp3962
g65
(dp3963
sg74
g3957
sg67
(lp3964
g60
(g81
g62
NtRp3965
(dp3966
g65
(dp3967
g85
g86
ssg74
g3961
sg67
(lp3968
S'session_id_aces'
p3969
asbag60
(g81
g62
NtRp3970
(dp3971
g65
(dp3972
g92
g93
ssg74
g3961
sg67
(lp3973
S':'
asbag60
(g81
g62
NtRp3974
(dp3975
g65
(dp3976
sg74
g3961
sg67
(lp3977
g60
(g61
g62
NtRp3978
(dp3979
g65
(dp3980
g73
I4
ssg74
g3974
sg67
(lp3981
g60
(g69
g62
NtRp3982
(dp3983
g65
(dp3984
g73
I3
ssg74
Nsg67
(lp3985
g60
(g76
g62
NtRp3986
(dp3987
g65
(dp3988
sg74
g3982
sg67
(lp3989
g60
(g81
g62
NtRp3990
(dp3991
g65
(dp3992
g85
g86
ssg74
g3986
sg67
(lp3993
g274
asbag60
(g81
g62
NtRp3994
(dp3995
g65
(dp3996
g92
g93
ssg74
g3986
sg67
(lp3997
S':'
asbag60
(g81
g62
NtRp3998
(dp3999
g65
(dp4000
sg74
g3986
sg67
(lp4001
g60
(g61
g62
NtRp4002
(dp4003
g65
(dp4004
g73
I3
ssg74
g3998
sg67
(lp4005
S''
asbasbasbag60
(g76
g62
NtRp4006
(dp4007
g65
(dp4008
sg74
g3982
sg67
(lp4009
g60
(g81
g62
NtRp4010
(dp4011
g65
(dp4012
g85
g86
ssg74
g4006
sg67
(lp4013
g295
asbag60
(g81
g62
NtRp4014
(dp4015
g65
(dp4016
g92
g93
ssg74
g4006
sg67
(lp4017
S':'
asbag60
(g81
g62
NtRp4018
(dp4019
g65
(dp4020
sg74
g4006
sg67
(lp4021
g60
(g61
g62
NtRp4022
(dp4023
g65
(dp4024
g73
I3
ssg74
g4018
sg67
(lp4025
S''
asbasbasbag60
(g76
g62
NtRp4026
(dp4027
g65
(dp4028
sg74
g3982
sg67
(lp4029
g60
(g81
g62
NtRp4030
(dp4031
g65
(dp4032
g85
g86
ssg74
g4026
sg67
(lp4033
g316
asbag60
(g81
g62
NtRp4034
(dp4035
g65
(dp4036
g92
g93
ssg74
g4026
sg67
(lp4037
S':'
asbag60
(g81
g62
NtRp4038
(dp4039
g65
(dp4040
sg74
g4026
sg67
(lp4041
g60
(g61
g62
NtRp4042
(dp4043
g65
(dp4044
g73
I3
ssg74
g4038
sg67
(lp4045
S''
asbasbasbag60
(g76
g62
NtRp4046
(dp4047
g65
(dp4048
sg74
g3982
sg67
(lp4049
g60
(g81
g62
NtRp4050
(dp4051
g65
(dp4052
g85
g86
ssg74
g4046
sg67
(lp4053
g337
asbag60
(g81
g62
NtRp4054
(dp4055
g65
(dp4056
g92
g93
ssg74
g4046
sg67
(lp4057
S':'
asbag60
(g81
g62
NtRp4058
(dp4059
g65
(dp4060
sg74
g4046
sg67
(lp4061
g60
(g61
g62
NtRp4062
(dp4063
g65
(dp4064
g73
I3
ssg74
g4058
sg67
(lp4065
S''
asbasbasbag60
(g76
g62
NtRp4066
(dp4067
g65
(dp4068
sg74
g3982
sg67
(lp4069
g60
(g81
g62
NtRp4070
(dp4071
g65
(dp4072
g85
g86
ssg74
g4066
sg67
(lp4073
g358
asbag60
(g81
g62
NtRp4074
(dp4075
g65
(dp4076
g92
g93
ssg74
g4066
sg67
(lp4077
S':'
asbag60
(g81
g62
NtRp4078
(dp4079
g65
(dp4080
sg74
g4066
sg67
(lp4081
g60
(g61
g62
NtRp4082
(dp4083
g65
(dp4084
g73
I3
ssg74
g4078
sg67
(lp4085
S''
asbasbasbag60
(g76
g62
NtRp4086
(dp4087
g65
(dp4088
sg74
g3982
sg67
(lp4089
g60
(g81
g62
NtRp4090
(dp4091
g65
(dp4092
g85
g86
ssg74
g4086
sg67
(lp4093
g379
asbag60
(g81
g62
NtRp4094
(dp4095
g65
(dp4096
g92
g93
ssg74
g4086
sg67
(lp4097
S':'
asbag60
(g81
g62
NtRp4098
(dp4099
g65
(dp4100
sg74
g4086
sg67
(lp4101
g60
(g61
g62
NtRp4102
(dp4103
g65
(dp4104
g73
I3
ssg74
g4098
sg67
(lp4105
S'/'
asbasbasbag60
(g76
g62
NtRp4106
(dp4107
g65
(dp4108
sg74
g3982
sg67
(lp4109
g60
(g81
g62
NtRp4110
(dp4111
g65
(dp4112
g85
g86
ssg74
g4106
sg67
(lp4113
g400
asbag60
(g81
g62
NtRp4114
(dp4115
g65
(dp4116
g92
g93
ssg74
g4106
sg67
(lp4117
S':'
asbag60
(g81
g62
NtRp4118
(dp4119
g65
(dp4120
sg74
g4106
sg67
(lp4121
g60
(g61
g62
NtRp4122
(dp4123
g65
(dp4124
g73
I3
ssg74
g4118
sg67
(lp4125
S''
asbasbasbag60
(g76
g62
NtRp4126
(dp4127
g65
(dp4128
sg74
g3982
sg67
(lp4129
g60
(g81
g62
NtRp4130
(dp4131
g65
(dp4132
g85
g86
ssg74
g4126
sg67
(lp4133
g421
asbag60
(g81
g62
NtRp4134
(dp4135
g65
(dp4136
g92
g93
ssg74
g4126
sg67
(lp4137
S':'
asbag60
(g81
g62
NtRp4138
(dp4139
g65
(dp4140
sg74
g4126
sg67
(lp4141
g60
(g61
g62
NtRp4142
(dp4143
g65
(dp4144
g73
I3
ssg74
g4138
sg67
(lp4145
S''
asbasbasbasbasbasbasbasbasbasbasbag60
(g76
g62
NtRp4146
(dp4147
g65
(dp4148
sg74
g3912
sg67
(lp4149
g60
(g81
g62
NtRp4150
(dp4151
g65
(dp4152
g85
g86
ssg74
g4146
sg67
(lp4153
S'files'
p4154
asbag60
(g81
g62
NtRp4155
(dp4156
g65
(dp4157
g92
g93
ssg74
g4146
sg67
(lp4158
S':'
asbag60
(g81
g62
NtRp4159
(dp4160
g65
(dp4161
sg74
g4146
sg67
(lp4162
g60
(g61
g62
NtRp4163
(dp4164
g65
(dp4165
g73
I5
ssg74
g4159
sg67
(lp4166
g60
(g69
g62
NtRp4167
(dp4168
g65
(dp4169
g73
I4
ssg74
Nsg67
(lp4170
sbasbasbasbag60
(g76
g62
NtRp4171
(dp4172
g65
(dp4173
sg74
g3912
sg67
(lp4174
g60
(g81
g62
NtRp4175
(dp4176
g65
(dp4177
g85
g86
ssg74
g4171
sg67
(lp4178
S'flash'
p4179
asbag60
(g81
g62
NtRp4180
(dp4181
g65
(dp4182
g92
g93
ssg74
g4171
sg67
(lp4183
S':'
asbag60
(g81
g62
NtRp4184
(dp4185
g65
(dp4186
sg74
g4171
sg67
(lp4187
g60
(g61
g62
NtRp4188
(dp4189
g65
(dp4190
g73
I5
ssg74
g4184
sg67
(lp4191
S''
asbasbasbag60
(g76
g62
NtRp4192
(dp4193
g65
(dp4194
sg74
g3912
sg67
(lp4195
g60
(g81
g62
NtRp4196
(dp4197
g65
(dp4198
g85
g86
ssg74
g4192
sg67
(lp4199
S'generic_patterns'
p4200
asbag60
(g81
g62
NtRp4201
(dp4202
g65
(dp4203
g92
g93
ssg74
g4192
sg67
(lp4204
S':'
asbag60
(g81
g62
NtRp4205
(dp4206
g65
(dp4207
sg74
g4192
sg67
(lp4208
g60
(g61
g62
NtRp4209
(dp4210
g65
(dp4211
g73
I5
ssg74
g4205
sg67
(lp4212
g60
(g69
g62
NtRp4213
(dp4214
g65
(dp4215
g73
I4
ssg74
Nsg67
(lp4216
g60
(g76
g62
NtRp4217
(dp4218
g65
(dp4219
sg74
g4213
sg67
(lp4220
g60
(g81
g62
NtRp4221
(dp4222
g65
(dp4223
sg74
g4217
sg67
(lp4224
g60
(g61
g62
NtRp4225
(dp4226
g65
(dp4227
g73
I4
ssg74
g4221
sg67
(lp4228
S'*'
asbasbasbasbasbasbasbag60
(g76
g62
NtRp4229
(dp4230
g65
(dp4231
sg74
g3912
sg67
(lp4232
g60
(g81
g62
NtRp4233
(dp4234
g65
(dp4235
g85
g86
ssg74
g4229
sg67
(lp4236
S'headers'
p4237
asbag60
(g81
g62
NtRp4238
(dp4239
g65
(dp4240
g92
g93
ssg74
g4229
sg67
(lp4241
S':'
asbag60
(g81
g62
NtRp4242
(dp4243
g65
(dp4244
sg74
g4229
sg67
(lp4245
g60
(g61
g62
NtRp4246
(dp4247
g65
(dp4248
g73
I5
ssg74
g4242
sg67
(lp4249
g60
(g69
g62
NtRp4250
(dp4251
g65
(dp4252
g73
I4
ssg74
Nsg67
(lp4253
g60
(g76
g62
NtRp4254
(dp4255
g65
(dp4256
sg74
g4250
sg67
(lp4257
g60
(g81
g62
NtRp4258
(dp4259
g65
(dp4260
g85
g86
ssg74
g4254
sg67
(lp4261
S'Cache-Control'
p4262
asbag60
(g81
g62
NtRp4263
(dp4264
g65
(dp4265
g92
g93
ssg74
g4254
sg67
(lp4266
S':'
asbag60
(g81
g62
NtRp4267
(dp4268
g65
(dp4269
sg74
g4254
sg67
(lp4270
g60
(g61
g62
NtRp4271
(dp4272
g65
(dp4273
g73
I4
ssg74
g4267
sg67
(lp4274
S'no-store, no-cache, must-revalidate, post-check=0, pre-check=0'
p4275
asbasbasbag60
(g76
g62
NtRp4276
(dp4277
g65
(dp4278
sg74
g4250
sg67
(lp4279
g60
(g81
g62
NtRp4280
(dp4281
g65
(dp4282
g85
g86
ssg74
g4276
sg67
(lp4283
S'Content-Type'
p4284
asbag60
(g81
g62
NtRp4285
(dp4286
g65
(dp4287
g92
g93
ssg74
g4276
sg67
(lp4288
S':'
asbag60
(g81
g62
NtRp4289
(dp4290
g65
(dp4291
sg74
g4276
sg67
(lp4292
g60
(g61
g62
NtRp4293
(dp4294
g65
(dp4295
g73
I4
ssg74
g4289
sg67
(lp4296
S'text/html; charset=utf-8'
p4297
asbasbasbag60
(g76
g62
NtRp4298
(dp4299
g65
(dp4300
sg74
g4250
sg67
(lp4301
g60
(g81
g62
NtRp4302
(dp4303
g65
(dp4304
g85
g86
ssg74
g4298
sg67
(lp4305
S'Expires'
p4306
asbag60
(g81
g62
NtRp4307
(dp4308
g65
(dp4309
g92
g93
ssg74
g4298
sg67
(lp4310
S':'
asbag60
(g81
g62
NtRp4311
(dp4312
g65
(dp4313
sg74
g4298
sg67
(lp4314
g60
(g61
g62
NtRp4315
(dp4316
g65
(dp4317
g73
I4
ssg74
g4311
sg67
(lp4318
S'Tue, 11 Sep 2012 00:18:15 GMT'
p4319
asbasbasbag60
(g76
g62
NtRp4320
(dp4321
g65
(dp4322
sg74
g4250
sg67
(lp4323
g60
(g81
g62
NtRp4324
(dp4325
g65
(dp4326
g85
g86
ssg74
g4320
sg67
(lp4327
S'Pragma'
p4328
asbag60
(g81
g62
NtRp4329
(dp4330
g65
(dp4331
g92
g93
ssg74
g4320
sg67
(lp4332
S':'
asbag60
(g81
g62
NtRp4333
(dp4334
g65
(dp4335
sg74
g4320
sg67
(lp4336
g60
(g61
g62
NtRp4337
(dp4338
g65
(dp4339
g73
I4
ssg74
g4333
sg67
(lp4340
S'no-cache'
p4341
asbasbasbag60
(g76
g62
NtRp4342
(dp4343
g65
(dp4344
sg74
g4250
sg67
(lp4345
g60
(g81
g62
NtRp4346
(dp4347
g65
(dp4348
g85
g86
ssg74
g4342
sg67
(lp4349
S'X-Powered-By'
p4350
asbag60
(g81
g62
NtRp4351
(dp4352
g65
(dp4353
g92
g93
ssg74
g4342
sg67
(lp4354
S':'
asbag60
(g81
g62
NtRp4355
(dp4356
g65
(dp4357
sg74
g4342
sg67
(lp4358
g60
(g61
g62
NtRp4359
(dp4360
g65
(dp4361
g73
I4
ssg74
g4355
sg67
(lp4362
S'web2py'
p4363
asbasbasbasbasbasbasbag60
(g76
g62
NtRp4364
(dp4365
g65
(dp4366
sg74
g3912
sg67
(lp4367
g60
(g81
g62
NtRp4368
(dp4369
g65
(dp4370
g85
g86
ssg74
g4364
sg67
(lp4371
S'menu'
p4372
asbag60
(g81
g62
NtRp4373
(dp4374
g65
(dp4375
g92
g93
ssg74
g4364
sg67
(lp4376
S':'
asbag60
(g81
g62
NtRp4377
(dp4378
g65
(dp4379
sg74
g4364
sg67
(lp4380
g60
(g61
g62
NtRp4381
(dp4382
g65
(dp4383
g73
I5
ssg74
g4377
sg67
(lp4384
g60
(g69
g62
NtRp4385
(dp4386
g65
(dp4387
g73
I4
ssg74
Nsg67
(lp4388
g60
(g76
g62
NtRp4389
(dp4390
g65
(dp4391
sg74
g4385
sg67
(lp4392
g60
(g81
g62
NtRp4393
(dp4394
g65
(dp4395
sg74
g4389
sg67
(lp4396
g60
(g61
g62
NtRp4397
(dp4398
g65
(dp4399
g73
I4
ssg74
g4393
sg67
(lp4400
g60
(g69
g62
NtRp4401
(dp4402
g65
(dp4403
g73
I3
ssg74
Nsg67
(lp4404
g60
(g76
g62
NtRp4405
(dp4406
g65
(dp4407
sg74
g4401
sg67
(lp4408
g60
(g81
g62
NtRp4409
(dp4410
g65
(dp4411
sg74
g4405
sg67
(lp4412
g60
(g61
g62
NtRp4413
(dp4414
g65
(dp4415
g73
I3
ssg74
g4409
sg67
(lp4416
cgluon.languages
lazyT_unpickle
p4417
(S't\x04\x00\x00\x00Home'
tRp4418
asbasbasbag60
(g76
g62
NtRp4419
(dp4420
g65
(dp4421
sg74
g4401
sg67
(lp4422
g60
(g81
g62
NtRp4423
(dp4424
g65
(dp4425
sg74
g4419
sg67
(lp4426
g60
(g61
g62
NtRp4427
(dp4428
g65
(dp4429
g73
I3
ssg74
g4423
sg67
(lp4430
g103
asbasbasbag60
(g76
g62
NtRp4431
(dp4432
g65
(dp4433
sg74
g4401
sg67
(lp4434
g60
(g81
g62
NtRp4435
(dp4436
g65
(dp4437
sg74
g4431
sg67
(lp4438
g60
(g61
g62
NtRp4439
(dp4440
g65
(dp4441
g73
I3
ssg74
g4435
sg67
(lp4442
S'/ACES/default/index'
p4443
asbasbasbag60
(g76
g62
NtRp4444
(dp4445
g65
(dp4446
sg74
g4401
sg67
(lp4447
g60
(g81
g62
NtRp4448
(dp4449
g65
(dp4450
sg74
g4444
sg67
(lp4451
g60
(g61
g62
NtRp4452
(dp4453
g65
(dp4454
g73
I3
ssg74
g4448
sg67
(lp4455
g60
(g69
g62
NtRp4456
(dp4457
g65
(dp4458
g73
I2
ssg74
Nsg67
(lp4459
sbasbasbasbasbasbasbasbag60
(g76
g62
NtRp4460
(dp4461
g65
(dp4462
sg74
g4385
sg67
(lp4463
g60
(g81
g62
NtRp4464
(dp4465
g65
(dp4466
sg74
g4460
sg67
(lp4467
g60
(g61
g62
NtRp4468
(dp4469
g65
(dp4470
g73
I4
ssg74
g4464
sg67
(lp4471
g60
(g69
g62
NtRp4472
(dp4473
g65
(dp4474
g73
I3
ssg74
Nsg67
(lp4475
g60
(g76
g62
NtRp4476
(dp4477
g65
(dp4478
sg74
g4472
sg67
(lp4479
g60
(g81
g62
NtRp4480
(dp4481
g65
(dp4482
sg74
g4476
sg67
(lp4483
g60
(g61
g62
NtRp4484
(dp4485
g65
(dp4486
g73
I3
ssg74
g4480
sg67
(lp4487
g4417
(S's\x08\x00\x00\x00This App'
tRp4488
asbasbasbag60
(g76
g62
NtRp4489
(dp4490
g65
(dp4491
sg74
g4472
sg67
(lp4492
g60
(g81
g62
NtRp4493
(dp4494
g65
(dp4495
sg74
g4489
sg67
(lp4496
g60
(g61
g62
NtRp4497
(dp4498
g65
(dp4499
g73
I3
ssg74
g4493
sg67
(lp4500
g103
asbasbasbag60
(g76
g62
NtRp4501
(dp4502
g65
(dp4503
sg74
g4472
sg67
(lp4504
g60
(g81
g62
NtRp4505
(dp4506
g65
(dp4507
sg74
g4501
sg67
(lp4508
g60
(g61
g62
NtRp4509
(dp4510
g65
(dp4511
g73
I3
ssg74
g4505
sg67
(lp4512
S'/admin/default/design/ACES'
p4513
asbasbasbag60
(g76
g62
NtRp4514
(dp4515
g65
(dp4516
sg74
g4472
sg67
(lp4517
g60
(g81
g62
NtRp4518
(dp4519
g65
(dp4520
sg74
g4514
sg67
(lp4521
g60
(g61
g62
NtRp4522
(dp4523
g65
(dp4524
g73
I3
ssg74
g4518
sg67
(lp4525
g60
(g69
g62
NtRp4526
(dp4527
g65
(dp4528
g73
I2
ssg74
Nsg67
(lp4529
g60
(g76
g62
NtRp4530
(dp4531
g65
(dp4532
sg74
g4526
sg67
(lp4533
g60
(g81
g62
NtRp4534
(dp4535
g65
(dp4536
sg74
g4530
sg67
(lp4537
g60
(g61
g62
NtRp4538
(dp4539
g65
(dp4540
g73
I2
ssg74
g4534
sg67
(lp4541
g60
(g69
g62
NtRp4542
(dp4543
g65
(dp4544
g73
I1
ssg74
Nsg67
(lp4545
g60
(g76
g62
NtRp4546
(dp4547
g65
(dp4548
sg74
g4542
sg67
(lp4549
g60
(g81
g62
NtRp4550
(dp4551
g65
(dp4552
sg74
g4546
sg67
(lp4553
g60
(g61
g62
NtRp4554
(dp4555
g65
(dp4556
g73
I1
ssg74
g4550
sg67
(lp4557
g4417
(S't\n\x00\x00\x00Controller'
tRp4558
asbasbasbag60
(g76
g62
NtRp4559
(dp4560
g65
(dp4561
sg74
g4542
sg67
(lp4562
g60
(g81
g62
NtRp4563
(dp4564
g65
(dp4565
sg74
g4559
sg67
(lp4566
g60
(g61
g62
NtRp4567
(dp4568
g65
(dp4569
g73
I1
ssg74
g4563
sg67
(lp4570
I00
asbasbasbag60
(g76
g62
NtRp4571
(dp4572
g65
(dp4573
sg74
g4542
sg67
(lp4574
g60
(g81
g62
NtRp4575
(dp4576
g65
(dp4577
sg74
g4571
sg67
(lp4578
g60
(g61
g62
NtRp4579
(dp4580
g65
(dp4581
g73
I1
ssg74
g4575
sg67
(lp4582
S'/admin/default/edit/ACES/controllers/default.py'
p4583
asbasbasbasbasbasbasbag60
(g76
g62
NtRp4584
(dp4585
g65
(dp4586
sg74
g4526
sg67
(lp4587
g60
(g81
g62
NtRp4588
(dp4589
g65
(dp4590
sg74
g4584
sg67
(lp4591
g60
(g61
g62
NtRp4592
(dp4593
g65
(dp4594
g73
I2
ssg74
g4588
sg67
(lp4595
g60
(g69
g62
NtRp4596
(dp4597
g65
(dp4598
g73
I1
ssg74
Nsg67
(lp4599
g60
(g76
g62
NtRp4600
(dp4601
g65
(dp4602
sg74
g4596
sg67
(lp4603
g60
(g81
g62
NtRp4604
(dp4605
g65
(dp4606
sg74
g4600
sg67
(lp4607
g60
(g61
g62
NtRp4608
(dp4609
g65
(dp4610
g73
I1
ssg74
g4604
sg67
(lp4611
g4417
(S't\x04\x00\x00\x00View'
tRp4612
asbasbasbag60
(g76
g62
NtRp4613
(dp4614
g65
(dp4615
sg74
g4596
sg67
(lp4616
g60
(g81
g62
NtRp4617
(dp4618
g65
(dp4619
sg74
g4613
sg67
(lp4620
g60
(g61
g62
NtRp4621
(dp4622
g65
(dp4623
g73
I1
ssg74
g4617
sg67
(lp4624
I00
asbasbasbag60
(g76
g62
NtRp4625
(dp4626
g65
(dp4627
sg74
g4596
sg67
(lp4628
g60
(g81
g62
NtRp4629
(dp4630
g65
(dp4631
sg74
g4625
sg67
(lp4632
g60
(g61
g62
NtRp4633
(dp4634
g65
(dp4635
g73
I1
ssg74
g4629
sg67
(lp4636
S'/admin/default/edit/ACES/views/default/index.html'
p4637
asbasbasbasbasbasbasbag60
(g76
g62
NtRp4638
(dp4639
g65
(dp4640
sg74
g4526
sg67
(lp4641
g60
(g81
g62
NtRp4642
(dp4643
g65
(dp4644
sg74
g4638
sg67
(lp4645
g60
(g61
g62
NtRp4646
(dp4647
g65
(dp4648
g73
I2
ssg74
g4642
sg67
(lp4649
g60
(g69
g62
NtRp4650
(dp4651
g65
(dp4652
g73
I1
ssg74
Nsg67
(lp4653
g60
(g76
g62
NtRp4654
(dp4655
g65
(dp4656
sg74
g4650
sg67
(lp4657
g60
(g81
g62
NtRp4658
(dp4659
g65
(dp4660
sg74
g4654
sg67
(lp4661
g60
(g61
g62
NtRp4662
(dp4663
g65
(dp4664
g73
I1
ssg74
g4658
sg67
(lp4665
g4417
(S't\x06\x00\x00\x00Layout'
tRp4666
asbasbasbag60
(g76
g62
NtRp4667
(dp4668
g65
(dp4669
sg74
g4650
sg67
(lp4670
g60
(g81
g62
NtRp4671
(dp4672
g65
(dp4673
sg74
g4667
sg67
(lp4674
g60
(g61
g62
NtRp4675
(dp4676
g65
(dp4677
g73
I1
ssg74
g4671
sg67
(lp4678
I00
asbasbasbag60
(g76
g62
NtRp4679
(dp4680
g65
(dp4681
sg74
g4650
sg67
(lp4682
g60
(g81
g62
NtRp4683
(dp4684
g65
(dp4685
sg74
g4679
sg67
(lp4686
g60
(g61
g62
NtRp4687
(dp4688
g65
(dp4689
g73
I1
ssg74
g4683
sg67
(lp4690
S'/admin/default/edit/ACES/views/layout.html'
p4691
asbasbasbasbasbasbasbag60
(g76
g62
NtRp4692
(dp4693
g65
(dp4694
sg74
g4526
sg67
(lp4695
g60
(g81
g62
NtRp4696
(dp4697
g65
(dp4698
sg74
g4692
sg67
(lp4699
g60
(g61
g62
NtRp4700
(dp4701
g65
(dp4702
g73
I2
ssg74
g4696
sg67
(lp4703
g60
(g69
g62
NtRp4704
(dp4705
g65
(dp4706
g73
I1
ssg74
Nsg67
(lp4707
g60
(g76
g62
NtRp4708
(dp4709
g65
(dp4710
sg74
g4704
sg67
(lp4711
g60
(g81
g62
NtRp4712
(dp4713
g65
(dp4714
sg74
g4708
sg67
(lp4715
g60
(g61
g62
NtRp4716
(dp4717
g65
(dp4718
g73
I1
ssg74
g4712
sg67
(lp4719
g4417
(S't\n\x00\x00\x00Stylesheet'
tRp4720
asbasbasbag60
(g76
g62
NtRp4721
(dp4722
g65
(dp4723
sg74
g4704
sg67
(lp4724
g60
(g81
g62
NtRp4725
(dp4726
g65
(dp4727
sg74
g4721
sg67
(lp4728
g60
(g61
g62
NtRp4729
(dp4730
g65
(dp4731
g73
I1
ssg74
g4725
sg67
(lp4732
I00
asbasbasbag60
(g76
g62
NtRp4733
(dp4734
g65
(dp4735
sg74
g4704
sg67
(lp4736
g60
(g81
g62
NtRp4737
(dp4738
g65
(dp4739
sg74
g4733
sg67
(lp4740
g60
(g61
g62
NtRp4741
(dp4742
g65
(dp4743
g73
I1
ssg74
g4737
sg67
(lp4744
S'/admin/default/edit/ACES/static/base.css'
p4745
asbasbasbasbasbasbasbag60
(g76
g62
NtRp4746
(dp4747
g65
(dp4748
sg74
g4526
sg67
(lp4749
g60
(g81
g62
NtRp4750
(dp4751
g65
(dp4752
sg74
g4746
sg67
(lp4753
g60
(g61
g62
NtRp4754
(dp4755
g65
(dp4756
g73
I2
ssg74
g4750
sg67
(lp4757
g60
(g69
g62
NtRp4758
(dp4759
g65
(dp4760
g73
I1
ssg74
Nsg67
(lp4761
g60
(g76
g62
NtRp4762
(dp4763
g65
(dp4764
sg74
g4758
sg67
(lp4765
g60
(g81
g62
NtRp4766
(dp4767
g65
(dp4768
sg74
g4762
sg67
(lp4769
g60
(g61
g62
NtRp4770
(dp4771
g65
(dp4772
g73
I1
ssg74
g4766
sg67
(lp4773
g4417
(S's\x08\x00\x00\x00DB Model'
tRp4774
asbasbasbag60
(g76
g62
NtRp4775
(dp4776
g65
(dp4777
sg74
g4758
sg67
(lp4778
g60
(g81
g62
NtRp4779
(dp4780
g65
(dp4781
sg74
g4775
sg67
(lp4782
g60
(g61
g62
NtRp4783
(dp4784
g65
(dp4785
g73
I1
ssg74
g4779
sg67
(lp4786
I00
asbasbasbag60
(g76
g62
NtRp4787
(dp4788
g65
(dp4789
sg74
g4758
sg67
(lp4790
g60
(g81
g62
NtRp4791
(dp4792
g65
(dp4793
sg74
g4787
sg67
(lp4794
g60
(g61
g62
NtRp4795
(dp4796
g65
(dp4797
g73
I1
ssg74
g4791
sg67
(lp4798
S'/admin/default/edit/ACES/models/db.py'
p4799
asbasbasbasbasbasbasbag60
(g76
g62
NtRp4800
(dp4801
g65
(dp4802
sg74
g4526
sg67
(lp4803
g60
(g81
g62
NtRp4804
(dp4805
g65
(dp4806
sg74
g4800
sg67
(lp4807
g60
(g61
g62
NtRp4808
(dp4809
g65
(dp4810
g73
I2
ssg74
g4804
sg67
(lp4811
g60
(g69
g62
NtRp4812
(dp4813
g65
(dp4814
g73
I1
ssg74
Nsg67
(lp4815
g60
(g76
g62
NtRp4816
(dp4817
g65
(dp4818
sg74
g4812
sg67
(lp4819
g60
(g81
g62
NtRp4820
(dp4821
g65
(dp4822
sg74
g4816
sg67
(lp4823
g60
(g61
g62
NtRp4824
(dp4825
g65
(dp4826
g73
I1
ssg74
g4820
sg67
(lp4827
g4417
(S's\n\x00\x00\x00Menu Model'
tRp4828
asbasbasbag60
(g76
g62
NtRp4829
(dp4830
g65
(dp4831
sg74
g4812
sg67
(lp4832
g60
(g81
g62
NtRp4833
(dp4834
g65
(dp4835
sg74
g4829
sg67
(lp4836
g60
(g61
g62
NtRp4837
(dp4838
g65
(dp4839
g73
I1
ssg74
g4833
sg67
(lp4840
I00
asbasbasbag60
(g76
g62
NtRp4841
(dp4842
g65
(dp4843
sg74
g4812
sg67
(lp4844
g60
(g81
g62
NtRp4845
(dp4846
g65
(dp4847
sg74
g4841
sg67
(lp4848
g60
(g61
g62
NtRp4849
(dp4850
g65
(dp4851
g73
I1
ssg74
g4845
sg67
(lp4852
S'/admin/default/edit/ACES/models/menu.py'
p4853
asbasbasbasbasbasbasbag60
(g76
g62
NtRp4854
(dp4855
g65
(dp4856
sg74
g4526
sg67
(lp4857
g60
(g81
g62
NtRp4858
(dp4859
g65
(dp4860
sg74
g4854
sg67
(lp4861
g60
(g61
g62
NtRp4862
(dp4863
g65
(dp4864
g73
I2
ssg74
g4858
sg67
(lp4865
g60
(g69
g62
NtRp4866
(dp4867
g65
(dp4868
g73
I1
ssg74
Nsg67
(lp4869
g60
(g76
g62
NtRp4870
(dp4871
g65
(dp4872
sg74
g4866
sg67
(lp4873
g60
(g81
g62
NtRp4874
(dp4875
g65
(dp4876
sg74
g4870
sg67
(lp4877
g60
(g61
g62
NtRp4878
(dp4879
g65
(dp4880
g73
I1
ssg74
g4874
sg67
(lp4881
g4417
(S't\x08\x00\x00\x00Database'
tRp4882
asbasbasbag60
(g76
g62
NtRp4883
(dp4884
g65
(dp4885
sg74
g4866
sg67
(lp4886
g60
(g81
g62
NtRp4887
(dp4888
g65
(dp4889
sg74
g4883
sg67
(lp4890
g60
(g61
g62
NtRp4891
(dp4892
g65
(dp4893
g73
I1
ssg74
g4887
sg67
(lp4894
I00
asbasbasbag60
(g76
g62
NtRp4895
(dp4896
g65
(dp4897
sg74
g4866
sg67
(lp4898
g60
(g81
g62
NtRp4899
(dp4900
g65
(dp4901
sg74
g4895
sg67
(lp4902
g60
(g61
g62
NtRp4903
(dp4904
g65
(dp4905
g73
I1
ssg74
g4899
sg67
(lp4906
S'/ACES/appadmin/index'
p4907
asbasbasbasbasbasbasbag60
(g76
g62
NtRp4908
(dp4909
g65
(dp4910
sg74
g4526
sg67
(lp4911
g60
(g81
g62
NtRp4912
(dp4913
g65
(dp4914
sg74
g4908
sg67
(lp4915
g60
(g61
g62
NtRp4916
(dp4917
g65
(dp4918
g73
I2
ssg74
g4912
sg67
(lp4919
g60
(g69
g62
NtRp4920
(dp4921
g65
(dp4922
g73
I1
ssg74
Nsg67
(lp4923
g60
(g76
g62
NtRp4924
(dp4925
g65
(dp4926
sg74
g4920
sg67
(lp4927
g60
(g81
g62
NtRp4928
(dp4929
g65
(dp4930
sg74
g4924
sg67
(lp4931
g60
(g61
g62
NtRp4932
(dp4933
g65
(dp4934
g73
I1
ssg74
g4928
sg67
(lp4935
g4417
(S't\x06\x00\x00\x00Errors'
tRp4936
asbasbasbag60
(g76
g62
NtRp4937
(dp4938
g65
(dp4939
sg74
g4920
sg67
(lp4940
g60
(g81
g62
NtRp4941
(dp4942
g65
(dp4943
sg74
g4937
sg67
(lp4944
g60
(g61
g62
NtRp4945
(dp4946
g65
(dp4947
g73
I1
ssg74
g4941
sg67
(lp4948
I00
asbasbasbag60
(g76
g62
NtRp4949
(dp4950
g65
(dp4951
sg74
g4920
sg67
(lp4952
g60
(g81
g62
NtRp4953
(dp4954
g65
(dp4955
sg74
g4949
sg67
(lp4956
g60
(g61
g62
NtRp4957
(dp4958
g65
(dp4959
g73
I1
ssg74
g4953
sg67
(lp4960
S'/admin/default/errors/ACES'
p4961
asbasbasbasbasbasbasbag60
(g76
g62
NtRp4962
(dp4963
g65
(dp4964
sg74
g4526
sg67
(lp4965
g60
(g81
g62
NtRp4966
(dp4967
g65
(dp4968
sg74
g4962
sg67
(lp4969
g60
(g61
g62
NtRp4970
(dp4971
g65
(dp4972
g73
I2
ssg74
g4966
sg67
(lp4973
g60
(g69
g62
NtRp4974
(dp4975
g65
(dp4976
g73
I1
ssg74
Nsg67
(lp4977
g60
(g76
g62
NtRp4978
(dp4979
g65
(dp4980
sg74
g4974
sg67
(lp4981
g60
(g81
g62
NtRp4982
(dp4983
g65
(dp4984
sg74
g4978
sg67
(lp4985
g60
(g61
g62
NtRp4986
(dp4987
g65
(dp4988
g73
I1
ssg74
g4982
sg67
(lp4989
g4417
(S't\x05\x00\x00\x00About'
tRp4990
asbasbasbag60
(g76
g62
NtRp4991
(dp4992
g65
(dp4993
sg74
g4974
sg67
(lp4994
g60
(g81
g62
NtRp4995
(dp4996
g65
(dp4997
sg74
g4991
sg67
(lp4998
g60
(g61
g62
NtRp4999
(dp5000
g65
(dp5001
g73
I1
ssg74
g4995
sg67
(lp5002
I00
asbasbasbag60
(g76
g62
NtRp5003
(dp5004
g65
(dp5005
sg74
g4974
sg67
(lp5006
g60
(g81
g62
NtRp5007
(dp5008
g65
(dp5009
sg74
g5003
sg67
(lp5010
g60
(g61
g62
NtRp5011
(dp5012
g65
(dp5013
g73
I1
ssg74
g5007
sg67
(lp5014
S'/admin/default/about/ACES'
p5015
asbasbasbasbasbasbasbasbasbasbasbasbasbasbasbag60
(g76
g62
NtRp5016
(dp5017
g65
(dp5018
sg74
g4385
sg67
(lp5019
g60
(g81
g62
NtRp5020
(dp5021
g65
(dp5022
sg74
g5016
sg67
(lp5023
g60
(g61
g62
NtRp5024
(dp5025
g65
(dp5026
g73
I4
ssg74
g5020
sg67
(lp5027
g60
(g69
g62
NtRp5028
(dp5029
g65
(dp5030
g73
I3
ssg74
Nsg67
(lp5031
g60
(g76
g62
NtRp5032
(dp5033
g65
(dp5034
sg74
g5028
sg67
(lp5035
g60
(g81
g62
NtRp5036
(dp5037
g65
(dp5038
sg74
g5032
sg67
(lp5039
g60
(g61
g62
NtRp5040
(dp5041
g65
(dp5042
g73
I3
ssg74
g5036
sg67
(lp5043
g4417
(S't\t\x00\x00\x00Resources'
tRp5044
asbasbasbag60
(g76
g62
NtRp5045
(dp5046
g65
(dp5047
sg74
g5028
sg67
(lp5048
g60
(g81
g62
NtRp5049
(dp5050
g65
(dp5051
sg74
g5045
sg67
(lp5052
g60
(g61
g62
NtRp5053
(dp5054
g65
(dp5055
g73
I3
ssg74
g5049
sg67
(lp5056
g103
asbasbasbag60
(g76
g62
NtRp5057
(dp5058
g65
(dp5059
sg74
g5028
sg67
(lp5060
g60
(g81
g62
NtRp5061
(dp5062
g65
(dp5063
sg74
g5057
sg67
(lp5064
g60
(g61
g62
NtRp5065
(dp5066
g65
(dp5067
g73
I3
ssg74
g5061
sg67
(lp5068
S'None'
p5069
asbasbasbag60
(g76
g62
NtRp5070
(dp5071
g65
(dp5072
sg74
g5028
sg67
(lp5073
g60
(g81
g62
NtRp5074
(dp5075
g65
(dp5076
sg74
g5070
sg67
(lp5077
g60
(g61
g62
NtRp5078
(dp5079
g65
(dp5080
g73
I3
ssg74
g5074
sg67
(lp5081
g60
(g69
g62
NtRp5082
(dp5083
g65
(dp5084
g73
I2
ssg74
Nsg67
(lp5085
g60
(g76
g62
NtRp5086
(dp5087
g65
(dp5088
sg74
g5082
sg67
(lp5089
g60
(g81
g62
NtRp5090
(dp5091
g65
(dp5092
sg74
g5086
sg67
(lp5093
g60
(g61
g62
NtRp5094
(dp5095
g65
(dp5096
g73
I2
ssg74
g5090
sg67
(lp5097
g60
(g69
g62
NtRp5098
(dp5099
g65
(dp5100
g73
I1
ssg74
Nsg67
(lp5101
g60
(g76
g62
NtRp5102
(dp5103
g65
(dp5104
sg74
g5098
sg67
(lp5105
g60
(g81
g62
NtRp5106
(dp5107
g65
(dp5108
sg74
g5102
sg67
(lp5109
g60
(g61
g62
NtRp5110
(dp5111
g65
(dp5112
g73
I1
ssg74
g5106
sg67
(lp5113
g4417
(S't\r\x00\x00\x00Documentation'
tRp5114
asbasbasbag60
(g76
g62
NtRp5115
(dp5116
g65
(dp5117
sg74
g5098
sg67
(lp5118
g60
(g81
g62
NtRp5119
(dp5120
g65
(dp5121
sg74
g5115
sg67
(lp5122
g60
(g61
g62
NtRp5123
(dp5124
g65
(dp5125
g73
I1
ssg74
g5119
sg67
(lp5126
I00
asbasbasbag60
(g76
g62
NtRp5127
(dp5128
g65
(dp5129
sg74
g5098
sg67
(lp5130
g60
(g81
g62
NtRp5131
(dp5132
g65
(dp5133
sg74
g5127
sg67
(lp5134
g60
(g61
g62
NtRp5135
(dp5136
g65
(dp5137
g73
I1
ssg74
g5131
sg67
(lp5138
S'http://www.web2py.com/book'
p5139
asbasbasbag60
(g76
g62
NtRp5140
(dp5141
g65
(dp5142
sg74
g5098
sg67
(lp5143
g60
(g81
g62
NtRp5144
(dp5145
g65
(dp5146
sg74
g5140
sg67
(lp5147
g60
(g61
g62
NtRp5148
(dp5149
g65
(dp5150
g73
I1
ssg74
g5144
sg67
(lp5151
(lp5152
(g4417
(S't\x07\x00\x00\x00Preface'
tRp5153
I00
S'http://www.web2py.com/book/default/chapter/00'
p5154
tp5155
a(g4417
(S't\x0c\x00\x00\x00Introduction'
tRp5156
I00
S'http://www.web2py.com/book/default/chapter/01'
p5157
tp5158
a(g4417
(S't\x06\x00\x00\x00Python'
tRp5159
I00
S'http://www.web2py.com/book/default/chapter/02'
p5160
tp5161
a(g4417
(S't\x08\x00\x00\x00Overview'
tRp5162
I00
S'http://www.web2py.com/book/default/chapter/03'
p5163
tp5164
a(g4417
(S's\x08\x00\x00\x00The Core'
tRp5165
I00
S'http://www.web2py.com/book/default/chapter/04'
p5166
tp5167
a(g4417
(S's\t\x00\x00\x00The Views'
tRp5168
I00
S'http://www.web2py.com/book/default/chapter/05'
p5169
tp5170
a(g4417
(S't\x08\x00\x00\x00Database'
tRp5171
I00
S'http://www.web2py.com/book/default/chapter/06'
p5172
tp5173
a(g4417
(S's\x14\x00\x00\x00Forms and Validators'
tRp5174
I00
S'http://www.web2py.com/book/default/chapter/07'
p5175
tp5176
a(g4417
(S's\x0e\x00\x00\x00Access Control'
tRp5177
I00
S'http://www.web2py.com/book/default/chapter/08'
p5178
tp5179
a(g4417
(S't\x08\x00\x00\x00Services'
tRp5180
I00
S'http://www.web2py.com/book/default/chapter/09'
p5181
tp5182
a(g4417
(S's\x0c\x00\x00\x00Ajax Recipes'
tRp5183
I00
S'http://www.web2py.com/book/default/chapter/10'
p5184
tp5185
a(g4417
(S's\x12\x00\x00\x00Deployment Recipes'
tRp5186
I00
S'http://www.web2py.com/book/default/chapter/11'
p5187
tp5188
a(g4417
(S's\r\x00\x00\x00Other Recipes'
tRp5189
I00
S'http://www.web2py.com/book/default/chapter/12'
p5190
tp5191
a(g4417
(S's\r\x00\x00\x00Buy this book'
tRp5192
I00
S'http://stores.lulu.com/web2py'
p5193
tp5194
aasbasbasbasbasbasbasbag60
(g76
g62
NtRp5195
(dp5196
g65
(dp5197
sg74
g5082
sg67
(lp5198
g60
(g81
g62
NtRp5199
(dp5200
g65
(dp5201
sg74
g5195
sg67
(lp5202
g60
(g61
g62
NtRp5203
(dp5204
g65
(dp5205
g73
I2
ssg74
g5199
sg67
(lp5206
g60
(g69
g62
NtRp5207
(dp5208
g65
(dp5209
g73
I1
ssg74
Nsg67
(lp5210
g60
(g76
g62
NtRp5211
(dp5212
g65
(dp5213
sg74
g5207
sg67
(lp5214
g60
(g81
g62
NtRp5215
(dp5216
g65
(dp5217
sg74
g5211
sg67
(lp5218
g60
(g61
g62
NtRp5219
(dp5220
g65
(dp5221
g73
I1
ssg74
g5215
sg67
(lp5222
g4417
(S't\t\x00\x00\x00Community'
tRp5223
asbasbasbag60
(g76
g62
NtRp5224
(dp5225
g65
(dp5226
sg74
g5207
sg67
(lp5227
g60
(g81
g62
NtRp5228
(dp5229
g65
(dp5230
sg74
g5224
sg67
(lp5231
g60
(g61
g62
NtRp5232
(dp5233
g65
(dp5234
g73
I1
ssg74
g5228
sg67
(lp5235
I00
asbasbasbag60
(g76
g62
NtRp5236
(dp5237
g65
(dp5238
sg74
g5207
sg67
(lp5239
g60
(g81
g62
NtRp5240
(dp5241
g65
(dp5242
sg74
g5236
sg67
(lp5243
g60
(g61
g62
NtRp5244
(dp5245
g65
(dp5246
g73
I1
ssg74
g5240
sg67
(lp5247
Nasbasbasbag60
(g76
g62
NtRp5248
(dp5249
g65
(dp5250
sg74
g5207
sg67
(lp5251
g60
(g81
g62
NtRp5252
(dp5253
g65
(dp5254
sg74
g5248
sg67
(lp5255
g60
(g61
g62
NtRp5256
(dp5257
g65
(dp5258
g73
I1
ssg74
g5252
sg67
(lp5259
(lp5260
(g4417
(S't\x06\x00\x00\x00Groups'
tRp5261
I00
S'http://www.web2py.com/examples/default/usergroups'
p5262
tp5263
a(g4417
(S't\x07\x00\x00\x00Twitter'
tRp5264
I00
S'http://twitter.com/web2py'
p5265
tp5266
a(g4417
(S's\t\x00\x00\x00Live chat'
tRp5267
I00
S'http://mibbit.com/?channel=%23web2py&server=irc.mibbit.net'
p5268
tp5269
a(g4417
(S's\n\x00\x00\x00User Voice'
tRp5270
I00
S'http://web2py.uservoice.com/'
p5271
tp5272
aasbasbasbasbasbasbasbag60
(g76
g62
NtRp5273
(dp5274
g65
(dp5275
sg74
g5082
sg67
(lp5276
g60
(g81
g62
NtRp5277
(dp5278
g65
(dp5279
sg74
g5273
sg67
(lp5280
g60
(g61
g62
NtRp5281
(dp5282
g65
(dp5283
g73
I2
ssg74
g5277
sg67
(lp5284
g60
(g69
g62
NtRp5285
(dp5286
g65
(dp5287
g73
I1
ssg74
Nsg67
(lp5288
g60
(g76
g62
NtRp5289
(dp5290
g65
(dp5291
sg74
g5285
sg67
(lp5292
g60
(g81
g62
NtRp5293
(dp5294
g65
(dp5295
sg74
g5289
sg67
(lp5296
g60
(g61
g62
NtRp5297
(dp5298
g65
(dp5299
g73
I1
ssg74
g5293
sg67
(lp5300
g4417
(S't\x06\x00\x00\x00Web2py'
tRp5301
asbasbasbag60
(g76
g62
NtRp5302
(dp5303
g65
(dp5304
sg74
g5285
sg67
(lp5305
g60
(g81
g62
NtRp5306
(dp5307
g65
(dp5308
sg74
g5302
sg67
(lp5309
g60
(g61
g62
NtRp5310
(dp5311
g65
(dp5312
g73
I1
ssg74
g5306
sg67
(lp5313
I00
asbasbasbag60
(g76
g62
NtRp5314
(dp5315
g65
(dp5316
sg74
g5285
sg67
(lp5317
g60
(g81
g62
NtRp5318
(dp5319
g65
(dp5320
sg74
g5314
sg67
(lp5321
g60
(g61
g62
NtRp5322
(dp5323
g65
(dp5324
g73
I1
ssg74
g5318
sg67
(lp5325
S'http://www.web2py.com'
p5326
asbasbasbag60
(g76
g62
NtRp5327
(dp5328
g65
(dp5329
sg74
g5285
sg67
(lp5330
g60
(g81
g62
NtRp5331
(dp5332
g65
(dp5333
sg74
g5327
sg67
(lp5334
g60
(g61
g62
NtRp5335
(dp5336
g65
(dp5337
g73
I1
ssg74
g5331
sg67
(lp5338
(lp5339
(g4417
(S't\x08\x00\x00\x00Download'
tRp5340
I00
S'http://www.web2py.com/examples/default/download'
p5341
tp5342
a(g4417
(S't\x07\x00\x00\x00Support'
tRp5343
I00
S'http://www.web2py.com/examples/default/support'
p5344
tp5345
a(g4417
(S's\x0e\x00\x00\x00Quick Examples'
tRp5346
I00
S'http://web2py.com/examples/default/examples'
p5347
tp5348
a(g4417
(S't\x03\x00\x00\x00FAQ'
tRp5349
I00
S'http://web2py.com/AlterEgo'
p5350
tp5351
a(g4417
(S's\x11\x00\x00\x00Free Applications'
tRp5352
I00
S'http://web2py.com/appliances'
p5353
tp5354
a(g4417
(S't\x07\x00\x00\x00Plugins'
tRp5355
I00
S'http://web2py.com/plugins'
p5356
tp5357
a(g4417
(S't\x07\x00\x00\x00Recipes'
tRp5358
I00
S'http://web2pyslices.com/'
p5359
tp5360
a(g4417
(S't\x04\x00\x00\x00Demo'
tRp5361
I00
S'http://web2py.com/demo_admin'
p5362
tp5363
a(g4417
(S't\x08\x00\x00\x00Semantic'
tRp5364
I00
S'http://web2py.com/semantic'
p5365
tp5366
a(g4417
(S't\x07\x00\x00\x00Layouts'
tRp5367
I00
S'http://web2py.com/layouts'
p5368
tp5369
a(g4417
(S't\x06\x00\x00\x00Videos'
tRp5370
I00
S'http://www.web2py.com/examples/default/videos/'
p5371
tp5372
aasbasbasbasbasbasbasbasbasbasbasbasbasbasbasbasbasbasbasbag60
(g76
g62
NtRp5373
(dp5374
g65
(dp5375
sg74
g3912
sg67
(lp5376
g60
(g81
g62
NtRp5377
(dp5378
g65
(dp5379
g85
g86
ssg74
g5373
sg67
(lp5380
S'meta'
p5381
asbag60
(g81
g62
NtRp5382
(dp5383
g65
(dp5384
g92
g93
ssg74
g5373
sg67
(lp5385
S':'
asbag60
(g81
g62
NtRp5386
(dp5387
g65
(dp5388
sg74
g5373
sg67
(lp5389
g60
(g61
g62
NtRp5390
(dp5391
g65
(dp5392
g73
I5
ssg74
g5386
sg67
(lp5393
g60
(g69
g62
NtRp5394
(dp5395
g65
(dp5396
g73
I4
ssg74
Nsg67
(lp5397
g60
(g76
g62
NtRp5398
(dp5399
g65
(dp5400
sg74
g5394
sg67
(lp5401
g60
(g81
g62
NtRp5402
(dp5403
g65
(dp5404
g85
g86
ssg74
g5398
sg67
(lp5405
S'author'
p5406
asbag60
(g81
g62
NtRp5407
(dp5408
g65
(dp5409
g92
g93
ssg74
g5398
sg67
(lp5410
S':'
asbag60
(g81
g62
NtRp5411
(dp5412
g65
(dp5413
sg74
g5398
sg67
(lp5414
g60
(g61
g62
NtRp5415
(dp5416
g65
(dp5417
g73
I4
ssg74
g5411
sg67
(lp5418
S'Your Name <you@example.com>'
p5419
asbasbasbag60
(g76
g62
NtRp5420
(dp5421
g65
(dp5422
sg74
g5394
sg67
(lp5423
g60
(g81
g62
NtRp5424
(dp5425
g65
(dp5426
g85
g86
ssg74
g5420
sg67
(lp5427
S'copyright'
p5428
asbag60
(g81
g62
NtRp5429
(dp5430
g65
(dp5431
g92
g93
ssg74
g5420
sg67
(lp5432
S':'
asbag60
(g81
g62
NtRp5433
(dp5434
g65
(dp5435
sg74
g5420
sg67
(lp5436
g60
(g61
g62
NtRp5437
(dp5438
g65
(dp5439
g73
I4
ssg74
g5433
sg67
(lp5440
S'Copyright 2011'
p5441
asbasbasbag60
(g76
g62
NtRp5442
(dp5443
g65
(dp5444
sg74
g5394
sg67
(lp5445
g60
(g81
g62
NtRp5446
(dp5447
g65
(dp5448
g85
g86
ssg74
g5442
sg67
(lp5449
S'description'
p5450
asbag60
(g81
g62
NtRp5451
(dp5452
g65
(dp5453
g92
g93
ssg74
g5442
sg67
(lp5454
S':'
asbag60
(g81
g62
NtRp5455
(dp5456
g65
(dp5457
sg74
g5442
sg67
(lp5458
g60
(g61
g62
NtRp5459
(dp5460
g65
(dp5461
g73
I4
ssg74
g5455
sg67
(lp5462
S'a cool new app'
p5463
asbasbasbag60
(g76
g62
NtRp5464
(dp5465
g65
(dp5466
sg74
g5394
sg67
(lp5467
g60
(g81
g62
NtRp5468
(dp5469
g65
(dp5470
g85
g86
ssg74
g5464
sg67
(lp5471
S'generator'
p5472
asbag60
(g81
g62
NtRp5473
(dp5474
g65
(dp5475
g92
g93
ssg74
g5464
sg67
(lp5476
S':'
asbag60
(g81
g62
NtRp5477
(dp5478
g65
(dp5479
sg74
g5464
sg67
(lp5480
g60
(g61
g62
NtRp5481
(dp5482
g65
(dp5483
g73
I4
ssg74
g5477
sg67
(lp5484
S'Web2py Web Framework'
p5485
asbasbasbag60
(g76
g62
NtRp5486
(dp5487
g65
(dp5488
sg74
g5394
sg67
(lp5489
g60
(g81
g62
NtRp5490
(dp5491
g65
(dp5492
g85
g86
ssg74
g5486
sg67
(lp5493
S'keywords'
p5494
asbag60
(g81
g62
NtRp5495
(dp5496
g65
(dp5497
g92
g93
ssg74
g5486
sg67
(lp5498
S':'
asbag60
(g81
g62
NtRp5499
(dp5500
g65
(dp5501
sg74
g5486
sg67
(lp5502
g60
(g61
g62
NtRp5503
(dp5504
g65
(dp5505
g73
I4
ssg74
g5499
sg67
(lp5506
S'web2py, python, framework'
p5507
asbasbasbasbasbasbasbag60
(g76
g62
NtRp5508
(dp5509
g65
(dp5510
sg74
g3912
sg67
(lp5511
g60
(g81
g62
NtRp5512
(dp5513
g65
(dp5514
g85
g86
ssg74
g5508
sg67
(lp5515
S'postprocessing'
p5516
asbag60
(g81
g62
NtRp5517
(dp5518
g65
(dp5519
g92
g93
ssg74
g5508
sg67
(lp5520
S':'
asbag60
(g81
g62
NtRp5521
(dp5522
g65
(dp5523
sg74
g5508
sg67
(lp5524
g60
(g61
g62
NtRp5525
(dp5526
g65
(dp5527
g73
I5
ssg74
g5521
sg67
(lp5528
g60
(g69
g62
NtRp5529
(dp5530
g65
(dp5531
g73
I4
ssg74
Nsg67
(lp5532
sbasbasbasbag60
(g76
g62
NtRp5533
(dp5534
g65
(dp5535
sg74
g3912
sg67
(lp5536
g60
(g81
g62
NtRp5537
(dp5538
g65
(dp5539
g85
g86
ssg74
g5533
sg67
(lp5540
S'session_file'
p5541
asbag60
(g81
g62
NtRp5542
(dp5543
g65
(dp5544
g92
g93
ssg74
g5533
sg67
(lp5545
S':'
asbag60
(g81
g62
NtRp5546
(dp5547
g65
(dp5548
sg74
g5533
sg67
(lp5549
g60
(g61
g62
NtRp5550
(dp5551
g65
(dp5552
g73
I5
ssg74
g5546
sg67
(lp5553
S"<open file '/home/u4hcsdaw/Python/web2py/applications/ACES/sessions/127.0.0.1-fa323a39-b4f7-4824-aae1-5c3174579522', mode 'rb+' at 0xaccb51d8>"
p5554
asbasbasbag60
(g76
g62
NtRp5555
(dp5556
g65
(dp5557
sg74
g3912
sg67
(lp5558
g60
(g81
g62
NtRp5559
(dp5560
g65
(dp5561
g85
g86
ssg74
g5555
sg67
(lp5562
S'session_filename'
p5563
asbag60
(g81
g62
NtRp5564
(dp5565
g65
(dp5566
g92
g93
ssg74
g5555
sg67
(lp5567
S':'
asbag60
(g81
g62
NtRp5568
(dp5569
g65
(dp5570
sg74
g5555
sg67
(lp5571
g60
(g61
g62
NtRp5572
(dp5573
g65
(dp5574
g73
I5
ssg74
g5568
sg67
(lp5575
S'/home/u4hcsdaw/Python/web2py/applications/ACES/sessions/127.0.0.1-fa323a39-b4f7-4824-aae1-5c3174579522'
p5576
asbasbasbag60
(g76
g62
NtRp5577
(dp5578
g65
(dp5579
sg74
g3912
sg67
(lp5580
g60
(g81
g62
NtRp5581
(dp5582
g65
(dp5583
g85
g86
ssg74
g5577
sg67
(lp5584
S'session_id'
p5585
asbag60
(g81
g62
NtRp5586
(dp5587
g65
(dp5588
g92
g93
ssg74
g5577
sg67
(lp5589
S':'
asbag60
(g81
g62
NtRp5590
(dp5591
g65
(dp5592
sg74
g5577
sg67
(lp5593
g60
(g61
g62
NtRp5594
(dp5595
g65
(dp5596
g73
I5
ssg74
g5590
sg67
(lp5597
S'127.0.0.1-fa323a39-b4f7-4824-aae1-5c3174579522'
p5598
asbasbasbag60
(g76
g62
NtRp5599
(dp5600
g65
(dp5601
sg74
g3912
sg67
(lp5602
g60
(g81
g62
NtRp5603
(dp5604
g65
(dp5605
g85
g86
ssg74
g5599
sg67
(lp5606
S'session_id_name'
p5607
asbag60
(g81
g62
NtRp5608
(dp5609
g65
(dp5610
g92
g93
ssg74
g5599
sg67
(lp5611
S':'
asbag60
(g81
g62
NtRp5612
(dp5613
g65
(dp5614
sg74
g5599
sg67
(lp5615
g60
(g61
g62
NtRp5616
(dp5617
g65
(dp5618
g73
I5
ssg74
g5612
sg67
(lp5619
g3969
asbasbasbag60
(g76
g62
NtRp5620
(dp5621
g65
(dp5622
sg74
g3912
sg67
(lp5623
g60
(g81
g62
NtRp5624
(dp5625
g65
(dp5626
g85
g86
ssg74
g5620
sg67
(lp5627
S'session_locked'
p5628
asbag60
(g81
g62
NtRp5629
(dp5630
g65
(dp5631
g92
g93
ssg74
g5620
sg67
(lp5632
S':'
asbag60
(g81
g62
NtRp5633
(dp5634
g65
(dp5635
sg74
g5620
sg67
(lp5636
g60
(g61
g62
NtRp5637
(dp5638
g65
(dp5639
g73
I5
ssg74
g5633
sg67
(lp5640
g1931
asbasbasbag60
(g76
g62
NtRp5641
(dp5642
g65
(dp5643
sg74
g3912
sg67
(lp5644
g60
(g81
g62
NtRp5645
(dp5646
g65
(dp5647
g85
g86
ssg74
g5641
sg67
(lp5648
S'session_new'
p5649
asbag60
(g81
g62
NtRp5650
(dp5651
g65
(dp5652
g92
g93
ssg74
g5641
sg67
(lp5653
S':'
asbag60
(g81
g62
NtRp5654
(dp5655
g65
(dp5656
sg74
g5641
sg67
(lp5657
g60
(g61
g62
NtRp5658
(dp5659
g65
(dp5660
g73
I5
ssg74
g5654
sg67
(lp5661
g103
asbasbasbag60
(g76
g62
NtRp5662
(dp5663
g65
(dp5664
sg74
g3912
sg67
(lp5665
g60
(g81
g62
NtRp5666
(dp5667
g65
(dp5668
g85
g86
ssg74
g5662
sg67
(lp5669
S'status'
p5670
asbag60
(g81
g62
NtRp5671
(dp5672
g65
(dp5673
g92
g93
ssg74
g5662
sg67
(lp5674
S':'
asbag60
(g81
g62
NtRp5675
(dp5676
g65
(dp5677
sg74
g5662
sg67
(lp5678
g60
(g61
g62
NtRp5679
(dp5680
g65
(dp5681
g73
I5
ssg74
g5675
sg67
(lp5682
S'200'
p5683
asbasbasbag60
(g76
g62
NtRp5684
(dp5685
g65
(dp5686
sg74
g3912
sg67
(lp5687
g60
(g81
g62
NtRp5688
(dp5689
g65
(dp5690
g85
g86
ssg74
g5684
sg67
(lp5691
S'subtitle'
p5692
asbag60
(g81
g62
NtRp5693
(dp5694
g65
(dp5695
g92
g93
ssg74
g5684
sg67
(lp5696
S':'
asbag60
(g81
g62
NtRp5697
(dp5698
g65
(dp5699
sg74
g5684
sg67
(lp5700
g60
(g61
g62
NtRp5701
(dp5702
g65
(dp5703
g73
I5
ssg74
g5697
sg67
(lp5704
g4417
(S's\r\x00\x00\x00customize me!'
tRp5705
asbasbasbag60
(g76
g62
NtRp5706
(dp5707
g65
(dp5708
sg74
g3912
sg67
(lp5709
g60
(g81
g62
NtRp5710
(dp5711
g65
(dp5712
g85
g86
ssg74
g5706
sg67
(lp5713
S'title'
p5714
asbag60
(g81
g62
NtRp5715
(dp5716
g65
(dp5717
g92
g93
ssg74
g5706
sg67
(lp5718
S':'
asbag60
(g81
g62
NtRp5719
(dp5720
g65
(dp5721
sg74
g5706
sg67
(lp5722
g60
(g61
g62
NtRp5723
(dp5724
g65
(dp5725
g73
I5
ssg74
g5719
sg67
(lp5726
g125
asbasbasbag60
(g76
g62
NtRp5727
(dp5728
g65
(dp5729
sg74
g3912
sg67
(lp5730
g60
(g81
g62
NtRp5731
(dp5732
g65
(dp5733
g85
g86
ssg74
g5727
sg67
(lp5734
g2684
asbag60
(g81
g62
NtRp5735
(dp5736
g65
(dp5737
g92
g93
ssg74
g5727
sg67
(lp5738
S':'
asbag60
(g81
g62
NtRp5739
(dp5740
g65
(dp5741
sg74
g5727
sg67
(lp5742
g60
(g61
g62
NtRp5743
(dp5744
g65
(dp5745
g73
I5
ssg74
g5739
sg67
(lp5746
g2697
asbasbasbag60
(g76
g62
NtRp5747
(dp5748
g65
(dp5749
sg74
g3912
sg67
(lp5750
g60
(g81
g62
NtRp5751
(dp5752
g65
(dp5753
g85
g86
ssg74
g5747
sg67
(lp5754
S'view'
p5755
asbag60
(g81
g62
NtRp5756
(dp5757
g65
(dp5758
g92
g93
ssg74
g5747
sg67
(lp5759
S':'
asbag60
(g81
g62
NtRp5760
(dp5761
g65
(dp5762
sg74
g5747
sg67
(lp5763
g60
(g61
g62
NtRp5764
(dp5765
g65
(dp5766
g73
I5
ssg74
g5760
sg67
(lp5767
S'default/index.html'
p5768
asbasbasbasbasbsS'locals'
p5769
(dp5770
S'a'
S"('UPDATE linearWaveForm SET waveHeight=0.85,wavePe...terDepth=8.0,id=10 WHERE (linearWaveForm.id = 8);',)"
p5771
sS'self'
p5772
S'<gluon.dal.SQLiteAdapter object>'
p5773
sS'b'
g20
sS't0'
p5774
S'1347322695.837907'
p5775
sssS'traceback'
p5776
S'Traceback (most recent call last):\n  File "/home/u4hcsdaw/Python/web2py/gluon/restricted.py", line 194, in restricted\n    exec ccode in environment\n  File "/home/u4hcsdaw/Python/web2py/applications/ACES/controllers/default.py", line 88, in <module>\n  File "/home/u4hcsdaw/Python/web2py/gluon/globals.py", line 149, in <lambda>\n    self._caller = lambda f: f()\n  File "/home/u4hcsdaw/Python/web2py/applications/ACES/controllers/default.py", line 29, in index\n    if f1.accepts(request.vars,session):\n  File "/home/u4hcsdaw/Python/web2py/gluon/sqlhtml.py", line 1257, in accepts\n    self.table._db(self.table._id == self.record.id).update(**fields)\n  File "/home/u4hcsdaw/Python/web2py/gluon/dal.py", line 5779, in update\n    return self.db._adapter.update(tablename,self.query,fields)\n  File "/home/u4hcsdaw/Python/web2py/gluon/dal.py", line 1055, in update\n    self.execute(sql)\n  File "/home/u4hcsdaw/Python/web2py/gluon/dal.py", line 1309, in execute\n    return self.log_execute(*a, **b)\n  File "/home/u4hcsdaw/Python/web2py/gluon/dal.py", line 1304, in log_execute\n    ret = self.cursor.execute(*a,**b)\nIntegrityError: PRIMARY KEY must be unique\n'
p5777
s.