(dp1
S'output'
p2
S''
sS'layer'
p3
S'/home/u4hcsdaw/Python/web2py/applications/ACES/controllers/default.py'
p4
sS'code'
p5
S'# -*- coding: utf-8 -*-\n# this file is released under public domain and you can use without limitations\n\n#########################################################################\n## This is a samples controller\n## - index is the default action of any application\n## - user is required for authentication and authorization\n## - download is for downloading files uploaded in the db (does streaming)\n## - call exposes all registered services (none by default)\n#########################################################################\n\ndef index():\n    """\n    example action using the internationalization operator T and flash\n    rendered by views/default/index.html or views/generic.html\n    """\n    import datetime\n    now=datetime.datetime.now()\n    nowS=now.strftime(\'%s\')\n    pre1=\'\'\n    img1=\'\'\n    \n    \n    f1=linearWaveForm()\n    if session.has_key(\'formVars\'):\n        for key in session[\'formVars\']:\n            f1.vars[key]=session[\'formVars\'][key]\n    #f1[\'vars\']=dict(waveHeight=0.85,wavePeriod=8.00,waveBrk=0.78,waterDepth=4.1)\n    if f1.process(session=None, formname=None).accepts(request.vars,session):\n        session[\'formVars\']=f1.vars\n        t0=AcesCall(f1.vars)\n        pre1=PRE(t0)\n        img1=IMG(_src=URL(\'static\',\'images/Waves.svg?\'+nowS))\n    return dict(form=f1,pre1=pre1,img1=img1)\n\ndef user():\n    """ \n    exposes:\n    http://..../[app]/default/user/login\n    http://..../[app]/default/user/logout\n    http://..../[app]/default/user/register\n    http://..../[app]/default/user/profile\n    http://..../[app]/default/user/retrieve_password\n    http://..../[app]/default/user/change_password\n    use @auth.requires_login()\n        @auth.requires_membership(\'group name\')\n        @auth.requires_permission(\'read\',\'table name\',record_id)\n    to decorate functions that need access control\n    """\n    return dict(form=auth())\n\n\ndef download():\n    """\n    allows downloading of uploaded files\n    http://..../[app]/default/download/[filename]\n    """\n    return response.download(request,db)\n\n\ndef call():\n    """\n    exposes services. for example:\n    http://..../[app]/default/call/jsonrpc\n    decorate with @services.jsonrpc the functions to expose\n    supports xml, json, xmlrpc, jsonrpc, amfrpc, rss, csv\n    """\n    return service()\n\n\n@auth.requires_signature()\ndef data():\n    """\n    http://..../[app]/default/data/tables\n    http://..../[app]/default/data/create/[table]\n    http://..../[app]/default/data/read/[table]/[id]\n    http://..../[app]/default/data/update/[table]/[id]\n    http://..../[app]/default/data/delete/[table]/[id]\n    http://..../[app]/default/data/select/[table]\n    http://..../[app]/default/data/search/[table]\n    but URLs bust be signed, i.e. linked with\n      A(\'table\',_href=URL(\'data/tables\',user_signature=True))\n    or with the signed load operator\n      LOAD(\'default\',\'data.load\',args=\'tables\',ajax=True,user_signature=True)\n    """\n    return dict(form=crud())\n\nresponse._vars=response._caller(index)\n'
p6
sS'snapshot'
p7
(dp8
S'exception'
p9
(dp10
S'__module__'
p11
S"'sqlite3'"
p12
sS'__getslice__'
p13
S"<method-wrapper '__getslice__' of IntegrityError object>"
p14
sS'__str__'
p15
S"<method-wrapper '__str__' of IntegrityError object>"
p16
sS'__reduce__'
p17
S'<built-in method __reduce__ of IntegrityError object>'
p18
sS'__dict__'
p19
S'{}'
p20
sS'__sizeof__'
p21
S'<built-in method __sizeof__ of IntegrityError object>'
p22
sS'__weakref__'
p23
S'None'
p24
sS'__init__'
p25
S"<method-wrapper '__init__' of IntegrityError object>"
p26
sS'__setattr__'
p27
S"<method-wrapper '__setattr__' of IntegrityError object>"
p28
sS'__reduce_ex__'
p29
S'<built-in method __reduce_ex__ of IntegrityError object>'
p30
sS'__new__'
p31
S'<built-in method __new__ of type object>'
p32
sS'__format__'
p33
S'<built-in method __format__ of IntegrityError object>'
p34
sS'__class__'
p35
S"<class 'sqlite3.IntegrityError'>"
p36
sS'__doc__'
p37
S'None'
p38
sS'__getitem__'
p39
S"<method-wrapper '__getitem__' of IntegrityError object>"
p40
sS'__setstate__'
p41
S'<built-in method __setstate__ of IntegrityError object>'
p42
sS'__getattribute__'
p43
S"<method-wrapper '__getattribute__' of IntegrityError object>"
p44
sS'args'
p45
S"('PRIMARY KEY must be unique',)"
p46
sS'__subclasshook__'
p47
S'<built-in method __subclasshook__ of type object>'
p48
sS'__unicode__'
p49
S'<built-in method __unicode__ of IntegrityError object>'
p50
sS'__delattr__'
p51
S"<method-wrapper '__delattr__' of IntegrityError object>"
p52
sS'__repr__'
p53
S"<method-wrapper '__repr__' of IntegrityError object>"
p54
sS'__hash__'
p55
S"<method-wrapper '__hash__' of IntegrityError object>"
p56
ssS'evalue'
p57
S'PRIMARY KEY must be unique'
p58
sS'request'
p59
ccopy_reg
_reconstructor
p60
(cgluon.html
BEAUTIFY
p61
c__builtin__
object
p62
NtRp63
(dp64
S'attributes'
p65
(dp66
sS'components'
p67
(lp68
g60
(cgluon.html
TABLE
p69
g62
NtRp70
(dp71
g65
(dp72
S'level'
p73
I5
ssS'parent'
p74
Nsg67
(lp75
g60
(cgluon.html
TR
p76
g62
NtRp77
(dp78
g65
(dp79
sg74
g70
sg67
(lp80
g60
(cgluon.html
TD
p81
g62
NtRp82
(dp83
g65
(dp84
S'_style'
p85
S'font-weight:bold;'
p86
ssg74
g77
sg67
(lp87
S'ajax'
p88
asbag60
(g81
g62
NtRp89
(dp90
g65
(dp91
S'_valign'
p92
S'top'
p93
ssg74
g77
sg67
(lp94
S':'
asbag60
(g81
g62
NtRp95
(dp96
g65
(dp97
sg74
g77
sg67
(lp98
g60
(g61
g62
NtRp99
(dp100
g65
(dp101
g73
I5
ssg74
g95
sg67
(lp102
S'False'
p103
asbasbasbag60
(g76
g62
NtRp104
(dp105
g65
(dp106
sg74
g70
sg67
(lp107
g60
(g81
g62
NtRp108
(dp109
g65
(dp110
g85
g86
ssg74
g104
sg67
(lp111
S'application'
p112
asbag60
(g81
g62
NtRp113
(dp114
g65
(dp115
g92
g93
ssg74
g104
sg67
(lp116
S':'
asbag60
(g81
g62
NtRp117
(dp118
g65
(dp119
sg74
g104
sg67
(lp120
g60
(g61
g62
NtRp121
(dp122
g65
(dp123
g73
I5
ssg74
g117
sg67
(lp124
S'ACES'
p125
asbasbasbag60
(g76
g62
NtRp126
(dp127
g65
(dp128
sg74
g70
sg67
(lp129
g60
(g81
g62
NtRp130
(dp131
g65
(dp132
g85
g86
ssg74
g126
sg67
(lp133
g45
asbag60
(g81
g62
NtRp134
(dp135
g65
(dp136
g92
g93
ssg74
g126
sg67
(lp137
S':'
asbag60
(g81
g62
NtRp138
(dp139
g65
(dp140
sg74
g126
sg67
(lp141
g60
(g61
g62
NtRp142
(dp143
g65
(dp144
g73
I5
ssg74
g138
sg67
(lp145
g60
(g69
g62
NtRp146
(dp147
g65
(dp148
g73
I4
ssg74
Nsg67
(lp149
sbasbasbasbag60
(g76
g62
NtRp150
(dp151
g65
(dp152
sg74
g70
sg67
(lp153
g60
(g81
g62
NtRp154
(dp155
g65
(dp156
g85
g86
ssg74
g150
sg67
(lp157
S'body'
p158
asbag60
(g81
g62
NtRp159
(dp160
g65
(dp161
g92
g93
ssg74
g150
sg67
(lp162
S':'
asbag60
(g81
g62
NtRp163
(dp164
g65
(dp165
sg74
g150
sg67
(lp166
g60
(g61
g62
NtRp167
(dp168
g65
(dp169
g73
I5
ssg74
g163
sg67
(lp170
S"<open file '<fdopen>', mode 'w+b' at 0xad02d0d0>"
p171
asbasbasbag60
(g76
g62
NtRp172
(dp173
g65
(dp174
sg74
g70
sg67
(lp175
g60
(g81
g62
NtRp176
(dp177
g65
(dp178
g85
g86
ssg74
g172
sg67
(lp179
S'client'
p180
asbag60
(g81
g62
NtRp181
(dp182
g65
(dp183
g92
g93
ssg74
g172
sg67
(lp184
S':'
asbag60
(g81
g62
NtRp185
(dp186
g65
(dp187
sg74
g172
sg67
(lp188
g60
(g61
g62
NtRp189
(dp190
g65
(dp191
g73
I5
ssg74
g185
sg67
(lp192
S'127.0.0.1'
p193
asbasbasbag60
(g76
g62
NtRp194
(dp195
g65
(dp196
sg74
g70
sg67
(lp197
g60
(g81
g62
NtRp198
(dp199
g65
(dp200
g85
g86
ssg74
g194
sg67
(lp201
S'controller'
p202
asbag60
(g81
g62
NtRp203
(dp204
g65
(dp205
g92
g93
ssg74
g194
sg67
(lp206
S':'
asbag60
(g81
g62
NtRp207
(dp208
g65
(dp209
sg74
g194
sg67
(lp210
g60
(g61
g62
NtRp211
(dp212
g65
(dp213
g73
I5
ssg74
g207
sg67
(lp214
S'default'
p215
asbasbasbag60
(g76
g62
NtRp216
(dp217
g65
(dp218
sg74
g70
sg67
(lp219
g60
(g81
g62
NtRp220
(dp221
g65
(dp222
g85
g86
ssg74
g216
sg67
(lp223
S'cookies'
p224
asbag60
(g81
g62
NtRp225
(dp226
g65
(dp227
g92
g93
ssg74
g216
sg67
(lp228
S':'
asbag60
(g81
g62
NtRp229
(dp230
g65
(dp231
sg74
g216
sg67
(lp232
g60
(g61
g62
NtRp233
(dp234
g65
(dp235
g73
I5
ssg74
g229
sg67
(lp236
g60
(g69
g62
NtRp237
(dp238
g65
(dp239
g73
I4
ssg74
Nsg67
(lp240
g60
(g76
g62
NtRp241
(dp242
g65
(dp243
sg74
g237
sg67
(lp244
g60
(g81
g62
NtRp245
(dp246
g65
(dp247
g85
g86
ssg74
g241
sg67
(lp248
S'session_id_aces'
p249
asbag60
(g81
g62
NtRp250
(dp251
g65
(dp252
g92
g93
ssg74
g241
sg67
(lp253
S':'
asbag60
(g81
g62
NtRp254
(dp255
g65
(dp256
sg74
g241
sg67
(lp257
g60
(g61
g62
NtRp258
(dp259
g65
(dp260
g73
I4
ssg74
g254
sg67
(lp261
g60
(g69
g62
NtRp262
(dp263
g65
(dp264
g73
I3
ssg74
Nsg67
(lp265
g60
(g76
g62
NtRp266
(dp267
g65
(dp268
sg74
g262
sg67
(lp269
g60
(g81
g62
NtRp270
(dp271
g65
(dp272
g85
g86
ssg74
g266
sg67
(lp273
S'comment'
p274
asbag60
(g81
g62
NtRp275
(dp276
g65
(dp277
g92
g93
ssg74
g266
sg67
(lp278
S':'
asbag60
(g81
g62
NtRp279
(dp280
g65
(dp281
sg74
g266
sg67
(lp282
g60
(g61
g62
NtRp283
(dp284
g65
(dp285
g73
I3
ssg74
g279
sg67
(lp286
S''
asbasbasbag60
(g76
g62
NtRp287
(dp288
g65
(dp289
sg74
g262
sg67
(lp290
g60
(g81
g62
NtRp291
(dp292
g65
(dp293
g85
g86
ssg74
g287
sg67
(lp294
S'domain'
p295
asbag60
(g81
g62
NtRp296
(dp297
g65
(dp298
g92
g93
ssg74
g287
sg67
(lp299
S':'
asbag60
(g81
g62
NtRp300
(dp301
g65
(dp302
sg74
g287
sg67
(lp303
g60
(g61
g62
NtRp304
(dp305
g65
(dp306
g73
I3
ssg74
g300
sg67
(lp307
S''
asbasbasbag60
(g76
g62
NtRp308
(dp309
g65
(dp310
sg74
g262
sg67
(lp311
g60
(g81
g62
NtRp312
(dp313
g65
(dp314
g85
g86
ssg74
g308
sg67
(lp315
S'expires'
p316
asbag60
(g81
g62
NtRp317
(dp318
g65
(dp319
g92
g93
ssg74
g308
sg67
(lp320
S':'
asbag60
(g81
g62
NtRp321
(dp322
g65
(dp323
sg74
g308
sg67
(lp324
g60
(g61
g62
NtRp325
(dp326
g65
(dp327
g73
I3
ssg74
g321
sg67
(lp328
S''
asbasbasbag60
(g76
g62
NtRp329
(dp330
g65
(dp331
sg74
g262
sg67
(lp332
g60
(g81
g62
NtRp333
(dp334
g65
(dp335
g85
g86
ssg74
g329
sg67
(lp336
S'httponly'
p337
asbag60
(g81
g62
NtRp338
(dp339
g65
(dp340
g92
g93
ssg74
g329
sg67
(lp341
S':'
asbag60
(g81
g62
NtRp342
(dp343
g65
(dp344
sg74
g329
sg67
(lp345
g60
(g61
g62
NtRp346
(dp347
g65
(dp348
g73
I3
ssg74
g342
sg67
(lp349
S''
asbasbasbag60
(g76
g62
NtRp350
(dp351
g65
(dp352
sg74
g262
sg67
(lp353
g60
(g81
g62
NtRp354
(dp355
g65
(dp356
g85
g86
ssg74
g350
sg67
(lp357
S'max-age'
p358
asbag60
(g81
g62
NtRp359
(dp360
g65
(dp361
g92
g93
ssg74
g350
sg67
(lp362
S':'
asbag60
(g81
g62
NtRp363
(dp364
g65
(dp365
sg74
g350
sg67
(lp366
g60
(g61
g62
NtRp367
(dp368
g65
(dp369
g73
I3
ssg74
g363
sg67
(lp370
S''
asbasbasbag60
(g76
g62
NtRp371
(dp372
g65
(dp373
sg74
g262
sg67
(lp374
g60
(g81
g62
NtRp375
(dp376
g65
(dp377
g85
g86
ssg74
g371
sg67
(lp378
S'path'
p379
asbag60
(g81
g62
NtRp380
(dp381
g65
(dp382
g92
g93
ssg74
g371
sg67
(lp383
S':'
asbag60
(g81
g62
NtRp384
(dp385
g65
(dp386
sg74
g371
sg67
(lp387
g60
(g61
g62
NtRp388
(dp389
g65
(dp390
g73
I3
ssg74
g384
sg67
(lp391
S''
asbasbasbag60
(g76
g62
NtRp392
(dp393
g65
(dp394
sg74
g262
sg67
(lp395
g60
(g81
g62
NtRp396
(dp397
g65
(dp398
g85
g86
ssg74
g392
sg67
(lp399
S'secure'
p400
asbag60
(g81
g62
NtRp401
(dp402
g65
(dp403
g92
g93
ssg74
g392
sg67
(lp404
S':'
asbag60
(g81
g62
NtRp405
(dp406
g65
(dp407
sg74
g392
sg67
(lp408
g60
(g61
g62
NtRp409
(dp410
g65
(dp411
g73
I3
ssg74
g405
sg67
(lp412
S''
asbasbasbag60
(g76
g62
NtRp413
(dp414
g65
(dp415
sg74
g262
sg67
(lp416
g60
(g81
g62
NtRp417
(dp418
g65
(dp419
g85
g86
ssg74
g413
sg67
(lp420
S'version'
p421
asbag60
(g81
g62
NtRp422
(dp423
g65
(dp424
g92
g93
ssg74
g413
sg67
(lp425
S':'
asbag60
(g81
g62
NtRp426
(dp427
g65
(dp428
sg74
g413
sg67
(lp429
g60
(g61
g62
NtRp430
(dp431
g65
(dp432
g73
I3
ssg74
g426
sg67
(lp433
S''
asbasbasbasbasbasbasbag60
(g76
g62
NtRp434
(dp435
g65
(dp436
sg74
g237
sg67
(lp437
g60
(g81
g62
NtRp438
(dp439
g65
(dp440
g85
g86
ssg74
g434
sg67
(lp441
S'session_id_admin'
p442
asbag60
(g81
g62
NtRp443
(dp444
g65
(dp445
g92
g93
ssg74
g434
sg67
(lp446
S':'
asbag60
(g81
g62
NtRp447
(dp448
g65
(dp449
sg74
g434
sg67
(lp450
g60
(g61
g62
NtRp451
(dp452
g65
(dp453
g73
I4
ssg74
g447
sg67
(lp454
g60
(g69
g62
NtRp455
(dp456
g65
(dp457
g73
I3
ssg74
Nsg67
(lp458
g60
(g76
g62
NtRp459
(dp460
g65
(dp461
sg74
g455
sg67
(lp462
g60
(g81
g62
NtRp463
(dp464
g65
(dp465
g85
g86
ssg74
g459
sg67
(lp466
g274
asbag60
(g81
g62
NtRp467
(dp468
g65
(dp469
g92
g93
ssg74
g459
sg67
(lp470
S':'
asbag60
(g81
g62
NtRp471
(dp472
g65
(dp473
sg74
g459
sg67
(lp474
g60
(g61
g62
NtRp475
(dp476
g65
(dp477
g73
I3
ssg74
g471
sg67
(lp478
S''
asbasbasbag60
(g76
g62
NtRp479
(dp480
g65
(dp481
sg74
g455
sg67
(lp482
g60
(g81
g62
NtRp483
(dp484
g65
(dp485
g85
g86
ssg74
g479
sg67
(lp486
g295
asbag60
(g81
g62
NtRp487
(dp488
g65
(dp489
g92
g93
ssg74
g479
sg67
(lp490
S':'
asbag60
(g81
g62
NtRp491
(dp492
g65
(dp493
sg74
g479
sg67
(lp494
g60
(g61
g62
NtRp495
(dp496
g65
(dp497
g73
I3
ssg74
g491
sg67
(lp498
S''
asbasbasbag60
(g76
g62
NtRp499
(dp500
g65
(dp501
sg74
g455
sg67
(lp502
g60
(g81
g62
NtRp503
(dp504
g65
(dp505
g85
g86
ssg74
g499
sg67
(lp506
g316
asbag60
(g81
g62
NtRp507
(dp508
g65
(dp509
g92
g93
ssg74
g499
sg67
(lp510
S':'
asbag60
(g81
g62
NtRp511
(dp512
g65
(dp513
sg74
g499
sg67
(lp514
g60
(g61
g62
NtRp515
(dp516
g65
(dp517
g73
I3
ssg74
g511
sg67
(lp518
S''
asbasbasbag60
(g76
g62
NtRp519
(dp520
g65
(dp521
sg74
g455
sg67
(lp522
g60
(g81
g62
NtRp523
(dp524
g65
(dp525
g85
g86
ssg74
g519
sg67
(lp526
g337
asbag60
(g81
g62
NtRp527
(dp528
g65
(dp529
g92
g93
ssg74
g519
sg67
(lp530
S':'
asbag60
(g81
g62
NtRp531
(dp532
g65
(dp533
sg74
g519
sg67
(lp534
g60
(g61
g62
NtRp535
(dp536
g65
(dp537
g73
I3
ssg74
g531
sg67
(lp538
S''
asbasbasbag60
(g76
g62
NtRp539
(dp540
g65
(dp541
sg74
g455
sg67
(lp542
g60
(g81
g62
NtRp543
(dp544
g65
(dp545
g85
g86
ssg74
g539
sg67
(lp546
g358
asbag60
(g81
g62
NtRp547
(dp548
g65
(dp549
g92
g93
ssg74
g539
sg67
(lp550
S':'
asbag60
(g81
g62
NtRp551
(dp552
g65
(dp553
sg74
g539
sg67
(lp554
g60
(g61
g62
NtRp555
(dp556
g65
(dp557
g73
I3
ssg74
g551
sg67
(lp558
S''
asbasbasbag60
(g76
g62
NtRp559
(dp560
g65
(dp561
sg74
g455
sg67
(lp562
g60
(g81
g62
NtRp563
(dp564
g65
(dp565
g85
g86
ssg74
g559
sg67
(lp566
g379
asbag60
(g81
g62
NtRp567
(dp568
g65
(dp569
g92
g93
ssg74
g559
sg67
(lp570
S':'
asbag60
(g81
g62
NtRp571
(dp572
g65
(dp573
sg74
g559
sg67
(lp574
g60
(g61
g62
NtRp575
(dp576
g65
(dp577
g73
I3
ssg74
g571
sg67
(lp578
S''
asbasbasbag60
(g76
g62
NtRp579
(dp580
g65
(dp581
sg74
g455
sg67
(lp582
g60
(g81
g62
NtRp583
(dp584
g65
(dp585
g85
g86
ssg74
g579
sg67
(lp586
g400
asbag60
(g81
g62
NtRp587
(dp588
g65
(dp589
g92
g93
ssg74
g579
sg67
(lp590
S':'
asbag60
(g81
g62
NtRp591
(dp592
g65
(dp593
sg74
g579
sg67
(lp594
g60
(g61
g62
NtRp595
(dp596
g65
(dp597
g73
I3
ssg74
g591
sg67
(lp598
S''
asbasbasbag60
(g76
g62
NtRp599
(dp600
g65
(dp601
sg74
g455
sg67
(lp602
g60
(g81
g62
NtRp603
(dp604
g65
(dp605
g85
g86
ssg74
g599
sg67
(lp606
g421
asbag60
(g81
g62
NtRp607
(dp608
g65
(dp609
g92
g93
ssg74
g599
sg67
(lp610
S':'
asbag60
(g81
g62
NtRp611
(dp612
g65
(dp613
sg74
g599
sg67
(lp614
g60
(g61
g62
NtRp615
(dp616
g65
(dp617
g73
I3
ssg74
g611
sg67
(lp618
S''
asbasbasbasbasbasbasbag60
(g76
g62
NtRp619
(dp620
g65
(dp621
sg74
g237
sg67
(lp622
g60
(g81
g62
NtRp623
(dp624
g65
(dp625
g85
g86
ssg74
g619
sg67
(lp626
S'session_id_dalex1'
p627
asbag60
(g81
g62
NtRp628
(dp629
g65
(dp630
g92
g93
ssg74
g619
sg67
(lp631
S':'
asbag60
(g81
g62
NtRp632
(dp633
g65
(dp634
sg74
g619
sg67
(lp635
g60
(g61
g62
NtRp636
(dp637
g65
(dp638
g73
I4
ssg74
g632
sg67
(lp639
g60
(g69
g62
NtRp640
(dp641
g65
(dp642
g73
I3
ssg74
Nsg67
(lp643
g60
(g76
g62
NtRp644
(dp645
g65
(dp646
sg74
g640
sg67
(lp647
g60
(g81
g62
NtRp648
(dp649
g65
(dp650
g85
g86
ssg74
g644
sg67
(lp651
g274
asbag60
(g81
g62
NtRp652
(dp653
g65
(dp654
g92
g93
ssg74
g644
sg67
(lp655
S':'
asbag60
(g81
g62
NtRp656
(dp657
g65
(dp658
sg74
g644
sg67
(lp659
g60
(g61
g62
NtRp660
(dp661
g65
(dp662
g73
I3
ssg74
g656
sg67
(lp663
S''
asbasbasbag60
(g76
g62
NtRp664
(dp665
g65
(dp666
sg74
g640
sg67
(lp667
g60
(g81
g62
NtRp668
(dp669
g65
(dp670
g85
g86
ssg74
g664
sg67
(lp671
g295
asbag60
(g81
g62
NtRp672
(dp673
g65
(dp674
g92
g93
ssg74
g664
sg67
(lp675
S':'
asbag60
(g81
g62
NtRp676
(dp677
g65
(dp678
sg74
g664
sg67
(lp679
g60
(g61
g62
NtRp680
(dp681
g65
(dp682
g73
I3
ssg74
g676
sg67
(lp683
S''
asbasbasbag60
(g76
g62
NtRp684
(dp685
g65
(dp686
sg74
g640
sg67
(lp687
g60
(g81
g62
NtRp688
(dp689
g65
(dp690
g85
g86
ssg74
g684
sg67
(lp691
g316
asbag60
(g81
g62
NtRp692
(dp693
g65
(dp694
g92
g93
ssg74
g684
sg67
(lp695
S':'
asbag60
(g81
g62
NtRp696
(dp697
g65
(dp698
sg74
g684
sg67
(lp699
g60
(g61
g62
NtRp700
(dp701
g65
(dp702
g73
I3
ssg74
g696
sg67
(lp703
S''
asbasbasbag60
(g76
g62
NtRp704
(dp705
g65
(dp706
sg74
g640
sg67
(lp707
g60
(g81
g62
NtRp708
(dp709
g65
(dp710
g85
g86
ssg74
g704
sg67
(lp711
g337
asbag60
(g81
g62
NtRp712
(dp713
g65
(dp714
g92
g93
ssg74
g704
sg67
(lp715
S':'
asbag60
(g81
g62
NtRp716
(dp717
g65
(dp718
sg74
g704
sg67
(lp719
g60
(g61
g62
NtRp720
(dp721
g65
(dp722
g73
I3
ssg74
g716
sg67
(lp723
S''
asbasbasbag60
(g76
g62
NtRp724
(dp725
g65
(dp726
sg74
g640
sg67
(lp727
g60
(g81
g62
NtRp728
(dp729
g65
(dp730
g85
g86
ssg74
g724
sg67
(lp731
g358
asbag60
(g81
g62
NtRp732
(dp733
g65
(dp734
g92
g93
ssg74
g724
sg67
(lp735
S':'
asbag60
(g81
g62
NtRp736
(dp737
g65
(dp738
sg74
g724
sg67
(lp739
g60
(g61
g62
NtRp740
(dp741
g65
(dp742
g73
I3
ssg74
g736
sg67
(lp743
S''
asbasbasbag60
(g76
g62
NtRp744
(dp745
g65
(dp746
sg74
g640
sg67
(lp747
g60
(g81
g62
NtRp748
(dp749
g65
(dp750
g85
g86
ssg74
g744
sg67
(lp751
g379
asbag60
(g81
g62
NtRp752
(dp753
g65
(dp754
g92
g93
ssg74
g744
sg67
(lp755
S':'
asbag60
(g81
g62
NtRp756
(dp757
g65
(dp758
sg74
g744
sg67
(lp759
g60
(g61
g62
NtRp760
(dp761
g65
(dp762
g73
I3
ssg74
g756
sg67
(lp763
S''
asbasbasbag60
(g76
g62
NtRp764
(dp765
g65
(dp766
sg74
g640
sg67
(lp767
g60
(g81
g62
NtRp768
(dp769
g65
(dp770
g85
g86
ssg74
g764
sg67
(lp771
g400
asbag60
(g81
g62
NtRp772
(dp773
g65
(dp774
g92
g93
ssg74
g764
sg67
(lp775
S':'
asbag60
(g81
g62
NtRp776
(dp777
g65
(dp778
sg74
g764
sg67
(lp779
g60
(g61
g62
NtRp780
(dp781
g65
(dp782
g73
I3
ssg74
g776
sg67
(lp783
S''
asbasbasbag60
(g76
g62
NtRp784
(dp785
g65
(dp786
sg74
g640
sg67
(lp787
g60
(g81
g62
NtRp788
(dp789
g65
(dp790
g85
g86
ssg74
g784
sg67
(lp791
g421
asbag60
(g81
g62
NtRp792
(dp793
g65
(dp794
g92
g93
ssg74
g784
sg67
(lp795
S':'
asbag60
(g81
g62
NtRp796
(dp797
g65
(dp798
sg74
g784
sg67
(lp799
g60
(g61
g62
NtRp800
(dp801
g65
(dp802
g73
I3
ssg74
g796
sg67
(lp803
S''
asbasbasbasbasbasbasbag60
(g76
g62
NtRp804
(dp805
g65
(dp806
sg74
g237
sg67
(lp807
g60
(g81
g62
NtRp808
(dp809
g65
(dp810
g85
g86
ssg74
g804
sg67
(lp811
S'session_id_welcome'
p812
asbag60
(g81
g62
NtRp813
(dp814
g65
(dp815
g92
g93
ssg74
g804
sg67
(lp816
S':'
asbag60
(g81
g62
NtRp817
(dp818
g65
(dp819
sg74
g804
sg67
(lp820
g60
(g61
g62
NtRp821
(dp822
g65
(dp823
g73
I4
ssg74
g817
sg67
(lp824
g60
(g69
g62
NtRp825
(dp826
g65
(dp827
g73
I3
ssg74
Nsg67
(lp828
g60
(g76
g62
NtRp829
(dp830
g65
(dp831
sg74
g825
sg67
(lp832
g60
(g81
g62
NtRp833
(dp834
g65
(dp835
g85
g86
ssg74
g829
sg67
(lp836
g274
asbag60
(g81
g62
NtRp837
(dp838
g65
(dp839
g92
g93
ssg74
g829
sg67
(lp840
S':'
asbag60
(g81
g62
NtRp841
(dp842
g65
(dp843
sg74
g829
sg67
(lp844
g60
(g61
g62
NtRp845
(dp846
g65
(dp847
g73
I3
ssg74
g841
sg67
(lp848
S''
asbasbasbag60
(g76
g62
NtRp849
(dp850
g65
(dp851
sg74
g825
sg67
(lp852
g60
(g81
g62
NtRp853
(dp854
g65
(dp855
g85
g86
ssg74
g849
sg67
(lp856
g295
asbag60
(g81
g62
NtRp857
(dp858
g65
(dp859
g92
g93
ssg74
g849
sg67
(lp860
S':'
asbag60
(g81
g62
NtRp861
(dp862
g65
(dp863
sg74
g849
sg67
(lp864
g60
(g61
g62
NtRp865
(dp866
g65
(dp867
g73
I3
ssg74
g861
sg67
(lp868
S''
asbasbasbag60
(g76
g62
NtRp869
(dp870
g65
(dp871
sg74
g825
sg67
(lp872
g60
(g81
g62
NtRp873
(dp874
g65
(dp875
g85
g86
ssg74
g869
sg67
(lp876
g316
asbag60
(g81
g62
NtRp877
(dp878
g65
(dp879
g92
g93
ssg74
g869
sg67
(lp880
S':'
asbag60
(g81
g62
NtRp881
(dp882
g65
(dp883
sg74
g869
sg67
(lp884
g60
(g61
g62
NtRp885
(dp886
g65
(dp887
g73
I3
ssg74
g881
sg67
(lp888
S''
asbasbasbag60
(g76
g62
NtRp889
(dp890
g65
(dp891
sg74
g825
sg67
(lp892
g60
(g81
g62
NtRp893
(dp894
g65
(dp895
g85
g86
ssg74
g889
sg67
(lp896
g337
asbag60
(g81
g62
NtRp897
(dp898
g65
(dp899
g92
g93
ssg74
g889
sg67
(lp900
S':'
asbag60
(g81
g62
NtRp901
(dp902
g65
(dp903
sg74
g889
sg67
(lp904
g60
(g61
g62
NtRp905
(dp906
g65
(dp907
g73
I3
ssg74
g901
sg67
(lp908
S''
asbasbasbag60
(g76
g62
NtRp909
(dp910
g65
(dp911
sg74
g825
sg67
(lp912
g60
(g81
g62
NtRp913
(dp914
g65
(dp915
g85
g86
ssg74
g909
sg67
(lp916
g358
asbag60
(g81
g62
NtRp917
(dp918
g65
(dp919
g92
g93
ssg74
g909
sg67
(lp920
S':'
asbag60
(g81
g62
NtRp921
(dp922
g65
(dp923
sg74
g909
sg67
(lp924
g60
(g61
g62
NtRp925
(dp926
g65
(dp927
g73
I3
ssg74
g921
sg67
(lp928
S''
asbasbasbag60
(g76
g62
NtRp929
(dp930
g65
(dp931
sg74
g825
sg67
(lp932
g60
(g81
g62
NtRp933
(dp934
g65
(dp935
g85
g86
ssg74
g929
sg67
(lp936
g379
asbag60
(g81
g62
NtRp937
(dp938
g65
(dp939
g92
g93
ssg74
g929
sg67
(lp940
S':'
asbag60
(g81
g62
NtRp941
(dp942
g65
(dp943
sg74
g929
sg67
(lp944
g60
(g61
g62
NtRp945
(dp946
g65
(dp947
g73
I3
ssg74
g941
sg67
(lp948
S''
asbasbasbag60
(g76
g62
NtRp949
(dp950
g65
(dp951
sg74
g825
sg67
(lp952
g60
(g81
g62
NtRp953
(dp954
g65
(dp955
g85
g86
ssg74
g949
sg67
(lp956
g400
asbag60
(g81
g62
NtRp957
(dp958
g65
(dp959
g92
g93
ssg74
g949
sg67
(lp960
S':'
asbag60
(g81
g62
NtRp961
(dp962
g65
(dp963
sg74
g949
sg67
(lp964
g60
(g61
g62
NtRp965
(dp966
g65
(dp967
g73
I3
ssg74
g961
sg67
(lp968
S''
asbasbasbag60
(g76
g62
NtRp969
(dp970
g65
(dp971
sg74
g825
sg67
(lp972
g60
(g81
g62
NtRp973
(dp974
g65
(dp975
g85
g86
ssg74
g969
sg67
(lp976
g421
asbag60
(g81
g62
NtRp977
(dp978
g65
(dp979
g92
g93
ssg74
g969
sg67
(lp980
S':'
asbag60
(g81
g62
NtRp981
(dp982
g65
(dp983
sg74
g969
sg67
(lp984
g60
(g61
g62
NtRp985
(dp986
g65
(dp987
g73
I3
ssg74
g981
sg67
(lp988
S''
asbasbasbasbasbasbasbasbasbasbasbag60
(g76
g62
NtRp989
(dp990
g65
(dp991
sg74
g70
sg67
(lp992
g60
(g81
g62
NtRp993
(dp994
g65
(dp995
g85
g86
ssg74
g989
sg67
(lp996
S'env'
p997
asbag60
(g81
g62
NtRp998
(dp999
g65
(dp1000
g92
g93
ssg74
g989
sg67
(lp1001
S':'
asbag60
(g81
g62
NtRp1002
(dp1003
g65
(dp1004
sg74
g989
sg67
(lp1005
g60
(g61
g62
NtRp1006
(dp1007
g65
(dp1008
g73
I5
ssg74
g1002
sg67
(lp1009
g60
(g69
g62
NtRp1010
(dp1011
g65
(dp1012
g73
I4
ssg74
Nsg67
(lp1013
g60
(g76
g62
NtRp1014
(dp1015
g65
(dp1016
sg74
g1010
sg67
(lp1017
g60
(g81
g62
NtRp1018
(dp1019
g65
(dp1020
g85
g86
ssg74
g1014
sg67
(lp1021
S'app_folders'
p1022
asbag60
(g81
g62
NtRp1023
(dp1024
g65
(dp1025
g92
g93
ssg74
g1014
sg67
(lp1026
S':'
asbag60
(g81
g62
NtRp1027
(dp1028
g65
(dp1029
sg74
g1014
sg67
(lp1030
g60
(g61
g62
NtRp1031
(dp1032
g65
(dp1033
g73
I4
ssg74
g1027
sg67
(lp1034
S"set(['/home/u4hcsdaw/Python/web2py/applications/ACES/', '/home/u4hcsdaw/Python/web2py/applications/admin/', '/home/u4hcsdaw/Python/web2py/applications/welcome/', '/home/u4hcsdaw/Python/web2py/applications/DALEX1/'])"
p1035
asbasbasbag60
(g76
g62
NtRp1036
(dp1037
g65
(dp1038
sg74
g1010
sg67
(lp1039
g60
(g81
g62
NtRp1040
(dp1041
g65
(dp1042
g85
g86
ssg74
g1036
sg67
(lp1043
S'applications_parent'
p1044
asbag60
(g81
g62
NtRp1045
(dp1046
g65
(dp1047
g92
g93
ssg74
g1036
sg67
(lp1048
S':'
asbag60
(g81
g62
NtRp1049
(dp1050
g65
(dp1051
sg74
g1036
sg67
(lp1052
g60
(g61
g62
NtRp1053
(dp1054
g65
(dp1055
g73
I4
ssg74
g1049
sg67
(lp1056
S'/home/u4hcsdaw/Python/web2py'
p1057
asbasbasbag60
(g76
g62
NtRp1058
(dp1059
g65
(dp1060
sg74
g1010
sg67
(lp1061
g60
(g81
g62
NtRp1062
(dp1063
g65
(dp1064
g85
g86
ssg74
g1058
sg67
(lp1065
S'cmd_args'
p1066
asbag60
(g81
g62
NtRp1067
(dp1068
g65
(dp1069
g92
g93
ssg74
g1058
sg67
(lp1070
S':'
asbag60
(g81
g62
NtRp1071
(dp1072
g65
(dp1073
sg74
g1058
sg67
(lp1074
g60
(g61
g62
NtRp1075
(dp1076
g65
(dp1077
g73
I4
ssg74
g1071
sg67
(lp1078
g60
(g69
g62
NtRp1079
(dp1080
g65
(dp1081
g73
I3
ssg74
Nsg67
(lp1082
sbasbasbasbag60
(g76
g62
NtRp1083
(dp1084
g65
(dp1085
sg74
g1010
sg67
(lp1086
g60
(g81
g62
NtRp1087
(dp1088
g65
(dp1089
g85
g86
ssg74
g1083
sg67
(lp1090
S'cmd_options'
p1091
asbag60
(g81
g62
NtRp1092
(dp1093
g65
(dp1094
g92
g93
ssg74
g1083
sg67
(lp1095
S':'
asbag60
(g81
g62
NtRp1096
(dp1097
g65
(dp1098
sg74
g1083
sg67
(lp1099
g60
(g61
g62
NtRp1100
(dp1101
g65
(dp1102
g73
I4
ssg74
g1096
sg67
(lp1103
S"<Values at 0xa7a4aec: {'verbose': False, 'ip': '127.0.0.1', 'shutdown_timeout': 5, 'taskbar': False, 'nocron': False, 'pid_filename': 'httpserver.pid', 'maxthreads': None, 'softcron': False, 'server_name': 'chl-5833E', 'bpython': False, 'nogui': False, 'port': 8000, 'extcron': False, 'debuglevel': 30, 'test': None, 'folder': '/home/u4hcsdaw/Python/web2py', 'config': '', 'import_models': False, 'winservice': '', 'shell': None, 'run': '', 'log_filename': 'httpserver.log', 'args': [''], 'ssl_ca_certificate': None, 'scheduler': None, 'profiler_filename': None, 'ssl_private_key': '', 'password': '<ask>', 'request_queue_size': 5, 'ssl_certificate': '', 'cronjob': False, 'plain': False, 'quiet': False, 'interfaces': None, 'minthreads': None, 'timeout': 10, 'numthreads': None, 'nobanner': False}>"
p1104
asbasbasbag60
(g76
g62
NtRp1105
(dp1106
g65
(dp1107
sg74
g1010
sg67
(lp1108
g60
(g81
g62
NtRp1109
(dp1110
g65
(dp1111
g85
g86
ssg74
g1105
sg67
(lp1112
S'content_length'
p1113
asbag60
(g81
g62
NtRp1114
(dp1115
g65
(dp1116
g92
g93
ssg74
g1105
sg67
(lp1117
S':'
asbag60
(g81
g62
NtRp1118
(dp1119
g65
(dp1120
sg74
g1105
sg67
(lp1121
g60
(g61
g62
NtRp1122
(dp1123
g65
(dp1124
g73
I4
ssg74
g1118
sg67
(lp1125
S'919'
p1126
asbasbasbag60
(g76
g62
NtRp1127
(dp1128
g65
(dp1129
sg74
g1010
sg67
(lp1130
g60
(g81
g62
NtRp1131
(dp1132
g65
(dp1133
g85
g86
ssg74
g1127
sg67
(lp1134
S'content_type'
p1135
asbag60
(g81
g62
NtRp1136
(dp1137
g65
(dp1138
g92
g93
ssg74
g1127
sg67
(lp1139
S':'
asbag60
(g81
g62
NtRp1140
(dp1141
g65
(dp1142
sg74
g1127
sg67
(lp1143
g60
(g61
g62
NtRp1144
(dp1145
g65
(dp1146
g73
I4
ssg74
g1140
sg67
(lp1147
S'multipart/form-data; boundary=---------------------------1824517979133569832905969869'
p1148
asbasbasbag60
(g76
g62
NtRp1149
(dp1150
g65
(dp1151
sg74
g1010
sg67
(lp1152
g60
(g81
g62
NtRp1153
(dp1154
g65
(dp1155
g85
g86
ssg74
g1149
sg67
(lp1156
S'db_sessions'
p1157
asbag60
(g81
g62
NtRp1158
(dp1159
g65
(dp1160
g92
g93
ssg74
g1149
sg67
(lp1161
S':'
asbag60
(g81
g62
NtRp1162
(dp1163
g65
(dp1164
sg74
g1149
sg67
(lp1165
g60
(g61
g62
NtRp1166
(dp1167
g65
(dp1168
g73
I4
ssg74
g1162
sg67
(lp1169
S'set([])'
p1170
asbasbasbag60
(g76
g62
NtRp1171
(dp1172
g65
(dp1173
sg74
g1010
sg67
(lp1174
g60
(g81
g62
NtRp1175
(dp1176
g65
(dp1177
g85
g86
ssg74
g1171
sg67
(lp1178
S'debugging'
p1179
asbag60
(g81
g62
NtRp1180
(dp1181
g65
(dp1182
g92
g93
ssg74
g1171
sg67
(lp1183
S':'
asbag60
(g81
g62
NtRp1184
(dp1185
g65
(dp1186
sg74
g1171
sg67
(lp1187
g60
(g61
g62
NtRp1188
(dp1189
g65
(dp1190
g73
I4
ssg74
g1184
sg67
(lp1191
g103
asbasbasbag60
(g76
g62
NtRp1192
(dp1193
g65
(dp1194
sg74
g1010
sg67
(lp1195
g60
(g81
g62
NtRp1196
(dp1197
g65
(dp1198
g85
g86
ssg74
g1192
sg67
(lp1199
S'gluon_parent'
p1200
asbag60
(g81
g62
NtRp1201
(dp1202
g65
(dp1203
g92
g93
ssg74
g1192
sg67
(lp1204
S':'
asbag60
(g81
g62
NtRp1205
(dp1206
g65
(dp1207
sg74
g1192
sg67
(lp1208
g60
(g61
g62
NtRp1209
(dp1210
g65
(dp1211
g73
I4
ssg74
g1205
sg67
(lp1212
S'/home/u4hcsdaw/Python/web2py'
p1213
asbasbasbag60
(g76
g62
NtRp1214
(dp1215
g65
(dp1216
sg74
g1010
sg67
(lp1217
g60
(g81
g62
NtRp1218
(dp1219
g65
(dp1220
g85
g86
ssg74
g1214
sg67
(lp1221
S'http_accept'
p1222
asbag60
(g81
g62
NtRp1223
(dp1224
g65
(dp1225
g92
g93
ssg74
g1214
sg67
(lp1226
S':'
asbag60
(g81
g62
NtRp1227
(dp1228
g65
(dp1229
sg74
g1214
sg67
(lp1230
g60
(g61
g62
NtRp1231
(dp1232
g65
(dp1233
g73
I4
ssg74
g1227
sg67
(lp1234
S'text/html,application/xhtml+xml,application/xml;q=0.9,*/*;q=0.8'
p1235
asbasbasbag60
(g76
g62
NtRp1236
(dp1237
g65
(dp1238
sg74
g1010
sg67
(lp1239
g60
(g81
g62
NtRp1240
(dp1241
g65
(dp1242
g85
g86
ssg74
g1236
sg67
(lp1243
S'http_accept_encoding'
p1244
asbag60
(g81
g62
NtRp1245
(dp1246
g65
(dp1247
g92
g93
ssg74
g1236
sg67
(lp1248
S':'
asbag60
(g81
g62
NtRp1249
(dp1250
g65
(dp1251
sg74
g1236
sg67
(lp1252
g60
(g61
g62
NtRp1253
(dp1254
g65
(dp1255
g73
I4
ssg74
g1249
sg67
(lp1256
S'gzip, deflate'
p1257
asbasbasbag60
(g76
g62
NtRp1258
(dp1259
g65
(dp1260
sg74
g1010
sg67
(lp1261
g60
(g81
g62
NtRp1262
(dp1263
g65
(dp1264
g85
g86
ssg74
g1258
sg67
(lp1265
S'http_accept_language'
p1266
asbag60
(g81
g62
NtRp1267
(dp1268
g65
(dp1269
g92
g93
ssg74
g1258
sg67
(lp1270
S':'
asbag60
(g81
g62
NtRp1271
(dp1272
g65
(dp1273
sg74
g1258
sg67
(lp1274
g60
(g61
g62
NtRp1275
(dp1276
g65
(dp1277
g73
I4
ssg74
g1271
sg67
(lp1278
S'en-us,en;q=0.5'
p1279
asbasbasbag60
(g76
g62
NtRp1280
(dp1281
g65
(dp1282
sg74
g1010
sg67
(lp1283
g60
(g81
g62
NtRp1284
(dp1285
g65
(dp1286
g85
g86
ssg74
g1280
sg67
(lp1287
S'http_connection'
p1288
asbag60
(g81
g62
NtRp1289
(dp1290
g65
(dp1291
g92
g93
ssg74
g1280
sg67
(lp1292
S':'
asbag60
(g81
g62
NtRp1293
(dp1294
g65
(dp1295
sg74
g1280
sg67
(lp1296
g60
(g61
g62
NtRp1297
(dp1298
g65
(dp1299
g73
I4
ssg74
g1293
sg67
(lp1300
S'keep-alive'
p1301
asbasbasbag60
(g76
g62
NtRp1302
(dp1303
g65
(dp1304
sg74
g1010
sg67
(lp1305
g60
(g81
g62
NtRp1306
(dp1307
g65
(dp1308
g85
g86
ssg74
g1302
sg67
(lp1309
S'http_content_length'
p1310
asbag60
(g81
g62
NtRp1311
(dp1312
g65
(dp1313
g92
g93
ssg74
g1302
sg67
(lp1314
S':'
asbag60
(g81
g62
NtRp1315
(dp1316
g65
(dp1317
sg74
g1302
sg67
(lp1318
g60
(g61
g62
NtRp1319
(dp1320
g65
(dp1321
g73
I4
ssg74
g1315
sg67
(lp1322
g1126
asbasbasbag60
(g76
g62
NtRp1323
(dp1324
g65
(dp1325
sg74
g1010
sg67
(lp1326
g60
(g81
g62
NtRp1327
(dp1328
g65
(dp1329
g85
g86
ssg74
g1323
sg67
(lp1330
S'http_content_type'
p1331
asbag60
(g81
g62
NtRp1332
(dp1333
g65
(dp1334
g92
g93
ssg74
g1323
sg67
(lp1335
S':'
asbag60
(g81
g62
NtRp1336
(dp1337
g65
(dp1338
sg74
g1323
sg67
(lp1339
g60
(g61
g62
NtRp1340
(dp1341
g65
(dp1342
g73
I4
ssg74
g1336
sg67
(lp1343
g1148
asbasbasbag60
(g76
g62
NtRp1344
(dp1345
g65
(dp1346
sg74
g1010
sg67
(lp1347
g60
(g81
g62
NtRp1348
(dp1349
g65
(dp1350
g85
g86
ssg74
g1344
sg67
(lp1351
S'http_cookie'
p1352
asbag60
(g81
g62
NtRp1353
(dp1354
g65
(dp1355
g92
g93
ssg74
g1344
sg67
(lp1356
S':'
asbag60
(g81
g62
NtRp1357
(dp1358
g65
(dp1359
sg74
g1344
sg67
(lp1360
g60
(g61
g62
NtRp1361
(dp1362
g65
(dp1363
g73
I4
ssg74
g1357
sg67
(lp1364
S'session_id_welcome=127.0.0.1-78623fe9-ce00-476c-927f-eafcf49cd1de; session_id_admin=127.0.0.1-3a2cfaf5-caac-46cf-9bb6-feec5e929e91; session_id_dalex1=127.0.0.1-9de07f4f-e749-4ea4-acf8-21d98c9698ae; session_id_aces=127.0.0.1-fa323a39-b4f7-4824-aae1-5c3174579522'
p1365
asbasbasbag60
(g76
g62
NtRp1366
(dp1367
g65
(dp1368
sg74
g1010
sg67
(lp1369
g60
(g81
g62
NtRp1370
(dp1371
g65
(dp1372
g85
g86
ssg74
g1366
sg67
(lp1373
S'http_host'
p1374
asbag60
(g81
g62
NtRp1375
(dp1376
g65
(dp1377
g92
g93
ssg74
g1366
sg67
(lp1378
S':'
asbag60
(g81
g62
NtRp1379
(dp1380
g65
(dp1381
sg74
g1366
sg67
(lp1382
g60
(g61
g62
NtRp1383
(dp1384
g65
(dp1385
g73
I4
ssg74
g1379
sg67
(lp1386
S'127.0.0.1:8000'
p1387
asbasbasbag60
(g76
g62
NtRp1388
(dp1389
g65
(dp1390
sg74
g1010
sg67
(lp1391
g60
(g81
g62
NtRp1392
(dp1393
g65
(dp1394
g85
g86
ssg74
g1388
sg67
(lp1395
S'http_referer'
p1396
asbag60
(g81
g62
NtRp1397
(dp1398
g65
(dp1399
g92
g93
ssg74
g1388
sg67
(lp1400
S':'
asbag60
(g81
g62
NtRp1401
(dp1402
g65
(dp1403
sg74
g1388
sg67
(lp1404
g60
(g61
g62
NtRp1405
(dp1406
g65
(dp1407
g73
I4
ssg74
g1401
sg67
(lp1408
S'http://127.0.0.1:8000/ACES/default/index'
p1409
asbasbasbag60
(g76
g62
NtRp1410
(dp1411
g65
(dp1412
sg74
g1010
sg67
(lp1413
g60
(g81
g62
NtRp1414
(dp1415
g65
(dp1416
g85
g86
ssg74
g1410
sg67
(lp1417
S'http_user_agent'
p1418
asbag60
(g81
g62
NtRp1419
(dp1420
g65
(dp1421
g92
g93
ssg74
g1410
sg67
(lp1422
S':'
asbag60
(g81
g62
NtRp1423
(dp1424
g65
(dp1425
sg74
g1410
sg67
(lp1426
g60
(g61
g62
NtRp1427
(dp1428
g65
(dp1429
g73
I4
ssg74
g1423
sg67
(lp1430
S'Mozilla/5.0 (X11; Ubuntu; Linux i686; rv:13.0) Gecko/20100101 Firefox/13.0.1'
p1431
asbasbasbag60
(g76
g62
NtRp1432
(dp1433
g65
(dp1434
sg74
g1010
sg67
(lp1435
g60
(g81
g62
NtRp1436
(dp1437
g65
(dp1438
g85
g86
ssg74
g1432
sg67
(lp1439
S'is_jython'
p1440
asbag60
(g81
g62
NtRp1441
(dp1442
g65
(dp1443
g92
g93
ssg74
g1432
sg67
(lp1444
S':'
asbag60
(g81
g62
NtRp1445
(dp1446
g65
(dp1447
sg74
g1432
sg67
(lp1448
g60
(g61
g62
NtRp1449
(dp1450
g65
(dp1451
g73
I4
ssg74
g1445
sg67
(lp1452
g103
asbasbasbag60
(g76
g62
NtRp1453
(dp1454
g65
(dp1455
sg74
g1010
sg67
(lp1456
g60
(g81
g62
NtRp1457
(dp1458
g65
(dp1459
g85
g86
ssg74
g1453
sg67
(lp1460
S'path_info'
p1461
asbag60
(g81
g62
NtRp1462
(dp1463
g65
(dp1464
g92
g93
ssg74
g1453
sg67
(lp1465
S':'
asbag60
(g81
g62
NtRp1466
(dp1467
g65
(dp1468
sg74
g1453
sg67
(lp1469
g60
(g61
g62
NtRp1470
(dp1471
g65
(dp1472
g73
I4
ssg74
g1466
sg67
(lp1473
S'/ACES/default/index'
p1474
asbasbasbag60
(g76
g62
NtRp1475
(dp1476
g65
(dp1477
sg74
g1010
sg67
(lp1478
g60
(g81
g62
NtRp1479
(dp1480
g65
(dp1481
g85
g86
ssg74
g1475
sg67
(lp1482
S'query_string'
p1483
asbag60
(g81
g62
NtRp1484
(dp1485
g65
(dp1486
g92
g93
ssg74
g1475
sg67
(lp1487
S':'
asbag60
(g81
g62
NtRp1488
(dp1489
g65
(dp1490
sg74
g1475
sg67
(lp1491
g60
(g61
g62
NtRp1492
(dp1493
g65
(dp1494
g73
I4
ssg74
g1488
sg67
(lp1495
S''
asbasbasbag60
(g76
g62
NtRp1496
(dp1497
g65
(dp1498
sg74
g1010
sg67
(lp1499
g60
(g81
g62
NtRp1500
(dp1501
g65
(dp1502
g85
g86
ssg74
g1496
sg67
(lp1503
S'remote_addr'
p1504
asbag60
(g81
g62
NtRp1505
(dp1506
g65
(dp1507
g92
g93
ssg74
g1496
sg67
(lp1508
S':'
asbag60
(g81
g62
NtRp1509
(dp1510
g65
(dp1511
sg74
g1496
sg67
(lp1512
g60
(g61
g62
NtRp1513
(dp1514
g65
(dp1515
g73
I4
ssg74
g1509
sg67
(lp1516
g193
asbasbasbag60
(g76
g62
NtRp1517
(dp1518
g65
(dp1519
sg74
g1010
sg67
(lp1520
g60
(g81
g62
NtRp1521
(dp1522
g65
(dp1523
g85
g86
ssg74
g1517
sg67
(lp1524
S'remote_port'
p1525
asbag60
(g81
g62
NtRp1526
(dp1527
g65
(dp1528
g92
g93
ssg74
g1517
sg67
(lp1529
S':'
asbag60
(g81
g62
NtRp1530
(dp1531
g65
(dp1532
sg74
g1517
sg67
(lp1533
g60
(g61
g62
NtRp1534
(dp1535
g65
(dp1536
g73
I4
ssg74
g1530
sg67
(lp1537
S'56325'
p1538
asbasbasbag60
(g76
g62
NtRp1539
(dp1540
g65
(dp1541
sg74
g1010
sg67
(lp1542
g60
(g81
g62
NtRp1543
(dp1544
g65
(dp1545
g85
g86
ssg74
g1539
sg67
(lp1546
S'request_method'
p1547
asbag60
(g81
g62
NtRp1548
(dp1549
g65
(dp1550
g92
g93
ssg74
g1539
sg67
(lp1551
S':'
asbag60
(g81
g62
NtRp1552
(dp1553
g65
(dp1554
sg74
g1539
sg67
(lp1555
g60
(g61
g62
NtRp1556
(dp1557
g65
(dp1558
g73
I4
ssg74
g1552
sg67
(lp1559
S'POST'
p1560
asbasbasbag60
(g76
g62
NtRp1561
(dp1562
g65
(dp1563
sg74
g1010
sg67
(lp1564
g60
(g81
g62
NtRp1565
(dp1566
g65
(dp1567
g85
g86
ssg74
g1561
sg67
(lp1568
S'script_name'
p1569
asbag60
(g81
g62
NtRp1570
(dp1571
g65
(dp1572
g92
g93
ssg74
g1561
sg67
(lp1573
S':'
asbag60
(g81
g62
NtRp1574
(dp1575
g65
(dp1576
sg74
g1561
sg67
(lp1577
g60
(g61
g62
NtRp1578
(dp1579
g65
(dp1580
g73
I4
ssg74
g1574
sg67
(lp1581
S''
asbasbasbag60
(g76
g62
NtRp1582
(dp1583
g65
(dp1584
sg74
g1010
sg67
(lp1585
g60
(g81
g62
NtRp1586
(dp1587
g65
(dp1588
g85
g86
ssg74
g1582
sg67
(lp1589
S'server_name'
p1590
asbag60
(g81
g62
NtRp1591
(dp1592
g65
(dp1593
g92
g93
ssg74
g1582
sg67
(lp1594
S':'
asbag60
(g81
g62
NtRp1595
(dp1596
g65
(dp1597
sg74
g1582
sg67
(lp1598
g60
(g61
g62
NtRp1599
(dp1600
g65
(dp1601
g73
I4
ssg74
g1595
sg67
(lp1602
S'chl-5833E'
p1603
asbasbasbag60
(g76
g62
NtRp1604
(dp1605
g65
(dp1606
sg74
g1010
sg67
(lp1607
g60
(g81
g62
NtRp1608
(dp1609
g65
(dp1610
g85
g86
ssg74
g1604
sg67
(lp1611
S'server_port'
p1612
asbag60
(g81
g62
NtRp1613
(dp1614
g65
(dp1615
g92
g93
ssg74
g1604
sg67
(lp1616
S':'
asbag60
(g81
g62
NtRp1617
(dp1618
g65
(dp1619
sg74
g1604
sg67
(lp1620
g60
(g61
g62
NtRp1621
(dp1622
g65
(dp1623
g73
I4
ssg74
g1617
sg67
(lp1624
S'8000'
p1625
asbasbasbag60
(g76
g62
NtRp1626
(dp1627
g65
(dp1628
sg74
g1010
sg67
(lp1629
g60
(g81
g62
NtRp1630
(dp1631
g65
(dp1632
g85
g86
ssg74
g1626
sg67
(lp1633
S'server_protocol'
p1634
asbag60
(g81
g62
NtRp1635
(dp1636
g65
(dp1637
g92
g93
ssg74
g1626
sg67
(lp1638
S':'
asbag60
(g81
g62
NtRp1639
(dp1640
g65
(dp1641
sg74
g1626
sg67
(lp1642
g60
(g61
g62
NtRp1643
(dp1644
g65
(dp1645
g73
I4
ssg74
g1639
sg67
(lp1646
S'HTTP/1.1'
p1647
asbasbasbag60
(g76
g62
NtRp1648
(dp1649
g65
(dp1650
sg74
g1010
sg67
(lp1651
g60
(g81
g62
NtRp1652
(dp1653
g65
(dp1654
g85
g86
ssg74
g1648
sg67
(lp1655
S'server_software'
p1656
asbag60
(g81
g62
NtRp1657
(dp1658
g65
(dp1659
g92
g93
ssg74
g1648
sg67
(lp1660
S':'
asbag60
(g81
g62
NtRp1661
(dp1662
g65
(dp1663
sg74
g1648
sg67
(lp1664
g60
(g61
g62
NtRp1665
(dp1666
g65
(dp1667
g73
I4
ssg74
g1661
sg67
(lp1668
S'Rocket 1.2.4'
p1669
asbasbasbag60
(g76
g62
NtRp1670
(dp1671
g65
(dp1672
sg74
g1010
sg67
(lp1673
g60
(g81
g62
NtRp1674
(dp1675
g65
(dp1676
g85
g86
ssg74
g1670
sg67
(lp1677
S'web2py_crontype'
p1678
asbag60
(g81
g62
NtRp1679
(dp1680
g65
(dp1681
g92
g93
ssg74
g1670
sg67
(lp1682
S':'
asbag60
(g81
g62
NtRp1683
(dp1684
g65
(dp1685
sg74
g1670
sg67
(lp1686
g60
(g61
g62
NtRp1687
(dp1688
g65
(dp1689
g73
I4
ssg74
g1683
sg67
(lp1690
S'hard'
p1691
asbasbasbag60
(g76
g62
NtRp1692
(dp1693
g65
(dp1694
sg74
g1010
sg67
(lp1695
g60
(g81
g62
NtRp1696
(dp1697
g65
(dp1698
g85
g86
ssg74
g1692
sg67
(lp1699
S'web2py_path'
p1700
asbag60
(g81
g62
NtRp1701
(dp1702
g65
(dp1703
g92
g93
ssg74
g1692
sg67
(lp1704
S':'
asbag60
(g81
g62
NtRp1705
(dp1706
g65
(dp1707
sg74
g1692
sg67
(lp1708
g60
(g61
g62
NtRp1709
(dp1710
g65
(dp1711
g73
I4
ssg74
g1705
sg67
(lp1712
g1057
asbasbasbag60
(g76
g62
NtRp1713
(dp1714
g65
(dp1715
sg74
g1010
sg67
(lp1716
g60
(g81
g62
NtRp1717
(dp1718
g65
(dp1719
g85
g86
ssg74
g1713
sg67
(lp1720
S'web2py_version'
p1721
asbag60
(g81
g62
NtRp1722
(dp1723
g65
(dp1724
g92
g93
ssg74
g1713
sg67
(lp1725
S':'
asbag60
(g81
g62
NtRp1726
(dp1727
g65
(dp1728
sg74
g1713
sg67
(lp1729
g60
(g61
g62
NtRp1730
(dp1731
g65
(dp1732
g73
I4
ssg74
g1726
sg67
(lp1733
g60
(g69
g62
NtRp1734
(dp1735
g65
(dp1736
g73
I3
ssg74
Nsg67
(lp1737
g60
(g76
g62
NtRp1738
(dp1739
g65
(dp1740
sg74
g1734
sg67
(lp1741
g60
(g81
g62
NtRp1742
(dp1743
g65
(dp1744
sg74
g1738
sg67
(lp1745
g60
(g61
g62
NtRp1746
(dp1747
g65
(dp1748
g73
I3
ssg74
g1742
sg67
(lp1749
S'1'
asbasbasbag60
(g76
g62
NtRp1750
(dp1751
g65
(dp1752
sg74
g1734
sg67
(lp1753
g60
(g81
g62
NtRp1754
(dp1755
g65
(dp1756
sg74
g1750
sg67
(lp1757
g60
(g61
g62
NtRp1758
(dp1759
g65
(dp1760
g73
I3
ssg74
g1754
sg67
(lp1761
S'99'
p1762
asbasbasbag60
(g76
g62
NtRp1763
(dp1764
g65
(dp1765
sg74
g1734
sg67
(lp1766
g60
(g81
g62
NtRp1767
(dp1768
g65
(dp1769
sg74
g1763
sg67
(lp1770
g60
(g61
g62
NtRp1771
(dp1772
g65
(dp1773
g73
I3
ssg74
g1767
sg67
(lp1774
S'2'
asbasbasbag60
(g76
g62
NtRp1775
(dp1776
g65
(dp1777
sg74
g1734
sg67
(lp1778
g60
(g81
g62
NtRp1779
(dp1780
g65
(dp1781
sg74
g1775
sg67
(lp1782
g60
(g61
g62
NtRp1783
(dp1784
g65
(dp1785
g73
I3
ssg74
g1779
sg67
(lp1786
S'datetime.datetime(2011, 9, 26, 6, 55, 33)'
p1787
asbasbasbag60
(g76
g62
NtRp1788
(dp1789
g65
(dp1790
sg74
g1734
sg67
(lp1791
g60
(g81
g62
NtRp1792
(dp1793
g65
(dp1794
sg74
g1788
sg67
(lp1795
g60
(g61
g62
NtRp1796
(dp1797
g65
(dp1798
g73
I3
ssg74
g1792
sg67
(lp1799
S'stable'
p1800
asbasbasbasbasbasbasbag60
(g76
g62
NtRp1801
(dp1802
g65
(dp1803
sg74
g1010
sg67
(lp1804
g60
(g81
g62
NtRp1805
(dp1806
g65
(dp1807
g85
g86
ssg74
g1801
sg67
(lp1808
S'wsgi_errors'
p1809
asbag60
(g81
g62
NtRp1810
(dp1811
g65
(dp1812
g92
g93
ssg74
g1801
sg67
(lp1813
S':'
asbag60
(g81
g62
NtRp1814
(dp1815
g65
(dp1816
sg74
g1801
sg67
(lp1817
g60
(g61
g62
NtRp1818
(dp1819
g65
(dp1820
g73
I4
ssg74
g1814
sg67
(lp1821
S"<open file '<stderr>', mode 'w' at 0xb73360d0>"
p1822
asbasbasbag60
(g76
g62
NtRp1823
(dp1824
g65
(dp1825
sg74
g1010
sg67
(lp1826
g60
(g81
g62
NtRp1827
(dp1828
g65
(dp1829
g85
g86
ssg74
g1823
sg67
(lp1830
S'wsgi_file_wrapper'
p1831
asbag60
(g81
g62
NtRp1832
(dp1833
g65
(dp1834
g92
g93
ssg74
g1823
sg67
(lp1835
S':'
asbag60
(g81
g62
NtRp1836
(dp1837
g65
(dp1838
sg74
g1823
sg67
(lp1839
g60
(g61
g62
NtRp1840
(dp1841
g65
(dp1842
g73
I4
ssg74
g1836
sg67
(lp1843
S'<class wsgiref.util.FileWrapper at 0xa6e1b3c>'
p1844
asbasbasbag60
(g76
g62
NtRp1845
(dp1846
g65
(dp1847
sg74
g1010
sg67
(lp1848
g60
(g81
g62
NtRp1849
(dp1850
g65
(dp1851
g85
g86
ssg74
g1845
sg67
(lp1852
S'wsgi_input'
p1853
asbag60
(g81
g62
NtRp1854
(dp1855
g65
(dp1856
g92
g93
ssg74
g1845
sg67
(lp1857
S':'
asbag60
(g81
g62
NtRp1858
(dp1859
g65
(dp1860
sg74
g1845
sg67
(lp1861
g60
(g61
g62
NtRp1862
(dp1863
g65
(dp1864
g73
I4
ssg74
g1858
sg67
(lp1865
S'<socket._fileobject object at 0xad0171ec>'
p1866
asbasbasbag60
(g76
g62
NtRp1867
(dp1868
g65
(dp1869
sg74
g1010
sg67
(lp1870
g60
(g81
g62
NtRp1871
(dp1872
g65
(dp1873
g85
g86
ssg74
g1867
sg67
(lp1874
S'wsgi_multiprocess'
p1875
asbag60
(g81
g62
NtRp1876
(dp1877
g65
(dp1878
g92
g93
ssg74
g1867
sg67
(lp1879
S':'
asbag60
(g81
g62
NtRp1880
(dp1881
g65
(dp1882
sg74
g1867
sg67
(lp1883
g60
(g61
g62
NtRp1884
(dp1885
g65
(dp1886
g73
I4
ssg74
g1880
sg67
(lp1887
g103
asbasbasbag60
(g76
g62
NtRp1888
(dp1889
g65
(dp1890
sg74
g1010
sg67
(lp1891
g60
(g81
g62
NtRp1892
(dp1893
g65
(dp1894
g85
g86
ssg74
g1888
sg67
(lp1895
S'wsgi_multithread'
p1896
asbag60
(g81
g62
NtRp1897
(dp1898
g65
(dp1899
g92
g93
ssg74
g1888
sg67
(lp1900
S':'
asbag60
(g81
g62
NtRp1901
(dp1902
g65
(dp1903
sg74
g1888
sg67
(lp1904
g60
(g61
g62
NtRp1905
(dp1906
g65
(dp1907
g73
I4
ssg74
g1901
sg67
(lp1908
S'True'
p1909
asbasbasbag60
(g76
g62
NtRp1910
(dp1911
g65
(dp1912
sg74
g1010
sg67
(lp1913
g60
(g81
g62
NtRp1914
(dp1915
g65
(dp1916
g85
g86
ssg74
g1910
sg67
(lp1917
S'wsgi_run_once'
p1918
asbag60
(g81
g62
NtRp1919
(dp1920
g65
(dp1921
g92
g93
ssg74
g1910
sg67
(lp1922
S':'
asbag60
(g81
g62
NtRp1923
(dp1924
g65
(dp1925
sg74
g1910
sg67
(lp1926
g60
(g61
g62
NtRp1927
(dp1928
g65
(dp1929
g73
I4
ssg74
g1923
sg67
(lp1930
g103
asbasbasbag60
(g76
g62
NtRp1931
(dp1932
g65
(dp1933
sg74
g1010
sg67
(lp1934
g60
(g81
g62
NtRp1935
(dp1936
g65
(dp1937
g85
g86
ssg74
g1931
sg67
(lp1938
S'wsgi_url_scheme'
p1939
asbag60
(g81
g62
NtRp1940
(dp1941
g65
(dp1942
g92
g93
ssg74
g1931
sg67
(lp1943
S':'
asbag60
(g81
g62
NtRp1944
(dp1945
g65
(dp1946
sg74
g1931
sg67
(lp1947
g60
(g61
g62
NtRp1948
(dp1949
g65
(dp1950
g73
I4
ssg74
g1944
sg67
(lp1951
S'http'
p1952
asbasbasbag60
(g76
g62
NtRp1953
(dp1954
g65
(dp1955
sg74
g1010
sg67
(lp1956
g60
(g81
g62
NtRp1957
(dp1958
g65
(dp1959
g85
g86
ssg74
g1953
sg67
(lp1960
S'wsgi_version'
p1961
asbag60
(g81
g62
NtRp1962
(dp1963
g65
(dp1964
g92
g93
ssg74
g1953
sg67
(lp1965
S':'
asbag60
(g81
g62
NtRp1966
(dp1967
g65
(dp1968
sg74
g1953
sg67
(lp1969
g60
(g61
g62
NtRp1970
(dp1971
g65
(dp1972
g73
I4
ssg74
g1966
sg67
(lp1973
g60
(g69
g62
NtRp1974
(dp1975
g65
(dp1976
g73
I3
ssg74
Nsg67
(lp1977
g60
(g76
g62
NtRp1978
(dp1979
g65
(dp1980
sg74
g1974
sg67
(lp1981
g60
(g81
g62
NtRp1982
(dp1983
g65
(dp1984
sg74
g1978
sg67
(lp1985
g60
(g61
g62
NtRp1986
(dp1987
g65
(dp1988
g73
I3
ssg74
g1982
sg67
(lp1989
S'1'
asbasbasbag60
(g76
g62
NtRp1990
(dp1991
g65
(dp1992
sg74
g1974
sg67
(lp1993
g60
(g81
g62
NtRp1994
(dp1995
g65
(dp1996
sg74
g1990
sg67
(lp1997
g60
(g61
g62
NtRp1998
(dp1999
g65
(dp2000
g73
I3
ssg74
g1994
sg67
(lp2001
S'0'
asbasbasbasbasbasbasbasbasbasbasbag60
(g76
g62
NtRp2002
(dp2003
g65
(dp2004
sg74
g70
sg67
(lp2005
g60
(g81
g62
NtRp2006
(dp2007
g65
(dp2008
g85
g86
ssg74
g2002
sg67
(lp2009
S'extension'
p2010
asbag60
(g81
g62
NtRp2011
(dp2012
g65
(dp2013
g92
g93
ssg74
g2002
sg67
(lp2014
S':'
asbag60
(g81
g62
NtRp2015
(dp2016
g65
(dp2017
sg74
g2002
sg67
(lp2018
g60
(g61
g62
NtRp2019
(dp2020
g65
(dp2021
g73
I5
ssg74
g2015
sg67
(lp2022
S'html'
p2023
asbasbasbag60
(g76
g62
NtRp2024
(dp2025
g65
(dp2026
sg74
g70
sg67
(lp2027
g60
(g81
g62
NtRp2028
(dp2029
g65
(dp2030
g85
g86
ssg74
g2024
sg67
(lp2031
S'folder'
p2032
asbag60
(g81
g62
NtRp2033
(dp2034
g65
(dp2035
g92
g93
ssg74
g2024
sg67
(lp2036
S':'
asbag60
(g81
g62
NtRp2037
(dp2038
g65
(dp2039
sg74
g2024
sg67
(lp2040
g60
(g61
g62
NtRp2041
(dp2042
g65
(dp2043
g73
I5
ssg74
g2037
sg67
(lp2044
S'/home/u4hcsdaw/Python/web2py/applications/ACES/'
p2045
asbasbasbag60
(g76
g62
NtRp2046
(dp2047
g65
(dp2048
sg74
g70
sg67
(lp2049
g60
(g81
g62
NtRp2050
(dp2051
g65
(dp2052
g85
g86
ssg74
g2046
sg67
(lp2053
S'function'
p2054
asbag60
(g81
g62
NtRp2055
(dp2056
g65
(dp2057
g92
g93
ssg74
g2046
sg67
(lp2058
S':'
asbag60
(g81
g62
NtRp2059
(dp2060
g65
(dp2061
sg74
g2046
sg67
(lp2062
g60
(g61
g62
NtRp2063
(dp2064
g65
(dp2065
g73
I5
ssg74
g2059
sg67
(lp2066
S'index'
p2067
asbasbasbag60
(g76
g62
NtRp2068
(dp2069
g65
(dp2070
sg74
g70
sg67
(lp2071
g60
(g81
g62
NtRp2072
(dp2073
g65
(dp2074
g85
g86
ssg74
g2068
sg67
(lp2075
S'get_vars'
p2076
asbag60
(g81
g62
NtRp2077
(dp2078
g65
(dp2079
g92
g93
ssg74
g2068
sg67
(lp2080
S':'
asbag60
(g81
g62
NtRp2081
(dp2082
g65
(dp2083
sg74
g2068
sg67
(lp2084
g60
(g61
g62
NtRp2085
(dp2086
g65
(dp2087
g73
I5
ssg74
g2081
sg67
(lp2088
g60
(g69
g62
NtRp2089
(dp2090
g65
(dp2091
g73
I4
ssg74
Nsg67
(lp2092
sbasbasbasbag60
(g76
g62
NtRp2093
(dp2094
g65
(dp2095
sg74
g70
sg67
(lp2096
g60
(g81
g62
NtRp2097
(dp2098
g65
(dp2099
g85
g86
ssg74
g2093
sg67
(lp2100
S'global_settings'
p2101
asbag60
(g81
g62
NtRp2102
(dp2103
g65
(dp2104
g92
g93
ssg74
g2093
sg67
(lp2105
S':'
asbag60
(g81
g62
NtRp2106
(dp2107
g65
(dp2108
sg74
g2093
sg67
(lp2109
g60
(g61
g62
NtRp2110
(dp2111
g65
(dp2112
g73
I5
ssg74
g2106
sg67
(lp2113
g60
(g69
g62
NtRp2114
(dp2115
g65
(dp2116
g73
I4
ssg74
Nsg67
(lp2117
g60
(g76
g62
NtRp2118
(dp2119
g65
(dp2120
sg74
g2114
sg67
(lp2121
g60
(g81
g62
NtRp2122
(dp2123
g65
(dp2124
g85
g86
ssg74
g2118
sg67
(lp2125
g1022
asbag60
(g81
g62
NtRp2126
(dp2127
g65
(dp2128
g92
g93
ssg74
g2118
sg67
(lp2129
S':'
asbag60
(g81
g62
NtRp2130
(dp2131
g65
(dp2132
sg74
g2118
sg67
(lp2133
g60
(g61
g62
NtRp2134
(dp2135
g65
(dp2136
g73
I4
ssg74
g2130
sg67
(lp2137
S"set(['/home/u4hcsdaw/Python/web2py/applications/ACES/', '/home/u4hcsdaw/Python/web2py/applications/admin/', '/home/u4hcsdaw/Python/web2py/applications/welcome/', '/home/u4hcsdaw/Python/web2py/applications/DALEX1/'])"
p2138
asbasbasbag60
(g76
g62
NtRp2139
(dp2140
g65
(dp2141
sg74
g2114
sg67
(lp2142
g60
(g81
g62
NtRp2143
(dp2144
g65
(dp2145
g85
g86
ssg74
g2139
sg67
(lp2146
g1044
asbag60
(g81
g62
NtRp2147
(dp2148
g65
(dp2149
g92
g93
ssg74
g2139
sg67
(lp2150
S':'
asbag60
(g81
g62
NtRp2151
(dp2152
g65
(dp2153
sg74
g2139
sg67
(lp2154
g60
(g61
g62
NtRp2155
(dp2156
g65
(dp2157
g73
I4
ssg74
g2151
sg67
(lp2158
g1057
asbasbasbag60
(g76
g62
NtRp2159
(dp2160
g65
(dp2161
sg74
g2114
sg67
(lp2162
g60
(g81
g62
NtRp2163
(dp2164
g65
(dp2165
g85
g86
ssg74
g2159
sg67
(lp2166
g1066
asbag60
(g81
g62
NtRp2167
(dp2168
g65
(dp2169
g92
g93
ssg74
g2159
sg67
(lp2170
S':'
asbag60
(g81
g62
NtRp2171
(dp2172
g65
(dp2173
sg74
g2159
sg67
(lp2174
g60
(g61
g62
NtRp2175
(dp2176
g65
(dp2177
g73
I4
ssg74
g2171
sg67
(lp2178
g60
(g69
g62
NtRp2179
(dp2180
g65
(dp2181
g73
I3
ssg74
Nsg67
(lp2182
sbasbasbasbag60
(g76
g62
NtRp2183
(dp2184
g65
(dp2185
sg74
g2114
sg67
(lp2186
g60
(g81
g62
NtRp2187
(dp2188
g65
(dp2189
g85
g86
ssg74
g2183
sg67
(lp2190
g1091
asbag60
(g81
g62
NtRp2191
(dp2192
g65
(dp2193
g92
g93
ssg74
g2183
sg67
(lp2194
S':'
asbag60
(g81
g62
NtRp2195
(dp2196
g65
(dp2197
sg74
g2183
sg67
(lp2198
g60
(g61
g62
NtRp2199
(dp2200
g65
(dp2201
g73
I4
ssg74
g2195
sg67
(lp2202
S"<Values at 0xa7a4aec: {'verbose': False, 'ip': '127.0.0.1', 'shutdown_timeout': 5, 'taskbar': False, 'nocron': False, 'pid_filename': 'httpserver.pid', 'maxthreads': None, 'softcron': False, 'server_name': 'chl-5833E', 'bpython': False, 'nogui': False, 'port': 8000, 'extcron': False, 'debuglevel': 30, 'test': None, 'folder': '/home/u4hcsdaw/Python/web2py', 'config': '', 'import_models': False, 'winservice': '', 'shell': None, 'run': '', 'log_filename': 'httpserver.log', 'args': [''], 'ssl_ca_certificate': None, 'scheduler': None, 'profiler_filename': None, 'ssl_private_key': '', 'password': '<ask>', 'request_queue_size': 5, 'ssl_certificate': '', 'cronjob': False, 'plain': False, 'quiet': False, 'interfaces': None, 'minthreads': None, 'timeout': 10, 'numthreads': None, 'nobanner': False}>"
p2203
asbasbasbag60
(g76
g62
NtRp2204
(dp2205
g65
(dp2206
sg74
g2114
sg67
(lp2207
g60
(g81
g62
NtRp2208
(dp2209
g65
(dp2210
g85
g86
ssg74
g2204
sg67
(lp2211
g1157
asbag60
(g81
g62
NtRp2212
(dp2213
g65
(dp2214
g92
g93
ssg74
g2204
sg67
(lp2215
S':'
asbag60
(g81
g62
NtRp2216
(dp2217
g65
(dp2218
sg74
g2204
sg67
(lp2219
g60
(g61
g62
NtRp2220
(dp2221
g65
(dp2222
g73
I4
ssg74
g2216
sg67
(lp2223
S'set([])'
p2224
asbasbasbag60
(g76
g62
NtRp2225
(dp2226
g65
(dp2227
sg74
g2114
sg67
(lp2228
g60
(g81
g62
NtRp2229
(dp2230
g65
(dp2231
g85
g86
ssg74
g2225
sg67
(lp2232
g1179
asbag60
(g81
g62
NtRp2233
(dp2234
g65
(dp2235
g92
g93
ssg74
g2225
sg67
(lp2236
S':'
asbag60
(g81
g62
NtRp2237
(dp2238
g65
(dp2239
sg74
g2225
sg67
(lp2240
g60
(g61
g62
NtRp2241
(dp2242
g65
(dp2243
g73
I4
ssg74
g2237
sg67
(lp2244
g103
asbasbasbag60
(g76
g62
NtRp2245
(dp2246
g65
(dp2247
sg74
g2114
sg67
(lp2248
g60
(g81
g62
NtRp2249
(dp2250
g65
(dp2251
g85
g86
ssg74
g2245
sg67
(lp2252
g1200
asbag60
(g81
g62
NtRp2253
(dp2254
g65
(dp2255
g92
g93
ssg74
g2245
sg67
(lp2256
S':'
asbag60
(g81
g62
NtRp2257
(dp2258
g65
(dp2259
sg74
g2245
sg67
(lp2260
g60
(g61
g62
NtRp2261
(dp2262
g65
(dp2263
g73
I4
ssg74
g2257
sg67
(lp2264
g1213
asbasbasbag60
(g76
g62
NtRp2265
(dp2266
g65
(dp2267
sg74
g2114
sg67
(lp2268
g60
(g81
g62
NtRp2269
(dp2270
g65
(dp2271
g85
g86
ssg74
g2265
sg67
(lp2272
g1440
asbag60
(g81
g62
NtRp2273
(dp2274
g65
(dp2275
g92
g93
ssg74
g2265
sg67
(lp2276
S':'
asbag60
(g81
g62
NtRp2277
(dp2278
g65
(dp2279
sg74
g2265
sg67
(lp2280
g60
(g61
g62
NtRp2281
(dp2282
g65
(dp2283
g73
I4
ssg74
g2277
sg67
(lp2284
g103
asbasbasbag60
(g76
g62
NtRp2285
(dp2286
g65
(dp2287
sg74
g2114
sg67
(lp2288
g60
(g81
g62
NtRp2289
(dp2290
g65
(dp2291
g85
g86
ssg74
g2285
sg67
(lp2292
g1678
asbag60
(g81
g62
NtRp2293
(dp2294
g65
(dp2295
g92
g93
ssg74
g2285
sg67
(lp2296
S':'
asbag60
(g81
g62
NtRp2297
(dp2298
g65
(dp2299
sg74
g2285
sg67
(lp2300
g60
(g61
g62
NtRp2301
(dp2302
g65
(dp2303
g73
I4
ssg74
g2297
sg67
(lp2304
g1691
asbasbasbag60
(g76
g62
NtRp2305
(dp2306
g65
(dp2307
sg74
g2114
sg67
(lp2308
g60
(g81
g62
NtRp2309
(dp2310
g65
(dp2311
g85
g86
ssg74
g2305
sg67
(lp2312
g1721
asbag60
(g81
g62
NtRp2313
(dp2314
g65
(dp2315
g92
g93
ssg74
g2305
sg67
(lp2316
S':'
asbag60
(g81
g62
NtRp2317
(dp2318
g65
(dp2319
sg74
g2305
sg67
(lp2320
g60
(g61
g62
NtRp2321
(dp2322
g65
(dp2323
g73
I4
ssg74
g2317
sg67
(lp2324
g60
(g69
g62
NtRp2325
(dp2326
g65
(dp2327
g73
I3
ssg74
Nsg67
(lp2328
g60
(g76
g62
NtRp2329
(dp2330
g65
(dp2331
sg74
g2325
sg67
(lp2332
g60
(g81
g62
NtRp2333
(dp2334
g65
(dp2335
sg74
g2329
sg67
(lp2336
g60
(g61
g62
NtRp2337
(dp2338
g65
(dp2339
g73
I3
ssg74
g2333
sg67
(lp2340
S'1'
asbasbasbag60
(g76
g62
NtRp2341
(dp2342
g65
(dp2343
sg74
g2325
sg67
(lp2344
g60
(g81
g62
NtRp2345
(dp2346
g65
(dp2347
sg74
g2341
sg67
(lp2348
g60
(g61
g62
NtRp2349
(dp2350
g65
(dp2351
g73
I3
ssg74
g2345
sg67
(lp2352
S'99'
p2353
asbasbasbag60
(g76
g62
NtRp2354
(dp2355
g65
(dp2356
sg74
g2325
sg67
(lp2357
g60
(g81
g62
NtRp2358
(dp2359
g65
(dp2360
sg74
g2354
sg67
(lp2361
g60
(g61
g62
NtRp2362
(dp2363
g65
(dp2364
g73
I3
ssg74
g2358
sg67
(lp2365
S'2'
asbasbasbag60
(g76
g62
NtRp2366
(dp2367
g65
(dp2368
sg74
g2325
sg67
(lp2369
g60
(g81
g62
NtRp2370
(dp2371
g65
(dp2372
sg74
g2366
sg67
(lp2373
g60
(g61
g62
NtRp2374
(dp2375
g65
(dp2376
g73
I3
ssg74
g2370
sg67
(lp2377
S'datetime.datetime(2011, 9, 26, 6, 55, 33)'
p2378
asbasbasbag60
(g76
g62
NtRp2379
(dp2380
g65
(dp2381
sg74
g2325
sg67
(lp2382
g60
(g81
g62
NtRp2383
(dp2384
g65
(dp2385
sg74
g2379
sg67
(lp2386
g60
(g61
g62
NtRp2387
(dp2388
g65
(dp2389
g73
I3
ssg74
g2383
sg67
(lp2390
g1800
asbasbasbasbasbasbasbasbasbasbasbag60
(g76
g62
NtRp2391
(dp2392
g65
(dp2393
sg74
g70
sg67
(lp2394
g60
(g81
g62
NtRp2395
(dp2396
g65
(dp2397
g85
g86
ssg74
g2391
sg67
(lp2398
S'is_https'
p2399
asbag60
(g81
g62
NtRp2400
(dp2401
g65
(dp2402
g92
g93
ssg74
g2391
sg67
(lp2403
S':'
asbag60
(g81
g62
NtRp2404
(dp2405
g65
(dp2406
sg74
g2391
sg67
(lp2407
g60
(g61
g62
NtRp2408
(dp2409
g65
(dp2410
g73
I5
ssg74
g2404
sg67
(lp2411
g103
asbasbasbag60
(g76
g62
NtRp2412
(dp2413
g65
(dp2414
sg74
g70
sg67
(lp2415
g60
(g81
g62
NtRp2416
(dp2417
g65
(dp2418
g85
g86
ssg74
g2412
sg67
(lp2419
S'is_local'
p2420
asbag60
(g81
g62
NtRp2421
(dp2422
g65
(dp2423
g92
g93
ssg74
g2412
sg67
(lp2424
S':'
asbag60
(g81
g62
NtRp2425
(dp2426
g65
(dp2427
sg74
g2412
sg67
(lp2428
g60
(g61
g62
NtRp2429
(dp2430
g65
(dp2431
g73
I5
ssg74
g2425
sg67
(lp2432
g1909
asbasbasbag60
(g76
g62
NtRp2433
(dp2434
g65
(dp2435
sg74
g70
sg67
(lp2436
g60
(g81
g62
NtRp2437
(dp2438
g65
(dp2439
g85
g86
ssg74
g2433
sg67
(lp2440
S'is_restful'
p2441
asbag60
(g81
g62
NtRp2442
(dp2443
g65
(dp2444
g92
g93
ssg74
g2433
sg67
(lp2445
S':'
asbag60
(g81
g62
NtRp2446
(dp2447
g65
(dp2448
sg74
g2433
sg67
(lp2449
g60
(g61
g62
NtRp2450
(dp2451
g65
(dp2452
g73
I5
ssg74
g2446
sg67
(lp2453
g103
asbasbasbag60
(g76
g62
NtRp2454
(dp2455
g65
(dp2456
sg74
g70
sg67
(lp2457
g60
(g81
g62
NtRp2458
(dp2459
g65
(dp2460
g85
g86
ssg74
g2454
sg67
(lp2461
S'now'
p2462
asbag60
(g81
g62
NtRp2463
(dp2464
g65
(dp2465
g92
g93
ssg74
g2454
sg67
(lp2466
S':'
asbag60
(g81
g62
NtRp2467
(dp2468
g65
(dp2469
sg74
g2454
sg67
(lp2470
g60
(g61
g62
NtRp2471
(dp2472
g65
(dp2473
g73
I5
ssg74
g2467
sg67
(lp2474
S'datetime.datetime(2012, 9, 10, 19, 17, 56, 450230)'
p2475
asbasbasbag60
(g76
g62
NtRp2476
(dp2477
g65
(dp2478
sg74
g70
sg67
(lp2479
g60
(g81
g62
NtRp2480
(dp2481
g65
(dp2482
g85
g86
ssg74
g2476
sg67
(lp2483
S'post_vars'
p2484
asbag60
(g81
g62
NtRp2485
(dp2486
g65
(dp2487
g92
g93
ssg74
g2476
sg67
(lp2488
S':'
asbag60
(g81
g62
NtRp2489
(dp2490
g65
(dp2491
sg74
g2476
sg67
(lp2492
g60
(g61
g62
NtRp2493
(dp2494
g65
(dp2495
g73
I5
ssg74
g2489
sg67
(lp2496
g60
(g69
g62
NtRp2497
(dp2498
g65
(dp2499
g73
I4
ssg74
Nsg67
(lp2500
g60
(g76
g62
NtRp2501
(dp2502
g65
(dp2503
sg74
g2497
sg67
(lp2504
g60
(g81
g62
NtRp2505
(dp2506
g65
(dp2507
g85
g86
ssg74
g2501
sg67
(lp2508
S'id'
p2509
asbag60
(g81
g62
NtRp2510
(dp2511
g65
(dp2512
g92
g93
ssg74
g2501
sg67
(lp2513
S':'
asbag60
(g81
g62
NtRp2514
(dp2515
g65
(dp2516
sg74
g2501
sg67
(lp2517
g60
(g61
g62
NtRp2518
(dp2519
g65
(dp2520
g73
I4
ssg74
g2514
sg67
(lp2521
S'8'
asbasbasbag60
(g76
g62
NtRp2522
(dp2523
g65
(dp2524
sg74
g2497
sg67
(lp2525
g60
(g81
g62
NtRp2526
(dp2527
g65
(dp2528
g85
g86
ssg74
g2522
sg67
(lp2529
S'waterDepth'
p2530
asbag60
(g81
g62
NtRp2531
(dp2532
g65
(dp2533
g92
g93
ssg74
g2522
sg67
(lp2534
S':'
asbag60
(g81
g62
NtRp2535
(dp2536
g65
(dp2537
sg74
g2522
sg67
(lp2538
g60
(g61
g62
NtRp2539
(dp2540
g65
(dp2541
g73
I4
ssg74
g2535
sg67
(lp2542
S'8.0'
p2543
asbasbasbag60
(g76
g62
NtRp2544
(dp2545
g65
(dp2546
sg74
g2497
sg67
(lp2547
g60
(g81
g62
NtRp2548
(dp2549
g65
(dp2550
g85
g86
ssg74
g2544
sg67
(lp2551
S'waveBreakRatio'
p2552
asbag60
(g81
g62
NtRp2553
(dp2554
g65
(dp2555
g92
g93
ssg74
g2544
sg67
(lp2556
S':'
asbag60
(g81
g62
NtRp2557
(dp2558
g65
(dp2559
sg74
g2544
sg67
(lp2560
g60
(g61
g62
NtRp2561
(dp2562
g65
(dp2563
g73
I4
ssg74
g2557
sg67
(lp2564
S'0.78'
p2565
asbasbasbag60
(g76
g62
NtRp2566
(dp2567
g65
(dp2568
sg74
g2497
sg67
(lp2569
g60
(g81
g62
NtRp2570
(dp2571
g65
(dp2572
g85
g86
ssg74
g2566
sg67
(lp2573
S'waveHeight'
p2574
asbag60
(g81
g62
NtRp2575
(dp2576
g65
(dp2577
g92
g93
ssg74
g2566
sg67
(lp2578
S':'
asbag60
(g81
g62
NtRp2579
(dp2580
g65
(dp2581
sg74
g2566
sg67
(lp2582
g60
(g61
g62
NtRp2583
(dp2584
g65
(dp2585
g73
I4
ssg74
g2579
sg67
(lp2586
S'0.85'
p2587
asbasbasbag60
(g76
g62
NtRp2588
(dp2589
g65
(dp2590
sg74
g2497
sg67
(lp2591
g60
(g81
g62
NtRp2592
(dp2593
g65
(dp2594
g85
g86
ssg74
g2588
sg67
(lp2595
S'wavePeriod'
p2596
asbag60
(g81
g62
NtRp2597
(dp2598
g65
(dp2599
g92
g93
ssg74
g2588
sg67
(lp2600
S':'
asbag60
(g81
g62
NtRp2601
(dp2602
g65
(dp2603
sg74
g2588
sg67
(lp2604
g60
(g61
g62
NtRp2605
(dp2606
g65
(dp2607
g73
I4
ssg74
g2601
sg67
(lp2608
S'3.0'
p2609
asbasbasbasbasbasbasbag60
(g76
g62
NtRp2610
(dp2611
g65
(dp2612
sg74
g70
sg67
(lp2613
g60
(g81
g62
NtRp2614
(dp2615
g65
(dp2616
g85
g86
ssg74
g2610
sg67
(lp2617
S'url'
p2618
asbag60
(g81
g62
NtRp2619
(dp2620
g65
(dp2621
g92
g93
ssg74
g2610
sg67
(lp2622
S':'
asbag60
(g81
g62
NtRp2623
(dp2624
g65
(dp2625
sg74
g2610
sg67
(lp2626
g60
(g61
g62
NtRp2627
(dp2628
g65
(dp2629
g73
I5
ssg74
g2623
sg67
(lp2630
S'/ACES/default/index'
p2631
asbasbasbag60
(g76
g62
NtRp2632
(dp2633
g65
(dp2634
sg74
g70
sg67
(lp2635
g60
(g81
g62
NtRp2636
(dp2637
g65
(dp2638
g85
g86
ssg74
g2632
sg67
(lp2639
S'utcnow'
p2640
asbag60
(g81
g62
NtRp2641
(dp2642
g65
(dp2643
g92
g93
ssg74
g2632
sg67
(lp2644
S':'
asbag60
(g81
g62
NtRp2645
(dp2646
g65
(dp2647
sg74
g2632
sg67
(lp2648
g60
(g61
g62
NtRp2649
(dp2650
g65
(dp2651
g73
I5
ssg74
g2645
sg67
(lp2652
S'datetime.datetime(2012, 9, 11, 0, 17, 56, 450260)'
p2653
asbasbasbag60
(g76
g62
NtRp2654
(dp2655
g65
(dp2656
sg74
g70
sg67
(lp2657
g60
(g81
g62
NtRp2658
(dp2659
g65
(dp2660
g85
g86
ssg74
g2654
sg67
(lp2661
S'uuid'
p2662
asbag60
(g81
g62
NtRp2663
(dp2664
g65
(dp2665
g92
g93
ssg74
g2654
sg67
(lp2666
S':'
asbag60
(g81
g62
NtRp2667
(dp2668
g65
(dp2669
sg74
g2654
sg67
(lp2670
g60
(g61
g62
NtRp2671
(dp2672
g65
(dp2673
g73
I5
ssg74
g2667
sg67
(lp2674
S'ACES/127.0.0.1.2012-09-10.19-17-56.226ea316-b663-44bd-b494-443c7d98fa0d'
p2675
asbasbasbag60
(g76
g62
NtRp2676
(dp2677
g65
(dp2678
sg74
g70
sg67
(lp2679
g60
(g81
g62
NtRp2680
(dp2681
g65
(dp2682
g85
g86
ssg74
g2676
sg67
(lp2683
S'vars'
p2684
asbag60
(g81
g62
NtRp2685
(dp2686
g65
(dp2687
g92
g93
ssg74
g2676
sg67
(lp2688
S':'
asbag60
(g81
g62
NtRp2689
(dp2690
g65
(dp2691
sg74
g2676
sg67
(lp2692
g60
(g61
g62
NtRp2693
(dp2694
g65
(dp2695
g73
I5
ssg74
g2689
sg67
(lp2696
g60
(g69
g62
NtRp2697
(dp2698
g65
(dp2699
g73
I4
ssg74
Nsg67
(lp2700
g60
(g76
g62
NtRp2701
(dp2702
g65
(dp2703
sg74
g2697
sg67
(lp2704
g60
(g81
g62
NtRp2705
(dp2706
g65
(dp2707
g85
g86
ssg74
g2701
sg67
(lp2708
g2509
asbag60
(g81
g62
NtRp2709
(dp2710
g65
(dp2711
g92
g93
ssg74
g2701
sg67
(lp2712
S':'
asbag60
(g81
g62
NtRp2713
(dp2714
g65
(dp2715
sg74
g2701
sg67
(lp2716
g60
(g61
g62
NtRp2717
(dp2718
g65
(dp2719
g73
I4
ssg74
g2713
sg67
(lp2720
S'8'
asbasbasbag60
(g76
g62
NtRp2721
(dp2722
g65
(dp2723
sg74
g2697
sg67
(lp2724
g60
(g81
g62
NtRp2725
(dp2726
g65
(dp2727
g85
g86
ssg74
g2721
sg67
(lp2728
g2530
asbag60
(g81
g62
NtRp2729
(dp2730
g65
(dp2731
g92
g93
ssg74
g2721
sg67
(lp2732
S':'
asbag60
(g81
g62
NtRp2733
(dp2734
g65
(dp2735
sg74
g2721
sg67
(lp2736
g60
(g61
g62
NtRp2737
(dp2738
g65
(dp2739
g73
I4
ssg74
g2733
sg67
(lp2740
g2543
asbasbasbag60
(g76
g62
NtRp2741
(dp2742
g65
(dp2743
sg74
g2697
sg67
(lp2744
g60
(g81
g62
NtRp2745
(dp2746
g65
(dp2747
g85
g86
ssg74
g2741
sg67
(lp2748
g2552
asbag60
(g81
g62
NtRp2749
(dp2750
g65
(dp2751
g92
g93
ssg74
g2741
sg67
(lp2752
S':'
asbag60
(g81
g62
NtRp2753
(dp2754
g65
(dp2755
sg74
g2741
sg67
(lp2756
g60
(g61
g62
NtRp2757
(dp2758
g65
(dp2759
g73
I4
ssg74
g2753
sg67
(lp2760
g2565
asbasbasbag60
(g76
g62
NtRp2761
(dp2762
g65
(dp2763
sg74
g2697
sg67
(lp2764
g60
(g81
g62
NtRp2765
(dp2766
g65
(dp2767
g85
g86
ssg74
g2761
sg67
(lp2768
g2574
asbag60
(g81
g62
NtRp2769
(dp2770
g65
(dp2771
g92
g93
ssg74
g2761
sg67
(lp2772
S':'
asbag60
(g81
g62
NtRp2773
(dp2774
g65
(dp2775
sg74
g2761
sg67
(lp2776
g60
(g61
g62
NtRp2777
(dp2778
g65
(dp2779
g73
I4
ssg74
g2773
sg67
(lp2780
g2587
asbasbasbag60
(g76
g62
NtRp2781
(dp2782
g65
(dp2783
sg74
g2697
sg67
(lp2784
g60
(g81
g62
NtRp2785
(dp2786
g65
(dp2787
g85
g86
ssg74
g2781
sg67
(lp2788
g2596
asbag60
(g81
g62
NtRp2789
(dp2790
g65
(dp2791
g92
g93
ssg74
g2781
sg67
(lp2792
S':'
asbag60
(g81
g62
NtRp2793
(dp2794
g65
(dp2795
sg74
g2781
sg67
(lp2796
g60
(g61
g62
NtRp2797
(dp2798
g65
(dp2799
g73
I4
ssg74
g2793
sg67
(lp2800
g2609
asbasbasbasbasbasbasbag60
(g76
g62
NtRp2801
(dp2802
g65
(dp2803
sg74
g70
sg67
(lp2804
g60
(g81
g62
NtRp2805
(dp2806
g65
(dp2807
g85
g86
ssg74
g2801
sg67
(lp2808
S'wsgi'
p2809
asbag60
(g81
g62
NtRp2810
(dp2811
g65
(dp2812
g92
g93
ssg74
g2801
sg67
(lp2813
S':'
asbag60
(g81
g62
NtRp2814
(dp2815
g65
(dp2816
sg74
g2801
sg67
(lp2817
g60
(g61
g62
NtRp2818
(dp2819
g65
(dp2820
g73
I5
ssg74
g2814
sg67
(lp2821
g60
(g69
g62
NtRp2822
(dp2823
g65
(dp2824
g73
I4
ssg74
Nsg67
(lp2825
g60
(g76
g62
NtRp2826
(dp2827
g65
(dp2828
sg74
g2822
sg67
(lp2829
g60
(g81
g62
NtRp2830
(dp2831
g65
(dp2832
g85
g86
ssg74
g2826
sg67
(lp2833
S'environ'
p2834
asbag60
(g81
g62
NtRp2835
(dp2836
g65
(dp2837
g92
g93
ssg74
g2826
sg67
(lp2838
S':'
asbag60
(g81
g62
NtRp2839
(dp2840
g65
(dp2841
sg74
g2826
sg67
(lp2842
g60
(g61
g62
NtRp2843
(dp2844
g65
(dp2845
g73
I4
ssg74
g2839
sg67
(lp2846
g60
(g69
g62
NtRp2847
(dp2848
g65
(dp2849
g73
I3
ssg74
Nsg67
(lp2850
g60
(g76
g62
NtRp2851
(dp2852
g65
(dp2853
sg74
g2847
sg67
(lp2854
g60
(g81
g62
NtRp2855
(dp2856
g65
(dp2857
g85
g86
ssg74
g2851
sg67
(lp2858
S'CONTENT_LENGTH'
p2859
asbag60
(g81
g62
NtRp2860
(dp2861
g65
(dp2862
g92
g93
ssg74
g2851
sg67
(lp2863
S':'
asbag60
(g81
g62
NtRp2864
(dp2865
g65
(dp2866
sg74
g2851
sg67
(lp2867
g60
(g61
g62
NtRp2868
(dp2869
g65
(dp2870
g73
I3
ssg74
g2864
sg67
(lp2871
g1126
asbasbasbag60
(g76
g62
NtRp2872
(dp2873
g65
(dp2874
sg74
g2847
sg67
(lp2875
g60
(g81
g62
NtRp2876
(dp2877
g65
(dp2878
g85
g86
ssg74
g2872
sg67
(lp2879
S'CONTENT_TYPE'
p2880
asbag60
(g81
g62
NtRp2881
(dp2882
g65
(dp2883
g92
g93
ssg74
g2872
sg67
(lp2884
S':'
asbag60
(g81
g62
NtRp2885
(dp2886
g65
(dp2887
sg74
g2872
sg67
(lp2888
g60
(g61
g62
NtRp2889
(dp2890
g65
(dp2891
g73
I3
ssg74
g2885
sg67
(lp2892
g1148
asbasbasbag60
(g76
g62
NtRp2893
(dp2894
g65
(dp2895
sg74
g2847
sg67
(lp2896
g60
(g81
g62
NtRp2897
(dp2898
g65
(dp2899
g85
g86
ssg74
g2893
sg67
(lp2900
S'HTTP_ACCEPT'
p2901
asbag60
(g81
g62
NtRp2902
(dp2903
g65
(dp2904
g92
g93
ssg74
g2893
sg67
(lp2905
S':'
asbag60
(g81
g62
NtRp2906
(dp2907
g65
(dp2908
sg74
g2893
sg67
(lp2909
g60
(g61
g62
NtRp2910
(dp2911
g65
(dp2912
g73
I3
ssg74
g2906
sg67
(lp2913
g1235
asbasbasbag60
(g76
g62
NtRp2914
(dp2915
g65
(dp2916
sg74
g2847
sg67
(lp2917
g60
(g81
g62
NtRp2918
(dp2919
g65
(dp2920
g85
g86
ssg74
g2914
sg67
(lp2921
S'HTTP_ACCEPT_ENCODING'
p2922
asbag60
(g81
g62
NtRp2923
(dp2924
g65
(dp2925
g92
g93
ssg74
g2914
sg67
(lp2926
S':'
asbag60
(g81
g62
NtRp2927
(dp2928
g65
(dp2929
sg74
g2914
sg67
(lp2930
g60
(g61
g62
NtRp2931
(dp2932
g65
(dp2933
g73
I3
ssg74
g2927
sg67
(lp2934
g1257
asbasbasbag60
(g76
g62
NtRp2935
(dp2936
g65
(dp2937
sg74
g2847
sg67
(lp2938
g60
(g81
g62
NtRp2939
(dp2940
g65
(dp2941
g85
g86
ssg74
g2935
sg67
(lp2942
S'HTTP_ACCEPT_LANGUAGE'
p2943
asbag60
(g81
g62
NtRp2944
(dp2945
g65
(dp2946
g92
g93
ssg74
g2935
sg67
(lp2947
S':'
asbag60
(g81
g62
NtRp2948
(dp2949
g65
(dp2950
sg74
g2935
sg67
(lp2951
g60
(g61
g62
NtRp2952
(dp2953
g65
(dp2954
g73
I3
ssg74
g2948
sg67
(lp2955
g1279
asbasbasbag60
(g76
g62
NtRp2956
(dp2957
g65
(dp2958
sg74
g2847
sg67
(lp2959
g60
(g81
g62
NtRp2960
(dp2961
g65
(dp2962
g85
g86
ssg74
g2956
sg67
(lp2963
S'HTTP_CONNECTION'
p2964
asbag60
(g81
g62
NtRp2965
(dp2966
g65
(dp2967
g92
g93
ssg74
g2956
sg67
(lp2968
S':'
asbag60
(g81
g62
NtRp2969
(dp2970
g65
(dp2971
sg74
g2956
sg67
(lp2972
g60
(g61
g62
NtRp2973
(dp2974
g65
(dp2975
g73
I3
ssg74
g2969
sg67
(lp2976
g1301
asbasbasbag60
(g76
g62
NtRp2977
(dp2978
g65
(dp2979
sg74
g2847
sg67
(lp2980
g60
(g81
g62
NtRp2981
(dp2982
g65
(dp2983
g85
g86
ssg74
g2977
sg67
(lp2984
S'HTTP_CONTENT_LENGTH'
p2985
asbag60
(g81
g62
NtRp2986
(dp2987
g65
(dp2988
g92
g93
ssg74
g2977
sg67
(lp2989
S':'
asbag60
(g81
g62
NtRp2990
(dp2991
g65
(dp2992
sg74
g2977
sg67
(lp2993
g60
(g61
g62
NtRp2994
(dp2995
g65
(dp2996
g73
I3
ssg74
g2990
sg67
(lp2997
g1126
asbasbasbag60
(g76
g62
NtRp2998
(dp2999
g65
(dp3000
sg74
g2847
sg67
(lp3001
g60
(g81
g62
NtRp3002
(dp3003
g65
(dp3004
g85
g86
ssg74
g2998
sg67
(lp3005
S'HTTP_CONTENT_TYPE'
p3006
asbag60
(g81
g62
NtRp3007
(dp3008
g65
(dp3009
g92
g93
ssg74
g2998
sg67
(lp3010
S':'
asbag60
(g81
g62
NtRp3011
(dp3012
g65
(dp3013
sg74
g2998
sg67
(lp3014
g60
(g61
g62
NtRp3015
(dp3016
g65
(dp3017
g73
I3
ssg74
g3011
sg67
(lp3018
g1148
asbasbasbag60
(g76
g62
NtRp3019
(dp3020
g65
(dp3021
sg74
g2847
sg67
(lp3022
g60
(g81
g62
NtRp3023
(dp3024
g65
(dp3025
g85
g86
ssg74
g3019
sg67
(lp3026
S'HTTP_COOKIE'
p3027
asbag60
(g81
g62
NtRp3028
(dp3029
g65
(dp3030
g92
g93
ssg74
g3019
sg67
(lp3031
S':'
asbag60
(g81
g62
NtRp3032
(dp3033
g65
(dp3034
sg74
g3019
sg67
(lp3035
g60
(g61
g62
NtRp3036
(dp3037
g65
(dp3038
g73
I3
ssg74
g3032
sg67
(lp3039
g1365
asbasbasbag60
(g76
g62
NtRp3040
(dp3041
g65
(dp3042
sg74
g2847
sg67
(lp3043
g60
(g81
g62
NtRp3044
(dp3045
g65
(dp3046
g85
g86
ssg74
g3040
sg67
(lp3047
S'HTTP_HOST'
p3048
asbag60
(g81
g62
NtRp3049
(dp3050
g65
(dp3051
g92
g93
ssg74
g3040
sg67
(lp3052
S':'
asbag60
(g81
g62
NtRp3053
(dp3054
g65
(dp3055
sg74
g3040
sg67
(lp3056
g60
(g61
g62
NtRp3057
(dp3058
g65
(dp3059
g73
I3
ssg74
g3053
sg67
(lp3060
g1387
asbasbasbag60
(g76
g62
NtRp3061
(dp3062
g65
(dp3063
sg74
g2847
sg67
(lp3064
g60
(g81
g62
NtRp3065
(dp3066
g65
(dp3067
g85
g86
ssg74
g3061
sg67
(lp3068
S'HTTP_REFERER'
p3069
asbag60
(g81
g62
NtRp3070
(dp3071
g65
(dp3072
g92
g93
ssg74
g3061
sg67
(lp3073
S':'
asbag60
(g81
g62
NtRp3074
(dp3075
g65
(dp3076
sg74
g3061
sg67
(lp3077
g60
(g61
g62
NtRp3078
(dp3079
g65
(dp3080
g73
I3
ssg74
g3074
sg67
(lp3081
g1409
asbasbasbag60
(g76
g62
NtRp3082
(dp3083
g65
(dp3084
sg74
g2847
sg67
(lp3085
g60
(g81
g62
NtRp3086
(dp3087
g65
(dp3088
g85
g86
ssg74
g3082
sg67
(lp3089
S'HTTP_USER_AGENT'
p3090
asbag60
(g81
g62
NtRp3091
(dp3092
g65
(dp3093
g92
g93
ssg74
g3082
sg67
(lp3094
S':'
asbag60
(g81
g62
NtRp3095
(dp3096
g65
(dp3097
sg74
g3082
sg67
(lp3098
g60
(g61
g62
NtRp3099
(dp3100
g65
(dp3101
g73
I3
ssg74
g3095
sg67
(lp3102
g1431
asbasbasbag60
(g76
g62
NtRp3103
(dp3104
g65
(dp3105
sg74
g2847
sg67
(lp3106
g60
(g81
g62
NtRp3107
(dp3108
g65
(dp3109
g85
g86
ssg74
g3103
sg67
(lp3110
S'PATH_INFO'
p3111
asbag60
(g81
g62
NtRp3112
(dp3113
g65
(dp3114
g92
g93
ssg74
g3103
sg67
(lp3115
S':'
asbag60
(g81
g62
NtRp3116
(dp3117
g65
(dp3118
sg74
g3103
sg67
(lp3119
g60
(g61
g62
NtRp3120
(dp3121
g65
(dp3122
g73
I3
ssg74
g3116
sg67
(lp3123
g1474
asbasbasbag60
(g76
g62
NtRp3124
(dp3125
g65
(dp3126
sg74
g2847
sg67
(lp3127
g60
(g81
g62
NtRp3128
(dp3129
g65
(dp3130
g85
g86
ssg74
g3124
sg67
(lp3131
S'QUERY_STRING'
p3132
asbag60
(g81
g62
NtRp3133
(dp3134
g65
(dp3135
g92
g93
ssg74
g3124
sg67
(lp3136
S':'
asbag60
(g81
g62
NtRp3137
(dp3138
g65
(dp3139
sg74
g3124
sg67
(lp3140
g60
(g61
g62
NtRp3141
(dp3142
g65
(dp3143
g73
I3
ssg74
g3137
sg67
(lp3144
S''
asbasbasbag60
(g76
g62
NtRp3145
(dp3146
g65
(dp3147
sg74
g2847
sg67
(lp3148
g60
(g81
g62
NtRp3149
(dp3150
g65
(dp3151
g85
g86
ssg74
g3145
sg67
(lp3152
S'REMOTE_ADDR'
p3153
asbag60
(g81
g62
NtRp3154
(dp3155
g65
(dp3156
g92
g93
ssg74
g3145
sg67
(lp3157
S':'
asbag60
(g81
g62
NtRp3158
(dp3159
g65
(dp3160
sg74
g3145
sg67
(lp3161
g60
(g61
g62
NtRp3162
(dp3163
g65
(dp3164
g73
I3
ssg74
g3158
sg67
(lp3165
g193
asbasbasbag60
(g76
g62
NtRp3166
(dp3167
g65
(dp3168
sg74
g2847
sg67
(lp3169
g60
(g81
g62
NtRp3170
(dp3171
g65
(dp3172
g85
g86
ssg74
g3166
sg67
(lp3173
S'REMOTE_PORT'
p3174
asbag60
(g81
g62
NtRp3175
(dp3176
g65
(dp3177
g92
g93
ssg74
g3166
sg67
(lp3178
S':'
asbag60
(g81
g62
NtRp3179
(dp3180
g65
(dp3181
sg74
g3166
sg67
(lp3182
g60
(g61
g62
NtRp3183
(dp3184
g65
(dp3185
g73
I3
ssg74
g3179
sg67
(lp3186
g1538
asbasbasbag60
(g76
g62
NtRp3187
(dp3188
g65
(dp3189
sg74
g2847
sg67
(lp3190
g60
(g81
g62
NtRp3191
(dp3192
g65
(dp3193
g85
g86
ssg74
g3187
sg67
(lp3194
S'REQUEST_METHOD'
p3195
asbag60
(g81
g62
NtRp3196
(dp3197
g65
(dp3198
g92
g93
ssg74
g3187
sg67
(lp3199
S':'
asbag60
(g81
g62
NtRp3200
(dp3201
g65
(dp3202
sg74
g3187
sg67
(lp3203
g60
(g61
g62
NtRp3204
(dp3205
g65
(dp3206
g73
I3
ssg74
g3200
sg67
(lp3207
g1560
asbasbasbag60
(g76
g62
NtRp3208
(dp3209
g65
(dp3210
sg74
g2847
sg67
(lp3211
g60
(g81
g62
NtRp3212
(dp3213
g65
(dp3214
g85
g86
ssg74
g3208
sg67
(lp3215
S'SCRIPT_NAME'
p3216
asbag60
(g81
g62
NtRp3217
(dp3218
g65
(dp3219
g92
g93
ssg74
g3208
sg67
(lp3220
S':'
asbag60
(g81
g62
NtRp3221
(dp3222
g65
(dp3223
sg74
g3208
sg67
(lp3224
g60
(g61
g62
NtRp3225
(dp3226
g65
(dp3227
g73
I3
ssg74
g3221
sg67
(lp3228
S''
asbasbasbag60
(g76
g62
NtRp3229
(dp3230
g65
(dp3231
sg74
g2847
sg67
(lp3232
g60
(g81
g62
NtRp3233
(dp3234
g65
(dp3235
g85
g86
ssg74
g3229
sg67
(lp3236
S'SERVER_NAME'
p3237
asbag60
(g81
g62
NtRp3238
(dp3239
g65
(dp3240
g92
g93
ssg74
g3229
sg67
(lp3241
S':'
asbag60
(g81
g62
NtRp3242
(dp3243
g65
(dp3244
sg74
g3229
sg67
(lp3245
g60
(g61
g62
NtRp3246
(dp3247
g65
(dp3248
g73
I3
ssg74
g3242
sg67
(lp3249
g1603
asbasbasbag60
(g76
g62
NtRp3250
(dp3251
g65
(dp3252
sg74
g2847
sg67
(lp3253
g60
(g81
g62
NtRp3254
(dp3255
g65
(dp3256
g85
g86
ssg74
g3250
sg67
(lp3257
S'SERVER_PORT'
p3258
asbag60
(g81
g62
NtRp3259
(dp3260
g65
(dp3261
g92
g93
ssg74
g3250
sg67
(lp3262
S':'
asbag60
(g81
g62
NtRp3263
(dp3264
g65
(dp3265
sg74
g3250
sg67
(lp3266
g60
(g61
g62
NtRp3267
(dp3268
g65
(dp3269
g73
I3
ssg74
g3263
sg67
(lp3270
g1625
asbasbasbag60
(g76
g62
NtRp3271
(dp3272
g65
(dp3273
sg74
g2847
sg67
(lp3274
g60
(g81
g62
NtRp3275
(dp3276
g65
(dp3277
g85
g86
ssg74
g3271
sg67
(lp3278
S'SERVER_PROTOCOL'
p3279
asbag60
(g81
g62
NtRp3280
(dp3281
g65
(dp3282
g92
g93
ssg74
g3271
sg67
(lp3283
S':'
asbag60
(g81
g62
NtRp3284
(dp3285
g65
(dp3286
sg74
g3271
sg67
(lp3287
g60
(g61
g62
NtRp3288
(dp3289
g65
(dp3290
g73
I3
ssg74
g3284
sg67
(lp3291
g1647
asbasbasbag60
(g76
g62
NtRp3292
(dp3293
g65
(dp3294
sg74
g2847
sg67
(lp3295
g60
(g81
g62
NtRp3296
(dp3297
g65
(dp3298
g85
g86
ssg74
g3292
sg67
(lp3299
S'SERVER_SOFTWARE'
p3300
asbag60
(g81
g62
NtRp3301
(dp3302
g65
(dp3303
g92
g93
ssg74
g3292
sg67
(lp3304
S':'
asbag60
(g81
g62
NtRp3305
(dp3306
g65
(dp3307
sg74
g3292
sg67
(lp3308
g60
(g61
g62
NtRp3309
(dp3310
g65
(dp3311
g73
I3
ssg74
g3305
sg67
(lp3312
g1669
asbasbasbag60
(g76
g62
NtRp3313
(dp3314
g65
(dp3315
sg74
g2847
sg67
(lp3316
g60
(g81
g62
NtRp3317
(dp3318
g65
(dp3319
g85
g86
ssg74
g3313
sg67
(lp3320
S'wsgi.errors'
p3321
asbag60
(g81
g62
NtRp3322
(dp3323
g65
(dp3324
g92
g93
ssg74
g3313
sg67
(lp3325
S':'
asbag60
(g81
g62
NtRp3326
(dp3327
g65
(dp3328
sg74
g3313
sg67
(lp3329
g60
(g61
g62
NtRp3330
(dp3331
g65
(dp3332
g73
I3
ssg74
g3326
sg67
(lp3333
S"<open file '<stderr>', mode 'w' at 0xb73360d0>"
p3334
asbasbasbag60
(g76
g62
NtRp3335
(dp3336
g65
(dp3337
sg74
g2847
sg67
(lp3338
g60
(g81
g62
NtRp3339
(dp3340
g65
(dp3341
g85
g86
ssg74
g3335
sg67
(lp3342
S'wsgi.file_wrapper'
p3343
asbag60
(g81
g62
NtRp3344
(dp3345
g65
(dp3346
g92
g93
ssg74
g3335
sg67
(lp3347
S':'
asbag60
(g81
g62
NtRp3348
(dp3349
g65
(dp3350
sg74
g3335
sg67
(lp3351
g60
(g61
g62
NtRp3352
(dp3353
g65
(dp3354
g73
I3
ssg74
g3348
sg67
(lp3355
S'<class wsgiref.util.FileWrapper at 0xa6e1b3c>'
p3356
asbasbasbag60
(g76
g62
NtRp3357
(dp3358
g65
(dp3359
sg74
g2847
sg67
(lp3360
g60
(g81
g62
NtRp3361
(dp3362
g65
(dp3363
g85
g86
ssg74
g3357
sg67
(lp3364
S'wsgi.input'
p3365
asbag60
(g81
g62
NtRp3366
(dp3367
g65
(dp3368
g92
g93
ssg74
g3357
sg67
(lp3369
S':'
asbag60
(g81
g62
NtRp3370
(dp3371
g65
(dp3372
sg74
g3357
sg67
(lp3373
g60
(g61
g62
NtRp3374
(dp3375
g65
(dp3376
g73
I3
ssg74
g3370
sg67
(lp3377
S"<open file '<fdopen>', mode 'w+b' at 0xad02d0d0>"
p3378
asbasbasbag60
(g76
g62
NtRp3379
(dp3380
g65
(dp3381
sg74
g2847
sg67
(lp3382
g60
(g81
g62
NtRp3383
(dp3384
g65
(dp3385
g85
g86
ssg74
g3379
sg67
(lp3386
S'wsgi.multiprocess'
p3387
asbag60
(g81
g62
NtRp3388
(dp3389
g65
(dp3390
g92
g93
ssg74
g3379
sg67
(lp3391
S':'
asbag60
(g81
g62
NtRp3392
(dp3393
g65
(dp3394
sg74
g3379
sg67
(lp3395
g60
(g61
g62
NtRp3396
(dp3397
g65
(dp3398
g73
I3
ssg74
g3392
sg67
(lp3399
g103
asbasbasbag60
(g76
g62
NtRp3400
(dp3401
g65
(dp3402
sg74
g2847
sg67
(lp3403
g60
(g81
g62
NtRp3404
(dp3405
g65
(dp3406
g85
g86
ssg74
g3400
sg67
(lp3407
S'wsgi.multithread'
p3408
asbag60
(g81
g62
NtRp3409
(dp3410
g65
(dp3411
g92
g93
ssg74
g3400
sg67
(lp3412
S':'
asbag60
(g81
g62
NtRp3413
(dp3414
g65
(dp3415
sg74
g3400
sg67
(lp3416
g60
(g61
g62
NtRp3417
(dp3418
g65
(dp3419
g73
I3
ssg74
g3413
sg67
(lp3420
g1909
asbasbasbag60
(g76
g62
NtRp3421
(dp3422
g65
(dp3423
sg74
g2847
sg67
(lp3424
g60
(g81
g62
NtRp3425
(dp3426
g65
(dp3427
g85
g86
ssg74
g3421
sg67
(lp3428
S'wsgi.run_once'
p3429
asbag60
(g81
g62
NtRp3430
(dp3431
g65
(dp3432
g92
g93
ssg74
g3421
sg67
(lp3433
S':'
asbag60
(g81
g62
NtRp3434
(dp3435
g65
(dp3436
sg74
g3421
sg67
(lp3437
g60
(g61
g62
NtRp3438
(dp3439
g65
(dp3440
g73
I3
ssg74
g3434
sg67
(lp3441
g103
asbasbasbag60
(g76
g62
NtRp3442
(dp3443
g65
(dp3444
sg74
g2847
sg67
(lp3445
g60
(g81
g62
NtRp3446
(dp3447
g65
(dp3448
g85
g86
ssg74
g3442
sg67
(lp3449
S'wsgi.url_scheme'
p3450
asbag60
(g81
g62
NtRp3451
(dp3452
g65
(dp3453
g92
g93
ssg74
g3442
sg67
(lp3454
S':'
asbag60
(g81
g62
NtRp3455
(dp3456
g65
(dp3457
sg74
g3442
sg67
(lp3458
g60
(g61
g62
NtRp3459
(dp3460
g65
(dp3461
g73
I3
ssg74
g3455
sg67
(lp3462
g1952
asbasbasbag60
(g76
g62
NtRp3463
(dp3464
g65
(dp3465
sg74
g2847
sg67
(lp3466
g60
(g81
g62
NtRp3467
(dp3468
g65
(dp3469
g85
g86
ssg74
g3463
sg67
(lp3470
S'wsgi.version'
p3471
asbag60
(g81
g62
NtRp3472
(dp3473
g65
(dp3474
g92
g93
ssg74
g3463
sg67
(lp3475
S':'
asbag60
(g81
g62
NtRp3476
(dp3477
g65
(dp3478
sg74
g3463
sg67
(lp3479
g60
(g61
g62
NtRp3480
(dp3481
g65
(dp3482
g73
I3
ssg74
g3476
sg67
(lp3483
S'1'
asbasbasbasbasbasbasbasbasbasbasbasbasbsS'frames'
p3484
(lp3485
(dp3486
S'file'
p3487
S'/home/u4hcsdaw/Python/web2py/gluon/restricted.py'
p3488
sS'dump'
p3489
(dp3490
S'environment'
p3491
S"{'A': <class 'gluon.html.A'>, 'AcesCall': <function AcesCall>, 'Auth': <class 'gluon.tools.Auth'>, 'B': <class 'gluon.html.B'>, 'BEAUTIFY': <class 'gluon.html.BEAUTIFY'>, 'BODY': <class 'gluon.html.BODY'>, 'BR': <class 'gluon.html.BR'>, 'BUTTON': <class 'gluon.html.BUTTON'>, 'CAT': <class 'gluon.html.CAT'>, 'CENTER': <class 'gluon.html.CENTER'>, ...}"
p3492
sS'ccode'
p3493
S'<code object <module> at 0xad257b18, file "/home...plications/ACES/controllers/default.py", line 12>'
p3494
ssS'lnum'
p3495
I194
sS'lines'
p3496
(dp3497
I192
S'        else:'
p3498
sI193
S'            ccode = compile2(code,layer)'
p3499
sI194
S'        exec ccode in environment'
p3500
sI195
S'    except HTTP:'
p3501
sI196
S'        raise'
p3502
sI197
S'    except Exception, error:'
p3503
sI198
S'        # XXX Show exception in Wing IDE if running in debugger'
p3504
sI189
S'    try:'
p3505
sI190
S'        if type(code) == types.CodeType:'
p3506
sI191
S'            ccode = code'
p3507
ssS'call'
p3508
S"(code='# -*- coding: utf-8 -*-\\n# this file is released ...=crud())\\n\\nresponse._vars=response._caller(index)\\n', environment={'A': <class 'gluon.html.A'>, 'AcesCall': <function AcesCall>, 'Auth': <class 'gluon.tools.Auth'>, 'B': <class 'gluon.html.B'>, 'BEAUTIFY': <class 'gluon.html.BEAUTIFY'>, 'BODY': <class 'gluon.html.BODY'>, 'BR': <class 'gluon.html.BR'>, 'BUTTON': <class 'gluon.html.BUTTON'>, 'CAT': <class 'gluon.html.CAT'>, 'CENTER': <class 'gluon.html.CENTER'>, ...}, layer='/home/u4hcsdaw/Python/web2py/applications/ACES/controllers/default.py')"
p3509
sS'func'
p3510
S'restricted'
p3511
sa(dp3512
g3487
S'/home/u4hcsdaw/Python/web2py/applications/ACES/controllers/default.py'
p3513
sg3489
(dp3514
sg3495
I88
sg3496
(dp3515
I77
S'    http://..../[app]/default/data/update/[table]/[id]'
p3516
sI78
S'    http://..../[app]/default/data/delete/[table]/[id]'
p3517
sI79
S'    http://..../[app]/default/data/select/[table]'
p3518
sI80
S'    http://..../[app]/default/data/search/[table]'
p3519
sI81
S'    but URLs bust be signed, i.e. linked with'
p3520
sI82
S"      A('table',_href=URL('data/tables',user_signature=True))"
p3521
sI83
S'    or with the signed load operator'
p3522
sI84
S"      LOAD('default','data.load',args='tables',ajax=True,user_signature=True)"
p3523
sI85
S'    """'
p3524
sI86
S'    return dict(form=crud())'
p3525
ssg3508
S'()'
p3526
sg3510
S'<module>'
p3527
sa(dp3528
g3487
S'/home/u4hcsdaw/Python/web2py/gluon/globals.py'
p3529
sg3489
(dp3530
S'self'
p3531
S'undefined'
p3532
sS'f'
S'<function index>'
p3533
ssg3495
I149
sg3496
(dp3534
I144
S'        self.meta = Storage()      # used by web2py_ajax.html'
p3535
sI145
S'        self.menu = []             # used by the default view layout'
p3536
sI146
S'        self.files = []            # used by web2py_ajax.html'
p3537
sI147
S'        self.generic_patterns = [] # patterns to allow generic views'
p3538
sI148
S'        self._vars = None'
p3539
sI149
S'        self._caller = lambda f: f()'
p3540
sI150
S'        self._view_environment = None'
p3541
sI151
S'        self._custom_commit = None'
p3542
sI152
S'        self._custom_rollback = None'
p3543
sI153
S''
ssg3508
S'(f=<function index>)'
p3544
sg3510
S'<lambda>'
p3545
sa(dp3546
g3487
S'/home/u4hcsdaw/Python/web2py/applications/ACES/controllers/default.py'
p3547
sg3489
(dp3548
S'builtinNone'
p3549
S'None'
p3550
sS'f1'
p3551
S'<gluon.sqlhtml.SQLFORM object>'
p3552
sS'global session'
p3553
S"<Storage {'WaveHeight': 0.85, '_formkey[linearWa...orm/7]': '345d6274-6436-4e2a-b398-ee926483febe'}>"
p3554
sS'f1.process'
p3555
S'<bound method SQLFORM.process of <gluon.sqlhtml.SQLFORM object>>'
p3556
sS'global request'
p3557
S"<Storage {'body': <open file '<fdopen>', mode 'w...34a4f062113', '_formname': 'linearWaveForm/8'}>}>"
p3558
sS'request.vars'
p3559
S"<Storage {'wavePeriod': '3.0', 'waveHeight': '0....-834a4f062113', '_formname': 'linearWaveForm/8'}>"
p3560
sS').accepts'
p3561
g3532
sS'formname'
p3562
g3532
ssg3495
I29
sg3496
(dp3563
I32
S'        pre1=PRE(t0)'
p3564
sI33
S"        img1=IMG(_src=URL('static','images/Waves.svg?'+nowS))"
p3565
sI24
S'    f1=linearWaveForm()'
p3566
sI25
S"    if session.has_key('formVars'):"
p3567
sI26
S"        for key in session['formVars']:"
p3568
sI27
S"            f1.vars[key]=session['formVars'][key]"
p3569
sI28
S"    #f1['vars']=dict(waveHeight=0.85,wavePeriod=8.00,waveBrk=0.78,waterDepth=4.1)"
p3570
sI29
S'    if f1.process(session=None, formname=None).accepts(request.vars,session):'
p3571
sI30
S"        session['formVars']=f1.vars"
p3572
sI31
S'        t0=AcesCall(f1.vars)'
p3573
ssg3508
S'()'
p3574
sg3510
S'index'
p3575
sa(dp3576
g3487
S'/home/u4hcsdaw/Python/web2py/gluon/sqlhtml.py'
p3577
sg3489
(dp3578
S'self.record'
p3579
S"<Row {'wavePeriod': 3.0, 'update_record': <funct...lete_record': <function <lambda> at 0xac81b844>}>"
p3580
sS'fields'
p3581
S"{'id': 10, 'waterDepth': 8.0, 'waveBreakRatio': 0.78, 'waveHeight': 0.85, 'wavePeriod': 3.0}"
p3582
sS'self'
p3583
S'<gluon.sqlhtml.SQLFORM object>'
p3584
sS'self.table._db'
p3585
S"<DAL {'auth_event': <Table {'origin': <gluon.dal... 'id': <gluon.dal.Field object at 0xadcc814c>}>}>"
p3586
sS').update'
p3587
g3532
sS'self.table._id'
p3588
S'<gluon.dal.Field object>'
p3589
sS'self.table'
p3590
S"<Table {'wavePeriod': <gluon.dal.Field object at...>, 'id': <gluon.dal.Field object at 0xadcb71ec>}>"
p3591
sS'self.record.id'
p3592
S'8'
ssg3495
I1257
sg3496
(dp3593
I1252
S'                        ret = False'
p3594
sI1253
S'            else:'
p3595
sI1254
S'                if record_id:'
p3596
sI1255
S'                    self.vars.id = self.record.id'
p3597
sI1256
S'                    if fields:'
p3598
sI1257
S'                        self.table._db(self.table._id == self.record.id).update(**fields)'
p3599
sI1258
S'                else:'
p3600
sI1259
S'                    self.vars.id = self.table.insert(**fields)'
p3601
sI1260
S'        self.accepted = ret'
p3602
sI1261
S'        return ret'
p3603
ssg3508
S"(self=<gluon.sqlhtml.SQLFORM object>, request_vars=<Storage {'wavePeriod': '3.0', 'waveHeight': '0....-834a4f062113', '_formname': 'linearWaveForm/8'}>, session=<Storage {'WaveHeight': 0.85, '_formkey[linearWa...orm/7]': '345d6274-6436-4e2a-b398-ee926483febe'}>, formname='linearWaveForm/8', keepvalues=True, onvalidation=None, dbio=True, hideerror=False, detect_record_change=False)"
p3604
sg3510
S'accepts'
p3605
sa(dp3606
g3487
S'/home/u4hcsdaw/Python/web2py/gluon/dal.py'
p3607
sg3489
(dp3608
S'self.query'
p3609
S'<gluon.dal.Query object>'
p3610
sS'fields'
p3611
S'[(<gluon.dal.Field object>, 0.85), (<gluon.dal.Field object>, 3.0), (<gluon.dal.Field object>, 0.78), (<gluon.dal.Field object>, 8.0), (<gluon.dal.Field object>, 10)]'
p3612
sS'self'
p3613
S'<gluon.dal.Set object>'
p3614
sS'tablename'
p3615
S"'linearWaveForm'"
p3616
sS'self.db._adapter.update'
p3617
S'<bound method SQLiteAdapter.update of <gluon.dal.SQLiteAdapter object>>'
p3618
sS'self.db._adapter'
p3619
S'<gluon.dal.SQLiteAdapter object>'
p3620
sS'self.db'
p3621
S"<DAL {'auth_event': <Table {'origin': <gluon.dal... 'id': <gluon.dal.Field object at 0xadcc814c>}>}>"
p3622
ssg3495
I5779
sg3496
(dp3623
I5774
S'        tablename = self.db._adapter.get_table(self.query)'
p3624
sI5775
S'        fields = self.db[tablename]._listify(update_fields,update=True)'
p3625
sI5776
S'        if not fields:'
p3626
sI5777
S'            raise SyntaxError, "No fields to update"'
p3627
sI5778
S'        self.delete_uploaded_files(update_fields)'
p3628
sI5779
S'        return self.db._adapter.update(tablename,self.query,fields)'
p3629
sI5780
S''
sI5781
S'    def validate_and_update(self, **update_fields):'
p3630
sI5782
S'        tablename = self.db._adapter.get_table(self.query)'
p3631
sI5783
S'        response = Row()'
p3632
ssg3508
S"(self=<gluon.dal.Set object>, **update_fields={'id': 10, 'waterDepth': 8.0, 'waveBreakRatio': 0.78, 'waveHeight': 0.85, 'wavePeriod': 3.0})"
p3633
sg3510
S'update'
p3634
sa(dp3635
g3487
S'/home/u4hcsdaw/Python/web2py/gluon/dal.py'
p3636
sg3489
(dp3637
S'self'
p3638
S'<gluon.dal.SQLiteAdapter object>'
p3639
sS'self.execute'
p3640
S'<bound method SQLiteAdapter.execute of <gluon.dal.SQLiteAdapter object>>'
p3641
sS'sql'
p3642
S"'UPDATE linearWaveForm SET waveHeight=0.85,wavePe...terDepth=8.0,id=10 WHERE (linearWaveForm.id = 8);'"
p3643
ssg3495
I1055
sg3496
(dp3644
I1056
S'        try:'
p3645
sI1057
S'            return self.cursor.rowcount'
p3646
sI1058
S'        except:'
p3647
sI1059
S'            return None'
p3648
sI1050
S"        sql_v = ','.join(['%s=%s' % (field.name, self.expand(value,field.type)) for (field,value) in fields])"
p3649
sI1051
S"        return 'UPDATE %s SET %s%s;' % (tablename, sql_v, sql_w)"
p3650
sI1052
S''
sI1053
S'    def update(self,tablename,query,fields):'
p3651
sI1054
S'        sql = self._update(tablename,query,fields)'
p3652
sI1055
S'        self.execute(sql)'
p3653
ssg3508
S"(self=<gluon.dal.SQLiteAdapter object>, tablename='linearWaveForm', query=<gluon.dal.Query object>, fields=[(<gluon.dal.Field object>, 0.85), (<gluon.dal.Field object>, 3.0), (<gluon.dal.Field object>, 0.78), (<gluon.dal.Field object>, 8.0), (<gluon.dal.Field object>, 10)])"
p3654
sg3510
g3634
sa(dp3655
g3487
S'/home/u4hcsdaw/Python/web2py/gluon/dal.py'
p3656
sg3489
(dp3657
S'a'
S"('UPDATE linearWaveForm SET waveHeight=0.85,wavePe...terDepth=8.0,id=10 WHERE (linearWaveForm.id = 8);',)"
p3658
sS'self'
p3659
S'<gluon.dal.SQLiteAdapter object>'
p3660
sS'b'
g20
sS'self.log_execute'
p3661
S'<bound method SQLiteAdapter.log_execute of <gluon.dal.SQLiteAdapter object>>'
p3662
ssg3495
I1309
sg3496
(dp3663
I1312
S'        if isinstance(obj,CALLABLETYPES):'
p3664
sI1313
S'            obj = obj()'
p3665
sI1304
S'        ret = self.cursor.execute(*a,**b)'
p3666
sI1305
S'        self.db._timings.append((a[0],time.time()-t0))'
p3667
sI1306
S'        return ret'
p3668
sI1307
S''
sI1308
S'    def execute(self,*a,**b):'
p3669
sI1309
S'        return self.log_execute(*a, **b)'
p3670
sI1310
S''
sI1311
S'    def represent(self, obj, fieldtype):'
p3671
ssg3508
S"(self=<gluon.dal.SQLiteAdapter object>, *a=('UPDATE linearWaveForm SET waveHeight=0.85,wavePe...terDepth=8.0,id=10 WHERE (linearWaveForm.id = 8);',), **b={})"
p3672
sg3510
S'execute'
p3673
sa(dp3674
g3487
S'/home/u4hcsdaw/Python/web2py/gluon/dal.py'
p3675
sg3489
(dp3676
S'a'
S"('UPDATE linearWaveForm SET waveHeight=0.85,wavePe...terDepth=8.0,id=10 WHERE (linearWaveForm.id = 8);',)"
p3677
sS'b'
g20
sS'self'
p3678
S'<gluon.dal.SQLiteAdapter object>'
p3679
sS'ret'
p3680
g3532
sS'self.cursor'
p3681
S'<sqlite3.Cursor object>'
p3682
sS'self.cursor.execute'
p3683
S'<built-in method execute of sqlite3.Cursor object>'
p3684
ssg3495
I1304
sg3496
(dp3685
I1299
S'        self.execute(query)'
p3686
sI1300
S''
sI1301
S'    def log_execute(self,*a,**b):'
p3687
sI1302
S'        self.db._lastsql = a[0]'
p3688
sI1303
S'        t0 = time.time()'
p3689
sI1304
S'        ret = self.cursor.execute(*a,**b)'
p3690
sI1305
S'        self.db._timings.append((a[0],time.time()-t0))'
p3691
sI1306
S'        return ret'
p3692
sI1307
S''
sI1308
S'    def execute(self,*a,**b):'
p3693
ssg3508
S"(self=<gluon.dal.SQLiteAdapter object>, *a=('UPDATE linearWaveForm SET waveHeight=0.85,wavePe...terDepth=8.0,id=10 WHERE (linearWaveForm.id = 8);',), **b={})"
p3694
sg3510
S'log_execute'
p3695
sasS'pyver'
p3696
S'Python 2.7.3: /usr/bin/python2.7'
p3697
sS'session'
p3698
g60
(g61
g62
NtRp3699
(dp3700
g65
(dp3701
sg67
(lp3702
g60
(g69
g62
NtRp3703
(dp3704
g65
(dp3705
g73
I5
ssg74
Nsg67
(lp3706
g60
(g76
g62
NtRp3707
(dp3708
g65
(dp3709
sg74
g3703
sg67
(lp3710
g60
(g81
g62
NtRp3711
(dp3712
g65
(dp3713
g85
g86
ssg74
g3707
sg67
(lp3714
S'WaveHeight'
p3715
asbag60
(g81
g62
NtRp3716
(dp3717
g65
(dp3718
g92
g93
ssg74
g3707
sg67
(lp3719
S':'
asbag60
(g81
g62
NtRp3720
(dp3721
g65
(dp3722
sg74
g3707
sg67
(lp3723
g60
(g61
g62
NtRp3724
(dp3725
g65
(dp3726
g73
I5
ssg74
g3720
sg67
(lp3727
S'0.85'
p3728
asbasbasbag60
(g76
g62
NtRp3729
(dp3730
g65
(dp3731
sg74
g3703
sg67
(lp3732
g60
(g81
g62
NtRp3733
(dp3734
g65
(dp3735
g85
g86
ssg74
g3729
sg67
(lp3736
S'formVars'
p3737
asbag60
(g81
g62
NtRp3738
(dp3739
g65
(dp3740
g92
g93
ssg74
g3729
sg67
(lp3741
S':'
asbag60
(g81
g62
NtRp3742
(dp3743
g65
(dp3744
sg74
g3729
sg67
(lp3745
g60
(g61
g62
NtRp3746
(dp3747
g65
(dp3748
g73
I5
ssg74
g3742
sg67
(lp3749
g60
(g69
g62
NtRp3750
(dp3751
g65
(dp3752
g73
I4
ssg74
Nsg67
(lp3753
g60
(g76
g62
NtRp3754
(dp3755
g65
(dp3756
sg74
g3750
sg67
(lp3757
g60
(g81
g62
NtRp3758
(dp3759
g65
(dp3760
g85
g86
ssg74
g3754
sg67
(lp3761
S'id'
p3762
asbag60
(g81
g62
NtRp3763
(dp3764
g65
(dp3765
g92
g93
ssg74
g3754
sg67
(lp3766
S':'
asbag60
(g81
g62
NtRp3767
(dp3768
g65
(dp3769
sg74
g3754
sg67
(lp3770
g60
(g61
g62
NtRp3771
(dp3772
g65
(dp3773
g73
I4
ssg74
g3767
sg67
(lp3774
S'10'
p3775
asbasbasbag60
(g76
g62
NtRp3776
(dp3777
g65
(dp3778
sg74
g3750
sg67
(lp3779
g60
(g81
g62
NtRp3780
(dp3781
g65
(dp3782
g85
g86
ssg74
g3776
sg67
(lp3783
S'waterDepth'
p3784
asbag60
(g81
g62
NtRp3785
(dp3786
g65
(dp3787
g92
g93
ssg74
g3776
sg67
(lp3788
S':'
asbag60
(g81
g62
NtRp3789
(dp3790
g65
(dp3791
sg74
g3776
sg67
(lp3792
g60
(g61
g62
NtRp3793
(dp3794
g65
(dp3795
g73
I4
ssg74
g3789
sg67
(lp3796
S'7.0'
p3797
asbasbasbag60
(g76
g62
NtRp3798
(dp3799
g65
(dp3800
sg74
g3750
sg67
(lp3801
g60
(g81
g62
NtRp3802
(dp3803
g65
(dp3804
g85
g86
ssg74
g3798
sg67
(lp3805
S'waveBreakRatio'
p3806
asbag60
(g81
g62
NtRp3807
(dp3808
g65
(dp3809
g92
g93
ssg74
g3798
sg67
(lp3810
S':'
asbag60
(g81
g62
NtRp3811
(dp3812
g65
(dp3813
sg74
g3798
sg67
(lp3814
g60
(g61
g62
NtRp3815
(dp3816
g65
(dp3817
g73
I4
ssg74
g3811
sg67
(lp3818
S'0.78'
p3819
asbasbasbag60
(g76
g62
NtRp3820
(dp3821
g65
(dp3822
sg74
g3750
sg67
(lp3823
g60
(g81
g62
NtRp3824
(dp3825
g65
(dp3826
g85
g86
ssg74
g3820
sg67
(lp3827
S'waveHeight'
p3828
asbag60
(g81
g62
NtRp3829
(dp3830
g65
(dp3831
g92
g93
ssg74
g3820
sg67
(lp3832
S':'
asbag60
(g81
g62
NtRp3833
(dp3834
g65
(dp3835
sg74
g3820
sg67
(lp3836
g60
(g61
g62
NtRp3837
(dp3838
g65
(dp3839
g73
I4
ssg74
g3833
sg67
(lp3840
S'0.85'
p3841
asbasbasbag60
(g76
g62
NtRp3842
(dp3843
g65
(dp3844
sg74
g3750
sg67
(lp3845
g60
(g81
g62
NtRp3846
(dp3847
g65
(dp3848
g85
g86
ssg74
g3842
sg67
(lp3849
S'wavePeriod'
p3850
asbag60
(g81
g62
NtRp3851
(dp3852
g65
(dp3853
g92
g93
ssg74
g3842
sg67
(lp3854
S':'
asbag60
(g81
g62
NtRp3855
(dp3856
g65
(dp3857
sg74
g3842
sg67
(lp3858
g60
(g61
g62
NtRp3859
(dp3860
g65
(dp3861
g73
I4
ssg74
g3855
sg67
(lp3862
S'3.0'
p3863
asbasbasbasbasbasbasbasbasbsS'etype'
p3864
S"<class 'sqlite3.IntegrityError'>"
p3865
sS'date'
p3866
S'Mon Sep 10 19:17:56 2012'
p3867
sS'response'
p3868
g60
(g61
g62
NtRp3869
(dp3870
g65
(dp3871
sg67
(lp3872
g60
(g69
g62
NtRp3873
(dp3874
g65
(dp3875
g73
I5
ssg74
Nsg67
(lp3876
g60
(g76
g62
NtRp3877
(dp3878
g65
(dp3879
sg74
g3873
sg67
(lp3880
g60
(g81
g62
NtRp3881
(dp3882
g65
(dp3883
g85
g86
ssg74
g3877
sg67
(lp3884
g158
asbag60
(g81
g62
NtRp3885
(dp3886
g65
(dp3887
g92
g93
ssg74
g3877
sg67
(lp3888
S':'
asbag60
(g81
g62
NtRp3889
(dp3890
g65
(dp3891
sg74
g3877
sg67
(lp3892
g60
(g61
g62
NtRp3893
(dp3894
g65
(dp3895
g73
I5
ssg74
g3889
sg67
(lp3896
S'<cStringIO.StringO object at 0xad0c31c0>'
p3897
asbasbasbag60
(g76
g62
NtRp3898
(dp3899
g65
(dp3900
sg74
g3873
sg67
(lp3901
g60
(g81
g62
NtRp3902
(dp3903
g65
(dp3904
g85
g86
ssg74
g3898
sg67
(lp3905
g224
asbag60
(g81
g62
NtRp3906
(dp3907
g65
(dp3908
g92
g93
ssg74
g3898
sg67
(lp3909
S':'
asbag60
(g81
g62
NtRp3910
(dp3911
g65
(dp3912
sg74
g3898
sg67
(lp3913
g60
(g61
g62
NtRp3914
(dp3915
g65
(dp3916
g73
I5
ssg74
g3910
sg67
(lp3917
g60
(g69
g62
NtRp3918
(dp3919
g65
(dp3920
g73
I4
ssg74
Nsg67
(lp3921
g60
(g76
g62
NtRp3922
(dp3923
g65
(dp3924
sg74
g3918
sg67
(lp3925
g60
(g81
g62
NtRp3926
(dp3927
g65
(dp3928
g85
g86
ssg74
g3922
sg67
(lp3929
S'session_id_aces'
p3930
asbag60
(g81
g62
NtRp3931
(dp3932
g65
(dp3933
g92
g93
ssg74
g3922
sg67
(lp3934
S':'
asbag60
(g81
g62
NtRp3935
(dp3936
g65
(dp3937
sg74
g3922
sg67
(lp3938
g60
(g61
g62
NtRp3939
(dp3940
g65
(dp3941
g73
I4
ssg74
g3935
sg67
(lp3942
g60
(g69
g62
NtRp3943
(dp3944
g65
(dp3945
g73
I3
ssg74
Nsg67
(lp3946
g60
(g76
g62
NtRp3947
(dp3948
g65
(dp3949
sg74
g3943
sg67
(lp3950
g60
(g81
g62
NtRp3951
(dp3952
g65
(dp3953
g85
g86
ssg74
g3947
sg67
(lp3954
g274
asbag60
(g81
g62
NtRp3955
(dp3956
g65
(dp3957
g92
g93
ssg74
g3947
sg67
(lp3958
S':'
asbag60
(g81
g62
NtRp3959
(dp3960
g65
(dp3961
sg74
g3947
sg67
(lp3962
g60
(g61
g62
NtRp3963
(dp3964
g65
(dp3965
g73
I3
ssg74
g3959
sg67
(lp3966
S''
asbasbasbag60
(g76
g62
NtRp3967
(dp3968
g65
(dp3969
sg74
g3943
sg67
(lp3970
g60
(g81
g62
NtRp3971
(dp3972
g65
(dp3973
g85
g86
ssg74
g3967
sg67
(lp3974
g295
asbag60
(g81
g62
NtRp3975
(dp3976
g65
(dp3977
g92
g93
ssg74
g3967
sg67
(lp3978
S':'
asbag60
(g81
g62
NtRp3979
(dp3980
g65
(dp3981
sg74
g3967
sg67
(lp3982
g60
(g61
g62
NtRp3983
(dp3984
g65
(dp3985
g73
I3
ssg74
g3979
sg67
(lp3986
S''
asbasbasbag60
(g76
g62
NtRp3987
(dp3988
g65
(dp3989
sg74
g3943
sg67
(lp3990
g60
(g81
g62
NtRp3991
(dp3992
g65
(dp3993
g85
g86
ssg74
g3987
sg67
(lp3994
g316
asbag60
(g81
g62
NtRp3995
(dp3996
g65
(dp3997
g92
g93
ssg74
g3987
sg67
(lp3998
S':'
asbag60
(g81
g62
NtRp3999
(dp4000
g65
(dp4001
sg74
g3987
sg67
(lp4002
g60
(g61
g62
NtRp4003
(dp4004
g65
(dp4005
g73
I3
ssg74
g3999
sg67
(lp4006
S''
asbasbasbag60
(g76
g62
NtRp4007
(dp4008
g65
(dp4009
sg74
g3943
sg67
(lp4010
g60
(g81
g62
NtRp4011
(dp4012
g65
(dp4013
g85
g86
ssg74
g4007
sg67
(lp4014
g337
asbag60
(g81
g62
NtRp4015
(dp4016
g65
(dp4017
g92
g93
ssg74
g4007
sg67
(lp4018
S':'
asbag60
(g81
g62
NtRp4019
(dp4020
g65
(dp4021
sg74
g4007
sg67
(lp4022
g60
(g61
g62
NtRp4023
(dp4024
g65
(dp4025
g73
I3
ssg74
g4019
sg67
(lp4026
S''
asbasbasbag60
(g76
g62
NtRp4027
(dp4028
g65
(dp4029
sg74
g3943
sg67
(lp4030
g60
(g81
g62
NtRp4031
(dp4032
g65
(dp4033
g85
g86
ssg74
g4027
sg67
(lp4034
g358
asbag60
(g81
g62
NtRp4035
(dp4036
g65
(dp4037
g92
g93
ssg74
g4027
sg67
(lp4038
S':'
asbag60
(g81
g62
NtRp4039
(dp4040
g65
(dp4041
sg74
g4027
sg67
(lp4042
g60
(g61
g62
NtRp4043
(dp4044
g65
(dp4045
g73
I3
ssg74
g4039
sg67
(lp4046
S''
asbasbasbag60
(g76
g62
NtRp4047
(dp4048
g65
(dp4049
sg74
g3943
sg67
(lp4050
g60
(g81
g62
NtRp4051
(dp4052
g65
(dp4053
g85
g86
ssg74
g4047
sg67
(lp4054
g379
asbag60
(g81
g62
NtRp4055
(dp4056
g65
(dp4057
g92
g93
ssg74
g4047
sg67
(lp4058
S':'
asbag60
(g81
g62
NtRp4059
(dp4060
g65
(dp4061
sg74
g4047
sg67
(lp4062
g60
(g61
g62
NtRp4063
(dp4064
g65
(dp4065
g73
I3
ssg74
g4059
sg67
(lp4066
S'/'
asbasbasbag60
(g76
g62
NtRp4067
(dp4068
g65
(dp4069
sg74
g3943
sg67
(lp4070
g60
(g81
g62
NtRp4071
(dp4072
g65
(dp4073
g85
g86
ssg74
g4067
sg67
(lp4074
g400
asbag60
(g81
g62
NtRp4075
(dp4076
g65
(dp4077
g92
g93
ssg74
g4067
sg67
(lp4078
S':'
asbag60
(g81
g62
NtRp4079
(dp4080
g65
(dp4081
sg74
g4067
sg67
(lp4082
g60
(g61
g62
NtRp4083
(dp4084
g65
(dp4085
g73
I3
ssg74
g4079
sg67
(lp4086
S''
asbasbasbag60
(g76
g62
NtRp4087
(dp4088
g65
(dp4089
sg74
g3943
sg67
(lp4090
g60
(g81
g62
NtRp4091
(dp4092
g65
(dp4093
g85
g86
ssg74
g4087
sg67
(lp4094
g421
asbag60
(g81
g62
NtRp4095
(dp4096
g65
(dp4097
g92
g93
ssg74
g4087
sg67
(lp4098
S':'
asbag60
(g81
g62
NtRp4099
(dp4100
g65
(dp4101
sg74
g4087
sg67
(lp4102
g60
(g61
g62
NtRp4103
(dp4104
g65
(dp4105
g73
I3
ssg74
g4099
sg67
(lp4106
S''
asbasbasbasbasbasbasbasbasbasbasbag60
(g76
g62
NtRp4107
(dp4108
g65
(dp4109
sg74
g3873
sg67
(lp4110
g60
(g81
g62
NtRp4111
(dp4112
g65
(dp4113
g85
g86
ssg74
g4107
sg67
(lp4114
S'files'
p4115
asbag60
(g81
g62
NtRp4116
(dp4117
g65
(dp4118
g92
g93
ssg74
g4107
sg67
(lp4119
S':'
asbag60
(g81
g62
NtRp4120
(dp4121
g65
(dp4122
sg74
g4107
sg67
(lp4123
g60
(g61
g62
NtRp4124
(dp4125
g65
(dp4126
g73
I5
ssg74
g4120
sg67
(lp4127
g60
(g69
g62
NtRp4128
(dp4129
g65
(dp4130
g73
I4
ssg74
Nsg67
(lp4131
sbasbasbasbag60
(g76
g62
NtRp4132
(dp4133
g65
(dp4134
sg74
g3873
sg67
(lp4135
g60
(g81
g62
NtRp4136
(dp4137
g65
(dp4138
g85
g86
ssg74
g4132
sg67
(lp4139
S'flash'
p4140
asbag60
(g81
g62
NtRp4141
(dp4142
g65
(dp4143
g92
g93
ssg74
g4132
sg67
(lp4144
S':'
asbag60
(g81
g62
NtRp4145
(dp4146
g65
(dp4147
sg74
g4132
sg67
(lp4148
g60
(g61
g62
NtRp4149
(dp4150
g65
(dp4151
g73
I5
ssg74
g4145
sg67
(lp4152
S''
asbasbasbag60
(g76
g62
NtRp4153
(dp4154
g65
(dp4155
sg74
g3873
sg67
(lp4156
g60
(g81
g62
NtRp4157
(dp4158
g65
(dp4159
g85
g86
ssg74
g4153
sg67
(lp4160
S'generic_patterns'
p4161
asbag60
(g81
g62
NtRp4162
(dp4163
g65
(dp4164
g92
g93
ssg74
g4153
sg67
(lp4165
S':'
asbag60
(g81
g62
NtRp4166
(dp4167
g65
(dp4168
sg74
g4153
sg67
(lp4169
g60
(g61
g62
NtRp4170
(dp4171
g65
(dp4172
g73
I5
ssg74
g4166
sg67
(lp4173
g60
(g69
g62
NtRp4174
(dp4175
g65
(dp4176
g73
I4
ssg74
Nsg67
(lp4177
g60
(g76
g62
NtRp4178
(dp4179
g65
(dp4180
sg74
g4174
sg67
(lp4181
g60
(g81
g62
NtRp4182
(dp4183
g65
(dp4184
sg74
g4178
sg67
(lp4185
g60
(g61
g62
NtRp4186
(dp4187
g65
(dp4188
g73
I4
ssg74
g4182
sg67
(lp4189
S'*'
asbasbasbasbasbasbasbag60
(g76
g62
NtRp4190
(dp4191
g65
(dp4192
sg74
g3873
sg67
(lp4193
g60
(g81
g62
NtRp4194
(dp4195
g65
(dp4196
g85
g86
ssg74
g4190
sg67
(lp4197
S'headers'
p4198
asbag60
(g81
g62
NtRp4199
(dp4200
g65
(dp4201
g92
g93
ssg74
g4190
sg67
(lp4202
S':'
asbag60
(g81
g62
NtRp4203
(dp4204
g65
(dp4205
sg74
g4190
sg67
(lp4206
g60
(g61
g62
NtRp4207
(dp4208
g65
(dp4209
g73
I5
ssg74
g4203
sg67
(lp4210
g60
(g69
g62
NtRp4211
(dp4212
g65
(dp4213
g73
I4
ssg74
Nsg67
(lp4214
g60
(g76
g62
NtRp4215
(dp4216
g65
(dp4217
sg74
g4211
sg67
(lp4218
g60
(g81
g62
NtRp4219
(dp4220
g65
(dp4221
g85
g86
ssg74
g4215
sg67
(lp4222
S'Cache-Control'
p4223
asbag60
(g81
g62
NtRp4224
(dp4225
g65
(dp4226
g92
g93
ssg74
g4215
sg67
(lp4227
S':'
asbag60
(g81
g62
NtRp4228
(dp4229
g65
(dp4230
sg74
g4215
sg67
(lp4231
g60
(g61
g62
NtRp4232
(dp4233
g65
(dp4234
g73
I4
ssg74
g4228
sg67
(lp4235
S'no-store, no-cache, must-revalidate, post-check=0, pre-check=0'
p4236
asbasbasbag60
(g76
g62
NtRp4237
(dp4238
g65
(dp4239
sg74
g4211
sg67
(lp4240
g60
(g81
g62
NtRp4241
(dp4242
g65
(dp4243
g85
g86
ssg74
g4237
sg67
(lp4244
S'Content-Type'
p4245
asbag60
(g81
g62
NtRp4246
(dp4247
g65
(dp4248
g92
g93
ssg74
g4237
sg67
(lp4249
S':'
asbag60
(g81
g62
NtRp4250
(dp4251
g65
(dp4252
sg74
g4237
sg67
(lp4253
g60
(g61
g62
NtRp4254
(dp4255
g65
(dp4256
g73
I4
ssg74
g4250
sg67
(lp4257
S'text/html; charset=utf-8'
p4258
asbasbasbag60
(g76
g62
NtRp4259
(dp4260
g65
(dp4261
sg74
g4211
sg67
(lp4262
g60
(g81
g62
NtRp4263
(dp4264
g65
(dp4265
g85
g86
ssg74
g4259
sg67
(lp4266
S'Expires'
p4267
asbag60
(g81
g62
NtRp4268
(dp4269
g65
(dp4270
g92
g93
ssg74
g4259
sg67
(lp4271
S':'
asbag60
(g81
g62
NtRp4272
(dp4273
g65
(dp4274
sg74
g4259
sg67
(lp4275
g60
(g61
g62
NtRp4276
(dp4277
g65
(dp4278
g73
I4
ssg74
g4272
sg67
(lp4279
S'Tue, 11 Sep 2012 00:17:56 GMT'
p4280
asbasbasbag60
(g76
g62
NtRp4281
(dp4282
g65
(dp4283
sg74
g4211
sg67
(lp4284
g60
(g81
g62
NtRp4285
(dp4286
g65
(dp4287
g85
g86
ssg74
g4281
sg67
(lp4288
S'Pragma'
p4289
asbag60
(g81
g62
NtRp4290
(dp4291
g65
(dp4292
g92
g93
ssg74
g4281
sg67
(lp4293
S':'
asbag60
(g81
g62
NtRp4294
(dp4295
g65
(dp4296
sg74
g4281
sg67
(lp4297
g60
(g61
g62
NtRp4298
(dp4299
g65
(dp4300
g73
I4
ssg74
g4294
sg67
(lp4301
S'no-cache'
p4302
asbasbasbag60
(g76
g62
NtRp4303
(dp4304
g65
(dp4305
sg74
g4211
sg67
(lp4306
g60
(g81
g62
NtRp4307
(dp4308
g65
(dp4309
g85
g86
ssg74
g4303
sg67
(lp4310
S'X-Powered-By'
p4311
asbag60
(g81
g62
NtRp4312
(dp4313
g65
(dp4314
g92
g93
ssg74
g4303
sg67
(lp4315
S':'
asbag60
(g81
g62
NtRp4316
(dp4317
g65
(dp4318
sg74
g4303
sg67
(lp4319
g60
(g61
g62
NtRp4320
(dp4321
g65
(dp4322
g73
I4
ssg74
g4316
sg67
(lp4323
S'web2py'
p4324
asbasbasbasbasbasbasbag60
(g76
g62
NtRp4325
(dp4326
g65
(dp4327
sg74
g3873
sg67
(lp4328
g60
(g81
g62
NtRp4329
(dp4330
g65
(dp4331
g85
g86
ssg74
g4325
sg67
(lp4332
S'menu'
p4333
asbag60
(g81
g62
NtRp4334
(dp4335
g65
(dp4336
g92
g93
ssg74
g4325
sg67
(lp4337
S':'
asbag60
(g81
g62
NtRp4338
(dp4339
g65
(dp4340
sg74
g4325
sg67
(lp4341
g60
(g61
g62
NtRp4342
(dp4343
g65
(dp4344
g73
I5
ssg74
g4338
sg67
(lp4345
g60
(g69
g62
NtRp4346
(dp4347
g65
(dp4348
g73
I4
ssg74
Nsg67
(lp4349
g60
(g76
g62
NtRp4350
(dp4351
g65
(dp4352
sg74
g4346
sg67
(lp4353
g60
(g81
g62
NtRp4354
(dp4355
g65
(dp4356
sg74
g4350
sg67
(lp4357
g60
(g61
g62
NtRp4358
(dp4359
g65
(dp4360
g73
I4
ssg74
g4354
sg67
(lp4361
g60
(g69
g62
NtRp4362
(dp4363
g65
(dp4364
g73
I3
ssg74
Nsg67
(lp4365
g60
(g76
g62
NtRp4366
(dp4367
g65
(dp4368
sg74
g4362
sg67
(lp4369
g60
(g81
g62
NtRp4370
(dp4371
g65
(dp4372
sg74
g4366
sg67
(lp4373
g60
(g61
g62
NtRp4374
(dp4375
g65
(dp4376
g73
I3
ssg74
g4370
sg67
(lp4377
cgluon.languages
lazyT_unpickle
p4378
(S't\x04\x00\x00\x00Home'
tRp4379
asbasbasbag60
(g76
g62
NtRp4380
(dp4381
g65
(dp4382
sg74
g4362
sg67
(lp4383
g60
(g81
g62
NtRp4384
(dp4385
g65
(dp4386
sg74
g4380
sg67
(lp4387
g60
(g61
g62
NtRp4388
(dp4389
g65
(dp4390
g73
I3
ssg74
g4384
sg67
(lp4391
g103
asbasbasbag60
(g76
g62
NtRp4392
(dp4393
g65
(dp4394
sg74
g4362
sg67
(lp4395
g60
(g81
g62
NtRp4396
(dp4397
g65
(dp4398
sg74
g4392
sg67
(lp4399
g60
(g61
g62
NtRp4400
(dp4401
g65
(dp4402
g73
I3
ssg74
g4396
sg67
(lp4403
S'/ACES/default/index'
p4404
asbasbasbag60
(g76
g62
NtRp4405
(dp4406
g65
(dp4407
sg74
g4362
sg67
(lp4408
g60
(g81
g62
NtRp4409
(dp4410
g65
(dp4411
sg74
g4405
sg67
(lp4412
g60
(g61
g62
NtRp4413
(dp4414
g65
(dp4415
g73
I3
ssg74
g4409
sg67
(lp4416
g60
(g69
g62
NtRp4417
(dp4418
g65
(dp4419
g73
I2
ssg74
Nsg67
(lp4420
sbasbasbasbasbasbasbasbag60
(g76
g62
NtRp4421
(dp4422
g65
(dp4423
sg74
g4346
sg67
(lp4424
g60
(g81
g62
NtRp4425
(dp4426
g65
(dp4427
sg74
g4421
sg67
(lp4428
g60
(g61
g62
NtRp4429
(dp4430
g65
(dp4431
g73
I4
ssg74
g4425
sg67
(lp4432
g60
(g69
g62
NtRp4433
(dp4434
g65
(dp4435
g73
I3
ssg74
Nsg67
(lp4436
g60
(g76
g62
NtRp4437
(dp4438
g65
(dp4439
sg74
g4433
sg67
(lp4440
g60
(g81
g62
NtRp4441
(dp4442
g65
(dp4443
sg74
g4437
sg67
(lp4444
g60
(g61
g62
NtRp4445
(dp4446
g65
(dp4447
g73
I3
ssg74
g4441
sg67
(lp4448
g4378
(S's\x08\x00\x00\x00This App'
tRp4449
asbasbasbag60
(g76
g62
NtRp4450
(dp4451
g65
(dp4452
sg74
g4433
sg67
(lp4453
g60
(g81
g62
NtRp4454
(dp4455
g65
(dp4456
sg74
g4450
sg67
(lp4457
g60
(g61
g62
NtRp4458
(dp4459
g65
(dp4460
g73
I3
ssg74
g4454
sg67
(lp4461
g103
asbasbasbag60
(g76
g62
NtRp4462
(dp4463
g65
(dp4464
sg74
g4433
sg67
(lp4465
g60
(g81
g62
NtRp4466
(dp4467
g65
(dp4468
sg74
g4462
sg67
(lp4469
g60
(g61
g62
NtRp4470
(dp4471
g65
(dp4472
g73
I3
ssg74
g4466
sg67
(lp4473
S'/admin/default/design/ACES'
p4474
asbasbasbag60
(g76
g62
NtRp4475
(dp4476
g65
(dp4477
sg74
g4433
sg67
(lp4478
g60
(g81
g62
NtRp4479
(dp4480
g65
(dp4481
sg74
g4475
sg67
(lp4482
g60
(g61
g62
NtRp4483
(dp4484
g65
(dp4485
g73
I3
ssg74
g4479
sg67
(lp4486
g60
(g69
g62
NtRp4487
(dp4488
g65
(dp4489
g73
I2
ssg74
Nsg67
(lp4490
g60
(g76
g62
NtRp4491
(dp4492
g65
(dp4493
sg74
g4487
sg67
(lp4494
g60
(g81
g62
NtRp4495
(dp4496
g65
(dp4497
sg74
g4491
sg67
(lp4498
g60
(g61
g62
NtRp4499
(dp4500
g65
(dp4501
g73
I2
ssg74
g4495
sg67
(lp4502
g60
(g69
g62
NtRp4503
(dp4504
g65
(dp4505
g73
I1
ssg74
Nsg67
(lp4506
g60
(g76
g62
NtRp4507
(dp4508
g65
(dp4509
sg74
g4503
sg67
(lp4510
g60
(g81
g62
NtRp4511
(dp4512
g65
(dp4513
sg74
g4507
sg67
(lp4514
g60
(g61
g62
NtRp4515
(dp4516
g65
(dp4517
g73
I1
ssg74
g4511
sg67
(lp4518
g4378
(S't\n\x00\x00\x00Controller'
tRp4519
asbasbasbag60
(g76
g62
NtRp4520
(dp4521
g65
(dp4522
sg74
g4503
sg67
(lp4523
g60
(g81
g62
NtRp4524
(dp4525
g65
(dp4526
sg74
g4520
sg67
(lp4527
g60
(g61
g62
NtRp4528
(dp4529
g65
(dp4530
g73
I1
ssg74
g4524
sg67
(lp4531
I00
asbasbasbag60
(g76
g62
NtRp4532
(dp4533
g65
(dp4534
sg74
g4503
sg67
(lp4535
g60
(g81
g62
NtRp4536
(dp4537
g65
(dp4538
sg74
g4532
sg67
(lp4539
g60
(g61
g62
NtRp4540
(dp4541
g65
(dp4542
g73
I1
ssg74
g4536
sg67
(lp4543
S'/admin/default/edit/ACES/controllers/default.py'
p4544
asbasbasbasbasbasbasbag60
(g76
g62
NtRp4545
(dp4546
g65
(dp4547
sg74
g4487
sg67
(lp4548
g60
(g81
g62
NtRp4549
(dp4550
g65
(dp4551
sg74
g4545
sg67
(lp4552
g60
(g61
g62
NtRp4553
(dp4554
g65
(dp4555
g73
I2
ssg74
g4549
sg67
(lp4556
g60
(g69
g62
NtRp4557
(dp4558
g65
(dp4559
g73
I1
ssg74
Nsg67
(lp4560
g60
(g76
g62
NtRp4561
(dp4562
g65
(dp4563
sg74
g4557
sg67
(lp4564
g60
(g81
g62
NtRp4565
(dp4566
g65
(dp4567
sg74
g4561
sg67
(lp4568
g60
(g61
g62
NtRp4569
(dp4570
g65
(dp4571
g73
I1
ssg74
g4565
sg67
(lp4572
g4378
(S't\x04\x00\x00\x00View'
tRp4573
asbasbasbag60
(g76
g62
NtRp4574
(dp4575
g65
(dp4576
sg74
g4557
sg67
(lp4577
g60
(g81
g62
NtRp4578
(dp4579
g65
(dp4580
sg74
g4574
sg67
(lp4581
g60
(g61
g62
NtRp4582
(dp4583
g65
(dp4584
g73
I1
ssg74
g4578
sg67
(lp4585
I00
asbasbasbag60
(g76
g62
NtRp4586
(dp4587
g65
(dp4588
sg74
g4557
sg67
(lp4589
g60
(g81
g62
NtRp4590
(dp4591
g65
(dp4592
sg74
g4586
sg67
(lp4593
g60
(g61
g62
NtRp4594
(dp4595
g65
(dp4596
g73
I1
ssg74
g4590
sg67
(lp4597
S'/admin/default/edit/ACES/views/default/index.html'
p4598
asbasbasbasbasbasbasbag60
(g76
g62
NtRp4599
(dp4600
g65
(dp4601
sg74
g4487
sg67
(lp4602
g60
(g81
g62
NtRp4603
(dp4604
g65
(dp4605
sg74
g4599
sg67
(lp4606
g60
(g61
g62
NtRp4607
(dp4608
g65
(dp4609
g73
I2
ssg74
g4603
sg67
(lp4610
g60
(g69
g62
NtRp4611
(dp4612
g65
(dp4613
g73
I1
ssg74
Nsg67
(lp4614
g60
(g76
g62
NtRp4615
(dp4616
g65
(dp4617
sg74
g4611
sg67
(lp4618
g60
(g81
g62
NtRp4619
(dp4620
g65
(dp4621
sg74
g4615
sg67
(lp4622
g60
(g61
g62
NtRp4623
(dp4624
g65
(dp4625
g73
I1
ssg74
g4619
sg67
(lp4626
g4378
(S't\x06\x00\x00\x00Layout'
tRp4627
asbasbasbag60
(g76
g62
NtRp4628
(dp4629
g65
(dp4630
sg74
g4611
sg67
(lp4631
g60
(g81
g62
NtRp4632
(dp4633
g65
(dp4634
sg74
g4628
sg67
(lp4635
g60
(g61
g62
NtRp4636
(dp4637
g65
(dp4638
g73
I1
ssg74
g4632
sg67
(lp4639
I00
asbasbasbag60
(g76
g62
NtRp4640
(dp4641
g65
(dp4642
sg74
g4611
sg67
(lp4643
g60
(g81
g62
NtRp4644
(dp4645
g65
(dp4646
sg74
g4640
sg67
(lp4647
g60
(g61
g62
NtRp4648
(dp4649
g65
(dp4650
g73
I1
ssg74
g4644
sg67
(lp4651
S'/admin/default/edit/ACES/views/layout.html'
p4652
asbasbasbasbasbasbasbag60
(g76
g62
NtRp4653
(dp4654
g65
(dp4655
sg74
g4487
sg67
(lp4656
g60
(g81
g62
NtRp4657
(dp4658
g65
(dp4659
sg74
g4653
sg67
(lp4660
g60
(g61
g62
NtRp4661
(dp4662
g65
(dp4663
g73
I2
ssg74
g4657
sg67
(lp4664
g60
(g69
g62
NtRp4665
(dp4666
g65
(dp4667
g73
I1
ssg74
Nsg67
(lp4668
g60
(g76
g62
NtRp4669
(dp4670
g65
(dp4671
sg74
g4665
sg67
(lp4672
g60
(g81
g62
NtRp4673
(dp4674
g65
(dp4675
sg74
g4669
sg67
(lp4676
g60
(g61
g62
NtRp4677
(dp4678
g65
(dp4679
g73
I1
ssg74
g4673
sg67
(lp4680
g4378
(S't\n\x00\x00\x00Stylesheet'
tRp4681
asbasbasbag60
(g76
g62
NtRp4682
(dp4683
g65
(dp4684
sg74
g4665
sg67
(lp4685
g60
(g81
g62
NtRp4686
(dp4687
g65
(dp4688
sg74
g4682
sg67
(lp4689
g60
(g61
g62
NtRp4690
(dp4691
g65
(dp4692
g73
I1
ssg74
g4686
sg67
(lp4693
I00
asbasbasbag60
(g76
g62
NtRp4694
(dp4695
g65
(dp4696
sg74
g4665
sg67
(lp4697
g60
(g81
g62
NtRp4698
(dp4699
g65
(dp4700
sg74
g4694
sg67
(lp4701
g60
(g61
g62
NtRp4702
(dp4703
g65
(dp4704
g73
I1
ssg74
g4698
sg67
(lp4705
S'/admin/default/edit/ACES/static/base.css'
p4706
asbasbasbasbasbasbasbag60
(g76
g62
NtRp4707
(dp4708
g65
(dp4709
sg74
g4487
sg67
(lp4710
g60
(g81
g62
NtRp4711
(dp4712
g65
(dp4713
sg74
g4707
sg67
(lp4714
g60
(g61
g62
NtRp4715
(dp4716
g65
(dp4717
g73
I2
ssg74
g4711
sg67
(lp4718
g60
(g69
g62
NtRp4719
(dp4720
g65
(dp4721
g73
I1
ssg74
Nsg67
(lp4722
g60
(g76
g62
NtRp4723
(dp4724
g65
(dp4725
sg74
g4719
sg67
(lp4726
g60
(g81
g62
NtRp4727
(dp4728
g65
(dp4729
sg74
g4723
sg67
(lp4730
g60
(g61
g62
NtRp4731
(dp4732
g65
(dp4733
g73
I1
ssg74
g4727
sg67
(lp4734
g4378
(S's\x08\x00\x00\x00DB Model'
tRp4735
asbasbasbag60
(g76
g62
NtRp4736
(dp4737
g65
(dp4738
sg74
g4719
sg67
(lp4739
g60
(g81
g62
NtRp4740
(dp4741
g65
(dp4742
sg74
g4736
sg67
(lp4743
g60
(g61
g62
NtRp4744
(dp4745
g65
(dp4746
g73
I1
ssg74
g4740
sg67
(lp4747
I00
asbasbasbag60
(g76
g62
NtRp4748
(dp4749
g65
(dp4750
sg74
g4719
sg67
(lp4751
g60
(g81
g62
NtRp4752
(dp4753
g65
(dp4754
sg74
g4748
sg67
(lp4755
g60
(g61
g62
NtRp4756
(dp4757
g65
(dp4758
g73
I1
ssg74
g4752
sg67
(lp4759
S'/admin/default/edit/ACES/models/db.py'
p4760
asbasbasbasbasbasbasbag60
(g76
g62
NtRp4761
(dp4762
g65
(dp4763
sg74
g4487
sg67
(lp4764
g60
(g81
g62
NtRp4765
(dp4766
g65
(dp4767
sg74
g4761
sg67
(lp4768
g60
(g61
g62
NtRp4769
(dp4770
g65
(dp4771
g73
I2
ssg74
g4765
sg67
(lp4772
g60
(g69
g62
NtRp4773
(dp4774
g65
(dp4775
g73
I1
ssg74
Nsg67
(lp4776
g60
(g76
g62
NtRp4777
(dp4778
g65
(dp4779
sg74
g4773
sg67
(lp4780
g60
(g81
g62
NtRp4781
(dp4782
g65
(dp4783
sg74
g4777
sg67
(lp4784
g60
(g61
g62
NtRp4785
(dp4786
g65
(dp4787
g73
I1
ssg74
g4781
sg67
(lp4788
g4378
(S's\n\x00\x00\x00Menu Model'
tRp4789
asbasbasbag60
(g76
g62
NtRp4790
(dp4791
g65
(dp4792
sg74
g4773
sg67
(lp4793
g60
(g81
g62
NtRp4794
(dp4795
g65
(dp4796
sg74
g4790
sg67
(lp4797
g60
(g61
g62
NtRp4798
(dp4799
g65
(dp4800
g73
I1
ssg74
g4794
sg67
(lp4801
I00
asbasbasbag60
(g76
g62
NtRp4802
(dp4803
g65
(dp4804
sg74
g4773
sg67
(lp4805
g60
(g81
g62
NtRp4806
(dp4807
g65
(dp4808
sg74
g4802
sg67
(lp4809
g60
(g61
g62
NtRp4810
(dp4811
g65
(dp4812
g73
I1
ssg74
g4806
sg67
(lp4813
S'/admin/default/edit/ACES/models/menu.py'
p4814
asbasbasbasbasbasbasbag60
(g76
g62
NtRp4815
(dp4816
g65
(dp4817
sg74
g4487
sg67
(lp4818
g60
(g81
g62
NtRp4819
(dp4820
g65
(dp4821
sg74
g4815
sg67
(lp4822
g60
(g61
g62
NtRp4823
(dp4824
g65
(dp4825
g73
I2
ssg74
g4819
sg67
(lp4826
g60
(g69
g62
NtRp4827
(dp4828
g65
(dp4829
g73
I1
ssg74
Nsg67
(lp4830
g60
(g76
g62
NtRp4831
(dp4832
g65
(dp4833
sg74
g4827
sg67
(lp4834
g60
(g81
g62
NtRp4835
(dp4836
g65
(dp4837
sg74
g4831
sg67
(lp4838
g60
(g61
g62
NtRp4839
(dp4840
g65
(dp4841
g73
I1
ssg74
g4835
sg67
(lp4842
g4378
(S't\x08\x00\x00\x00Database'
tRp4843
asbasbasbag60
(g76
g62
NtRp4844
(dp4845
g65
(dp4846
sg74
g4827
sg67
(lp4847
g60
(g81
g62
NtRp4848
(dp4849
g65
(dp4850
sg74
g4844
sg67
(lp4851
g60
(g61
g62
NtRp4852
(dp4853
g65
(dp4854
g73
I1
ssg74
g4848
sg67
(lp4855
I00
asbasbasbag60
(g76
g62
NtRp4856
(dp4857
g65
(dp4858
sg74
g4827
sg67
(lp4859
g60
(g81
g62
NtRp4860
(dp4861
g65
(dp4862
sg74
g4856
sg67
(lp4863
g60
(g61
g62
NtRp4864
(dp4865
g65
(dp4866
g73
I1
ssg74
g4860
sg67
(lp4867
S'/ACES/appadmin/index'
p4868
asbasbasbasbasbasbasbag60
(g76
g62
NtRp4869
(dp4870
g65
(dp4871
sg74
g4487
sg67
(lp4872
g60
(g81
g62
NtRp4873
(dp4874
g65
(dp4875
sg74
g4869
sg67
(lp4876
g60
(g61
g62
NtRp4877
(dp4878
g65
(dp4879
g73
I2
ssg74
g4873
sg67
(lp4880
g60
(g69
g62
NtRp4881
(dp4882
g65
(dp4883
g73
I1
ssg74
Nsg67
(lp4884
g60
(g76
g62
NtRp4885
(dp4886
g65
(dp4887
sg74
g4881
sg67
(lp4888
g60
(g81
g62
NtRp4889
(dp4890
g65
(dp4891
sg74
g4885
sg67
(lp4892
g60
(g61
g62
NtRp4893
(dp4894
g65
(dp4895
g73
I1
ssg74
g4889
sg67
(lp4896
g4378
(S't\x06\x00\x00\x00Errors'
tRp4897
asbasbasbag60
(g76
g62
NtRp4898
(dp4899
g65
(dp4900
sg74
g4881
sg67
(lp4901
g60
(g81
g62
NtRp4902
(dp4903
g65
(dp4904
sg74
g4898
sg67
(lp4905
g60
(g61
g62
NtRp4906
(dp4907
g65
(dp4908
g73
I1
ssg74
g4902
sg67
(lp4909
I00
asbasbasbag60
(g76
g62
NtRp4910
(dp4911
g65
(dp4912
sg74
g4881
sg67
(lp4913
g60
(g81
g62
NtRp4914
(dp4915
g65
(dp4916
sg74
g4910
sg67
(lp4917
g60
(g61
g62
NtRp4918
(dp4919
g65
(dp4920
g73
I1
ssg74
g4914
sg67
(lp4921
S'/admin/default/errors/ACES'
p4922
asbasbasbasbasbasbasbag60
(g76
g62
NtRp4923
(dp4924
g65
(dp4925
sg74
g4487
sg67
(lp4926
g60
(g81
g62
NtRp4927
(dp4928
g65
(dp4929
sg74
g4923
sg67
(lp4930
g60
(g61
g62
NtRp4931
(dp4932
g65
(dp4933
g73
I2
ssg74
g4927
sg67
(lp4934
g60
(g69
g62
NtRp4935
(dp4936
g65
(dp4937
g73
I1
ssg74
Nsg67
(lp4938
g60
(g76
g62
NtRp4939
(dp4940
g65
(dp4941
sg74
g4935
sg67
(lp4942
g60
(g81
g62
NtRp4943
(dp4944
g65
(dp4945
sg74
g4939
sg67
(lp4946
g60
(g61
g62
NtRp4947
(dp4948
g65
(dp4949
g73
I1
ssg74
g4943
sg67
(lp4950
g4378
(S't\x05\x00\x00\x00About'
tRp4951
asbasbasbag60
(g76
g62
NtRp4952
(dp4953
g65
(dp4954
sg74
g4935
sg67
(lp4955
g60
(g81
g62
NtRp4956
(dp4957
g65
(dp4958
sg74
g4952
sg67
(lp4959
g60
(g61
g62
NtRp4960
(dp4961
g65
(dp4962
g73
I1
ssg74
g4956
sg67
(lp4963
I00
asbasbasbag60
(g76
g62
NtRp4964
(dp4965
g65
(dp4966
sg74
g4935
sg67
(lp4967
g60
(g81
g62
NtRp4968
(dp4969
g65
(dp4970
sg74
g4964
sg67
(lp4971
g60
(g61
g62
NtRp4972
(dp4973
g65
(dp4974
g73
I1
ssg74
g4968
sg67
(lp4975
S'/admin/default/about/ACES'
p4976
asbasbasbasbasbasbasbasbasbasbasbasbasbasbasbag60
(g76
g62
NtRp4977
(dp4978
g65
(dp4979
sg74
g4346
sg67
(lp4980
g60
(g81
g62
NtRp4981
(dp4982
g65
(dp4983
sg74
g4977
sg67
(lp4984
g60
(g61
g62
NtRp4985
(dp4986
g65
(dp4987
g73
I4
ssg74
g4981
sg67
(lp4988
g60
(g69
g62
NtRp4989
(dp4990
g65
(dp4991
g73
I3
ssg74
Nsg67
(lp4992
g60
(g76
g62
NtRp4993
(dp4994
g65
(dp4995
sg74
g4989
sg67
(lp4996
g60
(g81
g62
NtRp4997
(dp4998
g65
(dp4999
sg74
g4993
sg67
(lp5000
g60
(g61
g62
NtRp5001
(dp5002
g65
(dp5003
g73
I3
ssg74
g4997
sg67
(lp5004
g4378
(S't\t\x00\x00\x00Resources'
tRp5005
asbasbasbag60
(g76
g62
NtRp5006
(dp5007
g65
(dp5008
sg74
g4989
sg67
(lp5009
g60
(g81
g62
NtRp5010
(dp5011
g65
(dp5012
sg74
g5006
sg67
(lp5013
g60
(g61
g62
NtRp5014
(dp5015
g65
(dp5016
g73
I3
ssg74
g5010
sg67
(lp5017
g103
asbasbasbag60
(g76
g62
NtRp5018
(dp5019
g65
(dp5020
sg74
g4989
sg67
(lp5021
g60
(g81
g62
NtRp5022
(dp5023
g65
(dp5024
sg74
g5018
sg67
(lp5025
g60
(g61
g62
NtRp5026
(dp5027
g65
(dp5028
g73
I3
ssg74
g5022
sg67
(lp5029
S'None'
p5030
asbasbasbag60
(g76
g62
NtRp5031
(dp5032
g65
(dp5033
sg74
g4989
sg67
(lp5034
g60
(g81
g62
NtRp5035
(dp5036
g65
(dp5037
sg74
g5031
sg67
(lp5038
g60
(g61
g62
NtRp5039
(dp5040
g65
(dp5041
g73
I3
ssg74
g5035
sg67
(lp5042
g60
(g69
g62
NtRp5043
(dp5044
g65
(dp5045
g73
I2
ssg74
Nsg67
(lp5046
g60
(g76
g62
NtRp5047
(dp5048
g65
(dp5049
sg74
g5043
sg67
(lp5050
g60
(g81
g62
NtRp5051
(dp5052
g65
(dp5053
sg74
g5047
sg67
(lp5054
g60
(g61
g62
NtRp5055
(dp5056
g65
(dp5057
g73
I2
ssg74
g5051
sg67
(lp5058
g60
(g69
g62
NtRp5059
(dp5060
g65
(dp5061
g73
I1
ssg74
Nsg67
(lp5062
g60
(g76
g62
NtRp5063
(dp5064
g65
(dp5065
sg74
g5059
sg67
(lp5066
g60
(g81
g62
NtRp5067
(dp5068
g65
(dp5069
sg74
g5063
sg67
(lp5070
g60
(g61
g62
NtRp5071
(dp5072
g65
(dp5073
g73
I1
ssg74
g5067
sg67
(lp5074
g4378
(S't\r\x00\x00\x00Documentation'
tRp5075
asbasbasbag60
(g76
g62
NtRp5076
(dp5077
g65
(dp5078
sg74
g5059
sg67
(lp5079
g60
(g81
g62
NtRp5080
(dp5081
g65
(dp5082
sg74
g5076
sg67
(lp5083
g60
(g61
g62
NtRp5084
(dp5085
g65
(dp5086
g73
I1
ssg74
g5080
sg67
(lp5087
I00
asbasbasbag60
(g76
g62
NtRp5088
(dp5089
g65
(dp5090
sg74
g5059
sg67
(lp5091
g60
(g81
g62
NtRp5092
(dp5093
g65
(dp5094
sg74
g5088
sg67
(lp5095
g60
(g61
g62
NtRp5096
(dp5097
g65
(dp5098
g73
I1
ssg74
g5092
sg67
(lp5099
S'http://www.web2py.com/book'
p5100
asbasbasbag60
(g76
g62
NtRp5101
(dp5102
g65
(dp5103
sg74
g5059
sg67
(lp5104
g60
(g81
g62
NtRp5105
(dp5106
g65
(dp5107
sg74
g5101
sg67
(lp5108
g60
(g61
g62
NtRp5109
(dp5110
g65
(dp5111
g73
I1
ssg74
g5105
sg67
(lp5112
(lp5113
(g4378
(S't\x07\x00\x00\x00Preface'
tRp5114
I00
S'http://www.web2py.com/book/default/chapter/00'
p5115
tp5116
a(g4378
(S't\x0c\x00\x00\x00Introduction'
tRp5117
I00
S'http://www.web2py.com/book/default/chapter/01'
p5118
tp5119
a(g4378
(S't\x06\x00\x00\x00Python'
tRp5120
I00
S'http://www.web2py.com/book/default/chapter/02'
p5121
tp5122
a(g4378
(S't\x08\x00\x00\x00Overview'
tRp5123
I00
S'http://www.web2py.com/book/default/chapter/03'
p5124
tp5125
a(g4378
(S's\x08\x00\x00\x00The Core'
tRp5126
I00
S'http://www.web2py.com/book/default/chapter/04'
p5127
tp5128
a(g4378
(S's\t\x00\x00\x00The Views'
tRp5129
I00
S'http://www.web2py.com/book/default/chapter/05'
p5130
tp5131
a(g4378
(S't\x08\x00\x00\x00Database'
tRp5132
I00
S'http://www.web2py.com/book/default/chapter/06'
p5133
tp5134
a(g4378
(S's\x14\x00\x00\x00Forms and Validators'
tRp5135
I00
S'http://www.web2py.com/book/default/chapter/07'
p5136
tp5137
a(g4378
(S's\x0e\x00\x00\x00Access Control'
tRp5138
I00
S'http://www.web2py.com/book/default/chapter/08'
p5139
tp5140
a(g4378
(S't\x08\x00\x00\x00Services'
tRp5141
I00
S'http://www.web2py.com/book/default/chapter/09'
p5142
tp5143
a(g4378
(S's\x0c\x00\x00\x00Ajax Recipes'
tRp5144
I00
S'http://www.web2py.com/book/default/chapter/10'
p5145
tp5146
a(g4378
(S's\x12\x00\x00\x00Deployment Recipes'
tRp5147
I00
S'http://www.web2py.com/book/default/chapter/11'
p5148
tp5149
a(g4378
(S's\r\x00\x00\x00Other Recipes'
tRp5150
I00
S'http://www.web2py.com/book/default/chapter/12'
p5151
tp5152
a(g4378
(S's\r\x00\x00\x00Buy this book'
tRp5153
I00
S'http://stores.lulu.com/web2py'
p5154
tp5155
aasbasbasbasbasbasbasbag60
(g76
g62
NtRp5156
(dp5157
g65
(dp5158
sg74
g5043
sg67
(lp5159
g60
(g81
g62
NtRp5160
(dp5161
g65
(dp5162
sg74
g5156
sg67
(lp5163
g60
(g61
g62
NtRp5164
(dp5165
g65
(dp5166
g73
I2
ssg74
g5160
sg67
(lp5167
g60
(g69
g62
NtRp5168
(dp5169
g65
(dp5170
g73
I1
ssg74
Nsg67
(lp5171
g60
(g76
g62
NtRp5172
(dp5173
g65
(dp5174
sg74
g5168
sg67
(lp5175
g60
(g81
g62
NtRp5176
(dp5177
g65
(dp5178
sg74
g5172
sg67
(lp5179
g60
(g61
g62
NtRp5180
(dp5181
g65
(dp5182
g73
I1
ssg74
g5176
sg67
(lp5183
g4378
(S't\t\x00\x00\x00Community'
tRp5184
asbasbasbag60
(g76
g62
NtRp5185
(dp5186
g65
(dp5187
sg74
g5168
sg67
(lp5188
g60
(g81
g62
NtRp5189
(dp5190
g65
(dp5191
sg74
g5185
sg67
(lp5192
g60
(g61
g62
NtRp5193
(dp5194
g65
(dp5195
g73
I1
ssg74
g5189
sg67
(lp5196
I00
asbasbasbag60
(g76
g62
NtRp5197
(dp5198
g65
(dp5199
sg74
g5168
sg67
(lp5200
g60
(g81
g62
NtRp5201
(dp5202
g65
(dp5203
sg74
g5197
sg67
(lp5204
g60
(g61
g62
NtRp5205
(dp5206
g65
(dp5207
g73
I1
ssg74
g5201
sg67
(lp5208
Nasbasbasbag60
(g76
g62
NtRp5209
(dp5210
g65
(dp5211
sg74
g5168
sg67
(lp5212
g60
(g81
g62
NtRp5213
(dp5214
g65
(dp5215
sg74
g5209
sg67
(lp5216
g60
(g61
g62
NtRp5217
(dp5218
g65
(dp5219
g73
I1
ssg74
g5213
sg67
(lp5220
(lp5221
(g4378
(S't\x06\x00\x00\x00Groups'
tRp5222
I00
S'http://www.web2py.com/examples/default/usergroups'
p5223
tp5224
a(g4378
(S't\x07\x00\x00\x00Twitter'
tRp5225
I00
S'http://twitter.com/web2py'
p5226
tp5227
a(g4378
(S's\t\x00\x00\x00Live chat'
tRp5228
I00
S'http://mibbit.com/?channel=%23web2py&server=irc.mibbit.net'
p5229
tp5230
a(g4378
(S's\n\x00\x00\x00User Voice'
tRp5231
I00
S'http://web2py.uservoice.com/'
p5232
tp5233
aasbasbasbasbasbasbasbag60
(g76
g62
NtRp5234
(dp5235
g65
(dp5236
sg74
g5043
sg67
(lp5237
g60
(g81
g62
NtRp5238
(dp5239
g65
(dp5240
sg74
g5234
sg67
(lp5241
g60
(g61
g62
NtRp5242
(dp5243
g65
(dp5244
g73
I2
ssg74
g5238
sg67
(lp5245
g60
(g69
g62
NtRp5246
(dp5247
g65
(dp5248
g73
I1
ssg74
Nsg67
(lp5249
g60
(g76
g62
NtRp5250
(dp5251
g65
(dp5252
sg74
g5246
sg67
(lp5253
g60
(g81
g62
NtRp5254
(dp5255
g65
(dp5256
sg74
g5250
sg67
(lp5257
g60
(g61
g62
NtRp5258
(dp5259
g65
(dp5260
g73
I1
ssg74
g5254
sg67
(lp5261
g4378
(S't\x06\x00\x00\x00Web2py'
tRp5262
asbasbasbag60
(g76
g62
NtRp5263
(dp5264
g65
(dp5265
sg74
g5246
sg67
(lp5266
g60
(g81
g62
NtRp5267
(dp5268
g65
(dp5269
sg74
g5263
sg67
(lp5270
g60
(g61
g62
NtRp5271
(dp5272
g65
(dp5273
g73
I1
ssg74
g5267
sg67
(lp5274
I00
asbasbasbag60
(g76
g62
NtRp5275
(dp5276
g65
(dp5277
sg74
g5246
sg67
(lp5278
g60
(g81
g62
NtRp5279
(dp5280
g65
(dp5281
sg74
g5275
sg67
(lp5282
g60
(g61
g62
NtRp5283
(dp5284
g65
(dp5285
g73
I1
ssg74
g5279
sg67
(lp5286
S'http://www.web2py.com'
p5287
asbasbasbag60
(g76
g62
NtRp5288
(dp5289
g65
(dp5290
sg74
g5246
sg67
(lp5291
g60
(g81
g62
NtRp5292
(dp5293
g65
(dp5294
sg74
g5288
sg67
(lp5295
g60
(g61
g62
NtRp5296
(dp5297
g65
(dp5298
g73
I1
ssg74
g5292
sg67
(lp5299
(lp5300
(g4378
(S't\x08\x00\x00\x00Download'
tRp5301
I00
S'http://www.web2py.com/examples/default/download'
p5302
tp5303
a(g4378
(S't\x07\x00\x00\x00Support'
tRp5304
I00
S'http://www.web2py.com/examples/default/support'
p5305
tp5306
a(g4378
(S's\x0e\x00\x00\x00Quick Examples'
tRp5307
I00
S'http://web2py.com/examples/default/examples'
p5308
tp5309
a(g4378
(S't\x03\x00\x00\x00FAQ'
tRp5310
I00
S'http://web2py.com/AlterEgo'
p5311
tp5312
a(g4378
(S's\x11\x00\x00\x00Free Applications'
tRp5313
I00
S'http://web2py.com/appliances'
p5314
tp5315
a(g4378
(S't\x07\x00\x00\x00Plugins'
tRp5316
I00
S'http://web2py.com/plugins'
p5317
tp5318
a(g4378
(S't\x07\x00\x00\x00Recipes'
tRp5319
I00
S'http://web2pyslices.com/'
p5320
tp5321
a(g4378
(S't\x04\x00\x00\x00Demo'
tRp5322
I00
S'http://web2py.com/demo_admin'
p5323
tp5324
a(g4378
(S't\x08\x00\x00\x00Semantic'
tRp5325
I00
S'http://web2py.com/semantic'
p5326
tp5327
a(g4378
(S't\x07\x00\x00\x00Layouts'
tRp5328
I00
S'http://web2py.com/layouts'
p5329
tp5330
a(g4378
(S't\x06\x00\x00\x00Videos'
tRp5331
I00
S'http://www.web2py.com/examples/default/videos/'
p5332
tp5333
aasbasbasbasbasbasbasbasbasbasbasbasbasbasbasbasbasbasbasbag60
(g76
g62
NtRp5334
(dp5335
g65
(dp5336
sg74
g3873
sg67
(lp5337
g60
(g81
g62
NtRp5338
(dp5339
g65
(dp5340
g85
g86
ssg74
g5334
sg67
(lp5341
S'meta'
p5342
asbag60
(g81
g62
NtRp5343
(dp5344
g65
(dp5345
g92
g93
ssg74
g5334
sg67
(lp5346
S':'
asbag60
(g81
g62
NtRp5347
(dp5348
g65
(dp5349
sg74
g5334
sg67
(lp5350
g60
(g61
g62
NtRp5351
(dp5352
g65
(dp5353
g73
I5
ssg74
g5347
sg67
(lp5354
g60
(g69
g62
NtRp5355
(dp5356
g65
(dp5357
g73
I4
ssg74
Nsg67
(lp5358
g60
(g76
g62
NtRp5359
(dp5360
g65
(dp5361
sg74
g5355
sg67
(lp5362
g60
(g81
g62
NtRp5363
(dp5364
g65
(dp5365
g85
g86
ssg74
g5359
sg67
(lp5366
S'author'
p5367
asbag60
(g81
g62
NtRp5368
(dp5369
g65
(dp5370
g92
g93
ssg74
g5359
sg67
(lp5371
S':'
asbag60
(g81
g62
NtRp5372
(dp5373
g65
(dp5374
sg74
g5359
sg67
(lp5375
g60
(g61
g62
NtRp5376
(dp5377
g65
(dp5378
g73
I4
ssg74
g5372
sg67
(lp5379
S'Your Name <you@example.com>'
p5380
asbasbasbag60
(g76
g62
NtRp5381
(dp5382
g65
(dp5383
sg74
g5355
sg67
(lp5384
g60
(g81
g62
NtRp5385
(dp5386
g65
(dp5387
g85
g86
ssg74
g5381
sg67
(lp5388
S'copyright'
p5389
asbag60
(g81
g62
NtRp5390
(dp5391
g65
(dp5392
g92
g93
ssg74
g5381
sg67
(lp5393
S':'
asbag60
(g81
g62
NtRp5394
(dp5395
g65
(dp5396
sg74
g5381
sg67
(lp5397
g60
(g61
g62
NtRp5398
(dp5399
g65
(dp5400
g73
I4
ssg74
g5394
sg67
(lp5401
S'Copyright 2011'
p5402
asbasbasbag60
(g76
g62
NtRp5403
(dp5404
g65
(dp5405
sg74
g5355
sg67
(lp5406
g60
(g81
g62
NtRp5407
(dp5408
g65
(dp5409
g85
g86
ssg74
g5403
sg67
(lp5410
S'description'
p5411
asbag60
(g81
g62
NtRp5412
(dp5413
g65
(dp5414
g92
g93
ssg74
g5403
sg67
(lp5415
S':'
asbag60
(g81
g62
NtRp5416
(dp5417
g65
(dp5418
sg74
g5403
sg67
(lp5419
g60
(g61
g62
NtRp5420
(dp5421
g65
(dp5422
g73
I4
ssg74
g5416
sg67
(lp5423
S'a cool new app'
p5424
asbasbasbag60
(g76
g62
NtRp5425
(dp5426
g65
(dp5427
sg74
g5355
sg67
(lp5428
g60
(g81
g62
NtRp5429
(dp5430
g65
(dp5431
g85
g86
ssg74
g5425
sg67
(lp5432
S'generator'
p5433
asbag60
(g81
g62
NtRp5434
(dp5435
g65
(dp5436
g92
g93
ssg74
g5425
sg67
(lp5437
S':'
asbag60
(g81
g62
NtRp5438
(dp5439
g65
(dp5440
sg74
g5425
sg67
(lp5441
g60
(g61
g62
NtRp5442
(dp5443
g65
(dp5444
g73
I4
ssg74
g5438
sg67
(lp5445
S'Web2py Web Framework'
p5446
asbasbasbag60
(g76
g62
NtRp5447
(dp5448
g65
(dp5449
sg74
g5355
sg67
(lp5450
g60
(g81
g62
NtRp5451
(dp5452
g65
(dp5453
g85
g86
ssg74
g5447
sg67
(lp5454
S'keywords'
p5455
asbag60
(g81
g62
NtRp5456
(dp5457
g65
(dp5458
g92
g93
ssg74
g5447
sg67
(lp5459
S':'
asbag60
(g81
g62
NtRp5460
(dp5461
g65
(dp5462
sg74
g5447
sg67
(lp5463
g60
(g61
g62
NtRp5464
(dp5465
g65
(dp5466
g73
I4
ssg74
g5460
sg67
(lp5467
S'web2py, python, framework'
p5468
asbasbasbasbasbasbasbag60
(g76
g62
NtRp5469
(dp5470
g65
(dp5471
sg74
g3873
sg67
(lp5472
g60
(g81
g62
NtRp5473
(dp5474
g65
(dp5475
g85
g86
ssg74
g5469
sg67
(lp5476
S'postprocessing'
p5477
asbag60
(g81
g62
NtRp5478
(dp5479
g65
(dp5480
g92
g93
ssg74
g5469
sg67
(lp5481
S':'
asbag60
(g81
g62
NtRp5482
(dp5483
g65
(dp5484
sg74
g5469
sg67
(lp5485
g60
(g61
g62
NtRp5486
(dp5487
g65
(dp5488
g73
I5
ssg74
g5482
sg67
(lp5489
g60
(g69
g62
NtRp5490
(dp5491
g65
(dp5492
g73
I4
ssg74
Nsg67
(lp5493
sbasbasbasbag60
(g76
g62
NtRp5494
(dp5495
g65
(dp5496
sg74
g3873
sg67
(lp5497
g60
(g81
g62
NtRp5498
(dp5499
g65
(dp5500
g85
g86
ssg74
g5494
sg67
(lp5501
S'session_file'
p5502
asbag60
(g81
g62
NtRp5503
(dp5504
g65
(dp5505
g92
g93
ssg74
g5494
sg67
(lp5506
S':'
asbag60
(g81
g62
NtRp5507
(dp5508
g65
(dp5509
sg74
g5494
sg67
(lp5510
g60
(g61
g62
NtRp5511
(dp5512
g65
(dp5513
g73
I5
ssg74
g5507
sg67
(lp5514
S"<open file '/home/u4hcsdaw/Python/web2py/applications/ACES/sessions/127.0.0.1-fa323a39-b4f7-4824-aae1-5c3174579522', mode 'rb+' at 0xad02d548>"
p5515
asbasbasbag60
(g76
g62
NtRp5516
(dp5517
g65
(dp5518
sg74
g3873
sg67
(lp5519
g60
(g81
g62
NtRp5520
(dp5521
g65
(dp5522
g85
g86
ssg74
g5516
sg67
(lp5523
S'session_filename'
p5524
asbag60
(g81
g62
NtRp5525
(dp5526
g65
(dp5527
g92
g93
ssg74
g5516
sg67
(lp5528
S':'
asbag60
(g81
g62
NtRp5529
(dp5530
g65
(dp5531
sg74
g5516
sg67
(lp5532
g60
(g61
g62
NtRp5533
(dp5534
g65
(dp5535
g73
I5
ssg74
g5529
sg67
(lp5536
S'/home/u4hcsdaw/Python/web2py/applications/ACES/sessions/127.0.0.1-fa323a39-b4f7-4824-aae1-5c3174579522'
p5537
asbasbasbag60
(g76
g62
NtRp5538
(dp5539
g65
(dp5540
sg74
g3873
sg67
(lp5541
g60
(g81
g62
NtRp5542
(dp5543
g65
(dp5544
g85
g86
ssg74
g5538
sg67
(lp5545
S'session_id'
p5546
asbag60
(g81
g62
NtRp5547
(dp5548
g65
(dp5549
g92
g93
ssg74
g5538
sg67
(lp5550
S':'
asbag60
(g81
g62
NtRp5551
(dp5552
g65
(dp5553
sg74
g5538
sg67
(lp5554
g60
(g61
g62
NtRp5555
(dp5556
g65
(dp5557
g73
I5
ssg74
g5551
sg67
(lp5558
S'127.0.0.1-fa323a39-b4f7-4824-aae1-5c3174579522'
p5559
asbasbasbag60
(g76
g62
NtRp5560
(dp5561
g65
(dp5562
sg74
g3873
sg67
(lp5563
g60
(g81
g62
NtRp5564
(dp5565
g65
(dp5566
g85
g86
ssg74
g5560
sg67
(lp5567
S'session_id_name'
p5568
asbag60
(g81
g62
NtRp5569
(dp5570
g65
(dp5571
g92
g93
ssg74
g5560
sg67
(lp5572
S':'
asbag60
(g81
g62
NtRp5573
(dp5574
g65
(dp5575
sg74
g5560
sg67
(lp5576
g60
(g61
g62
NtRp5577
(dp5578
g65
(dp5579
g73
I5
ssg74
g5573
sg67
(lp5580
g3930
asbasbasbag60
(g76
g62
NtRp5581
(dp5582
g65
(dp5583
sg74
g3873
sg67
(lp5584
g60
(g81
g62
NtRp5585
(dp5586
g65
(dp5587
g85
g86
ssg74
g5581
sg67
(lp5588
S'session_locked'
p5589
asbag60
(g81
g62
NtRp5590
(dp5591
g65
(dp5592
g92
g93
ssg74
g5581
sg67
(lp5593
S':'
asbag60
(g81
g62
NtRp5594
(dp5595
g65
(dp5596
sg74
g5581
sg67
(lp5597
g60
(g61
g62
NtRp5598
(dp5599
g65
(dp5600
g73
I5
ssg74
g5594
sg67
(lp5601
g1909
asbasbasbag60
(g76
g62
NtRp5602
(dp5603
g65
(dp5604
sg74
g3873
sg67
(lp5605
g60
(g81
g62
NtRp5606
(dp5607
g65
(dp5608
g85
g86
ssg74
g5602
sg67
(lp5609
S'session_new'
p5610
asbag60
(g81
g62
NtRp5611
(dp5612
g65
(dp5613
g92
g93
ssg74
g5602
sg67
(lp5614
S':'
asbag60
(g81
g62
NtRp5615
(dp5616
g65
(dp5617
sg74
g5602
sg67
(lp5618
g60
(g61
g62
NtRp5619
(dp5620
g65
(dp5621
g73
I5
ssg74
g5615
sg67
(lp5622
g103
asbasbasbag60
(g76
g62
NtRp5623
(dp5624
g65
(dp5625
sg74
g3873
sg67
(lp5626
g60
(g81
g62
NtRp5627
(dp5628
g65
(dp5629
g85
g86
ssg74
g5623
sg67
(lp5630
S'status'
p5631
asbag60
(g81
g62
NtRp5632
(dp5633
g65
(dp5634
g92
g93
ssg74
g5623
sg67
(lp5635
S':'
asbag60
(g81
g62
NtRp5636
(dp5637
g65
(dp5638
sg74
g5623
sg67
(lp5639
g60
(g61
g62
NtRp5640
(dp5641
g65
(dp5642
g73
I5
ssg74
g5636
sg67
(lp5643
S'200'
p5644
asbasbasbag60
(g76
g62
NtRp5645
(dp5646
g65
(dp5647
sg74
g3873
sg67
(lp5648
g60
(g81
g62
NtRp5649
(dp5650
g65
(dp5651
g85
g86
ssg74
g5645
sg67
(lp5652
S'subtitle'
p5653
asbag60
(g81
g62
NtRp5654
(dp5655
g65
(dp5656
g92
g93
ssg74
g5645
sg67
(lp5657
S':'
asbag60
(g81
g62
NtRp5658
(dp5659
g65
(dp5660
sg74
g5645
sg67
(lp5661
g60
(g61
g62
NtRp5662
(dp5663
g65
(dp5664
g73
I5
ssg74
g5658
sg67
(lp5665
g4378
(S's\r\x00\x00\x00customize me!'
tRp5666
asbasbasbag60
(g76
g62
NtRp5667
(dp5668
g65
(dp5669
sg74
g3873
sg67
(lp5670
g60
(g81
g62
NtRp5671
(dp5672
g65
(dp5673
g85
g86
ssg74
g5667
sg67
(lp5674
S'title'
p5675
asbag60
(g81
g62
NtRp5676
(dp5677
g65
(dp5678
g92
g93
ssg74
g5667
sg67
(lp5679
S':'
asbag60
(g81
g62
NtRp5680
(dp5681
g65
(dp5682
sg74
g5667
sg67
(lp5683
g60
(g61
g62
NtRp5684
(dp5685
g65
(dp5686
g73
I5
ssg74
g5680
sg67
(lp5687
g125
asbasbasbag60
(g76
g62
NtRp5688
(dp5689
g65
(dp5690
sg74
g3873
sg67
(lp5691
g60
(g81
g62
NtRp5692
(dp5693
g65
(dp5694
g85
g86
ssg74
g5688
sg67
(lp5695
g2662
asbag60
(g81
g62
NtRp5696
(dp5697
g65
(dp5698
g92
g93
ssg74
g5688
sg67
(lp5699
S':'
asbag60
(g81
g62
NtRp5700
(dp5701
g65
(dp5702
sg74
g5688
sg67
(lp5703
g60
(g61
g62
NtRp5704
(dp5705
g65
(dp5706
g73
I5
ssg74
g5700
sg67
(lp5707
g2675
asbasbasbag60
(g76
g62
NtRp5708
(dp5709
g65
(dp5710
sg74
g3873
sg67
(lp5711
g60
(g81
g62
NtRp5712
(dp5713
g65
(dp5714
g85
g86
ssg74
g5708
sg67
(lp5715
S'view'
p5716
asbag60
(g81
g62
NtRp5717
(dp5718
g65
(dp5719
g92
g93
ssg74
g5708
sg67
(lp5720
S':'
asbag60
(g81
g62
NtRp5721
(dp5722
g65
(dp5723
sg74
g5708
sg67
(lp5724
g60
(g61
g62
NtRp5725
(dp5726
g65
(dp5727
g73
I5
ssg74
g5721
sg67
(lp5728
S'default/index.html'
p5729
asbasbasbasbasbsS'locals'
p5730
(dp5731
S'a'
S"('UPDATE linearWaveForm SET waveHeight=0.85,wavePe...terDepth=8.0,id=10 WHERE (linearWaveForm.id = 8);',)"
p5732
sS'self'
p5733
S'<gluon.dal.SQLiteAdapter object>'
p5734
sS'b'
g20
sS't0'
p5735
S'1347322676.479196'
p5736
sssS'traceback'
p5737
S'Traceback (most recent call last):\n  File "/home/u4hcsdaw/Python/web2py/gluon/restricted.py", line 194, in restricted\n    exec ccode in environment\n  File "/home/u4hcsdaw/Python/web2py/applications/ACES/controllers/default.py", line 88, in <module>\n  File "/home/u4hcsdaw/Python/web2py/gluon/globals.py", line 149, in <lambda>\n    self._caller = lambda f: f()\n  File "/home/u4hcsdaw/Python/web2py/applications/ACES/controllers/default.py", line 29, in index\n    if f1.process(session=None, formname=None).accepts(request.vars,session):\n  File "/home/u4hcsdaw/Python/web2py/gluon/sqlhtml.py", line 1257, in accepts\n    self.table._db(self.table._id == self.record.id).update(**fields)\n  File "/home/u4hcsdaw/Python/web2py/gluon/dal.py", line 5779, in update\n    return self.db._adapter.update(tablename,self.query,fields)\n  File "/home/u4hcsdaw/Python/web2py/gluon/dal.py", line 1055, in update\n    self.execute(sql)\n  File "/home/u4hcsdaw/Python/web2py/gluon/dal.py", line 1309, in execute\n    return self.log_execute(*a, **b)\n  File "/home/u4hcsdaw/Python/web2py/gluon/dal.py", line 1304, in log_execute\n    ret = self.cursor.execute(*a,**b)\nIntegrityError: PRIMARY KEY must be unique\n'
p5738
s.