(dp1
S'output'
p2
S''
sS'layer'
p3
S'/home/u4hcsdaw/Python/web2py/applications/ACES/controllers/default.py'
p4
sS'code'
p5
S'# -*- coding: utf-8 -*-\n# this file is released under public domain and you can use without limitations\n\n#########################################################################\n## This is a samples controller\n## - index is the default action of any application\n## - user is required for authentication and authorization\n## - download is for downloading files uploaded in the db (does streaming)\n## - call exposes all registered services (none by default)\n#########################################################################\n\ndef index():\n    """\n    example action using the internationalization operator T and flash\n    rendered by views/default/index.html or views/generic.html\n    """\n    import datetime\n    now=datetime.datetime.now()\n    nowS=now.strftime(\'%s\')\n    t0=\'\'\n    img1=\'\'\n    ip1=INPUT(_type=\'text\', _name=\'waveHeight\', _value=\'0.85\')\n    sub1=INPUT(_type=\'submit\',_name=\'subButton\')\n    f1=FORM(\'wave\',ip1,sub1,_name=\'Form1\',_action=\'\')\n    if f1.accepts(request.vars,session):\n        session.formVars=f1.vars\n        t0=AcesCall(f1.vars)\n        img1=IMG(_src=URL(\'static\',\'images/Waves.svg?\'+nowS))\n    return dict(form=f1,t0=t0,img1=img1)\n\ndef user():\n    """\n    exposes:\n    http://..../[app]/default/user/login\n    http://..../[app]/default/user/logout\n    http://..../[app]/default/user/register\n    http://..../[app]/default/user/profile\n    http://..../[app]/default/user/retrieve_password\n    http://..../[app]/default/user/change_password\n    use @auth.requires_login()\n        @auth.requires_membership(\'group name\')\n        @auth.requires_permission(\'read\',\'table name\',record_id)\n    to decorate functions that need access control\n    """\n    return dict(form=auth())\n\n\ndef download():\n    """\n    allows downloading of uploaded files\n    http://..../[app]/default/download/[filename]\n    """\n    return response.download(request,db)\n\n\ndef call():\n    """\n    exposes services. for example:\n    http://..../[app]/default/call/jsonrpc\n    decorate with @services.jsonrpc the functions to expose\n    supports xml, json, xmlrpc, jsonrpc, amfrpc, rss, csv\n    """\n    return service()\n\n\n@auth.requires_signature()\ndef data():\n    """\n    http://..../[app]/default/data/tables\n    http://..../[app]/default/data/create/[table]\n    http://..../[app]/default/data/read/[table]/[id]\n    http://..../[app]/default/data/update/[table]/[id]\n    http://..../[app]/default/data/delete/[table]/[id]\n    http://..../[app]/default/data/select/[table]\n    http://..../[app]/default/data/search/[table]\n    but URLs bust be signed, i.e. linked with\n      A(\'table\',_href=URL(\'data/tables\',user_signature=True))\n    or with the signed load operator\n      LOAD(\'default\',\'data.load\',args=\'tables\',ajax=True,user_signature=True)\n    """\n    return dict(form=crud())\n\nresponse._vars=response._caller(index)\n'
p6
sS'snapshot'
p7
(dp8
S'exception'
p9
(dp10
S'__getslice__'
p11
S"<method-wrapper '__getslice__' of exceptions.OSError object>"
p12
sS'__str__'
p13
S"<method-wrapper '__str__' of exceptions.OSError object>"
p14
sS'__reduce__'
p15
S'<built-in method __reduce__ of exceptions.OSError object>'
p16
sS'__dict__'
p17
S'{\'child_traceback\': \'Traceback (most recent call last):\\n  File "/home...st)\\nOSError: [Errno 2] No such file or directory\\n\'}'
p18
sS'__sizeof__'
p19
S'<built-in method __sizeof__ of exceptions.OSError object>'
p20
sS'__init__'
p21
S"<method-wrapper '__init__' of exceptions.OSError object>"
p22
sS'__setattr__'
p23
S"<method-wrapper '__setattr__' of exceptions.OSError object>"
p24
sS'__reduce_ex__'
p25
S'<built-in method __reduce_ex__ of exceptions.OSError object>'
p26
sS'__new__'
p27
S'<built-in method __new__ of type object>'
p28
sS'child_traceback'
p29
S'\'Traceback (most recent call last):\\n  File "/home...st)\\nOSError: [Errno 2] No such file or directory\\n\''
p30
sS'errno'
p31
S'2'
sS'__format__'
p32
S'<built-in method __format__ of exceptions.OSError object>'
p33
sS'__class__'
p34
S"<type 'exceptions.OSError'>"
p35
sS'filename'
p36
S'None'
p37
sS'__doc__'
p38
S"'OS system call failed.'"
p39
sS'__getitem__'
p40
S"<method-wrapper '__getitem__' of exceptions.OSError object>"
p41
sS'__setstate__'
p42
S'<built-in method __setstate__ of exceptions.OSError object>'
p43
sS'__getattribute__'
p44
S"<method-wrapper '__getattribute__' of exceptions.OSError object>"
p45
sS'args'
p46
S"(2, 'No such file or directory')"
p47
sS'__subclasshook__'
p48
S'<built-in method __subclasshook__ of type object>'
p49
sS'__unicode__'
p50
S'<built-in method __unicode__ of exceptions.OSError object>'
p51
sS'strerror'
p52
S"'No such file or directory'"
p53
sS'__delattr__'
p54
S"<method-wrapper '__delattr__' of exceptions.OSError object>"
p55
sS'__repr__'
p56
S"<method-wrapper '__repr__' of exceptions.OSError object>"
p57
sS'__hash__'
p58
S"<method-wrapper '__hash__' of exceptions.OSError object>"
p59
ssS'evalue'
p60
S'[Errno 2] No such file or directory'
p61
sS'request'
p62
ccopy_reg
_reconstructor
p63
(cgluon.html
BEAUTIFY
p64
c__builtin__
object
p65
NtRp66
(dp67
S'attributes'
p68
(dp69
sS'components'
p70
(lp71
g63
(cgluon.html
TABLE
p72
g65
NtRp73
(dp74
g68
(dp75
S'level'
p76
I5
ssS'parent'
p77
Nsg70
(lp78
g63
(cgluon.html
TR
p79
g65
NtRp80
(dp81
g68
(dp82
sg77
g73
sg70
(lp83
g63
(cgluon.html
TD
p84
g65
NtRp85
(dp86
g68
(dp87
S'_style'
p88
S'font-weight:bold;'
p89
ssg77
g80
sg70
(lp90
S'ajax'
p91
asbag63
(g84
g65
NtRp92
(dp93
g68
(dp94
S'_valign'
p95
S'top'
p96
ssg77
g80
sg70
(lp97
S':'
asbag63
(g84
g65
NtRp98
(dp99
g68
(dp100
sg77
g80
sg70
(lp101
g63
(g64
g65
NtRp102
(dp103
g68
(dp104
g76
I5
ssg77
g98
sg70
(lp105
S'False'
p106
asbasbasbag63
(g79
g65
NtRp107
(dp108
g68
(dp109
sg77
g73
sg70
(lp110
g63
(g84
g65
NtRp111
(dp112
g68
(dp113
g88
g89
ssg77
g107
sg70
(lp114
S'application'
p115
asbag63
(g84
g65
NtRp116
(dp117
g68
(dp118
g95
g96
ssg77
g107
sg70
(lp119
S':'
asbag63
(g84
g65
NtRp120
(dp121
g68
(dp122
sg77
g107
sg70
(lp123
g63
(g64
g65
NtRp124
(dp125
g68
(dp126
g76
I5
ssg77
g120
sg70
(lp127
S'ACES'
p128
asbasbasbag63
(g79
g65
NtRp129
(dp130
g68
(dp131
sg77
g73
sg70
(lp132
g63
(g84
g65
NtRp133
(dp134
g68
(dp135
g88
g89
ssg77
g129
sg70
(lp136
g46
asbag63
(g84
g65
NtRp137
(dp138
g68
(dp139
g95
g96
ssg77
g129
sg70
(lp140
S':'
asbag63
(g84
g65
NtRp141
(dp142
g68
(dp143
sg77
g129
sg70
(lp144
g63
(g64
g65
NtRp145
(dp146
g68
(dp147
g76
I5
ssg77
g141
sg70
(lp148
g63
(g72
g65
NtRp149
(dp150
g68
(dp151
g76
I4
ssg77
Nsg70
(lp152
sbasbasbasbag63
(g79
g65
NtRp153
(dp154
g68
(dp155
sg77
g73
sg70
(lp156
g63
(g84
g65
NtRp157
(dp158
g68
(dp159
g88
g89
ssg77
g153
sg70
(lp160
S'body'
p161
asbag63
(g84
g65
NtRp162
(dp163
g68
(dp164
g95
g96
ssg77
g153
sg70
(lp165
S':'
asbag63
(g84
g65
NtRp166
(dp167
g68
(dp168
sg77
g153
sg70
(lp169
g63
(g64
g65
NtRp170
(dp171
g68
(dp172
g76
I5
ssg77
g166
sg70
(lp173
S"<open file '<fdopen>', mode 'w+b' at 0xab8cf98>"
p174
asbasbasbag63
(g79
g65
NtRp175
(dp176
g68
(dp177
sg77
g73
sg70
(lp178
g63
(g84
g65
NtRp179
(dp180
g68
(dp181
g88
g89
ssg77
g175
sg70
(lp182
S'client'
p183
asbag63
(g84
g65
NtRp184
(dp185
g68
(dp186
g95
g96
ssg77
g175
sg70
(lp187
S':'
asbag63
(g84
g65
NtRp188
(dp189
g68
(dp190
sg77
g175
sg70
(lp191
g63
(g64
g65
NtRp192
(dp193
g68
(dp194
g76
I5
ssg77
g188
sg70
(lp195
S'127.0.0.1'
p196
asbasbasbag63
(g79
g65
NtRp197
(dp198
g68
(dp199
sg77
g73
sg70
(lp200
g63
(g84
g65
NtRp201
(dp202
g68
(dp203
g88
g89
ssg77
g197
sg70
(lp204
S'controller'
p205
asbag63
(g84
g65
NtRp206
(dp207
g68
(dp208
g95
g96
ssg77
g197
sg70
(lp209
S':'
asbag63
(g84
g65
NtRp210
(dp211
g68
(dp212
sg77
g197
sg70
(lp213
g63
(g64
g65
NtRp214
(dp215
g68
(dp216
g76
I5
ssg77
g210
sg70
(lp217
S'default'
p218
asbasbasbag63
(g79
g65
NtRp219
(dp220
g68
(dp221
sg77
g73
sg70
(lp222
g63
(g84
g65
NtRp223
(dp224
g68
(dp225
g88
g89
ssg77
g219
sg70
(lp226
S'cookies'
p227
asbag63
(g84
g65
NtRp228
(dp229
g68
(dp230
g95
g96
ssg77
g219
sg70
(lp231
S':'
asbag63
(g84
g65
NtRp232
(dp233
g68
(dp234
sg77
g219
sg70
(lp235
g63
(g64
g65
NtRp236
(dp237
g68
(dp238
g76
I5
ssg77
g232
sg70
(lp239
g63
(g72
g65
NtRp240
(dp241
g68
(dp242
g76
I4
ssg77
Nsg70
(lp243
g63
(g79
g65
NtRp244
(dp245
g68
(dp246
sg77
g240
sg70
(lp247
g63
(g84
g65
NtRp248
(dp249
g68
(dp250
g88
g89
ssg77
g244
sg70
(lp251
S'session_id_aces'
p252
asbag63
(g84
g65
NtRp253
(dp254
g68
(dp255
g95
g96
ssg77
g244
sg70
(lp256
S':'
asbag63
(g84
g65
NtRp257
(dp258
g68
(dp259
sg77
g244
sg70
(lp260
g63
(g64
g65
NtRp261
(dp262
g68
(dp263
g76
I4
ssg77
g257
sg70
(lp264
g63
(g72
g65
NtRp265
(dp266
g68
(dp267
g76
I3
ssg77
Nsg70
(lp268
g63
(g79
g65
NtRp269
(dp270
g68
(dp271
sg77
g265
sg70
(lp272
g63
(g84
g65
NtRp273
(dp274
g68
(dp275
g88
g89
ssg77
g269
sg70
(lp276
S'comment'
p277
asbag63
(g84
g65
NtRp278
(dp279
g68
(dp280
g95
g96
ssg77
g269
sg70
(lp281
S':'
asbag63
(g84
g65
NtRp282
(dp283
g68
(dp284
sg77
g269
sg70
(lp285
g63
(g64
g65
NtRp286
(dp287
g68
(dp288
g76
I3
ssg77
g282
sg70
(lp289
S''
asbasbasbag63
(g79
g65
NtRp290
(dp291
g68
(dp292
sg77
g265
sg70
(lp293
g63
(g84
g65
NtRp294
(dp295
g68
(dp296
g88
g89
ssg77
g290
sg70
(lp297
S'domain'
p298
asbag63
(g84
g65
NtRp299
(dp300
g68
(dp301
g95
g96
ssg77
g290
sg70
(lp302
S':'
asbag63
(g84
g65
NtRp303
(dp304
g68
(dp305
sg77
g290
sg70
(lp306
g63
(g64
g65
NtRp307
(dp308
g68
(dp309
g76
I3
ssg77
g303
sg70
(lp310
S''
asbasbasbag63
(g79
g65
NtRp311
(dp312
g68
(dp313
sg77
g265
sg70
(lp314
g63
(g84
g65
NtRp315
(dp316
g68
(dp317
g88
g89
ssg77
g311
sg70
(lp318
S'expires'
p319
asbag63
(g84
g65
NtRp320
(dp321
g68
(dp322
g95
g96
ssg77
g311
sg70
(lp323
S':'
asbag63
(g84
g65
NtRp324
(dp325
g68
(dp326
sg77
g311
sg70
(lp327
g63
(g64
g65
NtRp328
(dp329
g68
(dp330
g76
I3
ssg77
g324
sg70
(lp331
S''
asbasbasbag63
(g79
g65
NtRp332
(dp333
g68
(dp334
sg77
g265
sg70
(lp335
g63
(g84
g65
NtRp336
(dp337
g68
(dp338
g88
g89
ssg77
g332
sg70
(lp339
S'httponly'
p340
asbag63
(g84
g65
NtRp341
(dp342
g68
(dp343
g95
g96
ssg77
g332
sg70
(lp344
S':'
asbag63
(g84
g65
NtRp345
(dp346
g68
(dp347
sg77
g332
sg70
(lp348
g63
(g64
g65
NtRp349
(dp350
g68
(dp351
g76
I3
ssg77
g345
sg70
(lp352
S''
asbasbasbag63
(g79
g65
NtRp353
(dp354
g68
(dp355
sg77
g265
sg70
(lp356
g63
(g84
g65
NtRp357
(dp358
g68
(dp359
g88
g89
ssg77
g353
sg70
(lp360
S'max-age'
p361
asbag63
(g84
g65
NtRp362
(dp363
g68
(dp364
g95
g96
ssg77
g353
sg70
(lp365
S':'
asbag63
(g84
g65
NtRp366
(dp367
g68
(dp368
sg77
g353
sg70
(lp369
g63
(g64
g65
NtRp370
(dp371
g68
(dp372
g76
I3
ssg77
g366
sg70
(lp373
S''
asbasbasbag63
(g79
g65
NtRp374
(dp375
g68
(dp376
sg77
g265
sg70
(lp377
g63
(g84
g65
NtRp378
(dp379
g68
(dp380
g88
g89
ssg77
g374
sg70
(lp381
S'path'
p382
asbag63
(g84
g65
NtRp383
(dp384
g68
(dp385
g95
g96
ssg77
g374
sg70
(lp386
S':'
asbag63
(g84
g65
NtRp387
(dp388
g68
(dp389
sg77
g374
sg70
(lp390
g63
(g64
g65
NtRp391
(dp392
g68
(dp393
g76
I3
ssg77
g387
sg70
(lp394
S''
asbasbasbag63
(g79
g65
NtRp395
(dp396
g68
(dp397
sg77
g265
sg70
(lp398
g63
(g84
g65
NtRp399
(dp400
g68
(dp401
g88
g89
ssg77
g395
sg70
(lp402
S'secure'
p403
asbag63
(g84
g65
NtRp404
(dp405
g68
(dp406
g95
g96
ssg77
g395
sg70
(lp407
S':'
asbag63
(g84
g65
NtRp408
(dp409
g68
(dp410
sg77
g395
sg70
(lp411
g63
(g64
g65
NtRp412
(dp413
g68
(dp414
g76
I3
ssg77
g408
sg70
(lp415
S''
asbasbasbag63
(g79
g65
NtRp416
(dp417
g68
(dp418
sg77
g265
sg70
(lp419
g63
(g84
g65
NtRp420
(dp421
g68
(dp422
g88
g89
ssg77
g416
sg70
(lp423
S'version'
p424
asbag63
(g84
g65
NtRp425
(dp426
g68
(dp427
g95
g96
ssg77
g416
sg70
(lp428
S':'
asbag63
(g84
g65
NtRp429
(dp430
g68
(dp431
sg77
g416
sg70
(lp432
g63
(g64
g65
NtRp433
(dp434
g68
(dp435
g76
I3
ssg77
g429
sg70
(lp436
S''
asbasbasbasbasbasbasbag63
(g79
g65
NtRp437
(dp438
g68
(dp439
sg77
g240
sg70
(lp440
g63
(g84
g65
NtRp441
(dp442
g68
(dp443
g88
g89
ssg77
g437
sg70
(lp444
S'session_id_admin'
p445
asbag63
(g84
g65
NtRp446
(dp447
g68
(dp448
g95
g96
ssg77
g437
sg70
(lp449
S':'
asbag63
(g84
g65
NtRp450
(dp451
g68
(dp452
sg77
g437
sg70
(lp453
g63
(g64
g65
NtRp454
(dp455
g68
(dp456
g76
I4
ssg77
g450
sg70
(lp457
g63
(g72
g65
NtRp458
(dp459
g68
(dp460
g76
I3
ssg77
Nsg70
(lp461
g63
(g79
g65
NtRp462
(dp463
g68
(dp464
sg77
g458
sg70
(lp465
g63
(g84
g65
NtRp466
(dp467
g68
(dp468
g88
g89
ssg77
g462
sg70
(lp469
g277
asbag63
(g84
g65
NtRp470
(dp471
g68
(dp472
g95
g96
ssg77
g462
sg70
(lp473
S':'
asbag63
(g84
g65
NtRp474
(dp475
g68
(dp476
sg77
g462
sg70
(lp477
g63
(g64
g65
NtRp478
(dp479
g68
(dp480
g76
I3
ssg77
g474
sg70
(lp481
S''
asbasbasbag63
(g79
g65
NtRp482
(dp483
g68
(dp484
sg77
g458
sg70
(lp485
g63
(g84
g65
NtRp486
(dp487
g68
(dp488
g88
g89
ssg77
g482
sg70
(lp489
g298
asbag63
(g84
g65
NtRp490
(dp491
g68
(dp492
g95
g96
ssg77
g482
sg70
(lp493
S':'
asbag63
(g84
g65
NtRp494
(dp495
g68
(dp496
sg77
g482
sg70
(lp497
g63
(g64
g65
NtRp498
(dp499
g68
(dp500
g76
I3
ssg77
g494
sg70
(lp501
S''
asbasbasbag63
(g79
g65
NtRp502
(dp503
g68
(dp504
sg77
g458
sg70
(lp505
g63
(g84
g65
NtRp506
(dp507
g68
(dp508
g88
g89
ssg77
g502
sg70
(lp509
g319
asbag63
(g84
g65
NtRp510
(dp511
g68
(dp512
g95
g96
ssg77
g502
sg70
(lp513
S':'
asbag63
(g84
g65
NtRp514
(dp515
g68
(dp516
sg77
g502
sg70
(lp517
g63
(g64
g65
NtRp518
(dp519
g68
(dp520
g76
I3
ssg77
g514
sg70
(lp521
S''
asbasbasbag63
(g79
g65
NtRp522
(dp523
g68
(dp524
sg77
g458
sg70
(lp525
g63
(g84
g65
NtRp526
(dp527
g68
(dp528
g88
g89
ssg77
g522
sg70
(lp529
g340
asbag63
(g84
g65
NtRp530
(dp531
g68
(dp532
g95
g96
ssg77
g522
sg70
(lp533
S':'
asbag63
(g84
g65
NtRp534
(dp535
g68
(dp536
sg77
g522
sg70
(lp537
g63
(g64
g65
NtRp538
(dp539
g68
(dp540
g76
I3
ssg77
g534
sg70
(lp541
S''
asbasbasbag63
(g79
g65
NtRp542
(dp543
g68
(dp544
sg77
g458
sg70
(lp545
g63
(g84
g65
NtRp546
(dp547
g68
(dp548
g88
g89
ssg77
g542
sg70
(lp549
g361
asbag63
(g84
g65
NtRp550
(dp551
g68
(dp552
g95
g96
ssg77
g542
sg70
(lp553
S':'
asbag63
(g84
g65
NtRp554
(dp555
g68
(dp556
sg77
g542
sg70
(lp557
g63
(g64
g65
NtRp558
(dp559
g68
(dp560
g76
I3
ssg77
g554
sg70
(lp561
S''
asbasbasbag63
(g79
g65
NtRp562
(dp563
g68
(dp564
sg77
g458
sg70
(lp565
g63
(g84
g65
NtRp566
(dp567
g68
(dp568
g88
g89
ssg77
g562
sg70
(lp569
g382
asbag63
(g84
g65
NtRp570
(dp571
g68
(dp572
g95
g96
ssg77
g562
sg70
(lp573
S':'
asbag63
(g84
g65
NtRp574
(dp575
g68
(dp576
sg77
g562
sg70
(lp577
g63
(g64
g65
NtRp578
(dp579
g68
(dp580
g76
I3
ssg77
g574
sg70
(lp581
S''
asbasbasbag63
(g79
g65
NtRp582
(dp583
g68
(dp584
sg77
g458
sg70
(lp585
g63
(g84
g65
NtRp586
(dp587
g68
(dp588
g88
g89
ssg77
g582
sg70
(lp589
g403
asbag63
(g84
g65
NtRp590
(dp591
g68
(dp592
g95
g96
ssg77
g582
sg70
(lp593
S':'
asbag63
(g84
g65
NtRp594
(dp595
g68
(dp596
sg77
g582
sg70
(lp597
g63
(g64
g65
NtRp598
(dp599
g68
(dp600
g76
I3
ssg77
g594
sg70
(lp601
S''
asbasbasbag63
(g79
g65
NtRp602
(dp603
g68
(dp604
sg77
g458
sg70
(lp605
g63
(g84
g65
NtRp606
(dp607
g68
(dp608
g88
g89
ssg77
g602
sg70
(lp609
g424
asbag63
(g84
g65
NtRp610
(dp611
g68
(dp612
g95
g96
ssg77
g602
sg70
(lp613
S':'
asbag63
(g84
g65
NtRp614
(dp615
g68
(dp616
sg77
g602
sg70
(lp617
g63
(g64
g65
NtRp618
(dp619
g68
(dp620
g76
I3
ssg77
g614
sg70
(lp621
S''
asbasbasbasbasbasbasbag63
(g79
g65
NtRp622
(dp623
g68
(dp624
sg77
g240
sg70
(lp625
g63
(g84
g65
NtRp626
(dp627
g68
(dp628
g88
g89
ssg77
g622
sg70
(lp629
S'session_id_dalex1'
p630
asbag63
(g84
g65
NtRp631
(dp632
g68
(dp633
g95
g96
ssg77
g622
sg70
(lp634
S':'
asbag63
(g84
g65
NtRp635
(dp636
g68
(dp637
sg77
g622
sg70
(lp638
g63
(g64
g65
NtRp639
(dp640
g68
(dp641
g76
I4
ssg77
g635
sg70
(lp642
g63
(g72
g65
NtRp643
(dp644
g68
(dp645
g76
I3
ssg77
Nsg70
(lp646
g63
(g79
g65
NtRp647
(dp648
g68
(dp649
sg77
g643
sg70
(lp650
g63
(g84
g65
NtRp651
(dp652
g68
(dp653
g88
g89
ssg77
g647
sg70
(lp654
g277
asbag63
(g84
g65
NtRp655
(dp656
g68
(dp657
g95
g96
ssg77
g647
sg70
(lp658
S':'
asbag63
(g84
g65
NtRp659
(dp660
g68
(dp661
sg77
g647
sg70
(lp662
g63
(g64
g65
NtRp663
(dp664
g68
(dp665
g76
I3
ssg77
g659
sg70
(lp666
S''
asbasbasbag63
(g79
g65
NtRp667
(dp668
g68
(dp669
sg77
g643
sg70
(lp670
g63
(g84
g65
NtRp671
(dp672
g68
(dp673
g88
g89
ssg77
g667
sg70
(lp674
g298
asbag63
(g84
g65
NtRp675
(dp676
g68
(dp677
g95
g96
ssg77
g667
sg70
(lp678
S':'
asbag63
(g84
g65
NtRp679
(dp680
g68
(dp681
sg77
g667
sg70
(lp682
g63
(g64
g65
NtRp683
(dp684
g68
(dp685
g76
I3
ssg77
g679
sg70
(lp686
S''
asbasbasbag63
(g79
g65
NtRp687
(dp688
g68
(dp689
sg77
g643
sg70
(lp690
g63
(g84
g65
NtRp691
(dp692
g68
(dp693
g88
g89
ssg77
g687
sg70
(lp694
g319
asbag63
(g84
g65
NtRp695
(dp696
g68
(dp697
g95
g96
ssg77
g687
sg70
(lp698
S':'
asbag63
(g84
g65
NtRp699
(dp700
g68
(dp701
sg77
g687
sg70
(lp702
g63
(g64
g65
NtRp703
(dp704
g68
(dp705
g76
I3
ssg77
g699
sg70
(lp706
S''
asbasbasbag63
(g79
g65
NtRp707
(dp708
g68
(dp709
sg77
g643
sg70
(lp710
g63
(g84
g65
NtRp711
(dp712
g68
(dp713
g88
g89
ssg77
g707
sg70
(lp714
g340
asbag63
(g84
g65
NtRp715
(dp716
g68
(dp717
g95
g96
ssg77
g707
sg70
(lp718
S':'
asbag63
(g84
g65
NtRp719
(dp720
g68
(dp721
sg77
g707
sg70
(lp722
g63
(g64
g65
NtRp723
(dp724
g68
(dp725
g76
I3
ssg77
g719
sg70
(lp726
S''
asbasbasbag63
(g79
g65
NtRp727
(dp728
g68
(dp729
sg77
g643
sg70
(lp730
g63
(g84
g65
NtRp731
(dp732
g68
(dp733
g88
g89
ssg77
g727
sg70
(lp734
g361
asbag63
(g84
g65
NtRp735
(dp736
g68
(dp737
g95
g96
ssg77
g727
sg70
(lp738
S':'
asbag63
(g84
g65
NtRp739
(dp740
g68
(dp741
sg77
g727
sg70
(lp742
g63
(g64
g65
NtRp743
(dp744
g68
(dp745
g76
I3
ssg77
g739
sg70
(lp746
S''
asbasbasbag63
(g79
g65
NtRp747
(dp748
g68
(dp749
sg77
g643
sg70
(lp750
g63
(g84
g65
NtRp751
(dp752
g68
(dp753
g88
g89
ssg77
g747
sg70
(lp754
g382
asbag63
(g84
g65
NtRp755
(dp756
g68
(dp757
g95
g96
ssg77
g747
sg70
(lp758
S':'
asbag63
(g84
g65
NtRp759
(dp760
g68
(dp761
sg77
g747
sg70
(lp762
g63
(g64
g65
NtRp763
(dp764
g68
(dp765
g76
I3
ssg77
g759
sg70
(lp766
S''
asbasbasbag63
(g79
g65
NtRp767
(dp768
g68
(dp769
sg77
g643
sg70
(lp770
g63
(g84
g65
NtRp771
(dp772
g68
(dp773
g88
g89
ssg77
g767
sg70
(lp774
g403
asbag63
(g84
g65
NtRp775
(dp776
g68
(dp777
g95
g96
ssg77
g767
sg70
(lp778
S':'
asbag63
(g84
g65
NtRp779
(dp780
g68
(dp781
sg77
g767
sg70
(lp782
g63
(g64
g65
NtRp783
(dp784
g68
(dp785
g76
I3
ssg77
g779
sg70
(lp786
S''
asbasbasbag63
(g79
g65
NtRp787
(dp788
g68
(dp789
sg77
g643
sg70
(lp790
g63
(g84
g65
NtRp791
(dp792
g68
(dp793
g88
g89
ssg77
g787
sg70
(lp794
g424
asbag63
(g84
g65
NtRp795
(dp796
g68
(dp797
g95
g96
ssg77
g787
sg70
(lp798
S':'
asbag63
(g84
g65
NtRp799
(dp800
g68
(dp801
sg77
g787
sg70
(lp802
g63
(g64
g65
NtRp803
(dp804
g68
(dp805
g76
I3
ssg77
g799
sg70
(lp806
S''
asbasbasbasbasbasbasbag63
(g79
g65
NtRp807
(dp808
g68
(dp809
sg77
g240
sg70
(lp810
g63
(g84
g65
NtRp811
(dp812
g68
(dp813
g88
g89
ssg77
g807
sg70
(lp814
S'session_id_payperiod'
p815
asbag63
(g84
g65
NtRp816
(dp817
g68
(dp818
g95
g96
ssg77
g807
sg70
(lp819
S':'
asbag63
(g84
g65
NtRp820
(dp821
g68
(dp822
sg77
g807
sg70
(lp823
g63
(g64
g65
NtRp824
(dp825
g68
(dp826
g76
I4
ssg77
g820
sg70
(lp827
g63
(g72
g65
NtRp828
(dp829
g68
(dp830
g76
I3
ssg77
Nsg70
(lp831
g63
(g79
g65
NtRp832
(dp833
g68
(dp834
sg77
g828
sg70
(lp835
g63
(g84
g65
NtRp836
(dp837
g68
(dp838
g88
g89
ssg77
g832
sg70
(lp839
g277
asbag63
(g84
g65
NtRp840
(dp841
g68
(dp842
g95
g96
ssg77
g832
sg70
(lp843
S':'
asbag63
(g84
g65
NtRp844
(dp845
g68
(dp846
sg77
g832
sg70
(lp847
g63
(g64
g65
NtRp848
(dp849
g68
(dp850
g76
I3
ssg77
g844
sg70
(lp851
S''
asbasbasbag63
(g79
g65
NtRp852
(dp853
g68
(dp854
sg77
g828
sg70
(lp855
g63
(g84
g65
NtRp856
(dp857
g68
(dp858
g88
g89
ssg77
g852
sg70
(lp859
g298
asbag63
(g84
g65
NtRp860
(dp861
g68
(dp862
g95
g96
ssg77
g852
sg70
(lp863
S':'
asbag63
(g84
g65
NtRp864
(dp865
g68
(dp866
sg77
g852
sg70
(lp867
g63
(g64
g65
NtRp868
(dp869
g68
(dp870
g76
I3
ssg77
g864
sg70
(lp871
S''
asbasbasbag63
(g79
g65
NtRp872
(dp873
g68
(dp874
sg77
g828
sg70
(lp875
g63
(g84
g65
NtRp876
(dp877
g68
(dp878
g88
g89
ssg77
g872
sg70
(lp879
g319
asbag63
(g84
g65
NtRp880
(dp881
g68
(dp882
g95
g96
ssg77
g872
sg70
(lp883
S':'
asbag63
(g84
g65
NtRp884
(dp885
g68
(dp886
sg77
g872
sg70
(lp887
g63
(g64
g65
NtRp888
(dp889
g68
(dp890
g76
I3
ssg77
g884
sg70
(lp891
S''
asbasbasbag63
(g79
g65
NtRp892
(dp893
g68
(dp894
sg77
g828
sg70
(lp895
g63
(g84
g65
NtRp896
(dp897
g68
(dp898
g88
g89
ssg77
g892
sg70
(lp899
g340
asbag63
(g84
g65
NtRp900
(dp901
g68
(dp902
g95
g96
ssg77
g892
sg70
(lp903
S':'
asbag63
(g84
g65
NtRp904
(dp905
g68
(dp906
sg77
g892
sg70
(lp907
g63
(g64
g65
NtRp908
(dp909
g68
(dp910
g76
I3
ssg77
g904
sg70
(lp911
S''
asbasbasbag63
(g79
g65
NtRp912
(dp913
g68
(dp914
sg77
g828
sg70
(lp915
g63
(g84
g65
NtRp916
(dp917
g68
(dp918
g88
g89
ssg77
g912
sg70
(lp919
g361
asbag63
(g84
g65
NtRp920
(dp921
g68
(dp922
g95
g96
ssg77
g912
sg70
(lp923
S':'
asbag63
(g84
g65
NtRp924
(dp925
g68
(dp926
sg77
g912
sg70
(lp927
g63
(g64
g65
NtRp928
(dp929
g68
(dp930
g76
I3
ssg77
g924
sg70
(lp931
S''
asbasbasbag63
(g79
g65
NtRp932
(dp933
g68
(dp934
sg77
g828
sg70
(lp935
g63
(g84
g65
NtRp936
(dp937
g68
(dp938
g88
g89
ssg77
g932
sg70
(lp939
g382
asbag63
(g84
g65
NtRp940
(dp941
g68
(dp942
g95
g96
ssg77
g932
sg70
(lp943
S':'
asbag63
(g84
g65
NtRp944
(dp945
g68
(dp946
sg77
g932
sg70
(lp947
g63
(g64
g65
NtRp948
(dp949
g68
(dp950
g76
I3
ssg77
g944
sg70
(lp951
S''
asbasbasbag63
(g79
g65
NtRp952
(dp953
g68
(dp954
sg77
g828
sg70
(lp955
g63
(g84
g65
NtRp956
(dp957
g68
(dp958
g88
g89
ssg77
g952
sg70
(lp959
g403
asbag63
(g84
g65
NtRp960
(dp961
g68
(dp962
g95
g96
ssg77
g952
sg70
(lp963
S':'
asbag63
(g84
g65
NtRp964
(dp965
g68
(dp966
sg77
g952
sg70
(lp967
g63
(g64
g65
NtRp968
(dp969
g68
(dp970
g76
I3
ssg77
g964
sg70
(lp971
S''
asbasbasbag63
(g79
g65
NtRp972
(dp973
g68
(dp974
sg77
g828
sg70
(lp975
g63
(g84
g65
NtRp976
(dp977
g68
(dp978
g88
g89
ssg77
g972
sg70
(lp979
g424
asbag63
(g84
g65
NtRp980
(dp981
g68
(dp982
g95
g96
ssg77
g972
sg70
(lp983
S':'
asbag63
(g84
g65
NtRp984
(dp985
g68
(dp986
sg77
g972
sg70
(lp987
g63
(g64
g65
NtRp988
(dp989
g68
(dp990
g76
I3
ssg77
g984
sg70
(lp991
S''
asbasbasbasbasbasbasbag63
(g79
g65
NtRp992
(dp993
g68
(dp994
sg77
g240
sg70
(lp995
g63
(g84
g65
NtRp996
(dp997
g68
(dp998
g88
g89
ssg77
g992
sg70
(lp999
S'session_id_welcome'
p1000
asbag63
(g84
g65
NtRp1001
(dp1002
g68
(dp1003
g95
g96
ssg77
g992
sg70
(lp1004
S':'
asbag63
(g84
g65
NtRp1005
(dp1006
g68
(dp1007
sg77
g992
sg70
(lp1008
g63
(g64
g65
NtRp1009
(dp1010
g68
(dp1011
g76
I4
ssg77
g1005
sg70
(lp1012
g63
(g72
g65
NtRp1013
(dp1014
g68
(dp1015
g76
I3
ssg77
Nsg70
(lp1016
g63
(g79
g65
NtRp1017
(dp1018
g68
(dp1019
sg77
g1013
sg70
(lp1020
g63
(g84
g65
NtRp1021
(dp1022
g68
(dp1023
g88
g89
ssg77
g1017
sg70
(lp1024
g277
asbag63
(g84
g65
NtRp1025
(dp1026
g68
(dp1027
g95
g96
ssg77
g1017
sg70
(lp1028
S':'
asbag63
(g84
g65
NtRp1029
(dp1030
g68
(dp1031
sg77
g1017
sg70
(lp1032
g63
(g64
g65
NtRp1033
(dp1034
g68
(dp1035
g76
I3
ssg77
g1029
sg70
(lp1036
S''
asbasbasbag63
(g79
g65
NtRp1037
(dp1038
g68
(dp1039
sg77
g1013
sg70
(lp1040
g63
(g84
g65
NtRp1041
(dp1042
g68
(dp1043
g88
g89
ssg77
g1037
sg70
(lp1044
g298
asbag63
(g84
g65
NtRp1045
(dp1046
g68
(dp1047
g95
g96
ssg77
g1037
sg70
(lp1048
S':'
asbag63
(g84
g65
NtRp1049
(dp1050
g68
(dp1051
sg77
g1037
sg70
(lp1052
g63
(g64
g65
NtRp1053
(dp1054
g68
(dp1055
g76
I3
ssg77
g1049
sg70
(lp1056
S''
asbasbasbag63
(g79
g65
NtRp1057
(dp1058
g68
(dp1059
sg77
g1013
sg70
(lp1060
g63
(g84
g65
NtRp1061
(dp1062
g68
(dp1063
g88
g89
ssg77
g1057
sg70
(lp1064
g319
asbag63
(g84
g65
NtRp1065
(dp1066
g68
(dp1067
g95
g96
ssg77
g1057
sg70
(lp1068
S':'
asbag63
(g84
g65
NtRp1069
(dp1070
g68
(dp1071
sg77
g1057
sg70
(lp1072
g63
(g64
g65
NtRp1073
(dp1074
g68
(dp1075
g76
I3
ssg77
g1069
sg70
(lp1076
S''
asbasbasbag63
(g79
g65
NtRp1077
(dp1078
g68
(dp1079
sg77
g1013
sg70
(lp1080
g63
(g84
g65
NtRp1081
(dp1082
g68
(dp1083
g88
g89
ssg77
g1077
sg70
(lp1084
g340
asbag63
(g84
g65
NtRp1085
(dp1086
g68
(dp1087
g95
g96
ssg77
g1077
sg70
(lp1088
S':'
asbag63
(g84
g65
NtRp1089
(dp1090
g68
(dp1091
sg77
g1077
sg70
(lp1092
g63
(g64
g65
NtRp1093
(dp1094
g68
(dp1095
g76
I3
ssg77
g1089
sg70
(lp1096
S''
asbasbasbag63
(g79
g65
NtRp1097
(dp1098
g68
(dp1099
sg77
g1013
sg70
(lp1100
g63
(g84
g65
NtRp1101
(dp1102
g68
(dp1103
g88
g89
ssg77
g1097
sg70
(lp1104
g361
asbag63
(g84
g65
NtRp1105
(dp1106
g68
(dp1107
g95
g96
ssg77
g1097
sg70
(lp1108
S':'
asbag63
(g84
g65
NtRp1109
(dp1110
g68
(dp1111
sg77
g1097
sg70
(lp1112
g63
(g64
g65
NtRp1113
(dp1114
g68
(dp1115
g76
I3
ssg77
g1109
sg70
(lp1116
S''
asbasbasbag63
(g79
g65
NtRp1117
(dp1118
g68
(dp1119
sg77
g1013
sg70
(lp1120
g63
(g84
g65
NtRp1121
(dp1122
g68
(dp1123
g88
g89
ssg77
g1117
sg70
(lp1124
g382
asbag63
(g84
g65
NtRp1125
(dp1126
g68
(dp1127
g95
g96
ssg77
g1117
sg70
(lp1128
S':'
asbag63
(g84
g65
NtRp1129
(dp1130
g68
(dp1131
sg77
g1117
sg70
(lp1132
g63
(g64
g65
NtRp1133
(dp1134
g68
(dp1135
g76
I3
ssg77
g1129
sg70
(lp1136
S''
asbasbasbag63
(g79
g65
NtRp1137
(dp1138
g68
(dp1139
sg77
g1013
sg70
(lp1140
g63
(g84
g65
NtRp1141
(dp1142
g68
(dp1143
g88
g89
ssg77
g1137
sg70
(lp1144
g403
asbag63
(g84
g65
NtRp1145
(dp1146
g68
(dp1147
g95
g96
ssg77
g1137
sg70
(lp1148
S':'
asbag63
(g84
g65
NtRp1149
(dp1150
g68
(dp1151
sg77
g1137
sg70
(lp1152
g63
(g64
g65
NtRp1153
(dp1154
g68
(dp1155
g76
I3
ssg77
g1149
sg70
(lp1156
S''
asbasbasbag63
(g79
g65
NtRp1157
(dp1158
g68
(dp1159
sg77
g1013
sg70
(lp1160
g63
(g84
g65
NtRp1161
(dp1162
g68
(dp1163
g88
g89
ssg77
g1157
sg70
(lp1164
g424
asbag63
(g84
g65
NtRp1165
(dp1166
g68
(dp1167
g95
g96
ssg77
g1157
sg70
(lp1168
S':'
asbag63
(g84
g65
NtRp1169
(dp1170
g68
(dp1171
sg77
g1157
sg70
(lp1172
g63
(g64
g65
NtRp1173
(dp1174
g68
(dp1175
g76
I3
ssg77
g1169
sg70
(lp1176
S''
asbasbasbasbasbasbasbasbasbasbasbag63
(g79
g65
NtRp1177
(dp1178
g68
(dp1179
sg77
g73
sg70
(lp1180
g63
(g84
g65
NtRp1181
(dp1182
g68
(dp1183
g88
g89
ssg77
g1177
sg70
(lp1184
S'env'
p1185
asbag63
(g84
g65
NtRp1186
(dp1187
g68
(dp1188
g95
g96
ssg77
g1177
sg70
(lp1189
S':'
asbag63
(g84
g65
NtRp1190
(dp1191
g68
(dp1192
sg77
g1177
sg70
(lp1193
g63
(g64
g65
NtRp1194
(dp1195
g68
(dp1196
g76
I5
ssg77
g1190
sg70
(lp1197
g63
(g72
g65
NtRp1198
(dp1199
g68
(dp1200
g76
I4
ssg77
Nsg70
(lp1201
g63
(g79
g65
NtRp1202
(dp1203
g68
(dp1204
sg77
g1198
sg70
(lp1205
g63
(g84
g65
NtRp1206
(dp1207
g68
(dp1208
g88
g89
ssg77
g1202
sg70
(lp1209
S'app_folders'
p1210
asbag63
(g84
g65
NtRp1211
(dp1212
g68
(dp1213
g95
g96
ssg77
g1202
sg70
(lp1214
S':'
asbag63
(g84
g65
NtRp1215
(dp1216
g68
(dp1217
sg77
g1202
sg70
(lp1218
g63
(g64
g65
NtRp1219
(dp1220
g68
(dp1221
g76
I4
ssg77
g1215
sg70
(lp1222
S"set(['/home/u4hcsdaw/Python/web2py/applications/ACES/', '/home/u4hcsdaw/Python/web2py/applications/PayPeriod/', '/home/u4hcsdaw/Python/web2py/applications/admin/', '/home/u4hcsdaw/Python/web2py/applications/welcome/', '/home/u4hcsdaw/Python/web2py/applications/DALEX1/'])"
p1223
asbasbasbag63
(g79
g65
NtRp1224
(dp1225
g68
(dp1226
sg77
g1198
sg70
(lp1227
g63
(g84
g65
NtRp1228
(dp1229
g68
(dp1230
g88
g89
ssg77
g1224
sg70
(lp1231
S'applications_parent'
p1232
asbag63
(g84
g65
NtRp1233
(dp1234
g68
(dp1235
g95
g96
ssg77
g1224
sg70
(lp1236
S':'
asbag63
(g84
g65
NtRp1237
(dp1238
g68
(dp1239
sg77
g1224
sg70
(lp1240
g63
(g64
g65
NtRp1241
(dp1242
g68
(dp1243
g76
I4
ssg77
g1237
sg70
(lp1244
S'/home/u4hcsdaw/Python/web2py'
p1245
asbasbasbag63
(g79
g65
NtRp1246
(dp1247
g68
(dp1248
sg77
g1198
sg70
(lp1249
g63
(g84
g65
NtRp1250
(dp1251
g68
(dp1252
g88
g89
ssg77
g1246
sg70
(lp1253
S'cmd_args'
p1254
asbag63
(g84
g65
NtRp1255
(dp1256
g68
(dp1257
g95
g96
ssg77
g1246
sg70
(lp1258
S':'
asbag63
(g84
g65
NtRp1259
(dp1260
g68
(dp1261
sg77
g1246
sg70
(lp1262
g63
(g64
g65
NtRp1263
(dp1264
g68
(dp1265
g76
I4
ssg77
g1259
sg70
(lp1266
g63
(g72
g65
NtRp1267
(dp1268
g68
(dp1269
g76
I3
ssg77
Nsg70
(lp1270
sbasbasbasbag63
(g79
g65
NtRp1271
(dp1272
g68
(dp1273
sg77
g1198
sg70
(lp1274
g63
(g84
g65
NtRp1275
(dp1276
g68
(dp1277
g88
g89
ssg77
g1271
sg70
(lp1278
S'cmd_options'
p1279
asbag63
(g84
g65
NtRp1280
(dp1281
g68
(dp1282
g95
g96
ssg77
g1271
sg70
(lp1283
S':'
asbag63
(g84
g65
NtRp1284
(dp1285
g68
(dp1286
sg77
g1271
sg70
(lp1287
g63
(g64
g65
NtRp1288
(dp1289
g68
(dp1290
g76
I4
ssg77
g1284
sg70
(lp1291
S"<Values at 0xa59ca2c: {'verbose': False, 'ip': '127.0.0.1', 'shutdown_timeout': 5, 'taskbar': False, 'nocron': False, 'pid_filename': 'httpserver.pid', 'maxthreads': None, 'softcron': False, 'server_name': 'CHL-5833E', 'bpython': False, 'nogui': False, 'port': 8000, 'extcron': False, 'debuglevel': 30, 'test': None, 'folder': '/home/u4hcsdaw/Python/web2py', 'config': '', 'import_models': False, 'winservice': '', 'shell': None, 'run': '', 'log_filename': 'httpserver.log', 'args': [''], 'ssl_ca_certificate': None, 'scheduler': None, 'profiler_filename': None, 'ssl_private_key': '', 'password': '<ask>', 'request_queue_size': 5, 'ssl_certificate': '', 'cronjob': False, 'plain': False, 'quiet': False, 'interfaces': None, 'minthreads': None, 'timeout': 10, 'numthreads': None, 'nobanner': False}>"
p1292
asbasbasbag63
(g79
g65
NtRp1293
(dp1294
g68
(dp1295
sg77
g1198
sg70
(lp1296
g63
(g84
g65
NtRp1297
(dp1298
g68
(dp1299
g88
g89
ssg77
g1293
sg70
(lp1300
S'content_length'
p1301
asbag63
(g84
g65
NtRp1302
(dp1303
g68
(dp1304
g95
g96
ssg77
g1293
sg70
(lp1305
S':'
asbag63
(g84
g65
NtRp1306
(dp1307
g68
(dp1308
sg77
g1293
sg70
(lp1309
g63
(g64
g65
NtRp1310
(dp1311
g68
(dp1312
g76
I4
ssg77
g1306
sg70
(lp1313
S'577'
p1314
asbasbasbag63
(g79
g65
NtRp1315
(dp1316
g68
(dp1317
sg77
g1198
sg70
(lp1318
g63
(g84
g65
NtRp1319
(dp1320
g68
(dp1321
g88
g89
ssg77
g1315
sg70
(lp1322
S'content_type'
p1323
asbag63
(g84
g65
NtRp1324
(dp1325
g68
(dp1326
g95
g96
ssg77
g1315
sg70
(lp1327
S':'
asbag63
(g84
g65
NtRp1328
(dp1329
g68
(dp1330
sg77
g1315
sg70
(lp1331
g63
(g64
g65
NtRp1332
(dp1333
g68
(dp1334
g76
I4
ssg77
g1328
sg70
(lp1335
S'multipart/form-data; boundary=---------------------------16314163472756017271137949480'
p1336
asbasbasbag63
(g79
g65
NtRp1337
(dp1338
g68
(dp1339
sg77
g1198
sg70
(lp1340
g63
(g84
g65
NtRp1341
(dp1342
g68
(dp1343
g88
g89
ssg77
g1337
sg70
(lp1344
S'db_sessions'
p1345
asbag63
(g84
g65
NtRp1346
(dp1347
g68
(dp1348
g95
g96
ssg77
g1337
sg70
(lp1349
S':'
asbag63
(g84
g65
NtRp1350
(dp1351
g68
(dp1352
sg77
g1337
sg70
(lp1353
g63
(g64
g65
NtRp1354
(dp1355
g68
(dp1356
g76
I4
ssg77
g1350
sg70
(lp1357
S'set([])'
p1358
asbasbasbag63
(g79
g65
NtRp1359
(dp1360
g68
(dp1361
sg77
g1198
sg70
(lp1362
g63
(g84
g65
NtRp1363
(dp1364
g68
(dp1365
g88
g89
ssg77
g1359
sg70
(lp1366
S'debugging'
p1367
asbag63
(g84
g65
NtRp1368
(dp1369
g68
(dp1370
g95
g96
ssg77
g1359
sg70
(lp1371
S':'
asbag63
(g84
g65
NtRp1372
(dp1373
g68
(dp1374
sg77
g1359
sg70
(lp1375
g63
(g64
g65
NtRp1376
(dp1377
g68
(dp1378
g76
I4
ssg77
g1372
sg70
(lp1379
g106
asbasbasbag63
(g79
g65
NtRp1380
(dp1381
g68
(dp1382
sg77
g1198
sg70
(lp1383
g63
(g84
g65
NtRp1384
(dp1385
g68
(dp1386
g88
g89
ssg77
g1380
sg70
(lp1387
S'gluon_parent'
p1388
asbag63
(g84
g65
NtRp1389
(dp1390
g68
(dp1391
g95
g96
ssg77
g1380
sg70
(lp1392
S':'
asbag63
(g84
g65
NtRp1393
(dp1394
g68
(dp1395
sg77
g1380
sg70
(lp1396
g63
(g64
g65
NtRp1397
(dp1398
g68
(dp1399
g76
I4
ssg77
g1393
sg70
(lp1400
S'/home/u4hcsdaw/Python/web2py'
p1401
asbasbasbag63
(g79
g65
NtRp1402
(dp1403
g68
(dp1404
sg77
g1198
sg70
(lp1405
g63
(g84
g65
NtRp1406
(dp1407
g68
(dp1408
g88
g89
ssg77
g1402
sg70
(lp1409
S'http_accept'
p1410
asbag63
(g84
g65
NtRp1411
(dp1412
g68
(dp1413
g95
g96
ssg77
g1402
sg70
(lp1414
S':'
asbag63
(g84
g65
NtRp1415
(dp1416
g68
(dp1417
sg77
g1402
sg70
(lp1418
g63
(g64
g65
NtRp1419
(dp1420
g68
(dp1421
g76
I4
ssg77
g1415
sg70
(lp1422
S'text/html,application/xhtml+xml,application/xml;q=0.9,*/*;q=0.8'
p1423
asbasbasbag63
(g79
g65
NtRp1424
(dp1425
g68
(dp1426
sg77
g1198
sg70
(lp1427
g63
(g84
g65
NtRp1428
(dp1429
g68
(dp1430
g88
g89
ssg77
g1424
sg70
(lp1431
S'http_accept_encoding'
p1432
asbag63
(g84
g65
NtRp1433
(dp1434
g68
(dp1435
g95
g96
ssg77
g1424
sg70
(lp1436
S':'
asbag63
(g84
g65
NtRp1437
(dp1438
g68
(dp1439
sg77
g1424
sg70
(lp1440
g63
(g64
g65
NtRp1441
(dp1442
g68
(dp1443
g76
I4
ssg77
g1437
sg70
(lp1444
S'gzip, deflate'
p1445
asbasbasbag63
(g79
g65
NtRp1446
(dp1447
g68
(dp1448
sg77
g1198
sg70
(lp1449
g63
(g84
g65
NtRp1450
(dp1451
g68
(dp1452
g88
g89
ssg77
g1446
sg70
(lp1453
S'http_accept_language'
p1454
asbag63
(g84
g65
NtRp1455
(dp1456
g68
(dp1457
g95
g96
ssg77
g1446
sg70
(lp1458
S':'
asbag63
(g84
g65
NtRp1459
(dp1460
g68
(dp1461
sg77
g1446
sg70
(lp1462
g63
(g64
g65
NtRp1463
(dp1464
g68
(dp1465
g76
I4
ssg77
g1459
sg70
(lp1466
S'en-us,en;q=0.5'
p1467
asbasbasbag63
(g79
g65
NtRp1468
(dp1469
g68
(dp1470
sg77
g1198
sg70
(lp1471
g63
(g84
g65
NtRp1472
(dp1473
g68
(dp1474
g88
g89
ssg77
g1468
sg70
(lp1475
S'http_connection'
p1476
asbag63
(g84
g65
NtRp1477
(dp1478
g68
(dp1479
g95
g96
ssg77
g1468
sg70
(lp1480
S':'
asbag63
(g84
g65
NtRp1481
(dp1482
g68
(dp1483
sg77
g1468
sg70
(lp1484
g63
(g64
g65
NtRp1485
(dp1486
g68
(dp1487
g76
I4
ssg77
g1481
sg70
(lp1488
S'keep-alive'
p1489
asbasbasbag63
(g79
g65
NtRp1490
(dp1491
g68
(dp1492
sg77
g1198
sg70
(lp1493
g63
(g84
g65
NtRp1494
(dp1495
g68
(dp1496
g88
g89
ssg77
g1490
sg70
(lp1497
S'http_content_length'
p1498
asbag63
(g84
g65
NtRp1499
(dp1500
g68
(dp1501
g95
g96
ssg77
g1490
sg70
(lp1502
S':'
asbag63
(g84
g65
NtRp1503
(dp1504
g68
(dp1505
sg77
g1490
sg70
(lp1506
g63
(g64
g65
NtRp1507
(dp1508
g68
(dp1509
g76
I4
ssg77
g1503
sg70
(lp1510
g1314
asbasbasbag63
(g79
g65
NtRp1511
(dp1512
g68
(dp1513
sg77
g1198
sg70
(lp1514
g63
(g84
g65
NtRp1515
(dp1516
g68
(dp1517
g88
g89
ssg77
g1511
sg70
(lp1518
S'http_content_type'
p1519
asbag63
(g84
g65
NtRp1520
(dp1521
g68
(dp1522
g95
g96
ssg77
g1511
sg70
(lp1523
S':'
asbag63
(g84
g65
NtRp1524
(dp1525
g68
(dp1526
sg77
g1511
sg70
(lp1527
g63
(g64
g65
NtRp1528
(dp1529
g68
(dp1530
g76
I4
ssg77
g1524
sg70
(lp1531
g1336
asbasbasbag63
(g79
g65
NtRp1532
(dp1533
g68
(dp1534
sg77
g1198
sg70
(lp1535
g63
(g84
g65
NtRp1536
(dp1537
g68
(dp1538
g88
g89
ssg77
g1532
sg70
(lp1539
S'http_cookie'
p1540
asbag63
(g84
g65
NtRp1541
(dp1542
g68
(dp1543
g95
g96
ssg77
g1532
sg70
(lp1544
S':'
asbag63
(g84
g65
NtRp1545
(dp1546
g68
(dp1547
sg77
g1532
sg70
(lp1548
g63
(g64
g65
NtRp1549
(dp1550
g68
(dp1551
g76
I4
ssg77
g1545
sg70
(lp1552
S'session_id_welcome=127.0.0.1-12b98747-1fd8-478d-9049-d46630d93557; session_id_dalex1=127.0.0.1-7e0fdc70-88f0-470f-b29d-66b8055bd8b0; session_id_admin=127.0.0.1-b6612ac5-4ad8-4c3c-a00a-ff553923cd64; session_id_aces=127.0.0.1-41cac65c-3668-453b-9ecc-c26f12d379cc; session_id_payperiod=127.0.0.1-9708cb9c-54bb-4c0f-8cf3-5e7899aff001'
p1553
asbasbasbag63
(g79
g65
NtRp1554
(dp1555
g68
(dp1556
sg77
g1198
sg70
(lp1557
g63
(g84
g65
NtRp1558
(dp1559
g68
(dp1560
g88
g89
ssg77
g1554
sg70
(lp1561
S'http_host'
p1562
asbag63
(g84
g65
NtRp1563
(dp1564
g68
(dp1565
g95
g96
ssg77
g1554
sg70
(lp1566
S':'
asbag63
(g84
g65
NtRp1567
(dp1568
g68
(dp1569
sg77
g1554
sg70
(lp1570
g63
(g64
g65
NtRp1571
(dp1572
g68
(dp1573
g76
I4
ssg77
g1567
sg70
(lp1574
S'127.0.0.1:8000'
p1575
asbasbasbag63
(g79
g65
NtRp1576
(dp1577
g68
(dp1578
sg77
g1198
sg70
(lp1579
g63
(g84
g65
NtRp1580
(dp1581
g68
(dp1582
g88
g89
ssg77
g1576
sg70
(lp1583
S'http_referer'
p1584
asbag63
(g84
g65
NtRp1585
(dp1586
g68
(dp1587
g95
g96
ssg77
g1576
sg70
(lp1588
S':'
asbag63
(g84
g65
NtRp1589
(dp1590
g68
(dp1591
sg77
g1576
sg70
(lp1592
g63
(g64
g65
NtRp1593
(dp1594
g68
(dp1595
g76
I4
ssg77
g1589
sg70
(lp1596
S'http://127.0.0.1:8000/ACES/default/index'
p1597
asbasbasbag63
(g79
g65
NtRp1598
(dp1599
g68
(dp1600
sg77
g1198
sg70
(lp1601
g63
(g84
g65
NtRp1602
(dp1603
g68
(dp1604
g88
g89
ssg77
g1598
sg70
(lp1605
S'http_user_agent'
p1606
asbag63
(g84
g65
NtRp1607
(dp1608
g68
(dp1609
g95
g96
ssg77
g1598
sg70
(lp1610
S':'
asbag63
(g84
g65
NtRp1611
(dp1612
g68
(dp1613
sg77
g1598
sg70
(lp1614
g63
(g64
g65
NtRp1615
(dp1616
g68
(dp1617
g76
I4
ssg77
g1611
sg70
(lp1618
S'Mozilla/5.0 (X11; Ubuntu; Linux i686; rv:11.0) Gecko/20100101 Firefox/11.0'
p1619
asbasbasbag63
(g79
g65
NtRp1620
(dp1621
g68
(dp1622
sg77
g1198
sg70
(lp1623
g63
(g84
g65
NtRp1624
(dp1625
g68
(dp1626
g88
g89
ssg77
g1620
sg70
(lp1627
S'is_jython'
p1628
asbag63
(g84
g65
NtRp1629
(dp1630
g68
(dp1631
g95
g96
ssg77
g1620
sg70
(lp1632
S':'
asbag63
(g84
g65
NtRp1633
(dp1634
g68
(dp1635
sg77
g1620
sg70
(lp1636
g63
(g64
g65
NtRp1637
(dp1638
g68
(dp1639
g76
I4
ssg77
g1633
sg70
(lp1640
g106
asbasbasbag63
(g79
g65
NtRp1641
(dp1642
g68
(dp1643
sg77
g1198
sg70
(lp1644
g63
(g84
g65
NtRp1645
(dp1646
g68
(dp1647
g88
g89
ssg77
g1641
sg70
(lp1648
S'path_info'
p1649
asbag63
(g84
g65
NtRp1650
(dp1651
g68
(dp1652
g95
g96
ssg77
g1641
sg70
(lp1653
S':'
asbag63
(g84
g65
NtRp1654
(dp1655
g68
(dp1656
sg77
g1641
sg70
(lp1657
g63
(g64
g65
NtRp1658
(dp1659
g68
(dp1660
g76
I4
ssg77
g1654
sg70
(lp1661
S'/ACES/default/index'
p1662
asbasbasbag63
(g79
g65
NtRp1663
(dp1664
g68
(dp1665
sg77
g1198
sg70
(lp1666
g63
(g84
g65
NtRp1667
(dp1668
g68
(dp1669
g88
g89
ssg77
g1663
sg70
(lp1670
S'query_string'
p1671
asbag63
(g84
g65
NtRp1672
(dp1673
g68
(dp1674
g95
g96
ssg77
g1663
sg70
(lp1675
S':'
asbag63
(g84
g65
NtRp1676
(dp1677
g68
(dp1678
sg77
g1663
sg70
(lp1679
g63
(g64
g65
NtRp1680
(dp1681
g68
(dp1682
g76
I4
ssg77
g1676
sg70
(lp1683
S''
asbasbasbag63
(g79
g65
NtRp1684
(dp1685
g68
(dp1686
sg77
g1198
sg70
(lp1687
g63
(g84
g65
NtRp1688
(dp1689
g68
(dp1690
g88
g89
ssg77
g1684
sg70
(lp1691
S'remote_addr'
p1692
asbag63
(g84
g65
NtRp1693
(dp1694
g68
(dp1695
g95
g96
ssg77
g1684
sg70
(lp1696
S':'
asbag63
(g84
g65
NtRp1697
(dp1698
g68
(dp1699
sg77
g1684
sg70
(lp1700
g63
(g64
g65
NtRp1701
(dp1702
g68
(dp1703
g76
I4
ssg77
g1697
sg70
(lp1704
g196
asbasbasbag63
(g79
g65
NtRp1705
(dp1706
g68
(dp1707
sg77
g1198
sg70
(lp1708
g63
(g84
g65
NtRp1709
(dp1710
g68
(dp1711
g88
g89
ssg77
g1705
sg70
(lp1712
S'remote_port'
p1713
asbag63
(g84
g65
NtRp1714
(dp1715
g68
(dp1716
g95
g96
ssg77
g1705
sg70
(lp1717
S':'
asbag63
(g84
g65
NtRp1718
(dp1719
g68
(dp1720
sg77
g1705
sg70
(lp1721
g63
(g64
g65
NtRp1722
(dp1723
g68
(dp1724
g76
I4
ssg77
g1718
sg70
(lp1725
S'58208'
p1726
asbasbasbag63
(g79
g65
NtRp1727
(dp1728
g68
(dp1729
sg77
g1198
sg70
(lp1730
g63
(g84
g65
NtRp1731
(dp1732
g68
(dp1733
g88
g89
ssg77
g1727
sg70
(lp1734
S'request_method'
p1735
asbag63
(g84
g65
NtRp1736
(dp1737
g68
(dp1738
g95
g96
ssg77
g1727
sg70
(lp1739
S':'
asbag63
(g84
g65
NtRp1740
(dp1741
g68
(dp1742
sg77
g1727
sg70
(lp1743
g63
(g64
g65
NtRp1744
(dp1745
g68
(dp1746
g76
I4
ssg77
g1740
sg70
(lp1747
S'POST'
p1748
asbasbasbag63
(g79
g65
NtRp1749
(dp1750
g68
(dp1751
sg77
g1198
sg70
(lp1752
g63
(g84
g65
NtRp1753
(dp1754
g68
(dp1755
g88
g89
ssg77
g1749
sg70
(lp1756
S'script_name'
p1757
asbag63
(g84
g65
NtRp1758
(dp1759
g68
(dp1760
g95
g96
ssg77
g1749
sg70
(lp1761
S':'
asbag63
(g84
g65
NtRp1762
(dp1763
g68
(dp1764
sg77
g1749
sg70
(lp1765
g63
(g64
g65
NtRp1766
(dp1767
g68
(dp1768
g76
I4
ssg77
g1762
sg70
(lp1769
S''
asbasbasbag63
(g79
g65
NtRp1770
(dp1771
g68
(dp1772
sg77
g1198
sg70
(lp1773
g63
(g84
g65
NtRp1774
(dp1775
g68
(dp1776
g88
g89
ssg77
g1770
sg70
(lp1777
S'server_name'
p1778
asbag63
(g84
g65
NtRp1779
(dp1780
g68
(dp1781
g95
g96
ssg77
g1770
sg70
(lp1782
S':'
asbag63
(g84
g65
NtRp1783
(dp1784
g68
(dp1785
sg77
g1770
sg70
(lp1786
g63
(g64
g65
NtRp1787
(dp1788
g68
(dp1789
g76
I4
ssg77
g1783
sg70
(lp1790
S'CHL-5833E'
p1791
asbasbasbag63
(g79
g65
NtRp1792
(dp1793
g68
(dp1794
sg77
g1198
sg70
(lp1795
g63
(g84
g65
NtRp1796
(dp1797
g68
(dp1798
g88
g89
ssg77
g1792
sg70
(lp1799
S'server_port'
p1800
asbag63
(g84
g65
NtRp1801
(dp1802
g68
(dp1803
g95
g96
ssg77
g1792
sg70
(lp1804
S':'
asbag63
(g84
g65
NtRp1805
(dp1806
g68
(dp1807
sg77
g1792
sg70
(lp1808
g63
(g64
g65
NtRp1809
(dp1810
g68
(dp1811
g76
I4
ssg77
g1805
sg70
(lp1812
S'8000'
p1813
asbasbasbag63
(g79
g65
NtRp1814
(dp1815
g68
(dp1816
sg77
g1198
sg70
(lp1817
g63
(g84
g65
NtRp1818
(dp1819
g68
(dp1820
g88
g89
ssg77
g1814
sg70
(lp1821
S'server_protocol'
p1822
asbag63
(g84
g65
NtRp1823
(dp1824
g68
(dp1825
g95
g96
ssg77
g1814
sg70
(lp1826
S':'
asbag63
(g84
g65
NtRp1827
(dp1828
g68
(dp1829
sg77
g1814
sg70
(lp1830
g63
(g64
g65
NtRp1831
(dp1832
g68
(dp1833
g76
I4
ssg77
g1827
sg70
(lp1834
S'HTTP/1.1'
p1835
asbasbasbag63
(g79
g65
NtRp1836
(dp1837
g68
(dp1838
sg77
g1198
sg70
(lp1839
g63
(g84
g65
NtRp1840
(dp1841
g68
(dp1842
g88
g89
ssg77
g1836
sg70
(lp1843
S'server_software'
p1844
asbag63
(g84
g65
NtRp1845
(dp1846
g68
(dp1847
g95
g96
ssg77
g1836
sg70
(lp1848
S':'
asbag63
(g84
g65
NtRp1849
(dp1850
g68
(dp1851
sg77
g1836
sg70
(lp1852
g63
(g64
g65
NtRp1853
(dp1854
g68
(dp1855
g76
I4
ssg77
g1849
sg70
(lp1856
S'Rocket 1.2.4'
p1857
asbasbasbag63
(g79
g65
NtRp1858
(dp1859
g68
(dp1860
sg77
g1198
sg70
(lp1861
g63
(g84
g65
NtRp1862
(dp1863
g68
(dp1864
g88
g89
ssg77
g1858
sg70
(lp1865
S'web2py_crontype'
p1866
asbag63
(g84
g65
NtRp1867
(dp1868
g68
(dp1869
g95
g96
ssg77
g1858
sg70
(lp1870
S':'
asbag63
(g84
g65
NtRp1871
(dp1872
g68
(dp1873
sg77
g1858
sg70
(lp1874
g63
(g64
g65
NtRp1875
(dp1876
g68
(dp1877
g76
I4
ssg77
g1871
sg70
(lp1878
S'hard'
p1879
asbasbasbag63
(g79
g65
NtRp1880
(dp1881
g68
(dp1882
sg77
g1198
sg70
(lp1883
g63
(g84
g65
NtRp1884
(dp1885
g68
(dp1886
g88
g89
ssg77
g1880
sg70
(lp1887
S'web2py_path'
p1888
asbag63
(g84
g65
NtRp1889
(dp1890
g68
(dp1891
g95
g96
ssg77
g1880
sg70
(lp1892
S':'
asbag63
(g84
g65
NtRp1893
(dp1894
g68
(dp1895
sg77
g1880
sg70
(lp1896
g63
(g64
g65
NtRp1897
(dp1898
g68
(dp1899
g76
I4
ssg77
g1893
sg70
(lp1900
g1245
asbasbasbag63
(g79
g65
NtRp1901
(dp1902
g68
(dp1903
sg77
g1198
sg70
(lp1904
g63
(g84
g65
NtRp1905
(dp1906
g68
(dp1907
g88
g89
ssg77
g1901
sg70
(lp1908
S'web2py_version'
p1909
asbag63
(g84
g65
NtRp1910
(dp1911
g68
(dp1912
g95
g96
ssg77
g1901
sg70
(lp1913
S':'
asbag63
(g84
g65
NtRp1914
(dp1915
g68
(dp1916
sg77
g1901
sg70
(lp1917
g63
(g64
g65
NtRp1918
(dp1919
g68
(dp1920
g76
I4
ssg77
g1914
sg70
(lp1921
g63
(g72
g65
NtRp1922
(dp1923
g68
(dp1924
g76
I3
ssg77
Nsg70
(lp1925
g63
(g79
g65
NtRp1926
(dp1927
g68
(dp1928
sg77
g1922
sg70
(lp1929
g63
(g84
g65
NtRp1930
(dp1931
g68
(dp1932
sg77
g1926
sg70
(lp1933
g63
(g64
g65
NtRp1934
(dp1935
g68
(dp1936
g76
I3
ssg77
g1930
sg70
(lp1937
S'1'
asbasbasbag63
(g79
g65
NtRp1938
(dp1939
g68
(dp1940
sg77
g1922
sg70
(lp1941
g63
(g84
g65
NtRp1942
(dp1943
g68
(dp1944
sg77
g1938
sg70
(lp1945
g63
(g64
g65
NtRp1946
(dp1947
g68
(dp1948
g76
I3
ssg77
g1942
sg70
(lp1949
S'99'
p1950
asbasbasbag63
(g79
g65
NtRp1951
(dp1952
g68
(dp1953
sg77
g1922
sg70
(lp1954
g63
(g84
g65
NtRp1955
(dp1956
g68
(dp1957
sg77
g1951
sg70
(lp1958
g63
(g64
g65
NtRp1959
(dp1960
g68
(dp1961
g76
I3
ssg77
g1955
sg70
(lp1962
S'2'
asbasbasbag63
(g79
g65
NtRp1963
(dp1964
g68
(dp1965
sg77
g1922
sg70
(lp1966
g63
(g84
g65
NtRp1967
(dp1968
g68
(dp1969
sg77
g1963
sg70
(lp1970
g63
(g64
g65
NtRp1971
(dp1972
g68
(dp1973
g76
I3
ssg77
g1967
sg70
(lp1974
S'datetime.datetime(2011, 9, 26, 6, 55, 33)'
p1975
asbasbasbag63
(g79
g65
NtRp1976
(dp1977
g68
(dp1978
sg77
g1922
sg70
(lp1979
g63
(g84
g65
NtRp1980
(dp1981
g68
(dp1982
sg77
g1976
sg70
(lp1983
g63
(g64
g65
NtRp1984
(dp1985
g68
(dp1986
g76
I3
ssg77
g1980
sg70
(lp1987
S'stable'
p1988
asbasbasbasbasbasbasbag63
(g79
g65
NtRp1989
(dp1990
g68
(dp1991
sg77
g1198
sg70
(lp1992
g63
(g84
g65
NtRp1993
(dp1994
g68
(dp1995
g88
g89
ssg77
g1989
sg70
(lp1996
S'wsgi_errors'
p1997
asbag63
(g84
g65
NtRp1998
(dp1999
g68
(dp2000
g95
g96
ssg77
g1989
sg70
(lp2001
S':'
asbag63
(g84
g65
NtRp2002
(dp2003
g68
(dp2004
sg77
g1989
sg70
(lp2005
g63
(g64
g65
NtRp2006
(dp2007
g68
(dp2008
g76
I4
ssg77
g2002
sg70
(lp2009
S"<open file '<stderr>', mode 'w' at 0xb738b0d0>"
p2010
asbasbasbag63
(g79
g65
NtRp2011
(dp2012
g68
(dp2013
sg77
g1198
sg70
(lp2014
g63
(g84
g65
NtRp2015
(dp2016
g68
(dp2017
g88
g89
ssg77
g2011
sg70
(lp2018
S'wsgi_file_wrapper'
p2019
asbag63
(g84
g65
NtRp2020
(dp2021
g68
(dp2022
g95
g96
ssg77
g2011
sg70
(lp2023
S':'
asbag63
(g84
g65
NtRp2024
(dp2025
g68
(dp2026
sg77
g2011
sg70
(lp2027
g63
(g64
g65
NtRp2028
(dp2029
g68
(dp2030
g76
I4
ssg77
g2024
sg70
(lp2031
S'<class wsgiref.util.FileWrapper at 0xa4ce92c>'
p2032
asbasbasbag63
(g79
g65
NtRp2033
(dp2034
g68
(dp2035
sg77
g1198
sg70
(lp2036
g63
(g84
g65
NtRp2037
(dp2038
g68
(dp2039
g88
g89
ssg77
g2033
sg70
(lp2040
S'wsgi_input'
p2041
asbag63
(g84
g65
NtRp2042
(dp2043
g68
(dp2044
g95
g96
ssg77
g2033
sg70
(lp2045
S':'
asbag63
(g84
g65
NtRp2046
(dp2047
g68
(dp2048
sg77
g2033
sg70
(lp2049
g63
(g64
g65
NtRp2050
(dp2051
g68
(dp2052
g76
I4
ssg77
g2046
sg70
(lp2053
S'<socket._fileobject object at 0xb193d6c>'
p2054
asbasbasbag63
(g79
g65
NtRp2055
(dp2056
g68
(dp2057
sg77
g1198
sg70
(lp2058
g63
(g84
g65
NtRp2059
(dp2060
g68
(dp2061
g88
g89
ssg77
g2055
sg70
(lp2062
S'wsgi_multiprocess'
p2063
asbag63
(g84
g65
NtRp2064
(dp2065
g68
(dp2066
g95
g96
ssg77
g2055
sg70
(lp2067
S':'
asbag63
(g84
g65
NtRp2068
(dp2069
g68
(dp2070
sg77
g2055
sg70
(lp2071
g63
(g64
g65
NtRp2072
(dp2073
g68
(dp2074
g76
I4
ssg77
g2068
sg70
(lp2075
g106
asbasbasbag63
(g79
g65
NtRp2076
(dp2077
g68
(dp2078
sg77
g1198
sg70
(lp2079
g63
(g84
g65
NtRp2080
(dp2081
g68
(dp2082
g88
g89
ssg77
g2076
sg70
(lp2083
S'wsgi_multithread'
p2084
asbag63
(g84
g65
NtRp2085
(dp2086
g68
(dp2087
g95
g96
ssg77
g2076
sg70
(lp2088
S':'
asbag63
(g84
g65
NtRp2089
(dp2090
g68
(dp2091
sg77
g2076
sg70
(lp2092
g63
(g64
g65
NtRp2093
(dp2094
g68
(dp2095
g76
I4
ssg77
g2089
sg70
(lp2096
S'True'
p2097
asbasbasbag63
(g79
g65
NtRp2098
(dp2099
g68
(dp2100
sg77
g1198
sg70
(lp2101
g63
(g84
g65
NtRp2102
(dp2103
g68
(dp2104
g88
g89
ssg77
g2098
sg70
(lp2105
S'wsgi_run_once'
p2106
asbag63
(g84
g65
NtRp2107
(dp2108
g68
(dp2109
g95
g96
ssg77
g2098
sg70
(lp2110
S':'
asbag63
(g84
g65
NtRp2111
(dp2112
g68
(dp2113
sg77
g2098
sg70
(lp2114
g63
(g64
g65
NtRp2115
(dp2116
g68
(dp2117
g76
I4
ssg77
g2111
sg70
(lp2118
g106
asbasbasbag63
(g79
g65
NtRp2119
(dp2120
g68
(dp2121
sg77
g1198
sg70
(lp2122
g63
(g84
g65
NtRp2123
(dp2124
g68
(dp2125
g88
g89
ssg77
g2119
sg70
(lp2126
S'wsgi_url_scheme'
p2127
asbag63
(g84
g65
NtRp2128
(dp2129
g68
(dp2130
g95
g96
ssg77
g2119
sg70
(lp2131
S':'
asbag63
(g84
g65
NtRp2132
(dp2133
g68
(dp2134
sg77
g2119
sg70
(lp2135
g63
(g64
g65
NtRp2136
(dp2137
g68
(dp2138
g76
I4
ssg77
g2132
sg70
(lp2139
S'http'
p2140
asbasbasbag63
(g79
g65
NtRp2141
(dp2142
g68
(dp2143
sg77
g1198
sg70
(lp2144
g63
(g84
g65
NtRp2145
(dp2146
g68
(dp2147
g88
g89
ssg77
g2141
sg70
(lp2148
S'wsgi_version'
p2149
asbag63
(g84
g65
NtRp2150
(dp2151
g68
(dp2152
g95
g96
ssg77
g2141
sg70
(lp2153
S':'
asbag63
(g84
g65
NtRp2154
(dp2155
g68
(dp2156
sg77
g2141
sg70
(lp2157
g63
(g64
g65
NtRp2158
(dp2159
g68
(dp2160
g76
I4
ssg77
g2154
sg70
(lp2161
g63
(g72
g65
NtRp2162
(dp2163
g68
(dp2164
g76
I3
ssg77
Nsg70
(lp2165
g63
(g79
g65
NtRp2166
(dp2167
g68
(dp2168
sg77
g2162
sg70
(lp2169
g63
(g84
g65
NtRp2170
(dp2171
g68
(dp2172
sg77
g2166
sg70
(lp2173
g63
(g64
g65
NtRp2174
(dp2175
g68
(dp2176
g76
I3
ssg77
g2170
sg70
(lp2177
S'1'
asbasbasbag63
(g79
g65
NtRp2178
(dp2179
g68
(dp2180
sg77
g2162
sg70
(lp2181
g63
(g84
g65
NtRp2182
(dp2183
g68
(dp2184
sg77
g2178
sg70
(lp2185
g63
(g64
g65
NtRp2186
(dp2187
g68
(dp2188
g76
I3
ssg77
g2182
sg70
(lp2189
S'0'
asbasbasbasbasbasbasbasbasbasbasbag63
(g79
g65
NtRp2190
(dp2191
g68
(dp2192
sg77
g73
sg70
(lp2193
g63
(g84
g65
NtRp2194
(dp2195
g68
(dp2196
g88
g89
ssg77
g2190
sg70
(lp2197
S'extension'
p2198
asbag63
(g84
g65
NtRp2199
(dp2200
g68
(dp2201
g95
g96
ssg77
g2190
sg70
(lp2202
S':'
asbag63
(g84
g65
NtRp2203
(dp2204
g68
(dp2205
sg77
g2190
sg70
(lp2206
g63
(g64
g65
NtRp2207
(dp2208
g68
(dp2209
g76
I5
ssg77
g2203
sg70
(lp2210
S'html'
p2211
asbasbasbag63
(g79
g65
NtRp2212
(dp2213
g68
(dp2214
sg77
g73
sg70
(lp2215
g63
(g84
g65
NtRp2216
(dp2217
g68
(dp2218
g88
g89
ssg77
g2212
sg70
(lp2219
S'folder'
p2220
asbag63
(g84
g65
NtRp2221
(dp2222
g68
(dp2223
g95
g96
ssg77
g2212
sg70
(lp2224
S':'
asbag63
(g84
g65
NtRp2225
(dp2226
g68
(dp2227
sg77
g2212
sg70
(lp2228
g63
(g64
g65
NtRp2229
(dp2230
g68
(dp2231
g76
I5
ssg77
g2225
sg70
(lp2232
S'/home/u4hcsdaw/Python/web2py/applications/ACES/'
p2233
asbasbasbag63
(g79
g65
NtRp2234
(dp2235
g68
(dp2236
sg77
g73
sg70
(lp2237
g63
(g84
g65
NtRp2238
(dp2239
g68
(dp2240
g88
g89
ssg77
g2234
sg70
(lp2241
S'function'
p2242
asbag63
(g84
g65
NtRp2243
(dp2244
g68
(dp2245
g95
g96
ssg77
g2234
sg70
(lp2246
S':'
asbag63
(g84
g65
NtRp2247
(dp2248
g68
(dp2249
sg77
g2234
sg70
(lp2250
g63
(g64
g65
NtRp2251
(dp2252
g68
(dp2253
g76
I5
ssg77
g2247
sg70
(lp2254
S'index'
p2255
asbasbasbag63
(g79
g65
NtRp2256
(dp2257
g68
(dp2258
sg77
g73
sg70
(lp2259
g63
(g84
g65
NtRp2260
(dp2261
g68
(dp2262
g88
g89
ssg77
g2256
sg70
(lp2263
S'get_vars'
p2264
asbag63
(g84
g65
NtRp2265
(dp2266
g68
(dp2267
g95
g96
ssg77
g2256
sg70
(lp2268
S':'
asbag63
(g84
g65
NtRp2269
(dp2270
g68
(dp2271
sg77
g2256
sg70
(lp2272
g63
(g64
g65
NtRp2273
(dp2274
g68
(dp2275
g76
I5
ssg77
g2269
sg70
(lp2276
g63
(g72
g65
NtRp2277
(dp2278
g68
(dp2279
g76
I4
ssg77
Nsg70
(lp2280
sbasbasbasbag63
(g79
g65
NtRp2281
(dp2282
g68
(dp2283
sg77
g73
sg70
(lp2284
g63
(g84
g65
NtRp2285
(dp2286
g68
(dp2287
g88
g89
ssg77
g2281
sg70
(lp2288
S'global_settings'
p2289
asbag63
(g84
g65
NtRp2290
(dp2291
g68
(dp2292
g95
g96
ssg77
g2281
sg70
(lp2293
S':'
asbag63
(g84
g65
NtRp2294
(dp2295
g68
(dp2296
sg77
g2281
sg70
(lp2297
g63
(g64
g65
NtRp2298
(dp2299
g68
(dp2300
g76
I5
ssg77
g2294
sg70
(lp2301
g63
(g72
g65
NtRp2302
(dp2303
g68
(dp2304
g76
I4
ssg77
Nsg70
(lp2305
g63
(g79
g65
NtRp2306
(dp2307
g68
(dp2308
sg77
g2302
sg70
(lp2309
g63
(g84
g65
NtRp2310
(dp2311
g68
(dp2312
g88
g89
ssg77
g2306
sg70
(lp2313
g1210
asbag63
(g84
g65
NtRp2314
(dp2315
g68
(dp2316
g95
g96
ssg77
g2306
sg70
(lp2317
S':'
asbag63
(g84
g65
NtRp2318
(dp2319
g68
(dp2320
sg77
g2306
sg70
(lp2321
g63
(g64
g65
NtRp2322
(dp2323
g68
(dp2324
g76
I4
ssg77
g2318
sg70
(lp2325
S"set(['/home/u4hcsdaw/Python/web2py/applications/ACES/', '/home/u4hcsdaw/Python/web2py/applications/PayPeriod/', '/home/u4hcsdaw/Python/web2py/applications/admin/', '/home/u4hcsdaw/Python/web2py/applications/welcome/', '/home/u4hcsdaw/Python/web2py/applications/DALEX1/'])"
p2326
asbasbasbag63
(g79
g65
NtRp2327
(dp2328
g68
(dp2329
sg77
g2302
sg70
(lp2330
g63
(g84
g65
NtRp2331
(dp2332
g68
(dp2333
g88
g89
ssg77
g2327
sg70
(lp2334
g1232
asbag63
(g84
g65
NtRp2335
(dp2336
g68
(dp2337
g95
g96
ssg77
g2327
sg70
(lp2338
S':'
asbag63
(g84
g65
NtRp2339
(dp2340
g68
(dp2341
sg77
g2327
sg70
(lp2342
g63
(g64
g65
NtRp2343
(dp2344
g68
(dp2345
g76
I4
ssg77
g2339
sg70
(lp2346
g1245
asbasbasbag63
(g79
g65
NtRp2347
(dp2348
g68
(dp2349
sg77
g2302
sg70
(lp2350
g63
(g84
g65
NtRp2351
(dp2352
g68
(dp2353
g88
g89
ssg77
g2347
sg70
(lp2354
g1254
asbag63
(g84
g65
NtRp2355
(dp2356
g68
(dp2357
g95
g96
ssg77
g2347
sg70
(lp2358
S':'
asbag63
(g84
g65
NtRp2359
(dp2360
g68
(dp2361
sg77
g2347
sg70
(lp2362
g63
(g64
g65
NtRp2363
(dp2364
g68
(dp2365
g76
I4
ssg77
g2359
sg70
(lp2366
g63
(g72
g65
NtRp2367
(dp2368
g68
(dp2369
g76
I3
ssg77
Nsg70
(lp2370
sbasbasbasbag63
(g79
g65
NtRp2371
(dp2372
g68
(dp2373
sg77
g2302
sg70
(lp2374
g63
(g84
g65
NtRp2375
(dp2376
g68
(dp2377
g88
g89
ssg77
g2371
sg70
(lp2378
g1279
asbag63
(g84
g65
NtRp2379
(dp2380
g68
(dp2381
g95
g96
ssg77
g2371
sg70
(lp2382
S':'
asbag63
(g84
g65
NtRp2383
(dp2384
g68
(dp2385
sg77
g2371
sg70
(lp2386
g63
(g64
g65
NtRp2387
(dp2388
g68
(dp2389
g76
I4
ssg77
g2383
sg70
(lp2390
S"<Values at 0xa59ca2c: {'verbose': False, 'ip': '127.0.0.1', 'shutdown_timeout': 5, 'taskbar': False, 'nocron': False, 'pid_filename': 'httpserver.pid', 'maxthreads': None, 'softcron': False, 'server_name': 'CHL-5833E', 'bpython': False, 'nogui': False, 'port': 8000, 'extcron': False, 'debuglevel': 30, 'test': None, 'folder': '/home/u4hcsdaw/Python/web2py', 'config': '', 'import_models': False, 'winservice': '', 'shell': None, 'run': '', 'log_filename': 'httpserver.log', 'args': [''], 'ssl_ca_certificate': None, 'scheduler': None, 'profiler_filename': None, 'ssl_private_key': '', 'password': '<ask>', 'request_queue_size': 5, 'ssl_certificate': '', 'cronjob': False, 'plain': False, 'quiet': False, 'interfaces': None, 'minthreads': None, 'timeout': 10, 'numthreads': None, 'nobanner': False}>"
p2391
asbasbasbag63
(g79
g65
NtRp2392
(dp2393
g68
(dp2394
sg77
g2302
sg70
(lp2395
g63
(g84
g65
NtRp2396
(dp2397
g68
(dp2398
g88
g89
ssg77
g2392
sg70
(lp2399
g1345
asbag63
(g84
g65
NtRp2400
(dp2401
g68
(dp2402
g95
g96
ssg77
g2392
sg70
(lp2403
S':'
asbag63
(g84
g65
NtRp2404
(dp2405
g68
(dp2406
sg77
g2392
sg70
(lp2407
g63
(g64
g65
NtRp2408
(dp2409
g68
(dp2410
g76
I4
ssg77
g2404
sg70
(lp2411
S'set([])'
p2412
asbasbasbag63
(g79
g65
NtRp2413
(dp2414
g68
(dp2415
sg77
g2302
sg70
(lp2416
g63
(g84
g65
NtRp2417
(dp2418
g68
(dp2419
g88
g89
ssg77
g2413
sg70
(lp2420
g1367
asbag63
(g84
g65
NtRp2421
(dp2422
g68
(dp2423
g95
g96
ssg77
g2413
sg70
(lp2424
S':'
asbag63
(g84
g65
NtRp2425
(dp2426
g68
(dp2427
sg77
g2413
sg70
(lp2428
g63
(g64
g65
NtRp2429
(dp2430
g68
(dp2431
g76
I4
ssg77
g2425
sg70
(lp2432
g106
asbasbasbag63
(g79
g65
NtRp2433
(dp2434
g68
(dp2435
sg77
g2302
sg70
(lp2436
g63
(g84
g65
NtRp2437
(dp2438
g68
(dp2439
g88
g89
ssg77
g2433
sg70
(lp2440
g1388
asbag63
(g84
g65
NtRp2441
(dp2442
g68
(dp2443
g95
g96
ssg77
g2433
sg70
(lp2444
S':'
asbag63
(g84
g65
NtRp2445
(dp2446
g68
(dp2447
sg77
g2433
sg70
(lp2448
g63
(g64
g65
NtRp2449
(dp2450
g68
(dp2451
g76
I4
ssg77
g2445
sg70
(lp2452
g1401
asbasbasbag63
(g79
g65
NtRp2453
(dp2454
g68
(dp2455
sg77
g2302
sg70
(lp2456
g63
(g84
g65
NtRp2457
(dp2458
g68
(dp2459
g88
g89
ssg77
g2453
sg70
(lp2460
g1628
asbag63
(g84
g65
NtRp2461
(dp2462
g68
(dp2463
g95
g96
ssg77
g2453
sg70
(lp2464
S':'
asbag63
(g84
g65
NtRp2465
(dp2466
g68
(dp2467
sg77
g2453
sg70
(lp2468
g63
(g64
g65
NtRp2469
(dp2470
g68
(dp2471
g76
I4
ssg77
g2465
sg70
(lp2472
g106
asbasbasbag63
(g79
g65
NtRp2473
(dp2474
g68
(dp2475
sg77
g2302
sg70
(lp2476
g63
(g84
g65
NtRp2477
(dp2478
g68
(dp2479
g88
g89
ssg77
g2473
sg70
(lp2480
g1866
asbag63
(g84
g65
NtRp2481
(dp2482
g68
(dp2483
g95
g96
ssg77
g2473
sg70
(lp2484
S':'
asbag63
(g84
g65
NtRp2485
(dp2486
g68
(dp2487
sg77
g2473
sg70
(lp2488
g63
(g64
g65
NtRp2489
(dp2490
g68
(dp2491
g76
I4
ssg77
g2485
sg70
(lp2492
g1879
asbasbasbag63
(g79
g65
NtRp2493
(dp2494
g68
(dp2495
sg77
g2302
sg70
(lp2496
g63
(g84
g65
NtRp2497
(dp2498
g68
(dp2499
g88
g89
ssg77
g2493
sg70
(lp2500
g1909
asbag63
(g84
g65
NtRp2501
(dp2502
g68
(dp2503
g95
g96
ssg77
g2493
sg70
(lp2504
S':'
asbag63
(g84
g65
NtRp2505
(dp2506
g68
(dp2507
sg77
g2493
sg70
(lp2508
g63
(g64
g65
NtRp2509
(dp2510
g68
(dp2511
g76
I4
ssg77
g2505
sg70
(lp2512
g63
(g72
g65
NtRp2513
(dp2514
g68
(dp2515
g76
I3
ssg77
Nsg70
(lp2516
g63
(g79
g65
NtRp2517
(dp2518
g68
(dp2519
sg77
g2513
sg70
(lp2520
g63
(g84
g65
NtRp2521
(dp2522
g68
(dp2523
sg77
g2517
sg70
(lp2524
g63
(g64
g65
NtRp2525
(dp2526
g68
(dp2527
g76
I3
ssg77
g2521
sg70
(lp2528
S'1'
asbasbasbag63
(g79
g65
NtRp2529
(dp2530
g68
(dp2531
sg77
g2513
sg70
(lp2532
g63
(g84
g65
NtRp2533
(dp2534
g68
(dp2535
sg77
g2529
sg70
(lp2536
g63
(g64
g65
NtRp2537
(dp2538
g68
(dp2539
g76
I3
ssg77
g2533
sg70
(lp2540
S'99'
p2541
asbasbasbag63
(g79
g65
NtRp2542
(dp2543
g68
(dp2544
sg77
g2513
sg70
(lp2545
g63
(g84
g65
NtRp2546
(dp2547
g68
(dp2548
sg77
g2542
sg70
(lp2549
g63
(g64
g65
NtRp2550
(dp2551
g68
(dp2552
g76
I3
ssg77
g2546
sg70
(lp2553
S'2'
asbasbasbag63
(g79
g65
NtRp2554
(dp2555
g68
(dp2556
sg77
g2513
sg70
(lp2557
g63
(g84
g65
NtRp2558
(dp2559
g68
(dp2560
sg77
g2554
sg70
(lp2561
g63
(g64
g65
NtRp2562
(dp2563
g68
(dp2564
g76
I3
ssg77
g2558
sg70
(lp2565
S'datetime.datetime(2011, 9, 26, 6, 55, 33)'
p2566
asbasbasbag63
(g79
g65
NtRp2567
(dp2568
g68
(dp2569
sg77
g2513
sg70
(lp2570
g63
(g84
g65
NtRp2571
(dp2572
g68
(dp2573
sg77
g2567
sg70
(lp2574
g63
(g64
g65
NtRp2575
(dp2576
g68
(dp2577
g76
I3
ssg77
g2571
sg70
(lp2578
g1988
asbasbasbasbasbasbasbasbasbasbasbag63
(g79
g65
NtRp2579
(dp2580
g68
(dp2581
sg77
g73
sg70
(lp2582
g63
(g84
g65
NtRp2583
(dp2584
g68
(dp2585
g88
g89
ssg77
g2579
sg70
(lp2586
S'is_https'
p2587
asbag63
(g84
g65
NtRp2588
(dp2589
g68
(dp2590
g95
g96
ssg77
g2579
sg70
(lp2591
S':'
asbag63
(g84
g65
NtRp2592
(dp2593
g68
(dp2594
sg77
g2579
sg70
(lp2595
g63
(g64
g65
NtRp2596
(dp2597
g68
(dp2598
g76
I5
ssg77
g2592
sg70
(lp2599
g106
asbasbasbag63
(g79
g65
NtRp2600
(dp2601
g68
(dp2602
sg77
g73
sg70
(lp2603
g63
(g84
g65
NtRp2604
(dp2605
g68
(dp2606
g88
g89
ssg77
g2600
sg70
(lp2607
S'is_local'
p2608
asbag63
(g84
g65
NtRp2609
(dp2610
g68
(dp2611
g95
g96
ssg77
g2600
sg70
(lp2612
S':'
asbag63
(g84
g65
NtRp2613
(dp2614
g68
(dp2615
sg77
g2600
sg70
(lp2616
g63
(g64
g65
NtRp2617
(dp2618
g68
(dp2619
g76
I5
ssg77
g2613
sg70
(lp2620
g2097
asbasbasbag63
(g79
g65
NtRp2621
(dp2622
g68
(dp2623
sg77
g73
sg70
(lp2624
g63
(g84
g65
NtRp2625
(dp2626
g68
(dp2627
g88
g89
ssg77
g2621
sg70
(lp2628
S'is_restful'
p2629
asbag63
(g84
g65
NtRp2630
(dp2631
g68
(dp2632
g95
g96
ssg77
g2621
sg70
(lp2633
S':'
asbag63
(g84
g65
NtRp2634
(dp2635
g68
(dp2636
sg77
g2621
sg70
(lp2637
g63
(g64
g65
NtRp2638
(dp2639
g68
(dp2640
g76
I5
ssg77
g2634
sg70
(lp2641
g106
asbasbasbag63
(g79
g65
NtRp2642
(dp2643
g68
(dp2644
sg77
g73
sg70
(lp2645
g63
(g84
g65
NtRp2646
(dp2647
g68
(dp2648
g88
g89
ssg77
g2642
sg70
(lp2649
S'now'
p2650
asbag63
(g84
g65
NtRp2651
(dp2652
g68
(dp2653
g95
g96
ssg77
g2642
sg70
(lp2654
S':'
asbag63
(g84
g65
NtRp2655
(dp2656
g68
(dp2657
sg77
g2642
sg70
(lp2658
g63
(g64
g65
NtRp2659
(dp2660
g68
(dp2661
g76
I5
ssg77
g2655
sg70
(lp2662
S'datetime.datetime(2012, 6, 5, 16, 50, 14, 688377)'
p2663
asbasbasbag63
(g79
g65
NtRp2664
(dp2665
g68
(dp2666
sg77
g73
sg70
(lp2667
g63
(g84
g65
NtRp2668
(dp2669
g68
(dp2670
g88
g89
ssg77
g2664
sg70
(lp2671
S'post_vars'
p2672
asbag63
(g84
g65
NtRp2673
(dp2674
g68
(dp2675
g95
g96
ssg77
g2664
sg70
(lp2676
S':'
asbag63
(g84
g65
NtRp2677
(dp2678
g68
(dp2679
sg77
g2664
sg70
(lp2680
g63
(g64
g65
NtRp2681
(dp2682
g68
(dp2683
g76
I5
ssg77
g2677
sg70
(lp2684
g63
(g72
g65
NtRp2685
(dp2686
g68
(dp2687
g76
I4
ssg77
Nsg70
(lp2688
g63
(g79
g65
NtRp2689
(dp2690
g68
(dp2691
sg77
g2685
sg70
(lp2692
g63
(g84
g65
NtRp2693
(dp2694
g68
(dp2695
g88
g89
ssg77
g2689
sg70
(lp2696
S'subButton'
p2697
asbag63
(g84
g65
NtRp2698
(dp2699
g68
(dp2700
g95
g96
ssg77
g2689
sg70
(lp2701
S':'
asbag63
(g84
g65
NtRp2702
(dp2703
g68
(dp2704
sg77
g2689
sg70
(lp2705
g63
(g64
g65
NtRp2706
(dp2707
g68
(dp2708
g76
I4
ssg77
g2702
sg70
(lp2709
S'Submit Query'
p2710
asbasbasbag63
(g79
g65
NtRp2711
(dp2712
g68
(dp2713
sg77
g2685
sg70
(lp2714
g63
(g84
g65
NtRp2715
(dp2716
g68
(dp2717
g88
g89
ssg77
g2711
sg70
(lp2718
S'waveHeight'
p2719
asbag63
(g84
g65
NtRp2720
(dp2721
g68
(dp2722
g95
g96
ssg77
g2711
sg70
(lp2723
S':'
asbag63
(g84
g65
NtRp2724
(dp2725
g68
(dp2726
sg77
g2711
sg70
(lp2727
g63
(g64
g65
NtRp2728
(dp2729
g68
(dp2730
g76
I4
ssg77
g2724
sg70
(lp2731
S'0.85'
p2732
asbasbasbasbasbasbasbag63
(g79
g65
NtRp2733
(dp2734
g68
(dp2735
sg77
g73
sg70
(lp2736
g63
(g84
g65
NtRp2737
(dp2738
g68
(dp2739
g88
g89
ssg77
g2733
sg70
(lp2740
S'url'
p2741
asbag63
(g84
g65
NtRp2742
(dp2743
g68
(dp2744
g95
g96
ssg77
g2733
sg70
(lp2745
S':'
asbag63
(g84
g65
NtRp2746
(dp2747
g68
(dp2748
sg77
g2733
sg70
(lp2749
g63
(g64
g65
NtRp2750
(dp2751
g68
(dp2752
g76
I5
ssg77
g2746
sg70
(lp2753
S'/ACES/default/index'
p2754
asbasbasbag63
(g79
g65
NtRp2755
(dp2756
g68
(dp2757
sg77
g73
sg70
(lp2758
g63
(g84
g65
NtRp2759
(dp2760
g68
(dp2761
g88
g89
ssg77
g2755
sg70
(lp2762
S'utcnow'
p2763
asbag63
(g84
g65
NtRp2764
(dp2765
g68
(dp2766
g95
g96
ssg77
g2755
sg70
(lp2767
S':'
asbag63
(g84
g65
NtRp2768
(dp2769
g68
(dp2770
sg77
g2755
sg70
(lp2771
g63
(g64
g65
NtRp2772
(dp2773
g68
(dp2774
g76
I5
ssg77
g2768
sg70
(lp2775
S'datetime.datetime(2012, 6, 5, 21, 50, 14, 688408)'
p2776
asbasbasbag63
(g79
g65
NtRp2777
(dp2778
g68
(dp2779
sg77
g73
sg70
(lp2780
g63
(g84
g65
NtRp2781
(dp2782
g68
(dp2783
g88
g89
ssg77
g2777
sg70
(lp2784
S'uuid'
p2785
asbag63
(g84
g65
NtRp2786
(dp2787
g68
(dp2788
g95
g96
ssg77
g2777
sg70
(lp2789
S':'
asbag63
(g84
g65
NtRp2790
(dp2791
g68
(dp2792
sg77
g2777
sg70
(lp2793
g63
(g64
g65
NtRp2794
(dp2795
g68
(dp2796
g76
I5
ssg77
g2790
sg70
(lp2797
S'ACES/127.0.0.1.2012-06-05.16-50-14.077e9f9a-d0fa-4867-90c7-ddf6098a8086'
p2798
asbasbasbag63
(g79
g65
NtRp2799
(dp2800
g68
(dp2801
sg77
g73
sg70
(lp2802
g63
(g84
g65
NtRp2803
(dp2804
g68
(dp2805
g88
g89
ssg77
g2799
sg70
(lp2806
S'vars'
p2807
asbag63
(g84
g65
NtRp2808
(dp2809
g68
(dp2810
g95
g96
ssg77
g2799
sg70
(lp2811
S':'
asbag63
(g84
g65
NtRp2812
(dp2813
g68
(dp2814
sg77
g2799
sg70
(lp2815
g63
(g64
g65
NtRp2816
(dp2817
g68
(dp2818
g76
I5
ssg77
g2812
sg70
(lp2819
g63
(g72
g65
NtRp2820
(dp2821
g68
(dp2822
g76
I4
ssg77
Nsg70
(lp2823
g63
(g79
g65
NtRp2824
(dp2825
g68
(dp2826
sg77
g2820
sg70
(lp2827
g63
(g84
g65
NtRp2828
(dp2829
g68
(dp2830
g88
g89
ssg77
g2824
sg70
(lp2831
g2697
asbag63
(g84
g65
NtRp2832
(dp2833
g68
(dp2834
g95
g96
ssg77
g2824
sg70
(lp2835
S':'
asbag63
(g84
g65
NtRp2836
(dp2837
g68
(dp2838
sg77
g2824
sg70
(lp2839
g63
(g64
g65
NtRp2840
(dp2841
g68
(dp2842
g76
I4
ssg77
g2836
sg70
(lp2843
g2710
asbasbasbag63
(g79
g65
NtRp2844
(dp2845
g68
(dp2846
sg77
g2820
sg70
(lp2847
g63
(g84
g65
NtRp2848
(dp2849
g68
(dp2850
g88
g89
ssg77
g2844
sg70
(lp2851
g2719
asbag63
(g84
g65
NtRp2852
(dp2853
g68
(dp2854
g95
g96
ssg77
g2844
sg70
(lp2855
S':'
asbag63
(g84
g65
NtRp2856
(dp2857
g68
(dp2858
sg77
g2844
sg70
(lp2859
g63
(g64
g65
NtRp2860
(dp2861
g68
(dp2862
g76
I4
ssg77
g2856
sg70
(lp2863
g2732
asbasbasbasbasbasbasbag63
(g79
g65
NtRp2864
(dp2865
g68
(dp2866
sg77
g73
sg70
(lp2867
g63
(g84
g65
NtRp2868
(dp2869
g68
(dp2870
g88
g89
ssg77
g2864
sg70
(lp2871
S'wsgi'
p2872
asbag63
(g84
g65
NtRp2873
(dp2874
g68
(dp2875
g95
g96
ssg77
g2864
sg70
(lp2876
S':'
asbag63
(g84
g65
NtRp2877
(dp2878
g68
(dp2879
sg77
g2864
sg70
(lp2880
g63
(g64
g65
NtRp2881
(dp2882
g68
(dp2883
g76
I5
ssg77
g2877
sg70
(lp2884
g63
(g72
g65
NtRp2885
(dp2886
g68
(dp2887
g76
I4
ssg77
Nsg70
(lp2888
g63
(g79
g65
NtRp2889
(dp2890
g68
(dp2891
sg77
g2885
sg70
(lp2892
g63
(g84
g65
NtRp2893
(dp2894
g68
(dp2895
g88
g89
ssg77
g2889
sg70
(lp2896
S'environ'
p2897
asbag63
(g84
g65
NtRp2898
(dp2899
g68
(dp2900
g95
g96
ssg77
g2889
sg70
(lp2901
S':'
asbag63
(g84
g65
NtRp2902
(dp2903
g68
(dp2904
sg77
g2889
sg70
(lp2905
g63
(g64
g65
NtRp2906
(dp2907
g68
(dp2908
g76
I4
ssg77
g2902
sg70
(lp2909
g63
(g72
g65
NtRp2910
(dp2911
g68
(dp2912
g76
I3
ssg77
Nsg70
(lp2913
g63
(g79
g65
NtRp2914
(dp2915
g68
(dp2916
sg77
g2910
sg70
(lp2917
g63
(g84
g65
NtRp2918
(dp2919
g68
(dp2920
g88
g89
ssg77
g2914
sg70
(lp2921
S'CONTENT_LENGTH'
p2922
asbag63
(g84
g65
NtRp2923
(dp2924
g68
(dp2925
g95
g96
ssg77
g2914
sg70
(lp2926
S':'
asbag63
(g84
g65
NtRp2927
(dp2928
g68
(dp2929
sg77
g2914
sg70
(lp2930
g63
(g64
g65
NtRp2931
(dp2932
g68
(dp2933
g76
I3
ssg77
g2927
sg70
(lp2934
g1314
asbasbasbag63
(g79
g65
NtRp2935
(dp2936
g68
(dp2937
sg77
g2910
sg70
(lp2938
g63
(g84
g65
NtRp2939
(dp2940
g68
(dp2941
g88
g89
ssg77
g2935
sg70
(lp2942
S'CONTENT_TYPE'
p2943
asbag63
(g84
g65
NtRp2944
(dp2945
g68
(dp2946
g95
g96
ssg77
g2935
sg70
(lp2947
S':'
asbag63
(g84
g65
NtRp2948
(dp2949
g68
(dp2950
sg77
g2935
sg70
(lp2951
g63
(g64
g65
NtRp2952
(dp2953
g68
(dp2954
g76
I3
ssg77
g2948
sg70
(lp2955
g1336
asbasbasbag63
(g79
g65
NtRp2956
(dp2957
g68
(dp2958
sg77
g2910
sg70
(lp2959
g63
(g84
g65
NtRp2960
(dp2961
g68
(dp2962
g88
g89
ssg77
g2956
sg70
(lp2963
S'HTTP_ACCEPT'
p2964
asbag63
(g84
g65
NtRp2965
(dp2966
g68
(dp2967
g95
g96
ssg77
g2956
sg70
(lp2968
S':'
asbag63
(g84
g65
NtRp2969
(dp2970
g68
(dp2971
sg77
g2956
sg70
(lp2972
g63
(g64
g65
NtRp2973
(dp2974
g68
(dp2975
g76
I3
ssg77
g2969
sg70
(lp2976
g1423
asbasbasbag63
(g79
g65
NtRp2977
(dp2978
g68
(dp2979
sg77
g2910
sg70
(lp2980
g63
(g84
g65
NtRp2981
(dp2982
g68
(dp2983
g88
g89
ssg77
g2977
sg70
(lp2984
S'HTTP_ACCEPT_ENCODING'
p2985
asbag63
(g84
g65
NtRp2986
(dp2987
g68
(dp2988
g95
g96
ssg77
g2977
sg70
(lp2989
S':'
asbag63
(g84
g65
NtRp2990
(dp2991
g68
(dp2992
sg77
g2977
sg70
(lp2993
g63
(g64
g65
NtRp2994
(dp2995
g68
(dp2996
g76
I3
ssg77
g2990
sg70
(lp2997
g1445
asbasbasbag63
(g79
g65
NtRp2998
(dp2999
g68
(dp3000
sg77
g2910
sg70
(lp3001
g63
(g84
g65
NtRp3002
(dp3003
g68
(dp3004
g88
g89
ssg77
g2998
sg70
(lp3005
S'HTTP_ACCEPT_LANGUAGE'
p3006
asbag63
(g84
g65
NtRp3007
(dp3008
g68
(dp3009
g95
g96
ssg77
g2998
sg70
(lp3010
S':'
asbag63
(g84
g65
NtRp3011
(dp3012
g68
(dp3013
sg77
g2998
sg70
(lp3014
g63
(g64
g65
NtRp3015
(dp3016
g68
(dp3017
g76
I3
ssg77
g3011
sg70
(lp3018
g1467
asbasbasbag63
(g79
g65
NtRp3019
(dp3020
g68
(dp3021
sg77
g2910
sg70
(lp3022
g63
(g84
g65
NtRp3023
(dp3024
g68
(dp3025
g88
g89
ssg77
g3019
sg70
(lp3026
S'HTTP_CONNECTION'
p3027
asbag63
(g84
g65
NtRp3028
(dp3029
g68
(dp3030
g95
g96
ssg77
g3019
sg70
(lp3031
S':'
asbag63
(g84
g65
NtRp3032
(dp3033
g68
(dp3034
sg77
g3019
sg70
(lp3035
g63
(g64
g65
NtRp3036
(dp3037
g68
(dp3038
g76
I3
ssg77
g3032
sg70
(lp3039
g1489
asbasbasbag63
(g79
g65
NtRp3040
(dp3041
g68
(dp3042
sg77
g2910
sg70
(lp3043
g63
(g84
g65
NtRp3044
(dp3045
g68
(dp3046
g88
g89
ssg77
g3040
sg70
(lp3047
S'HTTP_CONTENT_LENGTH'
p3048
asbag63
(g84
g65
NtRp3049
(dp3050
g68
(dp3051
g95
g96
ssg77
g3040
sg70
(lp3052
S':'
asbag63
(g84
g65
NtRp3053
(dp3054
g68
(dp3055
sg77
g3040
sg70
(lp3056
g63
(g64
g65
NtRp3057
(dp3058
g68
(dp3059
g76
I3
ssg77
g3053
sg70
(lp3060
g1314
asbasbasbag63
(g79
g65
NtRp3061
(dp3062
g68
(dp3063
sg77
g2910
sg70
(lp3064
g63
(g84
g65
NtRp3065
(dp3066
g68
(dp3067
g88
g89
ssg77
g3061
sg70
(lp3068
S'HTTP_CONTENT_TYPE'
p3069
asbag63
(g84
g65
NtRp3070
(dp3071
g68
(dp3072
g95
g96
ssg77
g3061
sg70
(lp3073
S':'
asbag63
(g84
g65
NtRp3074
(dp3075
g68
(dp3076
sg77
g3061
sg70
(lp3077
g63
(g64
g65
NtRp3078
(dp3079
g68
(dp3080
g76
I3
ssg77
g3074
sg70
(lp3081
g1336
asbasbasbag63
(g79
g65
NtRp3082
(dp3083
g68
(dp3084
sg77
g2910
sg70
(lp3085
g63
(g84
g65
NtRp3086
(dp3087
g68
(dp3088
g88
g89
ssg77
g3082
sg70
(lp3089
S'HTTP_COOKIE'
p3090
asbag63
(g84
g65
NtRp3091
(dp3092
g68
(dp3093
g95
g96
ssg77
g3082
sg70
(lp3094
S':'
asbag63
(g84
g65
NtRp3095
(dp3096
g68
(dp3097
sg77
g3082
sg70
(lp3098
g63
(g64
g65
NtRp3099
(dp3100
g68
(dp3101
g76
I3
ssg77
g3095
sg70
(lp3102
g1553
asbasbasbag63
(g79
g65
NtRp3103
(dp3104
g68
(dp3105
sg77
g2910
sg70
(lp3106
g63
(g84
g65
NtRp3107
(dp3108
g68
(dp3109
g88
g89
ssg77
g3103
sg70
(lp3110
S'HTTP_HOST'
p3111
asbag63
(g84
g65
NtRp3112
(dp3113
g68
(dp3114
g95
g96
ssg77
g3103
sg70
(lp3115
S':'
asbag63
(g84
g65
NtRp3116
(dp3117
g68
(dp3118
sg77
g3103
sg70
(lp3119
g63
(g64
g65
NtRp3120
(dp3121
g68
(dp3122
g76
I3
ssg77
g3116
sg70
(lp3123
g1575
asbasbasbag63
(g79
g65
NtRp3124
(dp3125
g68
(dp3126
sg77
g2910
sg70
(lp3127
g63
(g84
g65
NtRp3128
(dp3129
g68
(dp3130
g88
g89
ssg77
g3124
sg70
(lp3131
S'HTTP_REFERER'
p3132
asbag63
(g84
g65
NtRp3133
(dp3134
g68
(dp3135
g95
g96
ssg77
g3124
sg70
(lp3136
S':'
asbag63
(g84
g65
NtRp3137
(dp3138
g68
(dp3139
sg77
g3124
sg70
(lp3140
g63
(g64
g65
NtRp3141
(dp3142
g68
(dp3143
g76
I3
ssg77
g3137
sg70
(lp3144
g1597
asbasbasbag63
(g79
g65
NtRp3145
(dp3146
g68
(dp3147
sg77
g2910
sg70
(lp3148
g63
(g84
g65
NtRp3149
(dp3150
g68
(dp3151
g88
g89
ssg77
g3145
sg70
(lp3152
S'HTTP_USER_AGENT'
p3153
asbag63
(g84
g65
NtRp3154
(dp3155
g68
(dp3156
g95
g96
ssg77
g3145
sg70
(lp3157
S':'
asbag63
(g84
g65
NtRp3158
(dp3159
g68
(dp3160
sg77
g3145
sg70
(lp3161
g63
(g64
g65
NtRp3162
(dp3163
g68
(dp3164
g76
I3
ssg77
g3158
sg70
(lp3165
g1619
asbasbasbag63
(g79
g65
NtRp3166
(dp3167
g68
(dp3168
sg77
g2910
sg70
(lp3169
g63
(g84
g65
NtRp3170
(dp3171
g68
(dp3172
g88
g89
ssg77
g3166
sg70
(lp3173
S'PATH_INFO'
p3174
asbag63
(g84
g65
NtRp3175
(dp3176
g68
(dp3177
g95
g96
ssg77
g3166
sg70
(lp3178
S':'
asbag63
(g84
g65
NtRp3179
(dp3180
g68
(dp3181
sg77
g3166
sg70
(lp3182
g63
(g64
g65
NtRp3183
(dp3184
g68
(dp3185
g76
I3
ssg77
g3179
sg70
(lp3186
g1662
asbasbasbag63
(g79
g65
NtRp3187
(dp3188
g68
(dp3189
sg77
g2910
sg70
(lp3190
g63
(g84
g65
NtRp3191
(dp3192
g68
(dp3193
g88
g89
ssg77
g3187
sg70
(lp3194
S'QUERY_STRING'
p3195
asbag63
(g84
g65
NtRp3196
(dp3197
g68
(dp3198
g95
g96
ssg77
g3187
sg70
(lp3199
S':'
asbag63
(g84
g65
NtRp3200
(dp3201
g68
(dp3202
sg77
g3187
sg70
(lp3203
g63
(g64
g65
NtRp3204
(dp3205
g68
(dp3206
g76
I3
ssg77
g3200
sg70
(lp3207
S''
asbasbasbag63
(g79
g65
NtRp3208
(dp3209
g68
(dp3210
sg77
g2910
sg70
(lp3211
g63
(g84
g65
NtRp3212
(dp3213
g68
(dp3214
g88
g89
ssg77
g3208
sg70
(lp3215
S'REMOTE_ADDR'
p3216
asbag63
(g84
g65
NtRp3217
(dp3218
g68
(dp3219
g95
g96
ssg77
g3208
sg70
(lp3220
S':'
asbag63
(g84
g65
NtRp3221
(dp3222
g68
(dp3223
sg77
g3208
sg70
(lp3224
g63
(g64
g65
NtRp3225
(dp3226
g68
(dp3227
g76
I3
ssg77
g3221
sg70
(lp3228
g196
asbasbasbag63
(g79
g65
NtRp3229
(dp3230
g68
(dp3231
sg77
g2910
sg70
(lp3232
g63
(g84
g65
NtRp3233
(dp3234
g68
(dp3235
g88
g89
ssg77
g3229
sg70
(lp3236
S'REMOTE_PORT'
p3237
asbag63
(g84
g65
NtRp3238
(dp3239
g68
(dp3240
g95
g96
ssg77
g3229
sg70
(lp3241
S':'
asbag63
(g84
g65
NtRp3242
(dp3243
g68
(dp3244
sg77
g3229
sg70
(lp3245
g63
(g64
g65
NtRp3246
(dp3247
g68
(dp3248
g76
I3
ssg77
g3242
sg70
(lp3249
g1726
asbasbasbag63
(g79
g65
NtRp3250
(dp3251
g68
(dp3252
sg77
g2910
sg70
(lp3253
g63
(g84
g65
NtRp3254
(dp3255
g68
(dp3256
g88
g89
ssg77
g3250
sg70
(lp3257
S'REQUEST_METHOD'
p3258
asbag63
(g84
g65
NtRp3259
(dp3260
g68
(dp3261
g95
g96
ssg77
g3250
sg70
(lp3262
S':'
asbag63
(g84
g65
NtRp3263
(dp3264
g68
(dp3265
sg77
g3250
sg70
(lp3266
g63
(g64
g65
NtRp3267
(dp3268
g68
(dp3269
g76
I3
ssg77
g3263
sg70
(lp3270
g1748
asbasbasbag63
(g79
g65
NtRp3271
(dp3272
g68
(dp3273
sg77
g2910
sg70
(lp3274
g63
(g84
g65
NtRp3275
(dp3276
g68
(dp3277
g88
g89
ssg77
g3271
sg70
(lp3278
S'SCRIPT_NAME'
p3279
asbag63
(g84
g65
NtRp3280
(dp3281
g68
(dp3282
g95
g96
ssg77
g3271
sg70
(lp3283
S':'
asbag63
(g84
g65
NtRp3284
(dp3285
g68
(dp3286
sg77
g3271
sg70
(lp3287
g63
(g64
g65
NtRp3288
(dp3289
g68
(dp3290
g76
I3
ssg77
g3284
sg70
(lp3291
S''
asbasbasbag63
(g79
g65
NtRp3292
(dp3293
g68
(dp3294
sg77
g2910
sg70
(lp3295
g63
(g84
g65
NtRp3296
(dp3297
g68
(dp3298
g88
g89
ssg77
g3292
sg70
(lp3299
S'SERVER_NAME'
p3300
asbag63
(g84
g65
NtRp3301
(dp3302
g68
(dp3303
g95
g96
ssg77
g3292
sg70
(lp3304
S':'
asbag63
(g84
g65
NtRp3305
(dp3306
g68
(dp3307
sg77
g3292
sg70
(lp3308
g63
(g64
g65
NtRp3309
(dp3310
g68
(dp3311
g76
I3
ssg77
g3305
sg70
(lp3312
g1791
asbasbasbag63
(g79
g65
NtRp3313
(dp3314
g68
(dp3315
sg77
g2910
sg70
(lp3316
g63
(g84
g65
NtRp3317
(dp3318
g68
(dp3319
g88
g89
ssg77
g3313
sg70
(lp3320
S'SERVER_PORT'
p3321
asbag63
(g84
g65
NtRp3322
(dp3323
g68
(dp3324
g95
g96
ssg77
g3313
sg70
(lp3325
S':'
asbag63
(g84
g65
NtRp3326
(dp3327
g68
(dp3328
sg77
g3313
sg70
(lp3329
g63
(g64
g65
NtRp3330
(dp3331
g68
(dp3332
g76
I3
ssg77
g3326
sg70
(lp3333
g1813
asbasbasbag63
(g79
g65
NtRp3334
(dp3335
g68
(dp3336
sg77
g2910
sg70
(lp3337
g63
(g84
g65
NtRp3338
(dp3339
g68
(dp3340
g88
g89
ssg77
g3334
sg70
(lp3341
S'SERVER_PROTOCOL'
p3342
asbag63
(g84
g65
NtRp3343
(dp3344
g68
(dp3345
g95
g96
ssg77
g3334
sg70
(lp3346
S':'
asbag63
(g84
g65
NtRp3347
(dp3348
g68
(dp3349
sg77
g3334
sg70
(lp3350
g63
(g64
g65
NtRp3351
(dp3352
g68
(dp3353
g76
I3
ssg77
g3347
sg70
(lp3354
g1835
asbasbasbag63
(g79
g65
NtRp3355
(dp3356
g68
(dp3357
sg77
g2910
sg70
(lp3358
g63
(g84
g65
NtRp3359
(dp3360
g68
(dp3361
g88
g89
ssg77
g3355
sg70
(lp3362
S'SERVER_SOFTWARE'
p3363
asbag63
(g84
g65
NtRp3364
(dp3365
g68
(dp3366
g95
g96
ssg77
g3355
sg70
(lp3367
S':'
asbag63
(g84
g65
NtRp3368
(dp3369
g68
(dp3370
sg77
g3355
sg70
(lp3371
g63
(g64
g65
NtRp3372
(dp3373
g68
(dp3374
g76
I3
ssg77
g3368
sg70
(lp3375
g1857
asbasbasbag63
(g79
g65
NtRp3376
(dp3377
g68
(dp3378
sg77
g2910
sg70
(lp3379
g63
(g84
g65
NtRp3380
(dp3381
g68
(dp3382
g88
g89
ssg77
g3376
sg70
(lp3383
S'wsgi.errors'
p3384
asbag63
(g84
g65
NtRp3385
(dp3386
g68
(dp3387
g95
g96
ssg77
g3376
sg70
(lp3388
S':'
asbag63
(g84
g65
NtRp3389
(dp3390
g68
(dp3391
sg77
g3376
sg70
(lp3392
g63
(g64
g65
NtRp3393
(dp3394
g68
(dp3395
g76
I3
ssg77
g3389
sg70
(lp3396
S"<open file '<stderr>', mode 'w' at 0xb738b0d0>"
p3397
asbasbasbag63
(g79
g65
NtRp3398
(dp3399
g68
(dp3400
sg77
g2910
sg70
(lp3401
g63
(g84
g65
NtRp3402
(dp3403
g68
(dp3404
g88
g89
ssg77
g3398
sg70
(lp3405
S'wsgi.file_wrapper'
p3406
asbag63
(g84
g65
NtRp3407
(dp3408
g68
(dp3409
g95
g96
ssg77
g3398
sg70
(lp3410
S':'
asbag63
(g84
g65
NtRp3411
(dp3412
g68
(dp3413
sg77
g3398
sg70
(lp3414
g63
(g64
g65
NtRp3415
(dp3416
g68
(dp3417
g76
I3
ssg77
g3411
sg70
(lp3418
S'<class wsgiref.util.FileWrapper at 0xa4ce92c>'
p3419
asbasbasbag63
(g79
g65
NtRp3420
(dp3421
g68
(dp3422
sg77
g2910
sg70
(lp3423
g63
(g84
g65
NtRp3424
(dp3425
g68
(dp3426
g88
g89
ssg77
g3420
sg70
(lp3427
S'wsgi.input'
p3428
asbag63
(g84
g65
NtRp3429
(dp3430
g68
(dp3431
g95
g96
ssg77
g3420
sg70
(lp3432
S':'
asbag63
(g84
g65
NtRp3433
(dp3434
g68
(dp3435
sg77
g3420
sg70
(lp3436
g63
(g64
g65
NtRp3437
(dp3438
g68
(dp3439
g76
I3
ssg77
g3433
sg70
(lp3440
S"<open file '<fdopen>', mode 'w+b' at 0xab8cf98>"
p3441
asbasbasbag63
(g79
g65
NtRp3442
(dp3443
g68
(dp3444
sg77
g2910
sg70
(lp3445
g63
(g84
g65
NtRp3446
(dp3447
g68
(dp3448
g88
g89
ssg77
g3442
sg70
(lp3449
S'wsgi.multiprocess'
p3450
asbag63
(g84
g65
NtRp3451
(dp3452
g68
(dp3453
g95
g96
ssg77
g3442
sg70
(lp3454
S':'
asbag63
(g84
g65
NtRp3455
(dp3456
g68
(dp3457
sg77
g3442
sg70
(lp3458
g63
(g64
g65
NtRp3459
(dp3460
g68
(dp3461
g76
I3
ssg77
g3455
sg70
(lp3462
g106
asbasbasbag63
(g79
g65
NtRp3463
(dp3464
g68
(dp3465
sg77
g2910
sg70
(lp3466
g63
(g84
g65
NtRp3467
(dp3468
g68
(dp3469
g88
g89
ssg77
g3463
sg70
(lp3470
S'wsgi.multithread'
p3471
asbag63
(g84
g65
NtRp3472
(dp3473
g68
(dp3474
g95
g96
ssg77
g3463
sg70
(lp3475
S':'
asbag63
(g84
g65
NtRp3476
(dp3477
g68
(dp3478
sg77
g3463
sg70
(lp3479
g63
(g64
g65
NtRp3480
(dp3481
g68
(dp3482
g76
I3
ssg77
g3476
sg70
(lp3483
g2097
asbasbasbag63
(g79
g65
NtRp3484
(dp3485
g68
(dp3486
sg77
g2910
sg70
(lp3487
g63
(g84
g65
NtRp3488
(dp3489
g68
(dp3490
g88
g89
ssg77
g3484
sg70
(lp3491
S'wsgi.run_once'
p3492
asbag63
(g84
g65
NtRp3493
(dp3494
g68
(dp3495
g95
g96
ssg77
g3484
sg70
(lp3496
S':'
asbag63
(g84
g65
NtRp3497
(dp3498
g68
(dp3499
sg77
g3484
sg70
(lp3500
g63
(g64
g65
NtRp3501
(dp3502
g68
(dp3503
g76
I3
ssg77
g3497
sg70
(lp3504
g106
asbasbasbag63
(g79
g65
NtRp3505
(dp3506
g68
(dp3507
sg77
g2910
sg70
(lp3508
g63
(g84
g65
NtRp3509
(dp3510
g68
(dp3511
g88
g89
ssg77
g3505
sg70
(lp3512
S'wsgi.url_scheme'
p3513
asbag63
(g84
g65
NtRp3514
(dp3515
g68
(dp3516
g95
g96
ssg77
g3505
sg70
(lp3517
S':'
asbag63
(g84
g65
NtRp3518
(dp3519
g68
(dp3520
sg77
g3505
sg70
(lp3521
g63
(g64
g65
NtRp3522
(dp3523
g68
(dp3524
g76
I3
ssg77
g3518
sg70
(lp3525
g2140
asbasbasbag63
(g79
g65
NtRp3526
(dp3527
g68
(dp3528
sg77
g2910
sg70
(lp3529
g63
(g84
g65
NtRp3530
(dp3531
g68
(dp3532
g88
g89
ssg77
g3526
sg70
(lp3533
S'wsgi.version'
p3534
asbag63
(g84
g65
NtRp3535
(dp3536
g68
(dp3537
g95
g96
ssg77
g3526
sg70
(lp3538
S':'
asbag63
(g84
g65
NtRp3539
(dp3540
g68
(dp3541
sg77
g3526
sg70
(lp3542
g63
(g64
g65
NtRp3543
(dp3544
g68
(dp3545
g76
I3
ssg77
g3539
sg70
(lp3546
S'1'
asbasbasbasbasbasbasbasbasbasbasbasbasbsS'frames'
p3547
(lp3548
(dp3549
S'file'
p3550
S'/home/u4hcsdaw/Python/web2py/gluon/restricted.py'
p3551
sS'dump'
p3552
(dp3553
S'environment'
p3554
S"{'A': <class 'gluon.html.A'>, 'AcesCall': <function AcesCall>, 'Auth': <class 'gluon.tools.Auth'>, 'B': <class 'gluon.html.B'>, 'BEAUTIFY': <class 'gluon.html.BEAUTIFY'>, 'BODY': <class 'gluon.html.BODY'>, 'BR': <class 'gluon.html.BR'>, 'BUTTON': <class 'gluon.html.BUTTON'>, 'CAT': <class 'gluon.html.CAT'>, 'CENTER': <class 'gluon.html.CENTER'>, ...}"
p3555
sS'ccode'
p3556
S'<code object <module> at 0xa8c8e30, file "/home/...plications/ACES/controllers/default.py", line 12>'
p3557
ssS'lnum'
p3558
I194
sS'lines'
p3559
(dp3560
I192
S'        else:'
p3561
sI193
S'            ccode = compile2(code,layer)'
p3562
sI194
S'        exec ccode in environment'
p3563
sI195
S'    except HTTP:'
p3564
sI196
S'        raise'
p3565
sI197
S'    except Exception, error:'
p3566
sI198
S'        # XXX Show exception in Wing IDE if running in debugger'
p3567
sI189
S'    try:'
p3568
sI190
S'        if type(code) == types.CodeType:'
p3569
sI191
S'            ccode = code'
p3570
ssS'call'
p3571
S"(code='# -*- coding: utf-8 -*-\\n# this file is released ...=crud())\\n\\nresponse._vars=response._caller(index)\\n', environment={'A': <class 'gluon.html.A'>, 'AcesCall': <function AcesCall>, 'Auth': <class 'gluon.tools.Auth'>, 'B': <class 'gluon.html.B'>, 'BEAUTIFY': <class 'gluon.html.BEAUTIFY'>, 'BODY': <class 'gluon.html.BODY'>, 'BR': <class 'gluon.html.BR'>, 'BUTTON': <class 'gluon.html.BUTTON'>, 'CAT': <class 'gluon.html.CAT'>, 'CENTER': <class 'gluon.html.CENTER'>, ...}, layer='/home/u4hcsdaw/Python/web2py/applications/ACES/controllers/default.py')"
p3572
sS'func'
p3573
S'restricted'
p3574
sa(dp3575
g3550
S'/home/u4hcsdaw/Python/web2py/applications/ACES/controllers/default.py'
p3576
sg3552
(dp3577
sg3558
I83
sg3559
(dp3578
I72
S'    http://..../[app]/default/data/update/[table]/[id]'
p3579
sI73
S'    http://..../[app]/default/data/delete/[table]/[id]'
p3580
sI74
S'    http://..../[app]/default/data/select/[table]'
p3581
sI75
S'    http://..../[app]/default/data/search/[table]'
p3582
sI76
S'    but URLs bust be signed, i.e. linked with'
p3583
sI77
S"      A('table',_href=URL('data/tables',user_signature=True))"
p3584
sI78
S'    or with the signed load operator'
p3585
sI79
S"      LOAD('default','data.load',args='tables',ajax=True,user_signature=True)"
p3586
sI80
S'    """'
p3587
sI81
S'    return dict(form=crud())'
p3588
ssg3571
S'()'
p3589
sg3573
S'<module>'
p3590
sa(dp3591
g3550
S'/home/u4hcsdaw/Python/web2py/gluon/globals.py'
p3592
sg3552
(dp3593
S'self'
p3594
S'undefined'
p3595
sS'f'
S'<function index>'
p3596
ssg3558
I149
sg3559
(dp3597
I144
S'        self.meta = Storage()      # used by web2py_ajax.html'
p3598
sI145
S'        self.menu = []             # used by the default view layout'
p3599
sI146
S'        self.files = []            # used by web2py_ajax.html'
p3600
sI147
S'        self.generic_patterns = [] # patterns to allow generic views'
p3601
sI148
S'        self._vars = None'
p3602
sI149
S'        self._caller = lambda f: f()'
p3603
sI150
S'        self._view_environment = None'
p3604
sI151
S'        self._custom_commit = None'
p3605
sI152
S'        self._custom_rollback = None'
p3606
sI153
S''
ssg3571
S'(f=<function index>)'
p3607
sg3573
S'<lambda>'
p3608
sa(dp3609
g3550
S'/home/u4hcsdaw/Python/web2py/applications/ACES/controllers/default.py'
p3610
sg3552
(dp3611
S'global AcesCall'
p3612
S'<function AcesCall>'
p3613
sS'f1'
p3614
S'<gluon.html.FORM object>'
p3615
sS'f1.vars'
p3616
S"<Storage {'waveHeight': '0.85', 'subButton': 'Submit Query'}>"
p3617
sS't0'
p3618
S"''"
p3619
ssg3558
I27
sg3559
(dp3620
I22
S"    ip1=INPUT(_type='text', _name='waveHeight', _value='0.85')"
p3621
sI23
S"    sub1=INPUT(_type='submit',_name='subButton')"
p3622
sI24
S"    f1=FORM('wave',ip1,sub1,_name='Form1',_action='')"
p3623
sI25
S'    if f1.accepts(request.vars,session):'
p3624
sI26
S'        session.formVars=f1.vars'
p3625
sI27
S'        t0=AcesCall(f1.vars)'
p3626
sI28
S"        img1=IMG(_src=URL('static','images/Waves.svg?'+nowS))"
p3627
sI29
S'    return dict(form=f1,t0=t0,img1=img1)'
p3628
sI30
S''
sI31
S'def user():'
p3629
ssg3571
S'()'
p3630
sg3573
S'index'
p3631
sa(dp3632
g3550
S'/home/u4hcsdaw/Python/web2py/applications/ACES/models/functionsAces.py'
p3633
sg3552
(dp3634
S'comm'
p3635
S"['ls > new.txt']"
p3636
sS'subprocess.call'
p3637
S'<function call>'
p3638
sS'subprocess'
p3639
S"<module 'subprocess' from '/home/u4hcsdaw/Python/epd/lib/python2.7/subprocess.pyc'>"
p3640
ssg3558
I10
sg3559
(dp3641
I4
S''
sI5
S"    WaveHeight=formVars['waveHeight']"
p3642
sI6
S"    ##WavePeriod=formVars['wavePeriod'] or 9.0"
p3643
sI7
S'    EvalString=\'--eval "H=%(H)s  " \' % dict(H=WaveHeight)'
p3644
sI8
S"    comm=['octave',EvalString,'applications/ACES/models/Waves/linear_wave_theory.m']"
p3645
sI9
S"    comm=['ls > new.txt']"
p3646
sI10
S'    subprocess.call(comm)'
p3647
sI11
S"    retString='%s %s' %(WaveHeight,'0')"
p3648
sI12
S''
sI13
S'    return WaveHeight'
p3649
ssg3571
S"(formVars=<Storage {'waveHeight': '0.85', 'subButton': 'Submit Query'}>)"
p3650
sg3573
S'AcesCall'
p3651
sa(dp3652
g3550
S'/home/u4hcsdaw/Python/epd/lib/python2.7/subprocess.py'
p3653
sg3552
(dp3654
S').wait'
p3655
g3595
sS'global Popen'
p3656
S"<class 'subprocess.Popen'>"
p3657
sS'popenargs'
p3658
S"(['ls > new.txt'],)"
p3659
sS'kwargs'
p3660
S'{}'
p3661
ssg3558
I493
sg3559
(dp3662
I488
S''
sI489
S'    The arguments are the same as for the Popen constructor.  Example:'
p3663
sI490
S''
sI491
S'    retcode = call(["ls", "-l"])'
p3664
sI492
S'    """'
p3665
sI493
S'    return Popen(*popenargs, **kwargs).wait()'
p3666
sI494
S''
sI495
S''
sI496
S'def check_call(*popenargs, **kwargs):'
p3667
sI497
S'    """Run command with arguments.  Wait for command to complete.  If'
p3668
ssg3571
S"(*popenargs=(['ls > new.txt'],), **kwargs={})"
p3669
sg3573
g3571
sa(dp3670
g3550
S'/home/u4hcsdaw/Python/epd/lib/python2.7/subprocess.py'
p3671
sg3552
(dp3672
S'errwrite'
p3673
S'None'
p3674
sS'errread'
p3675
S'None'
p3676
ssg3558
I679
sg3559
(dp3677
I674
S'        self._execute_child(args, executable, preexec_fn, close_fds,'
p3678
sI675
S'                            cwd, env, universal_newlines,'
p3679
sI676
S'                            startupinfo, creationflags, shell,'
p3680
sI677
S'                            p2cread, p2cwrite,'
p3681
sI678
S'                            c2pread, c2pwrite,'
p3682
sI679
S'                            errread, errwrite)'
p3683
sI680
S''
sI681
S'        if mswindows:'
p3684
sI682
S'            if p2cwrite is not None:'
p3685
sI683
S'                p2cwrite = msvcrt.open_osfhandle(p2cwrite.Detach(), 0)'
p3686
ssg3571
S"(self=<subprocess.Popen object>, args=['ls > new.txt'], bufsize=0, executable=None, stdin=None, stdout=None, stderr=None, preexec_fn=None, close_fds=False, shell=False, cwd=None, env=None, universal_newlines=False, startupinfo=None, creationflags=0)"
p3687
sg3573
g21
sa(dp3688
g3550
S'/home/u4hcsdaw/Python/epd/lib/python2.7/subprocess.py'
p3689
sg3552
(dp3690
S'child_exception'
p3691
S"OSError(2, 'No such file or directory')"
p3692
ssg3558
I1249
sg3559
(dp3693
I1248
S'                        os.close(fd)'
p3694
sI1249
S'                raise child_exception'
p3695
sI1250
S''
sI1251
S''
sI1252
S'        def _handle_exitstatus(self, sts, _WIFSIGNALED=os.WIFSIGNALED,'
p3696
sI1253
S'                _WTERMSIG=os.WTERMSIG, _WIFEXITED=os.WIFEXITED,'
p3697
sI1244
S'                        raise'
p3698
sI1245
S'                child_exception = pickle.loads(data)'
p3699
sI1246
S'                for fd in (p2cwrite, c2pread, errread):'
p3700
sI1247
S'                    if fd is not None:'
p3701
ssg3571
S"(self=<subprocess.Popen object>, args=['ls > new.txt'], executable='ls > new.txt', preexec_fn=None, close_fds=False, cwd=None, env=None, universal_newlines=False, startupinfo=None, creationflags=0, shell=False, p2cread=None, p2cwrite=None, c2pread=None, c2pwrite=None, errread=None, errwrite=None)"
p3702
sg3573
S'_execute_child'
p3703
sasS'pyver'
p3704
S'Python 2.7.3: /home/u4hcsdaw/Python/epd/bin/python2.7'
p3705
sS'session'
p3706
g63
(g64
g65
NtRp3707
(dp3708
g68
(dp3709
sg70
(lp3710
g63
(g72
g65
NtRp3711
(dp3712
g68
(dp3713
g76
I5
ssg77
Nsg70
(lp3714
g63
(g79
g65
NtRp3715
(dp3716
g68
(dp3717
sg77
g3711
sg70
(lp3718
g63
(g84
g65
NtRp3719
(dp3720
g68
(dp3721
g88
g89
ssg77
g3715
sg70
(lp3722
S'formVars'
p3723
asbag63
(g84
g65
NtRp3724
(dp3725
g68
(dp3726
g95
g96
ssg77
g3715
sg70
(lp3727
S':'
asbag63
(g84
g65
NtRp3728
(dp3729
g68
(dp3730
sg77
g3715
sg70
(lp3731
g63
(g64
g65
NtRp3732
(dp3733
g68
(dp3734
g76
I5
ssg77
g3728
sg70
(lp3735
g63
(g72
g65
NtRp3736
(dp3737
g68
(dp3738
g76
I4
ssg77
Nsg70
(lp3739
g63
(g79
g65
NtRp3740
(dp3741
g68
(dp3742
sg77
g3736
sg70
(lp3743
g63
(g84
g65
NtRp3744
(dp3745
g68
(dp3746
g88
g89
ssg77
g3740
sg70
(lp3747
S'subButton'
p3748
asbag63
(g84
g65
NtRp3749
(dp3750
g68
(dp3751
g95
g96
ssg77
g3740
sg70
(lp3752
S':'
asbag63
(g84
g65
NtRp3753
(dp3754
g68
(dp3755
sg77
g3740
sg70
(lp3756
g63
(g64
g65
NtRp3757
(dp3758
g68
(dp3759
g76
I4
ssg77
g3753
sg70
(lp3760
g2710
asbasbasbag63
(g79
g65
NtRp3761
(dp3762
g68
(dp3763
sg77
g3736
sg70
(lp3764
g63
(g84
g65
NtRp3765
(dp3766
g68
(dp3767
g88
g89
ssg77
g3761
sg70
(lp3768
S'waveHeight'
p3769
asbag63
(g84
g65
NtRp3770
(dp3771
g68
(dp3772
g95
g96
ssg77
g3761
sg70
(lp3773
S':'
asbag63
(g84
g65
NtRp3774
(dp3775
g68
(dp3776
sg77
g3761
sg70
(lp3777
g63
(g64
g65
NtRp3778
(dp3779
g68
(dp3780
g76
I4
ssg77
g3774
sg70
(lp3781
g2732
asbasbasbasbasbasbasbasbasbsS'etype'
p3782
S"<type 'exceptions.OSError'>"
p3783
sS'date'
p3784
S'Tue Jun  5 16:50:14 2012'
p3785
sS'response'
p3786
g63
(g64
g65
NtRp3787
(dp3788
g68
(dp3789
sg70
(lp3790
g63
(g72
g65
NtRp3791
(dp3792
g68
(dp3793
g76
I5
ssg77
Nsg70
(lp3794
g63
(g79
g65
NtRp3795
(dp3796
g68
(dp3797
sg77
g3791
sg70
(lp3798
g63
(g84
g65
NtRp3799
(dp3800
g68
(dp3801
g88
g89
ssg77
g3795
sg70
(lp3802
g161
asbag63
(g84
g65
NtRp3803
(dp3804
g68
(dp3805
g95
g96
ssg77
g3795
sg70
(lp3806
S':'
asbag63
(g84
g65
NtRp3807
(dp3808
g68
(dp3809
sg77
g3795
sg70
(lp3810
g63
(g64
g65
NtRp3811
(dp3812
g68
(dp3813
g76
I5
ssg77
g3807
sg70
(lp3814
S'<cStringIO.StringO object at 0xadbefc0>'
p3815
asbasbasbag63
(g79
g65
NtRp3816
(dp3817
g68
(dp3818
sg77
g3791
sg70
(lp3819
g63
(g84
g65
NtRp3820
(dp3821
g68
(dp3822
g88
g89
ssg77
g3816
sg70
(lp3823
g227
asbag63
(g84
g65
NtRp3824
(dp3825
g68
(dp3826
g95
g96
ssg77
g3816
sg70
(lp3827
S':'
asbag63
(g84
g65
NtRp3828
(dp3829
g68
(dp3830
sg77
g3816
sg70
(lp3831
g63
(g64
g65
NtRp3832
(dp3833
g68
(dp3834
g76
I5
ssg77
g3828
sg70
(lp3835
g63
(g72
g65
NtRp3836
(dp3837
g68
(dp3838
g76
I4
ssg77
Nsg70
(lp3839
g63
(g79
g65
NtRp3840
(dp3841
g68
(dp3842
sg77
g3836
sg70
(lp3843
g63
(g84
g65
NtRp3844
(dp3845
g68
(dp3846
g88
g89
ssg77
g3840
sg70
(lp3847
S'session_id_aces'
p3848
asbag63
(g84
g65
NtRp3849
(dp3850
g68
(dp3851
g95
g96
ssg77
g3840
sg70
(lp3852
S':'
asbag63
(g84
g65
NtRp3853
(dp3854
g68
(dp3855
sg77
g3840
sg70
(lp3856
g63
(g64
g65
NtRp3857
(dp3858
g68
(dp3859
g76
I4
ssg77
g3853
sg70
(lp3860
g63
(g72
g65
NtRp3861
(dp3862
g68
(dp3863
g76
I3
ssg77
Nsg70
(lp3864
g63
(g79
g65
NtRp3865
(dp3866
g68
(dp3867
sg77
g3861
sg70
(lp3868
g63
(g84
g65
NtRp3869
(dp3870
g68
(dp3871
g88
g89
ssg77
g3865
sg70
(lp3872
g277
asbag63
(g84
g65
NtRp3873
(dp3874
g68
(dp3875
g95
g96
ssg77
g3865
sg70
(lp3876
S':'
asbag63
(g84
g65
NtRp3877
(dp3878
g68
(dp3879
sg77
g3865
sg70
(lp3880
g63
(g64
g65
NtRp3881
(dp3882
g68
(dp3883
g76
I3
ssg77
g3877
sg70
(lp3884
S''
asbasbasbag63
(g79
g65
NtRp3885
(dp3886
g68
(dp3887
sg77
g3861
sg70
(lp3888
g63
(g84
g65
NtRp3889
(dp3890
g68
(dp3891
g88
g89
ssg77
g3885
sg70
(lp3892
g298
asbag63
(g84
g65
NtRp3893
(dp3894
g68
(dp3895
g95
g96
ssg77
g3885
sg70
(lp3896
S':'
asbag63
(g84
g65
NtRp3897
(dp3898
g68
(dp3899
sg77
g3885
sg70
(lp3900
g63
(g64
g65
NtRp3901
(dp3902
g68
(dp3903
g76
I3
ssg77
g3897
sg70
(lp3904
S''
asbasbasbag63
(g79
g65
NtRp3905
(dp3906
g68
(dp3907
sg77
g3861
sg70
(lp3908
g63
(g84
g65
NtRp3909
(dp3910
g68
(dp3911
g88
g89
ssg77
g3905
sg70
(lp3912
g319
asbag63
(g84
g65
NtRp3913
(dp3914
g68
(dp3915
g95
g96
ssg77
g3905
sg70
(lp3916
S':'
asbag63
(g84
g65
NtRp3917
(dp3918
g68
(dp3919
sg77
g3905
sg70
(lp3920
g63
(g64
g65
NtRp3921
(dp3922
g68
(dp3923
g76
I3
ssg77
g3917
sg70
(lp3924
S''
asbasbasbag63
(g79
g65
NtRp3925
(dp3926
g68
(dp3927
sg77
g3861
sg70
(lp3928
g63
(g84
g65
NtRp3929
(dp3930
g68
(dp3931
g88
g89
ssg77
g3925
sg70
(lp3932
g340
asbag63
(g84
g65
NtRp3933
(dp3934
g68
(dp3935
g95
g96
ssg77
g3925
sg70
(lp3936
S':'
asbag63
(g84
g65
NtRp3937
(dp3938
g68
(dp3939
sg77
g3925
sg70
(lp3940
g63
(g64
g65
NtRp3941
(dp3942
g68
(dp3943
g76
I3
ssg77
g3937
sg70
(lp3944
S''
asbasbasbag63
(g79
g65
NtRp3945
(dp3946
g68
(dp3947
sg77
g3861
sg70
(lp3948
g63
(g84
g65
NtRp3949
(dp3950
g68
(dp3951
g88
g89
ssg77
g3945
sg70
(lp3952
g361
asbag63
(g84
g65
NtRp3953
(dp3954
g68
(dp3955
g95
g96
ssg77
g3945
sg70
(lp3956
S':'
asbag63
(g84
g65
NtRp3957
(dp3958
g68
(dp3959
sg77
g3945
sg70
(lp3960
g63
(g64
g65
NtRp3961
(dp3962
g68
(dp3963
g76
I3
ssg77
g3957
sg70
(lp3964
S''
asbasbasbag63
(g79
g65
NtRp3965
(dp3966
g68
(dp3967
sg77
g3861
sg70
(lp3968
g63
(g84
g65
NtRp3969
(dp3970
g68
(dp3971
g88
g89
ssg77
g3965
sg70
(lp3972
g382
asbag63
(g84
g65
NtRp3973
(dp3974
g68
(dp3975
g95
g96
ssg77
g3965
sg70
(lp3976
S':'
asbag63
(g84
g65
NtRp3977
(dp3978
g68
(dp3979
sg77
g3965
sg70
(lp3980
g63
(g64
g65
NtRp3981
(dp3982
g68
(dp3983
g76
I3
ssg77
g3977
sg70
(lp3984
S'/'
asbasbasbag63
(g79
g65
NtRp3985
(dp3986
g68
(dp3987
sg77
g3861
sg70
(lp3988
g63
(g84
g65
NtRp3989
(dp3990
g68
(dp3991
g88
g89
ssg77
g3985
sg70
(lp3992
g403
asbag63
(g84
g65
NtRp3993
(dp3994
g68
(dp3995
g95
g96
ssg77
g3985
sg70
(lp3996
S':'
asbag63
(g84
g65
NtRp3997
(dp3998
g68
(dp3999
sg77
g3985
sg70
(lp4000
g63
(g64
g65
NtRp4001
(dp4002
g68
(dp4003
g76
I3
ssg77
g3997
sg70
(lp4004
S''
asbasbasbag63
(g79
g65
NtRp4005
(dp4006
g68
(dp4007
sg77
g3861
sg70
(lp4008
g63
(g84
g65
NtRp4009
(dp4010
g68
(dp4011
g88
g89
ssg77
g4005
sg70
(lp4012
g424
asbag63
(g84
g65
NtRp4013
(dp4014
g68
(dp4015
g95
g96
ssg77
g4005
sg70
(lp4016
S':'
asbag63
(g84
g65
NtRp4017
(dp4018
g68
(dp4019
sg77
g4005
sg70
(lp4020
g63
(g64
g65
NtRp4021
(dp4022
g68
(dp4023
g76
I3
ssg77
g4017
sg70
(lp4024
S''
asbasbasbasbasbasbasbasbasbasbasbag63
(g79
g65
NtRp4025
(dp4026
g68
(dp4027
sg77
g3791
sg70
(lp4028
g63
(g84
g65
NtRp4029
(dp4030
g68
(dp4031
g88
g89
ssg77
g4025
sg70
(lp4032
S'files'
p4033
asbag63
(g84
g65
NtRp4034
(dp4035
g68
(dp4036
g95
g96
ssg77
g4025
sg70
(lp4037
S':'
asbag63
(g84
g65
NtRp4038
(dp4039
g68
(dp4040
sg77
g4025
sg70
(lp4041
g63
(g64
g65
NtRp4042
(dp4043
g68
(dp4044
g76
I5
ssg77
g4038
sg70
(lp4045
g63
(g72
g65
NtRp4046
(dp4047
g68
(dp4048
g76
I4
ssg77
Nsg70
(lp4049
sbasbasbasbag63
(g79
g65
NtRp4050
(dp4051
g68
(dp4052
sg77
g3791
sg70
(lp4053
g63
(g84
g65
NtRp4054
(dp4055
g68
(dp4056
g88
g89
ssg77
g4050
sg70
(lp4057
S'flash'
p4058
asbag63
(g84
g65
NtRp4059
(dp4060
g68
(dp4061
g95
g96
ssg77
g4050
sg70
(lp4062
S':'
asbag63
(g84
g65
NtRp4063
(dp4064
g68
(dp4065
sg77
g4050
sg70
(lp4066
g63
(g64
g65
NtRp4067
(dp4068
g68
(dp4069
g76
I5
ssg77
g4063
sg70
(lp4070
S''
asbasbasbag63
(g79
g65
NtRp4071
(dp4072
g68
(dp4073
sg77
g3791
sg70
(lp4074
g63
(g84
g65
NtRp4075
(dp4076
g68
(dp4077
g88
g89
ssg77
g4071
sg70
(lp4078
S'generic_patterns'
p4079
asbag63
(g84
g65
NtRp4080
(dp4081
g68
(dp4082
g95
g96
ssg77
g4071
sg70
(lp4083
S':'
asbag63
(g84
g65
NtRp4084
(dp4085
g68
(dp4086
sg77
g4071
sg70
(lp4087
g63
(g64
g65
NtRp4088
(dp4089
g68
(dp4090
g76
I5
ssg77
g4084
sg70
(lp4091
g63
(g72
g65
NtRp4092
(dp4093
g68
(dp4094
g76
I4
ssg77
Nsg70
(lp4095
g63
(g79
g65
NtRp4096
(dp4097
g68
(dp4098
sg77
g4092
sg70
(lp4099
g63
(g84
g65
NtRp4100
(dp4101
g68
(dp4102
sg77
g4096
sg70
(lp4103
g63
(g64
g65
NtRp4104
(dp4105
g68
(dp4106
g76
I4
ssg77
g4100
sg70
(lp4107
S'*'
asbasbasbasbasbasbasbag63
(g79
g65
NtRp4108
(dp4109
g68
(dp4110
sg77
g3791
sg70
(lp4111
g63
(g84
g65
NtRp4112
(dp4113
g68
(dp4114
g88
g89
ssg77
g4108
sg70
(lp4115
S'headers'
p4116
asbag63
(g84
g65
NtRp4117
(dp4118
g68
(dp4119
g95
g96
ssg77
g4108
sg70
(lp4120
S':'
asbag63
(g84
g65
NtRp4121
(dp4122
g68
(dp4123
sg77
g4108
sg70
(lp4124
g63
(g64
g65
NtRp4125
(dp4126
g68
(dp4127
g76
I5
ssg77
g4121
sg70
(lp4128
g63
(g72
g65
NtRp4129
(dp4130
g68
(dp4131
g76
I4
ssg77
Nsg70
(lp4132
g63
(g79
g65
NtRp4133
(dp4134
g68
(dp4135
sg77
g4129
sg70
(lp4136
g63
(g84
g65
NtRp4137
(dp4138
g68
(dp4139
g88
g89
ssg77
g4133
sg70
(lp4140
S'Cache-Control'
p4141
asbag63
(g84
g65
NtRp4142
(dp4143
g68
(dp4144
g95
g96
ssg77
g4133
sg70
(lp4145
S':'
asbag63
(g84
g65
NtRp4146
(dp4147
g68
(dp4148
sg77
g4133
sg70
(lp4149
g63
(g64
g65
NtRp4150
(dp4151
g68
(dp4152
g76
I4
ssg77
g4146
sg70
(lp4153
S'no-store, no-cache, must-revalidate, post-check=0, pre-check=0'
p4154
asbasbasbag63
(g79
g65
NtRp4155
(dp4156
g68
(dp4157
sg77
g4129
sg70
(lp4158
g63
(g84
g65
NtRp4159
(dp4160
g68
(dp4161
g88
g89
ssg77
g4155
sg70
(lp4162
S'Content-Type'
p4163
asbag63
(g84
g65
NtRp4164
(dp4165
g68
(dp4166
g95
g96
ssg77
g4155
sg70
(lp4167
S':'
asbag63
(g84
g65
NtRp4168
(dp4169
g68
(dp4170
sg77
g4155
sg70
(lp4171
g63
(g64
g65
NtRp4172
(dp4173
g68
(dp4174
g76
I4
ssg77
g4168
sg70
(lp4175
S'text/html; charset=utf-8'
p4176
asbasbasbag63
(g79
g65
NtRp4177
(dp4178
g68
(dp4179
sg77
g4129
sg70
(lp4180
g63
(g84
g65
NtRp4181
(dp4182
g68
(dp4183
g88
g89
ssg77
g4177
sg70
(lp4184
S'Expires'
p4185
asbag63
(g84
g65
NtRp4186
(dp4187
g68
(dp4188
g95
g96
ssg77
g4177
sg70
(lp4189
S':'
asbag63
(g84
g65
NtRp4190
(dp4191
g68
(dp4192
sg77
g4177
sg70
(lp4193
g63
(g64
g65
NtRp4194
(dp4195
g68
(dp4196
g76
I4
ssg77
g4190
sg70
(lp4197
S'Tue, 05 Jun 2012 21:50:14 GMT'
p4198
asbasbasbag63
(g79
g65
NtRp4199
(dp4200
g68
(dp4201
sg77
g4129
sg70
(lp4202
g63
(g84
g65
NtRp4203
(dp4204
g68
(dp4205
g88
g89
ssg77
g4199
sg70
(lp4206
S'Pragma'
p4207
asbag63
(g84
g65
NtRp4208
(dp4209
g68
(dp4210
g95
g96
ssg77
g4199
sg70
(lp4211
S':'
asbag63
(g84
g65
NtRp4212
(dp4213
g68
(dp4214
sg77
g4199
sg70
(lp4215
g63
(g64
g65
NtRp4216
(dp4217
g68
(dp4218
g76
I4
ssg77
g4212
sg70
(lp4219
S'no-cache'
p4220
asbasbasbag63
(g79
g65
NtRp4221
(dp4222
g68
(dp4223
sg77
g4129
sg70
(lp4224
g63
(g84
g65
NtRp4225
(dp4226
g68
(dp4227
g88
g89
ssg77
g4221
sg70
(lp4228
S'X-Powered-By'
p4229
asbag63
(g84
g65
NtRp4230
(dp4231
g68
(dp4232
g95
g96
ssg77
g4221
sg70
(lp4233
S':'
asbag63
(g84
g65
NtRp4234
(dp4235
g68
(dp4236
sg77
g4221
sg70
(lp4237
g63
(g64
g65
NtRp4238
(dp4239
g68
(dp4240
g76
I4
ssg77
g4234
sg70
(lp4241
S'web2py'
p4242
asbasbasbasbasbasbasbag63
(g79
g65
NtRp4243
(dp4244
g68
(dp4245
sg77
g3791
sg70
(lp4246
g63
(g84
g65
NtRp4247
(dp4248
g68
(dp4249
g88
g89
ssg77
g4243
sg70
(lp4250
S'menu'
p4251
asbag63
(g84
g65
NtRp4252
(dp4253
g68
(dp4254
g95
g96
ssg77
g4243
sg70
(lp4255
S':'
asbag63
(g84
g65
NtRp4256
(dp4257
g68
(dp4258
sg77
g4243
sg70
(lp4259
g63
(g64
g65
NtRp4260
(dp4261
g68
(dp4262
g76
I5
ssg77
g4256
sg70
(lp4263
g63
(g72
g65
NtRp4264
(dp4265
g68
(dp4266
g76
I4
ssg77
Nsg70
(lp4267
g63
(g79
g65
NtRp4268
(dp4269
g68
(dp4270
sg77
g4264
sg70
(lp4271
g63
(g84
g65
NtRp4272
(dp4273
g68
(dp4274
sg77
g4268
sg70
(lp4275
g63
(g64
g65
NtRp4276
(dp4277
g68
(dp4278
g76
I4
ssg77
g4272
sg70
(lp4279
g63
(g72
g65
NtRp4280
(dp4281
g68
(dp4282
g76
I3
ssg77
Nsg70
(lp4283
g63
(g79
g65
NtRp4284
(dp4285
g68
(dp4286
sg77
g4280
sg70
(lp4287
g63
(g84
g65
NtRp4288
(dp4289
g68
(dp4290
sg77
g4284
sg70
(lp4291
g63
(g64
g65
NtRp4292
(dp4293
g68
(dp4294
g76
I3
ssg77
g4288
sg70
(lp4295
cgluon.languages
lazyT_unpickle
p4296
(S't\x04\x00\x00\x00Home'
tRp4297
asbasbasbag63
(g79
g65
NtRp4298
(dp4299
g68
(dp4300
sg77
g4280
sg70
(lp4301
g63
(g84
g65
NtRp4302
(dp4303
g68
(dp4304
sg77
g4298
sg70
(lp4305
g63
(g64
g65
NtRp4306
(dp4307
g68
(dp4308
g76
I3
ssg77
g4302
sg70
(lp4309
g106
asbasbasbag63
(g79
g65
NtRp4310
(dp4311
g68
(dp4312
sg77
g4280
sg70
(lp4313
g63
(g84
g65
NtRp4314
(dp4315
g68
(dp4316
sg77
g4310
sg70
(lp4317
g63
(g64
g65
NtRp4318
(dp4319
g68
(dp4320
g76
I3
ssg77
g4314
sg70
(lp4321
S'/ACES/default/index'
p4322
asbasbasbag63
(g79
g65
NtRp4323
(dp4324
g68
(dp4325
sg77
g4280
sg70
(lp4326
g63
(g84
g65
NtRp4327
(dp4328
g68
(dp4329
sg77
g4323
sg70
(lp4330
g63
(g64
g65
NtRp4331
(dp4332
g68
(dp4333
g76
I3
ssg77
g4327
sg70
(lp4334
g63
(g72
g65
NtRp4335
(dp4336
g68
(dp4337
g76
I2
ssg77
Nsg70
(lp4338
sbasbasbasbasbasbasbasbag63
(g79
g65
NtRp4339
(dp4340
g68
(dp4341
sg77
g4264
sg70
(lp4342
g63
(g84
g65
NtRp4343
(dp4344
g68
(dp4345
sg77
g4339
sg70
(lp4346
g63
(g64
g65
NtRp4347
(dp4348
g68
(dp4349
g76
I4
ssg77
g4343
sg70
(lp4350
g63
(g72
g65
NtRp4351
(dp4352
g68
(dp4353
g76
I3
ssg77
Nsg70
(lp4354
g63
(g79
g65
NtRp4355
(dp4356
g68
(dp4357
sg77
g4351
sg70
(lp4358
g63
(g84
g65
NtRp4359
(dp4360
g68
(dp4361
sg77
g4355
sg70
(lp4362
g63
(g64
g65
NtRp4363
(dp4364
g68
(dp4365
g76
I3
ssg77
g4359
sg70
(lp4366
g4296
(S's\x08\x00\x00\x00This App'
tRp4367
asbasbasbag63
(g79
g65
NtRp4368
(dp4369
g68
(dp4370
sg77
g4351
sg70
(lp4371
g63
(g84
g65
NtRp4372
(dp4373
g68
(dp4374
sg77
g4368
sg70
(lp4375
g63
(g64
g65
NtRp4376
(dp4377
g68
(dp4378
g76
I3
ssg77
g4372
sg70
(lp4379
g106
asbasbasbag63
(g79
g65
NtRp4380
(dp4381
g68
(dp4382
sg77
g4351
sg70
(lp4383
g63
(g84
g65
NtRp4384
(dp4385
g68
(dp4386
sg77
g4380
sg70
(lp4387
g63
(g64
g65
NtRp4388
(dp4389
g68
(dp4390
g76
I3
ssg77
g4384
sg70
(lp4391
S'/admin/default/design/ACES'
p4392
asbasbasbag63
(g79
g65
NtRp4393
(dp4394
g68
(dp4395
sg77
g4351
sg70
(lp4396
g63
(g84
g65
NtRp4397
(dp4398
g68
(dp4399
sg77
g4393
sg70
(lp4400
g63
(g64
g65
NtRp4401
(dp4402
g68
(dp4403
g76
I3
ssg77
g4397
sg70
(lp4404
g63
(g72
g65
NtRp4405
(dp4406
g68
(dp4407
g76
I2
ssg77
Nsg70
(lp4408
g63
(g79
g65
NtRp4409
(dp4410
g68
(dp4411
sg77
g4405
sg70
(lp4412
g63
(g84
g65
NtRp4413
(dp4414
g68
(dp4415
sg77
g4409
sg70
(lp4416
g63
(g64
g65
NtRp4417
(dp4418
g68
(dp4419
g76
I2
ssg77
g4413
sg70
(lp4420
g63
(g72
g65
NtRp4421
(dp4422
g68
(dp4423
g76
I1
ssg77
Nsg70
(lp4424
g63
(g79
g65
NtRp4425
(dp4426
g68
(dp4427
sg77
g4421
sg70
(lp4428
g63
(g84
g65
NtRp4429
(dp4430
g68
(dp4431
sg77
g4425
sg70
(lp4432
g63
(g64
g65
NtRp4433
(dp4434
g68
(dp4435
g76
I1
ssg77
g4429
sg70
(lp4436
g4296
(S't\n\x00\x00\x00Controller'
tRp4437
asbasbasbag63
(g79
g65
NtRp4438
(dp4439
g68
(dp4440
sg77
g4421
sg70
(lp4441
g63
(g84
g65
NtRp4442
(dp4443
g68
(dp4444
sg77
g4438
sg70
(lp4445
g63
(g64
g65
NtRp4446
(dp4447
g68
(dp4448
g76
I1
ssg77
g4442
sg70
(lp4449
I00
asbasbasbag63
(g79
g65
NtRp4450
(dp4451
g68
(dp4452
sg77
g4421
sg70
(lp4453
g63
(g84
g65
NtRp4454
(dp4455
g68
(dp4456
sg77
g4450
sg70
(lp4457
g63
(g64
g65
NtRp4458
(dp4459
g68
(dp4460
g76
I1
ssg77
g4454
sg70
(lp4461
S'/admin/default/edit/ACES/controllers/default.py'
p4462
asbasbasbasbasbasbasbag63
(g79
g65
NtRp4463
(dp4464
g68
(dp4465
sg77
g4405
sg70
(lp4466
g63
(g84
g65
NtRp4467
(dp4468
g68
(dp4469
sg77
g4463
sg70
(lp4470
g63
(g64
g65
NtRp4471
(dp4472
g68
(dp4473
g76
I2
ssg77
g4467
sg70
(lp4474
g63
(g72
g65
NtRp4475
(dp4476
g68
(dp4477
g76
I1
ssg77
Nsg70
(lp4478
g63
(g79
g65
NtRp4479
(dp4480
g68
(dp4481
sg77
g4475
sg70
(lp4482
g63
(g84
g65
NtRp4483
(dp4484
g68
(dp4485
sg77
g4479
sg70
(lp4486
g63
(g64
g65
NtRp4487
(dp4488
g68
(dp4489
g76
I1
ssg77
g4483
sg70
(lp4490
g4296
(S't\x04\x00\x00\x00View'
tRp4491
asbasbasbag63
(g79
g65
NtRp4492
(dp4493
g68
(dp4494
sg77
g4475
sg70
(lp4495
g63
(g84
g65
NtRp4496
(dp4497
g68
(dp4498
sg77
g4492
sg70
(lp4499
g63
(g64
g65
NtRp4500
(dp4501
g68
(dp4502
g76
I1
ssg77
g4496
sg70
(lp4503
I00
asbasbasbag63
(g79
g65
NtRp4504
(dp4505
g68
(dp4506
sg77
g4475
sg70
(lp4507
g63
(g84
g65
NtRp4508
(dp4509
g68
(dp4510
sg77
g4504
sg70
(lp4511
g63
(g64
g65
NtRp4512
(dp4513
g68
(dp4514
g76
I1
ssg77
g4508
sg70
(lp4515
S'/admin/default/edit/ACES/views/default/index.html'
p4516
asbasbasbasbasbasbasbag63
(g79
g65
NtRp4517
(dp4518
g68
(dp4519
sg77
g4405
sg70
(lp4520
g63
(g84
g65
NtRp4521
(dp4522
g68
(dp4523
sg77
g4517
sg70
(lp4524
g63
(g64
g65
NtRp4525
(dp4526
g68
(dp4527
g76
I2
ssg77
g4521
sg70
(lp4528
g63
(g72
g65
NtRp4529
(dp4530
g68
(dp4531
g76
I1
ssg77
Nsg70
(lp4532
g63
(g79
g65
NtRp4533
(dp4534
g68
(dp4535
sg77
g4529
sg70
(lp4536
g63
(g84
g65
NtRp4537
(dp4538
g68
(dp4539
sg77
g4533
sg70
(lp4540
g63
(g64
g65
NtRp4541
(dp4542
g68
(dp4543
g76
I1
ssg77
g4537
sg70
(lp4544
g4296
(S't\x06\x00\x00\x00Layout'
tRp4545
asbasbasbag63
(g79
g65
NtRp4546
(dp4547
g68
(dp4548
sg77
g4529
sg70
(lp4549
g63
(g84
g65
NtRp4550
(dp4551
g68
(dp4552
sg77
g4546
sg70
(lp4553
g63
(g64
g65
NtRp4554
(dp4555
g68
(dp4556
g76
I1
ssg77
g4550
sg70
(lp4557
I00
asbasbasbag63
(g79
g65
NtRp4558
(dp4559
g68
(dp4560
sg77
g4529
sg70
(lp4561
g63
(g84
g65
NtRp4562
(dp4563
g68
(dp4564
sg77
g4558
sg70
(lp4565
g63
(g64
g65
NtRp4566
(dp4567
g68
(dp4568
g76
I1
ssg77
g4562
sg70
(lp4569
S'/admin/default/edit/ACES/views/layout.html'
p4570
asbasbasbasbasbasbasbag63
(g79
g65
NtRp4571
(dp4572
g68
(dp4573
sg77
g4405
sg70
(lp4574
g63
(g84
g65
NtRp4575
(dp4576
g68
(dp4577
sg77
g4571
sg70
(lp4578
g63
(g64
g65
NtRp4579
(dp4580
g68
(dp4581
g76
I2
ssg77
g4575
sg70
(lp4582
g63
(g72
g65
NtRp4583
(dp4584
g68
(dp4585
g76
I1
ssg77
Nsg70
(lp4586
g63
(g79
g65
NtRp4587
(dp4588
g68
(dp4589
sg77
g4583
sg70
(lp4590
g63
(g84
g65
NtRp4591
(dp4592
g68
(dp4593
sg77
g4587
sg70
(lp4594
g63
(g64
g65
NtRp4595
(dp4596
g68
(dp4597
g76
I1
ssg77
g4591
sg70
(lp4598
g4296
(S't\n\x00\x00\x00Stylesheet'
tRp4599
asbasbasbag63
(g79
g65
NtRp4600
(dp4601
g68
(dp4602
sg77
g4583
sg70
(lp4603
g63
(g84
g65
NtRp4604
(dp4605
g68
(dp4606
sg77
g4600
sg70
(lp4607
g63
(g64
g65
NtRp4608
(dp4609
g68
(dp4610
g76
I1
ssg77
g4604
sg70
(lp4611
I00
asbasbasbag63
(g79
g65
NtRp4612
(dp4613
g68
(dp4614
sg77
g4583
sg70
(lp4615
g63
(g84
g65
NtRp4616
(dp4617
g68
(dp4618
sg77
g4612
sg70
(lp4619
g63
(g64
g65
NtRp4620
(dp4621
g68
(dp4622
g76
I1
ssg77
g4616
sg70
(lp4623
S'/admin/default/edit/ACES/static/base.css'
p4624
asbasbasbasbasbasbasbag63
(g79
g65
NtRp4625
(dp4626
g68
(dp4627
sg77
g4405
sg70
(lp4628
g63
(g84
g65
NtRp4629
(dp4630
g68
(dp4631
sg77
g4625
sg70
(lp4632
g63
(g64
g65
NtRp4633
(dp4634
g68
(dp4635
g76
I2
ssg77
g4629
sg70
(lp4636
g63
(g72
g65
NtRp4637
(dp4638
g68
(dp4639
g76
I1
ssg77
Nsg70
(lp4640
g63
(g79
g65
NtRp4641
(dp4642
g68
(dp4643
sg77
g4637
sg70
(lp4644
g63
(g84
g65
NtRp4645
(dp4646
g68
(dp4647
sg77
g4641
sg70
(lp4648
g63
(g64
g65
NtRp4649
(dp4650
g68
(dp4651
g76
I1
ssg77
g4645
sg70
(lp4652
g4296
(S's\x08\x00\x00\x00DB Model'
tRp4653
asbasbasbag63
(g79
g65
NtRp4654
(dp4655
g68
(dp4656
sg77
g4637
sg70
(lp4657
g63
(g84
g65
NtRp4658
(dp4659
g68
(dp4660
sg77
g4654
sg70
(lp4661
g63
(g64
g65
NtRp4662
(dp4663
g68
(dp4664
g76
I1
ssg77
g4658
sg70
(lp4665
I00
asbasbasbag63
(g79
g65
NtRp4666
(dp4667
g68
(dp4668
sg77
g4637
sg70
(lp4669
g63
(g84
g65
NtRp4670
(dp4671
g68
(dp4672
sg77
g4666
sg70
(lp4673
g63
(g64
g65
NtRp4674
(dp4675
g68
(dp4676
g76
I1
ssg77
g4670
sg70
(lp4677
S'/admin/default/edit/ACES/models/db.py'
p4678
asbasbasbasbasbasbasbag63
(g79
g65
NtRp4679
(dp4680
g68
(dp4681
sg77
g4405
sg70
(lp4682
g63
(g84
g65
NtRp4683
(dp4684
g68
(dp4685
sg77
g4679
sg70
(lp4686
g63
(g64
g65
NtRp4687
(dp4688
g68
(dp4689
g76
I2
ssg77
g4683
sg70
(lp4690
g63
(g72
g65
NtRp4691
(dp4692
g68
(dp4693
g76
I1
ssg77
Nsg70
(lp4694
g63
(g79
g65
NtRp4695
(dp4696
g68
(dp4697
sg77
g4691
sg70
(lp4698
g63
(g84
g65
NtRp4699
(dp4700
g68
(dp4701
sg77
g4695
sg70
(lp4702
g63
(g64
g65
NtRp4703
(dp4704
g68
(dp4705
g76
I1
ssg77
g4699
sg70
(lp4706
g4296
(S's\n\x00\x00\x00Menu Model'
tRp4707
asbasbasbag63
(g79
g65
NtRp4708
(dp4709
g68
(dp4710
sg77
g4691
sg70
(lp4711
g63
(g84
g65
NtRp4712
(dp4713
g68
(dp4714
sg77
g4708
sg70
(lp4715
g63
(g64
g65
NtRp4716
(dp4717
g68
(dp4718
g76
I1
ssg77
g4712
sg70
(lp4719
I00
asbasbasbag63
(g79
g65
NtRp4720
(dp4721
g68
(dp4722
sg77
g4691
sg70
(lp4723
g63
(g84
g65
NtRp4724
(dp4725
g68
(dp4726
sg77
g4720
sg70
(lp4727
g63
(g64
g65
NtRp4728
(dp4729
g68
(dp4730
g76
I1
ssg77
g4724
sg70
(lp4731
S'/admin/default/edit/ACES/models/menu.py'
p4732
asbasbasbasbasbasbasbag63
(g79
g65
NtRp4733
(dp4734
g68
(dp4735
sg77
g4405
sg70
(lp4736
g63
(g84
g65
NtRp4737
(dp4738
g68
(dp4739
sg77
g4733
sg70
(lp4740
g63
(g64
g65
NtRp4741
(dp4742
g68
(dp4743
g76
I2
ssg77
g4737
sg70
(lp4744
g63
(g72
g65
NtRp4745
(dp4746
g68
(dp4747
g76
I1
ssg77
Nsg70
(lp4748
g63
(g79
g65
NtRp4749
(dp4750
g68
(dp4751
sg77
g4745
sg70
(lp4752
g63
(g84
g65
NtRp4753
(dp4754
g68
(dp4755
sg77
g4749
sg70
(lp4756
g63
(g64
g65
NtRp4757
(dp4758
g68
(dp4759
g76
I1
ssg77
g4753
sg70
(lp4760
g4296
(S't\x08\x00\x00\x00Database'
tRp4761
asbasbasbag63
(g79
g65
NtRp4762
(dp4763
g68
(dp4764
sg77
g4745
sg70
(lp4765
g63
(g84
g65
NtRp4766
(dp4767
g68
(dp4768
sg77
g4762
sg70
(lp4769
g63
(g64
g65
NtRp4770
(dp4771
g68
(dp4772
g76
I1
ssg77
g4766
sg70
(lp4773
I00
asbasbasbag63
(g79
g65
NtRp4774
(dp4775
g68
(dp4776
sg77
g4745
sg70
(lp4777
g63
(g84
g65
NtRp4778
(dp4779
g68
(dp4780
sg77
g4774
sg70
(lp4781
g63
(g64
g65
NtRp4782
(dp4783
g68
(dp4784
g76
I1
ssg77
g4778
sg70
(lp4785
S'/ACES/appadmin/index'
p4786
asbasbasbasbasbasbasbag63
(g79
g65
NtRp4787
(dp4788
g68
(dp4789
sg77
g4405
sg70
(lp4790
g63
(g84
g65
NtRp4791
(dp4792
g68
(dp4793
sg77
g4787
sg70
(lp4794
g63
(g64
g65
NtRp4795
(dp4796
g68
(dp4797
g76
I2
ssg77
g4791
sg70
(lp4798
g63
(g72
g65
NtRp4799
(dp4800
g68
(dp4801
g76
I1
ssg77
Nsg70
(lp4802
g63
(g79
g65
NtRp4803
(dp4804
g68
(dp4805
sg77
g4799
sg70
(lp4806
g63
(g84
g65
NtRp4807
(dp4808
g68
(dp4809
sg77
g4803
sg70
(lp4810
g63
(g64
g65
NtRp4811
(dp4812
g68
(dp4813
g76
I1
ssg77
g4807
sg70
(lp4814
g4296
(S't\x06\x00\x00\x00Errors'
tRp4815
asbasbasbag63
(g79
g65
NtRp4816
(dp4817
g68
(dp4818
sg77
g4799
sg70
(lp4819
g63
(g84
g65
NtRp4820
(dp4821
g68
(dp4822
sg77
g4816
sg70
(lp4823
g63
(g64
g65
NtRp4824
(dp4825
g68
(dp4826
g76
I1
ssg77
g4820
sg70
(lp4827
I00
asbasbasbag63
(g79
g65
NtRp4828
(dp4829
g68
(dp4830
sg77
g4799
sg70
(lp4831
g63
(g84
g65
NtRp4832
(dp4833
g68
(dp4834
sg77
g4828
sg70
(lp4835
g63
(g64
g65
NtRp4836
(dp4837
g68
(dp4838
g76
I1
ssg77
g4832
sg70
(lp4839
S'/admin/default/errors/ACES'
p4840
asbasbasbasbasbasbasbag63
(g79
g65
NtRp4841
(dp4842
g68
(dp4843
sg77
g4405
sg70
(lp4844
g63
(g84
g65
NtRp4845
(dp4846
g68
(dp4847
sg77
g4841
sg70
(lp4848
g63
(g64
g65
NtRp4849
(dp4850
g68
(dp4851
g76
I2
ssg77
g4845
sg70
(lp4852
g63
(g72
g65
NtRp4853
(dp4854
g68
(dp4855
g76
I1
ssg77
Nsg70
(lp4856
g63
(g79
g65
NtRp4857
(dp4858
g68
(dp4859
sg77
g4853
sg70
(lp4860
g63
(g84
g65
NtRp4861
(dp4862
g68
(dp4863
sg77
g4857
sg70
(lp4864
g63
(g64
g65
NtRp4865
(dp4866
g68
(dp4867
g76
I1
ssg77
g4861
sg70
(lp4868
g4296
(S't\x05\x00\x00\x00About'
tRp4869
asbasbasbag63
(g79
g65
NtRp4870
(dp4871
g68
(dp4872
sg77
g4853
sg70
(lp4873
g63
(g84
g65
NtRp4874
(dp4875
g68
(dp4876
sg77
g4870
sg70
(lp4877
g63
(g64
g65
NtRp4878
(dp4879
g68
(dp4880
g76
I1
ssg77
g4874
sg70
(lp4881
I00
asbasbasbag63
(g79
g65
NtRp4882
(dp4883
g68
(dp4884
sg77
g4853
sg70
(lp4885
g63
(g84
g65
NtRp4886
(dp4887
g68
(dp4888
sg77
g4882
sg70
(lp4889
g63
(g64
g65
NtRp4890
(dp4891
g68
(dp4892
g76
I1
ssg77
g4886
sg70
(lp4893
S'/admin/default/about/ACES'
p4894
asbasbasbasbasbasbasbasbasbasbasbasbasbasbasbag63
(g79
g65
NtRp4895
(dp4896
g68
(dp4897
sg77
g4264
sg70
(lp4898
g63
(g84
g65
NtRp4899
(dp4900
g68
(dp4901
sg77
g4895
sg70
(lp4902
g63
(g64
g65
NtRp4903
(dp4904
g68
(dp4905
g76
I4
ssg77
g4899
sg70
(lp4906
g63
(g72
g65
NtRp4907
(dp4908
g68
(dp4909
g76
I3
ssg77
Nsg70
(lp4910
g63
(g79
g65
NtRp4911
(dp4912
g68
(dp4913
sg77
g4907
sg70
(lp4914
g63
(g84
g65
NtRp4915
(dp4916
g68
(dp4917
sg77
g4911
sg70
(lp4918
g63
(g64
g65
NtRp4919
(dp4920
g68
(dp4921
g76
I3
ssg77
g4915
sg70
(lp4922
g4296
(S't\t\x00\x00\x00Resources'
tRp4923
asbasbasbag63
(g79
g65
NtRp4924
(dp4925
g68
(dp4926
sg77
g4907
sg70
(lp4927
g63
(g84
g65
NtRp4928
(dp4929
g68
(dp4930
sg77
g4924
sg70
(lp4931
g63
(g64
g65
NtRp4932
(dp4933
g68
(dp4934
g76
I3
ssg77
g4928
sg70
(lp4935
g106
asbasbasbag63
(g79
g65
NtRp4936
(dp4937
g68
(dp4938
sg77
g4907
sg70
(lp4939
g63
(g84
g65
NtRp4940
(dp4941
g68
(dp4942
sg77
g4936
sg70
(lp4943
g63
(g64
g65
NtRp4944
(dp4945
g68
(dp4946
g76
I3
ssg77
g4940
sg70
(lp4947
S'None'
p4948
asbasbasbag63
(g79
g65
NtRp4949
(dp4950
g68
(dp4951
sg77
g4907
sg70
(lp4952
g63
(g84
g65
NtRp4953
(dp4954
g68
(dp4955
sg77
g4949
sg70
(lp4956
g63
(g64
g65
NtRp4957
(dp4958
g68
(dp4959
g76
I3
ssg77
g4953
sg70
(lp4960
g63
(g72
g65
NtRp4961
(dp4962
g68
(dp4963
g76
I2
ssg77
Nsg70
(lp4964
g63
(g79
g65
NtRp4965
(dp4966
g68
(dp4967
sg77
g4961
sg70
(lp4968
g63
(g84
g65
NtRp4969
(dp4970
g68
(dp4971
sg77
g4965
sg70
(lp4972
g63
(g64
g65
NtRp4973
(dp4974
g68
(dp4975
g76
I2
ssg77
g4969
sg70
(lp4976
g63
(g72
g65
NtRp4977
(dp4978
g68
(dp4979
g76
I1
ssg77
Nsg70
(lp4980
g63
(g79
g65
NtRp4981
(dp4982
g68
(dp4983
sg77
g4977
sg70
(lp4984
g63
(g84
g65
NtRp4985
(dp4986
g68
(dp4987
sg77
g4981
sg70
(lp4988
g63
(g64
g65
NtRp4989
(dp4990
g68
(dp4991
g76
I1
ssg77
g4985
sg70
(lp4992
g4296
(S't\r\x00\x00\x00Documentation'
tRp4993
asbasbasbag63
(g79
g65
NtRp4994
(dp4995
g68
(dp4996
sg77
g4977
sg70
(lp4997
g63
(g84
g65
NtRp4998
(dp4999
g68
(dp5000
sg77
g4994
sg70
(lp5001
g63
(g64
g65
NtRp5002
(dp5003
g68
(dp5004
g76
I1
ssg77
g4998
sg70
(lp5005
I00
asbasbasbag63
(g79
g65
NtRp5006
(dp5007
g68
(dp5008
sg77
g4977
sg70
(lp5009
g63
(g84
g65
NtRp5010
(dp5011
g68
(dp5012
sg77
g5006
sg70
(lp5013
g63
(g64
g65
NtRp5014
(dp5015
g68
(dp5016
g76
I1
ssg77
g5010
sg70
(lp5017
S'http://www.web2py.com/book'
p5018
asbasbasbag63
(g79
g65
NtRp5019
(dp5020
g68
(dp5021
sg77
g4977
sg70
(lp5022
g63
(g84
g65
NtRp5023
(dp5024
g68
(dp5025
sg77
g5019
sg70
(lp5026
g63
(g64
g65
NtRp5027
(dp5028
g68
(dp5029
g76
I1
ssg77
g5023
sg70
(lp5030
(lp5031
(g4296
(S't\x07\x00\x00\x00Preface'
tRp5032
I00
S'http://www.web2py.com/book/default/chapter/00'
p5033
tp5034
a(g4296
(S't\x0c\x00\x00\x00Introduction'
tRp5035
I00
S'http://www.web2py.com/book/default/chapter/01'
p5036
tp5037
a(g4296
(S't\x06\x00\x00\x00Python'
tRp5038
I00
S'http://www.web2py.com/book/default/chapter/02'
p5039
tp5040
a(g4296
(S't\x08\x00\x00\x00Overview'
tRp5041
I00
S'http://www.web2py.com/book/default/chapter/03'
p5042
tp5043
a(g4296
(S's\x08\x00\x00\x00The Core'
tRp5044
I00
S'http://www.web2py.com/book/default/chapter/04'
p5045
tp5046
a(g4296
(S's\t\x00\x00\x00The Views'
tRp5047
I00
S'http://www.web2py.com/book/default/chapter/05'
p5048
tp5049
a(g4296
(S't\x08\x00\x00\x00Database'
tRp5050
I00
S'http://www.web2py.com/book/default/chapter/06'
p5051
tp5052
a(g4296
(S's\x14\x00\x00\x00Forms and Validators'
tRp5053
I00
S'http://www.web2py.com/book/default/chapter/07'
p5054
tp5055
a(g4296
(S's\x0e\x00\x00\x00Access Control'
tRp5056
I00
S'http://www.web2py.com/book/default/chapter/08'
p5057
tp5058
a(g4296
(S't\x08\x00\x00\x00Services'
tRp5059
I00
S'http://www.web2py.com/book/default/chapter/09'
p5060
tp5061
a(g4296
(S's\x0c\x00\x00\x00Ajax Recipes'
tRp5062
I00
S'http://www.web2py.com/book/default/chapter/10'
p5063
tp5064
a(g4296
(S's\x12\x00\x00\x00Deployment Recipes'
tRp5065
I00
S'http://www.web2py.com/book/default/chapter/11'
p5066
tp5067
a(g4296
(S's\r\x00\x00\x00Other Recipes'
tRp5068
I00
S'http://www.web2py.com/book/default/chapter/12'
p5069
tp5070
a(g4296
(S's\r\x00\x00\x00Buy this book'
tRp5071
I00
S'http://stores.lulu.com/web2py'
p5072
tp5073
aasbasbasbasbasbasbasbag63
(g79
g65
NtRp5074
(dp5075
g68
(dp5076
sg77
g4961
sg70
(lp5077
g63
(g84
g65
NtRp5078
(dp5079
g68
(dp5080
sg77
g5074
sg70
(lp5081
g63
(g64
g65
NtRp5082
(dp5083
g68
(dp5084
g76
I2
ssg77
g5078
sg70
(lp5085
g63
(g72
g65
NtRp5086
(dp5087
g68
(dp5088
g76
I1
ssg77
Nsg70
(lp5089
g63
(g79
g65
NtRp5090
(dp5091
g68
(dp5092
sg77
g5086
sg70
(lp5093
g63
(g84
g65
NtRp5094
(dp5095
g68
(dp5096
sg77
g5090
sg70
(lp5097
g63
(g64
g65
NtRp5098
(dp5099
g68
(dp5100
g76
I1
ssg77
g5094
sg70
(lp5101
g4296
(S't\t\x00\x00\x00Community'
tRp5102
asbasbasbag63
(g79
g65
NtRp5103
(dp5104
g68
(dp5105
sg77
g5086
sg70
(lp5106
g63
(g84
g65
NtRp5107
(dp5108
g68
(dp5109
sg77
g5103
sg70
(lp5110
g63
(g64
g65
NtRp5111
(dp5112
g68
(dp5113
g76
I1
ssg77
g5107
sg70
(lp5114
I00
asbasbasbag63
(g79
g65
NtRp5115
(dp5116
g68
(dp5117
sg77
g5086
sg70
(lp5118
g63
(g84
g65
NtRp5119
(dp5120
g68
(dp5121
sg77
g5115
sg70
(lp5122
g63
(g64
g65
NtRp5123
(dp5124
g68
(dp5125
g76
I1
ssg77
g5119
sg70
(lp5126
Nasbasbasbag63
(g79
g65
NtRp5127
(dp5128
g68
(dp5129
sg77
g5086
sg70
(lp5130
g63
(g84
g65
NtRp5131
(dp5132
g68
(dp5133
sg77
g5127
sg70
(lp5134
g63
(g64
g65
NtRp5135
(dp5136
g68
(dp5137
g76
I1
ssg77
g5131
sg70
(lp5138
(lp5139
(g4296
(S't\x06\x00\x00\x00Groups'
tRp5140
I00
S'http://www.web2py.com/examples/default/usergroups'
p5141
tp5142
a(g4296
(S't\x07\x00\x00\x00Twitter'
tRp5143
I00
S'http://twitter.com/web2py'
p5144
tp5145
a(g4296
(S's\t\x00\x00\x00Live chat'
tRp5146
I00
S'http://mibbit.com/?channel=%23web2py&server=irc.mibbit.net'
p5147
tp5148
a(g4296
(S's\n\x00\x00\x00User Voice'
tRp5149
I00
S'http://web2py.uservoice.com/'
p5150
tp5151
aasbasbasbasbasbasbasbag63
(g79
g65
NtRp5152
(dp5153
g68
(dp5154
sg77
g4961
sg70
(lp5155
g63
(g84
g65
NtRp5156
(dp5157
g68
(dp5158
sg77
g5152
sg70
(lp5159
g63
(g64
g65
NtRp5160
(dp5161
g68
(dp5162
g76
I2
ssg77
g5156
sg70
(lp5163
g63
(g72
g65
NtRp5164
(dp5165
g68
(dp5166
g76
I1
ssg77
Nsg70
(lp5167
g63
(g79
g65
NtRp5168
(dp5169
g68
(dp5170
sg77
g5164
sg70
(lp5171
g63
(g84
g65
NtRp5172
(dp5173
g68
(dp5174
sg77
g5168
sg70
(lp5175
g63
(g64
g65
NtRp5176
(dp5177
g68
(dp5178
g76
I1
ssg77
g5172
sg70
(lp5179
g4296
(S't\x06\x00\x00\x00Web2py'
tRp5180
asbasbasbag63
(g79
g65
NtRp5181
(dp5182
g68
(dp5183
sg77
g5164
sg70
(lp5184
g63
(g84
g65
NtRp5185
(dp5186
g68
(dp5187
sg77
g5181
sg70
(lp5188
g63
(g64
g65
NtRp5189
(dp5190
g68
(dp5191
g76
I1
ssg77
g5185
sg70
(lp5192
I00
asbasbasbag63
(g79
g65
NtRp5193
(dp5194
g68
(dp5195
sg77
g5164
sg70
(lp5196
g63
(g84
g65
NtRp5197
(dp5198
g68
(dp5199
sg77
g5193
sg70
(lp5200
g63
(g64
g65
NtRp5201
(dp5202
g68
(dp5203
g76
I1
ssg77
g5197
sg70
(lp5204
S'http://www.web2py.com'
p5205
asbasbasbag63
(g79
g65
NtRp5206
(dp5207
g68
(dp5208
sg77
g5164
sg70
(lp5209
g63
(g84
g65
NtRp5210
(dp5211
g68
(dp5212
sg77
g5206
sg70
(lp5213
g63
(g64
g65
NtRp5214
(dp5215
g68
(dp5216
g76
I1
ssg77
g5210
sg70
(lp5217
(lp5218
(g4296
(S't\x08\x00\x00\x00Download'
tRp5219
I00
S'http://www.web2py.com/examples/default/download'
p5220
tp5221
a(g4296
(S't\x07\x00\x00\x00Support'
tRp5222
I00
S'http://www.web2py.com/examples/default/support'
p5223
tp5224
a(g4296
(S's\x0e\x00\x00\x00Quick Examples'
tRp5225
I00
S'http://web2py.com/examples/default/examples'
p5226
tp5227
a(g4296
(S't\x03\x00\x00\x00FAQ'
tRp5228
I00
S'http://web2py.com/AlterEgo'
p5229
tp5230
a(g4296
(S's\x11\x00\x00\x00Free Applications'
tRp5231
I00
S'http://web2py.com/appliances'
p5232
tp5233
a(g4296
(S't\x07\x00\x00\x00Plugins'
tRp5234
I00
S'http://web2py.com/plugins'
p5235
tp5236
a(g4296
(S't\x07\x00\x00\x00Recipes'
tRp5237
I00
S'http://web2pyslices.com/'
p5238
tp5239
a(g4296
(S't\x04\x00\x00\x00Demo'
tRp5240
I00
S'http://web2py.com/demo_admin'
p5241
tp5242
a(g4296
(S't\x08\x00\x00\x00Semantic'
tRp5243
I00
S'http://web2py.com/semantic'
p5244
tp5245
a(g4296
(S't\x07\x00\x00\x00Layouts'
tRp5246
I00
S'http://web2py.com/layouts'
p5247
tp5248
a(g4296
(S't\x06\x00\x00\x00Videos'
tRp5249
I00
S'http://www.web2py.com/examples/default/videos/'
p5250
tp5251
aasbasbasbasbasbasbasbasbasbasbasbasbasbasbasbasbasbasbasbag63
(g79
g65
NtRp5252
(dp5253
g68
(dp5254
sg77
g3791
sg70
(lp5255
g63
(g84
g65
NtRp5256
(dp5257
g68
(dp5258
g88
g89
ssg77
g5252
sg70
(lp5259
S'meta'
p5260
asbag63
(g84
g65
NtRp5261
(dp5262
g68
(dp5263
g95
g96
ssg77
g5252
sg70
(lp5264
S':'
asbag63
(g84
g65
NtRp5265
(dp5266
g68
(dp5267
sg77
g5252
sg70
(lp5268
g63
(g64
g65
NtRp5269
(dp5270
g68
(dp5271
g76
I5
ssg77
g5265
sg70
(lp5272
g63
(g72
g65
NtRp5273
(dp5274
g68
(dp5275
g76
I4
ssg77
Nsg70
(lp5276
g63
(g79
g65
NtRp5277
(dp5278
g68
(dp5279
sg77
g5273
sg70
(lp5280
g63
(g84
g65
NtRp5281
(dp5282
g68
(dp5283
g88
g89
ssg77
g5277
sg70
(lp5284
S'author'
p5285
asbag63
(g84
g65
NtRp5286
(dp5287
g68
(dp5288
g95
g96
ssg77
g5277
sg70
(lp5289
S':'
asbag63
(g84
g65
NtRp5290
(dp5291
g68
(dp5292
sg77
g5277
sg70
(lp5293
g63
(g64
g65
NtRp5294
(dp5295
g68
(dp5296
g76
I4
ssg77
g5290
sg70
(lp5297
S'Your Name <you@example.com>'
p5298
asbasbasbag63
(g79
g65
NtRp5299
(dp5300
g68
(dp5301
sg77
g5273
sg70
(lp5302
g63
(g84
g65
NtRp5303
(dp5304
g68
(dp5305
g88
g89
ssg77
g5299
sg70
(lp5306
S'copyright'
p5307
asbag63
(g84
g65
NtRp5308
(dp5309
g68
(dp5310
g95
g96
ssg77
g5299
sg70
(lp5311
S':'
asbag63
(g84
g65
NtRp5312
(dp5313
g68
(dp5314
sg77
g5299
sg70
(lp5315
g63
(g64
g65
NtRp5316
(dp5317
g68
(dp5318
g76
I4
ssg77
g5312
sg70
(lp5319
S'Copyright 2011'
p5320
asbasbasbag63
(g79
g65
NtRp5321
(dp5322
g68
(dp5323
sg77
g5273
sg70
(lp5324
g63
(g84
g65
NtRp5325
(dp5326
g68
(dp5327
g88
g89
ssg77
g5321
sg70
(lp5328
S'description'
p5329
asbag63
(g84
g65
NtRp5330
(dp5331
g68
(dp5332
g95
g96
ssg77
g5321
sg70
(lp5333
S':'
asbag63
(g84
g65
NtRp5334
(dp5335
g68
(dp5336
sg77
g5321
sg70
(lp5337
g63
(g64
g65
NtRp5338
(dp5339
g68
(dp5340
g76
I4
ssg77
g5334
sg70
(lp5341
S'a cool new app'
p5342
asbasbasbag63
(g79
g65
NtRp5343
(dp5344
g68
(dp5345
sg77
g5273
sg70
(lp5346
g63
(g84
g65
NtRp5347
(dp5348
g68
(dp5349
g88
g89
ssg77
g5343
sg70
(lp5350
S'generator'
p5351
asbag63
(g84
g65
NtRp5352
(dp5353
g68
(dp5354
g95
g96
ssg77
g5343
sg70
(lp5355
S':'
asbag63
(g84
g65
NtRp5356
(dp5357
g68
(dp5358
sg77
g5343
sg70
(lp5359
g63
(g64
g65
NtRp5360
(dp5361
g68
(dp5362
g76
I4
ssg77
g5356
sg70
(lp5363
S'Web2py Web Framework'
p5364
asbasbasbag63
(g79
g65
NtRp5365
(dp5366
g68
(dp5367
sg77
g5273
sg70
(lp5368
g63
(g84
g65
NtRp5369
(dp5370
g68
(dp5371
g88
g89
ssg77
g5365
sg70
(lp5372
S'keywords'
p5373
asbag63
(g84
g65
NtRp5374
(dp5375
g68
(dp5376
g95
g96
ssg77
g5365
sg70
(lp5377
S':'
asbag63
(g84
g65
NtRp5378
(dp5379
g68
(dp5380
sg77
g5365
sg70
(lp5381
g63
(g64
g65
NtRp5382
(dp5383
g68
(dp5384
g76
I4
ssg77
g5378
sg70
(lp5385
S'web2py, python, framework'
p5386
asbasbasbasbasbasbasbag63
(g79
g65
NtRp5387
(dp5388
g68
(dp5389
sg77
g3791
sg70
(lp5390
g63
(g84
g65
NtRp5391
(dp5392
g68
(dp5393
g88
g89
ssg77
g5387
sg70
(lp5394
S'postprocessing'
p5395
asbag63
(g84
g65
NtRp5396
(dp5397
g68
(dp5398
g95
g96
ssg77
g5387
sg70
(lp5399
S':'
asbag63
(g84
g65
NtRp5400
(dp5401
g68
(dp5402
sg77
g5387
sg70
(lp5403
g63
(g64
g65
NtRp5404
(dp5405
g68
(dp5406
g76
I5
ssg77
g5400
sg70
(lp5407
g63
(g72
g65
NtRp5408
(dp5409
g68
(dp5410
g76
I4
ssg77
Nsg70
(lp5411
sbasbasbasbag63
(g79
g65
NtRp5412
(dp5413
g68
(dp5414
sg77
g3791
sg70
(lp5415
g63
(g84
g65
NtRp5416
(dp5417
g68
(dp5418
g88
g89
ssg77
g5412
sg70
(lp5419
S'session_file'
p5420
asbag63
(g84
g65
NtRp5421
(dp5422
g68
(dp5423
g95
g96
ssg77
g5412
sg70
(lp5424
S':'
asbag63
(g84
g65
NtRp5425
(dp5426
g68
(dp5427
sg77
g5412
sg70
(lp5428
g63
(g64
g65
NtRp5429
(dp5430
g68
(dp5431
g76
I5
ssg77
g5425
sg70
(lp5432
S"<open file '/home/u4hcsdaw/Python/web2py/applications/ACES/sessions/127.0.0.1-41cac65c-3668-453b-9ecc-c26f12d379cc', mode 'rb+' at 0xb1b4968>"
p5433
asbasbasbag63
(g79
g65
NtRp5434
(dp5435
g68
(dp5436
sg77
g3791
sg70
(lp5437
g63
(g84
g65
NtRp5438
(dp5439
g68
(dp5440
g88
g89
ssg77
g5434
sg70
(lp5441
S'session_filename'
p5442
asbag63
(g84
g65
NtRp5443
(dp5444
g68
(dp5445
g95
g96
ssg77
g5434
sg70
(lp5446
S':'
asbag63
(g84
g65
NtRp5447
(dp5448
g68
(dp5449
sg77
g5434
sg70
(lp5450
g63
(g64
g65
NtRp5451
(dp5452
g68
(dp5453
g76
I5
ssg77
g5447
sg70
(lp5454
S'/home/u4hcsdaw/Python/web2py/applications/ACES/sessions/127.0.0.1-41cac65c-3668-453b-9ecc-c26f12d379cc'
p5455
asbasbasbag63
(g79
g65
NtRp5456
(dp5457
g68
(dp5458
sg77
g3791
sg70
(lp5459
g63
(g84
g65
NtRp5460
(dp5461
g68
(dp5462
g88
g89
ssg77
g5456
sg70
(lp5463
S'session_id'
p5464
asbag63
(g84
g65
NtRp5465
(dp5466
g68
(dp5467
g95
g96
ssg77
g5456
sg70
(lp5468
S':'
asbag63
(g84
g65
NtRp5469
(dp5470
g68
(dp5471
sg77
g5456
sg70
(lp5472
g63
(g64
g65
NtRp5473
(dp5474
g68
(dp5475
g76
I5
ssg77
g5469
sg70
(lp5476
S'127.0.0.1-41cac65c-3668-453b-9ecc-c26f12d379cc'
p5477
asbasbasbag63
(g79
g65
NtRp5478
(dp5479
g68
(dp5480
sg77
g3791
sg70
(lp5481
g63
(g84
g65
NtRp5482
(dp5483
g68
(dp5484
g88
g89
ssg77
g5478
sg70
(lp5485
S'session_id_name'
p5486
asbag63
(g84
g65
NtRp5487
(dp5488
g68
(dp5489
g95
g96
ssg77
g5478
sg70
(lp5490
S':'
asbag63
(g84
g65
NtRp5491
(dp5492
g68
(dp5493
sg77
g5478
sg70
(lp5494
g63
(g64
g65
NtRp5495
(dp5496
g68
(dp5497
g76
I5
ssg77
g5491
sg70
(lp5498
g3848
asbasbasbag63
(g79
g65
NtRp5499
(dp5500
g68
(dp5501
sg77
g3791
sg70
(lp5502
g63
(g84
g65
NtRp5503
(dp5504
g68
(dp5505
g88
g89
ssg77
g5499
sg70
(lp5506
S'session_locked'
p5507
asbag63
(g84
g65
NtRp5508
(dp5509
g68
(dp5510
g95
g96
ssg77
g5499
sg70
(lp5511
S':'
asbag63
(g84
g65
NtRp5512
(dp5513
g68
(dp5514
sg77
g5499
sg70
(lp5515
g63
(g64
g65
NtRp5516
(dp5517
g68
(dp5518
g76
I5
ssg77
g5512
sg70
(lp5519
g2097
asbasbasbag63
(g79
g65
NtRp5520
(dp5521
g68
(dp5522
sg77
g3791
sg70
(lp5523
g63
(g84
g65
NtRp5524
(dp5525
g68
(dp5526
g88
g89
ssg77
g5520
sg70
(lp5527
S'session_new'
p5528
asbag63
(g84
g65
NtRp5529
(dp5530
g68
(dp5531
g95
g96
ssg77
g5520
sg70
(lp5532
S':'
asbag63
(g84
g65
NtRp5533
(dp5534
g68
(dp5535
sg77
g5520
sg70
(lp5536
g63
(g64
g65
NtRp5537
(dp5538
g68
(dp5539
g76
I5
ssg77
g5533
sg70
(lp5540
g106
asbasbasbag63
(g79
g65
NtRp5541
(dp5542
g68
(dp5543
sg77
g3791
sg70
(lp5544
g63
(g84
g65
NtRp5545
(dp5546
g68
(dp5547
g88
g89
ssg77
g5541
sg70
(lp5548
S'status'
p5549
asbag63
(g84
g65
NtRp5550
(dp5551
g68
(dp5552
g95
g96
ssg77
g5541
sg70
(lp5553
S':'
asbag63
(g84
g65
NtRp5554
(dp5555
g68
(dp5556
sg77
g5541
sg70
(lp5557
g63
(g64
g65
NtRp5558
(dp5559
g68
(dp5560
g76
I5
ssg77
g5554
sg70
(lp5561
S'200'
p5562
asbasbasbag63
(g79
g65
NtRp5563
(dp5564
g68
(dp5565
sg77
g3791
sg70
(lp5566
g63
(g84
g65
NtRp5567
(dp5568
g68
(dp5569
g88
g89
ssg77
g5563
sg70
(lp5570
S'subtitle'
p5571
asbag63
(g84
g65
NtRp5572
(dp5573
g68
(dp5574
g95
g96
ssg77
g5563
sg70
(lp5575
S':'
asbag63
(g84
g65
NtRp5576
(dp5577
g68
(dp5578
sg77
g5563
sg70
(lp5579
g63
(g64
g65
NtRp5580
(dp5581
g68
(dp5582
g76
I5
ssg77
g5576
sg70
(lp5583
g4296
(S's\r\x00\x00\x00customize me!'
tRp5584
asbasbasbag63
(g79
g65
NtRp5585
(dp5586
g68
(dp5587
sg77
g3791
sg70
(lp5588
g63
(g84
g65
NtRp5589
(dp5590
g68
(dp5591
g88
g89
ssg77
g5585
sg70
(lp5592
S'title'
p5593
asbag63
(g84
g65
NtRp5594
(dp5595
g68
(dp5596
g95
g96
ssg77
g5585
sg70
(lp5597
S':'
asbag63
(g84
g65
NtRp5598
(dp5599
g68
(dp5600
sg77
g5585
sg70
(lp5601
g63
(g64
g65
NtRp5602
(dp5603
g68
(dp5604
g76
I5
ssg77
g5598
sg70
(lp5605
g128
asbasbasbag63
(g79
g65
NtRp5606
(dp5607
g68
(dp5608
sg77
g3791
sg70
(lp5609
g63
(g84
g65
NtRp5610
(dp5611
g68
(dp5612
g88
g89
ssg77
g5606
sg70
(lp5613
g2785
asbag63
(g84
g65
NtRp5614
(dp5615
g68
(dp5616
g95
g96
ssg77
g5606
sg70
(lp5617
S':'
asbag63
(g84
g65
NtRp5618
(dp5619
g68
(dp5620
sg77
g5606
sg70
(lp5621
g63
(g64
g65
NtRp5622
(dp5623
g68
(dp5624
g76
I5
ssg77
g5618
sg70
(lp5625
g2798
asbasbasbag63
(g79
g65
NtRp5626
(dp5627
g68
(dp5628
sg77
g3791
sg70
(lp5629
g63
(g84
g65
NtRp5630
(dp5631
g68
(dp5632
g88
g89
ssg77
g5626
sg70
(lp5633
S'view'
p5634
asbag63
(g84
g65
NtRp5635
(dp5636
g68
(dp5637
g95
g96
ssg77
g5626
sg70
(lp5638
S':'
asbag63
(g84
g65
NtRp5639
(dp5640
g68
(dp5641
sg77
g5626
sg70
(lp5642
g63
(g64
g65
NtRp5643
(dp5644
g68
(dp5645
g76
I5
ssg77
g5639
sg70
(lp5646
S'default/index.html'
p5647
asbasbasbasbasbsS'locals'
p5648
(dp5649
S'errread'
p5650
S'None'
p5651
sS'c2pread'
p5652
S'None'
p5653
sS'gc_was_enabled'
p5654
g2097
sS'errwrite'
p5655
S'None'
p5656
sS'child_exception'
p5657
S"OSError(2, 'No such file or directory')"
p5658
sS'errpipe_write'
p5659
S'17'
p5660
sS'executable'
p5661
S"'ls > new.txt'"
p5662
sS'close_fds'
p5663
g106
sS'self'
p5664
S'<subprocess.Popen object>'
p5665
sg1185
S'None'
p5666
sS'cwd'
p5667
S'None'
p5668
sS'shell'
p5669
g106
sg46
S"['ls > new.txt']"
p5670
sS'fd'
p5671
S'None'
p5672
sS'c2pwrite'
p5673
S'None'
p5674
sS'data'
p5675
S'"cexceptions\\nOSError\\np0\\n(I2\\nS\'No such file or dir...or: [Errno 2] No such file or directory\\\\n\'\\np6\\nsb."'
p5676
sS'creationflags'
p5677
S'0'
sS'errpipe_read'
p5678
S'16'
p5679
sS'preexec_fn'
p5680
S'None'
p5681
sS'p2cread'
p5682
S'None'
p5683
sS'startupinfo'
p5684
S'None'
p5685
sS'p2cwrite'
p5686
S'None'
p5687
sS'universal_newlines'
p5688
g106
sssS'traceback'
p5689
S'Traceback (most recent call last):\n  File "/home/u4hcsdaw/Python/web2py/gluon/restricted.py", line 194, in restricted\n    exec ccode in environment\n  File "/home/u4hcsdaw/Python/web2py/applications/ACES/controllers/default.py", line 83, in <module>\n  File "/home/u4hcsdaw/Python/web2py/gluon/globals.py", line 149, in <lambda>\n    self._caller = lambda f: f()\n  File "/home/u4hcsdaw/Python/web2py/applications/ACES/controllers/default.py", line 27, in index\n    t0=AcesCall(f1.vars)\n  File "/home/u4hcsdaw/Python/web2py/applications/ACES/models/functionsAces.py", line 10, in AcesCall\n    subprocess.call(comm)\n  File "/home/u4hcsdaw/Python/epd/lib/python2.7/subprocess.py", line 493, in call\n    return Popen(*popenargs, **kwargs).wait()\n  File "/home/u4hcsdaw/Python/epd/lib/python2.7/subprocess.py", line 679, in __init__\n    errread, errwrite)\n  File "/home/u4hcsdaw/Python/epd/lib/python2.7/subprocess.py", line 1249, in _execute_child\n    raise child_exception\nOSError: [Errno 2] No such file or directory\n'
p5690
s.