(dp1
S'output'
p2
S''
sS'layer'
p3
S'/home/u4hcsdaw/Python/web2py/applications/ACES/controllers/default.py'
p4
sS'code'
p5
S'# -*- coding: utf-8 -*-\n# this file is released under public domain and you can use without limitations\n\n#########################################################################\n## This is a samples controller\n## - index is the default action of any application\n## - user is required for authentication and authorization\n## - download is for downloading files uploaded in the db (does streaming)\n## - call exposes all registered services (none by default)\n#########################################################################\n\ndef index():\n    """\n    example action using the internationalization operator T and flash\n    rendered by views/default/index.html or views/generic.html\n    """\n    ip1=[INPUT(_type=\'text\', _name=\'waveHeight\', _value=\'0.85\'))]\n    sub1=INPUT(_type=\'submit\',_name=\'subButton\')\n    f1=FORM(\'wave\',ip1,sub1,_name=\'Form1\',_action=\'\')\n    if f1.accepts(request.vars,session):\n        session.formVars=f1.vars\n    return dict(form=f1)\n\ndef user():\n    """\n    exposes:\n    http://..../[app]/default/user/login\n    http://..../[app]/default/user/logout\n    http://..../[app]/default/user/register\n    http://..../[app]/default/user/profile\n    http://..../[app]/default/user/retrieve_password\n    http://..../[app]/default/user/change_password\n    use @auth.requires_login()\n        @auth.requires_membership(\'group name\')\n        @auth.requires_permission(\'read\',\'table name\',record_id)\n    to decorate functions that need access control\n    """\n    return dict(form=auth())\n\n\ndef download():\n    """\n    allows downloading of uploaded files\n    http://..../[app]/default/download/[filename]\n    """\n    return response.download(request,db)\n\n\ndef call():\n    """\n    exposes services. for example:\n    http://..../[app]/default/call/jsonrpc\n    decorate with @services.jsonrpc the functions to expose\n    supports xml, json, xmlrpc, jsonrpc, amfrpc, rss, csv\n    """\n    return service()\n\n\n@auth.requires_signature()\ndef data():\n    """\n    http://..../[app]/default/data/tables\n    http://..../[app]/default/data/create/[table]\n    http://..../[app]/default/data/read/[table]/[id]\n    http://..../[app]/default/data/update/[table]/[id]\n    http://..../[app]/default/data/delete/[table]/[id]\n    http://..../[app]/default/data/select/[table]\n    http://..../[app]/default/data/search/[table]\n    but URLs bust be signed, i.e. linked with\n      A(\'table\',_href=URL(\'data/tables\',user_signature=True))\n    or with the signed load operator\n      LOAD(\'default\',\'data.load\',args=\'tables\',ajax=True,user_signature=True)\n    """\n    return dict(form=crud())\n\nresponse._vars=response._caller(index)\n'
p6
sS'snapshot'
p7
(dp8
S'exception'
p9
(dp10
S'__getslice__'
p11
S"<method-wrapper '__getslice__' of exceptions.SyntaxError object>"
p12
sS'text'
p13
S'"    ip1=[INPUT(_type=\'text\', _name=\'waveHeight\', _value=\'0.85\'))]\\n"'
p14
sS'__str__'
p15
S"<method-wrapper '__str__' of exceptions.SyntaxError object>"
p16
sS'__reduce__'
p17
S'<built-in method __reduce__ of exceptions.SyntaxError object>'
p18
sS'__dict__'
p19
S'{}'
p20
sS'__sizeof__'
p21
S'<built-in method __sizeof__ of exceptions.SyntaxError object>'
p22
sS'__init__'
p23
S"<method-wrapper '__init__' of exceptions.SyntaxError object>"
p24
sS'__setattr__'
p25
S"<method-wrapper '__setattr__' of exceptions.SyntaxError object>"
p26
sS'__reduce_ex__'
p27
S'<built-in method __reduce_ex__ of exceptions.SyntaxError object>'
p28
sS'__new__'
p29
S'<built-in method __new__ of type object>'
p30
sS'__format__'
p31
S'<built-in method __format__ of exceptions.SyntaxError object>'
p32
sS'__class__'
p33
S"<type 'exceptions.SyntaxError'>"
p34
sS'filename'
p35
S"'/home/u4hcsdaw/Python/web2py/applications/ACES/controllers/default.py'"
p36
sS'lineno'
p37
S'17'
p38
sS'msg'
p39
S"'invalid syntax'"
p40
sS'__doc__'
p41
S"'Invalid syntax.'"
p42
sS'__getitem__'
p43
S"<method-wrapper '__getitem__' of exceptions.SyntaxError object>"
p44
sS'__setstate__'
p45
S'<built-in method __setstate__ of exceptions.SyntaxError object>'
p46
sS'__getattribute__'
p47
S"<method-wrapper '__getattribute__' of exceptions.SyntaxError object>"
p48
sS'print_file_and_line'
p49
S'None'
p50
sS'args'
p51
S'(\'invalid syntax\', (\'/home/u4hcsdaw/Python/web2py/applications/ACES/controllers/default.py\', 17, 64, "    ip1=[INPUT(_type=\'text\', _name=\'waveHeight\', _value=\'0.85\'))]\\n"))'
p52
sS'__subclasshook__'
p53
S'<built-in method __subclasshook__ of type object>'
p54
sS'offset'
p55
S'64'
p56
sS'__unicode__'
p57
S'<built-in method __unicode__ of exceptions.SyntaxError object>'
p58
sS'__delattr__'
p59
S"<method-wrapper '__delattr__' of exceptions.SyntaxError object>"
p60
sS'__repr__'
p61
S"<method-wrapper '__repr__' of exceptions.SyntaxError object>"
p62
sS'__hash__'
p63
S"<method-wrapper '__hash__' of exceptions.SyntaxError object>"
p64
ssS'evalue'
p65
S'invalid syntax (default.py, line 17)'
p66
sS'request'
p67
ccopy_reg
_reconstructor
p68
(cgluon.html
BEAUTIFY
p69
c__builtin__
object
p70
NtRp71
(dp72
S'attributes'
p73
(dp74
sS'components'
p75
(lp76
g68
(cgluon.html
TABLE
p77
g70
NtRp78
(dp79
g73
(dp80
S'level'
p81
I5
ssS'parent'
p82
Nsg75
(lp83
g68
(cgluon.html
TR
p84
g70
NtRp85
(dp86
g73
(dp87
sg82
g78
sg75
(lp88
g68
(cgluon.html
TD
p89
g70
NtRp90
(dp91
g73
(dp92
S'_style'
p93
S'font-weight:bold;'
p94
ssg82
g85
sg75
(lp95
S'ajax'
p96
asbag68
(g89
g70
NtRp97
(dp98
g73
(dp99
S'_valign'
p100
S'top'
p101
ssg82
g85
sg75
(lp102
S':'
asbag68
(g89
g70
NtRp103
(dp104
g73
(dp105
sg82
g85
sg75
(lp106
g68
(g69
g70
NtRp107
(dp108
g73
(dp109
g81
I5
ssg82
g103
sg75
(lp110
S'False'
p111
asbasbasbag68
(g84
g70
NtRp112
(dp113
g73
(dp114
sg82
g78
sg75
(lp115
g68
(g89
g70
NtRp116
(dp117
g73
(dp118
g93
g94
ssg82
g112
sg75
(lp119
S'application'
p120
asbag68
(g89
g70
NtRp121
(dp122
g73
(dp123
g100
g101
ssg82
g112
sg75
(lp124
S':'
asbag68
(g89
g70
NtRp125
(dp126
g73
(dp127
sg82
g112
sg75
(lp128
g68
(g69
g70
NtRp129
(dp130
g73
(dp131
g81
I5
ssg82
g125
sg75
(lp132
S'ACES'
p133
asbasbasbag68
(g84
g70
NtRp134
(dp135
g73
(dp136
sg82
g78
sg75
(lp137
g68
(g89
g70
NtRp138
(dp139
g73
(dp140
g93
g94
ssg82
g134
sg75
(lp141
g51
asbag68
(g89
g70
NtRp142
(dp143
g73
(dp144
g100
g101
ssg82
g134
sg75
(lp145
S':'
asbag68
(g89
g70
NtRp146
(dp147
g73
(dp148
sg82
g134
sg75
(lp149
g68
(g69
g70
NtRp150
(dp151
g73
(dp152
g81
I5
ssg82
g146
sg75
(lp153
g68
(g77
g70
NtRp154
(dp155
g73
(dp156
g81
I4
ssg82
Nsg75
(lp157
sbasbasbasbag68
(g84
g70
NtRp158
(dp159
g73
(dp160
sg82
g78
sg75
(lp161
g68
(g89
g70
NtRp162
(dp163
g73
(dp164
g93
g94
ssg82
g158
sg75
(lp165
S'body'
p166
asbag68
(g89
g70
NtRp167
(dp168
g73
(dp169
g100
g101
ssg82
g158
sg75
(lp170
S':'
asbag68
(g89
g70
NtRp171
(dp172
g73
(dp173
sg82
g158
sg75
(lp174
g68
(g69
g70
NtRp175
(dp176
g73
(dp177
g81
I5
ssg82
g171
sg75
(lp178
S"<open file '<fdopen>', mode 'w+b' at 0xa91fbd0>"
p179
asbasbasbag68
(g84
g70
NtRp180
(dp181
g73
(dp182
sg82
g78
sg75
(lp183
g68
(g89
g70
NtRp184
(dp185
g73
(dp186
g93
g94
ssg82
g180
sg75
(lp187
S'client'
p188
asbag68
(g89
g70
NtRp189
(dp190
g73
(dp191
g100
g101
ssg82
g180
sg75
(lp192
S':'
asbag68
(g89
g70
NtRp193
(dp194
g73
(dp195
sg82
g180
sg75
(lp196
g68
(g69
g70
NtRp197
(dp198
g73
(dp199
g81
I5
ssg82
g193
sg75
(lp200
S'127.0.0.1'
p201
asbasbasbag68
(g84
g70
NtRp202
(dp203
g73
(dp204
sg82
g78
sg75
(lp205
g68
(g89
g70
NtRp206
(dp207
g73
(dp208
g93
g94
ssg82
g202
sg75
(lp209
S'controller'
p210
asbag68
(g89
g70
NtRp211
(dp212
g73
(dp213
g100
g101
ssg82
g202
sg75
(lp214
S':'
asbag68
(g89
g70
NtRp215
(dp216
g73
(dp217
sg82
g202
sg75
(lp218
g68
(g69
g70
NtRp219
(dp220
g73
(dp221
g81
I5
ssg82
g215
sg75
(lp222
S'default'
p223
asbasbasbag68
(g84
g70
NtRp224
(dp225
g73
(dp226
sg82
g78
sg75
(lp227
g68
(g89
g70
NtRp228
(dp229
g73
(dp230
g93
g94
ssg82
g224
sg75
(lp231
S'cookies'
p232
asbag68
(g89
g70
NtRp233
(dp234
g73
(dp235
g100
g101
ssg82
g224
sg75
(lp236
S':'
asbag68
(g89
g70
NtRp237
(dp238
g73
(dp239
sg82
g224
sg75
(lp240
g68
(g69
g70
NtRp241
(dp242
g73
(dp243
g81
I5
ssg82
g237
sg75
(lp244
g68
(g77
g70
NtRp245
(dp246
g73
(dp247
g81
I4
ssg82
Nsg75
(lp248
g68
(g84
g70
NtRp249
(dp250
g73
(dp251
sg82
g245
sg75
(lp252
g68
(g89
g70
NtRp253
(dp254
g73
(dp255
g93
g94
ssg82
g249
sg75
(lp256
S'session_id_aces'
p257
asbag68
(g89
g70
NtRp258
(dp259
g73
(dp260
g100
g101
ssg82
g249
sg75
(lp261
S':'
asbag68
(g89
g70
NtRp262
(dp263
g73
(dp264
sg82
g249
sg75
(lp265
g68
(g69
g70
NtRp266
(dp267
g73
(dp268
g81
I4
ssg82
g262
sg75
(lp269
g68
(g77
g70
NtRp270
(dp271
g73
(dp272
g81
I3
ssg82
Nsg75
(lp273
g68
(g84
g70
NtRp274
(dp275
g73
(dp276
sg82
g270
sg75
(lp277
g68
(g89
g70
NtRp278
(dp279
g73
(dp280
g93
g94
ssg82
g274
sg75
(lp281
S'comment'
p282
asbag68
(g89
g70
NtRp283
(dp284
g73
(dp285
g100
g101
ssg82
g274
sg75
(lp286
S':'
asbag68
(g89
g70
NtRp287
(dp288
g73
(dp289
sg82
g274
sg75
(lp290
g68
(g69
g70
NtRp291
(dp292
g73
(dp293
g81
I3
ssg82
g287
sg75
(lp294
S''
asbasbasbag68
(g84
g70
NtRp295
(dp296
g73
(dp297
sg82
g270
sg75
(lp298
g68
(g89
g70
NtRp299
(dp300
g73
(dp301
g93
g94
ssg82
g295
sg75
(lp302
S'domain'
p303
asbag68
(g89
g70
NtRp304
(dp305
g73
(dp306
g100
g101
ssg82
g295
sg75
(lp307
S':'
asbag68
(g89
g70
NtRp308
(dp309
g73
(dp310
sg82
g295
sg75
(lp311
g68
(g69
g70
NtRp312
(dp313
g73
(dp314
g81
I3
ssg82
g308
sg75
(lp315
S''
asbasbasbag68
(g84
g70
NtRp316
(dp317
g73
(dp318
sg82
g270
sg75
(lp319
g68
(g89
g70
NtRp320
(dp321
g73
(dp322
g93
g94
ssg82
g316
sg75
(lp323
S'expires'
p324
asbag68
(g89
g70
NtRp325
(dp326
g73
(dp327
g100
g101
ssg82
g316
sg75
(lp328
S':'
asbag68
(g89
g70
NtRp329
(dp330
g73
(dp331
sg82
g316
sg75
(lp332
g68
(g69
g70
NtRp333
(dp334
g73
(dp335
g81
I3
ssg82
g329
sg75
(lp336
S''
asbasbasbag68
(g84
g70
NtRp337
(dp338
g73
(dp339
sg82
g270
sg75
(lp340
g68
(g89
g70
NtRp341
(dp342
g73
(dp343
g93
g94
ssg82
g337
sg75
(lp344
S'httponly'
p345
asbag68
(g89
g70
NtRp346
(dp347
g73
(dp348
g100
g101
ssg82
g337
sg75
(lp349
S':'
asbag68
(g89
g70
NtRp350
(dp351
g73
(dp352
sg82
g337
sg75
(lp353
g68
(g69
g70
NtRp354
(dp355
g73
(dp356
g81
I3
ssg82
g350
sg75
(lp357
S''
asbasbasbag68
(g84
g70
NtRp358
(dp359
g73
(dp360
sg82
g270
sg75
(lp361
g68
(g89
g70
NtRp362
(dp363
g73
(dp364
g93
g94
ssg82
g358
sg75
(lp365
S'max-age'
p366
asbag68
(g89
g70
NtRp367
(dp368
g73
(dp369
g100
g101
ssg82
g358
sg75
(lp370
S':'
asbag68
(g89
g70
NtRp371
(dp372
g73
(dp373
sg82
g358
sg75
(lp374
g68
(g69
g70
NtRp375
(dp376
g73
(dp377
g81
I3
ssg82
g371
sg75
(lp378
S''
asbasbasbag68
(g84
g70
NtRp379
(dp380
g73
(dp381
sg82
g270
sg75
(lp382
g68
(g89
g70
NtRp383
(dp384
g73
(dp385
g93
g94
ssg82
g379
sg75
(lp386
S'path'
p387
asbag68
(g89
g70
NtRp388
(dp389
g73
(dp390
g100
g101
ssg82
g379
sg75
(lp391
S':'
asbag68
(g89
g70
NtRp392
(dp393
g73
(dp394
sg82
g379
sg75
(lp395
g68
(g69
g70
NtRp396
(dp397
g73
(dp398
g81
I3
ssg82
g392
sg75
(lp399
S''
asbasbasbag68
(g84
g70
NtRp400
(dp401
g73
(dp402
sg82
g270
sg75
(lp403
g68
(g89
g70
NtRp404
(dp405
g73
(dp406
g93
g94
ssg82
g400
sg75
(lp407
S'secure'
p408
asbag68
(g89
g70
NtRp409
(dp410
g73
(dp411
g100
g101
ssg82
g400
sg75
(lp412
S':'
asbag68
(g89
g70
NtRp413
(dp414
g73
(dp415
sg82
g400
sg75
(lp416
g68
(g69
g70
NtRp417
(dp418
g73
(dp419
g81
I3
ssg82
g413
sg75
(lp420
S''
asbasbasbag68
(g84
g70
NtRp421
(dp422
g73
(dp423
sg82
g270
sg75
(lp424
g68
(g89
g70
NtRp425
(dp426
g73
(dp427
g93
g94
ssg82
g421
sg75
(lp428
S'version'
p429
asbag68
(g89
g70
NtRp430
(dp431
g73
(dp432
g100
g101
ssg82
g421
sg75
(lp433
S':'
asbag68
(g89
g70
NtRp434
(dp435
g73
(dp436
sg82
g421
sg75
(lp437
g68
(g69
g70
NtRp438
(dp439
g73
(dp440
g81
I3
ssg82
g434
sg75
(lp441
S''
asbasbasbasbasbasbasbag68
(g84
g70
NtRp442
(dp443
g73
(dp444
sg82
g245
sg75
(lp445
g68
(g89
g70
NtRp446
(dp447
g73
(dp448
g93
g94
ssg82
g442
sg75
(lp449
S'session_id_admin'
p450
asbag68
(g89
g70
NtRp451
(dp452
g73
(dp453
g100
g101
ssg82
g442
sg75
(lp454
S':'
asbag68
(g89
g70
NtRp455
(dp456
g73
(dp457
sg82
g442
sg75
(lp458
g68
(g69
g70
NtRp459
(dp460
g73
(dp461
g81
I4
ssg82
g455
sg75
(lp462
g68
(g77
g70
NtRp463
(dp464
g73
(dp465
g81
I3
ssg82
Nsg75
(lp466
g68
(g84
g70
NtRp467
(dp468
g73
(dp469
sg82
g463
sg75
(lp470
g68
(g89
g70
NtRp471
(dp472
g73
(dp473
g93
g94
ssg82
g467
sg75
(lp474
g282
asbag68
(g89
g70
NtRp475
(dp476
g73
(dp477
g100
g101
ssg82
g467
sg75
(lp478
S':'
asbag68
(g89
g70
NtRp479
(dp480
g73
(dp481
sg82
g467
sg75
(lp482
g68
(g69
g70
NtRp483
(dp484
g73
(dp485
g81
I3
ssg82
g479
sg75
(lp486
S''
asbasbasbag68
(g84
g70
NtRp487
(dp488
g73
(dp489
sg82
g463
sg75
(lp490
g68
(g89
g70
NtRp491
(dp492
g73
(dp493
g93
g94
ssg82
g487
sg75
(lp494
g303
asbag68
(g89
g70
NtRp495
(dp496
g73
(dp497
g100
g101
ssg82
g487
sg75
(lp498
S':'
asbag68
(g89
g70
NtRp499
(dp500
g73
(dp501
sg82
g487
sg75
(lp502
g68
(g69
g70
NtRp503
(dp504
g73
(dp505
g81
I3
ssg82
g499
sg75
(lp506
S''
asbasbasbag68
(g84
g70
NtRp507
(dp508
g73
(dp509
sg82
g463
sg75
(lp510
g68
(g89
g70
NtRp511
(dp512
g73
(dp513
g93
g94
ssg82
g507
sg75
(lp514
g324
asbag68
(g89
g70
NtRp515
(dp516
g73
(dp517
g100
g101
ssg82
g507
sg75
(lp518
S':'
asbag68
(g89
g70
NtRp519
(dp520
g73
(dp521
sg82
g507
sg75
(lp522
g68
(g69
g70
NtRp523
(dp524
g73
(dp525
g81
I3
ssg82
g519
sg75
(lp526
S''
asbasbasbag68
(g84
g70
NtRp527
(dp528
g73
(dp529
sg82
g463
sg75
(lp530
g68
(g89
g70
NtRp531
(dp532
g73
(dp533
g93
g94
ssg82
g527
sg75
(lp534
g345
asbag68
(g89
g70
NtRp535
(dp536
g73
(dp537
g100
g101
ssg82
g527
sg75
(lp538
S':'
asbag68
(g89
g70
NtRp539
(dp540
g73
(dp541
sg82
g527
sg75
(lp542
g68
(g69
g70
NtRp543
(dp544
g73
(dp545
g81
I3
ssg82
g539
sg75
(lp546
S''
asbasbasbag68
(g84
g70
NtRp547
(dp548
g73
(dp549
sg82
g463
sg75
(lp550
g68
(g89
g70
NtRp551
(dp552
g73
(dp553
g93
g94
ssg82
g547
sg75
(lp554
g366
asbag68
(g89
g70
NtRp555
(dp556
g73
(dp557
g100
g101
ssg82
g547
sg75
(lp558
S':'
asbag68
(g89
g70
NtRp559
(dp560
g73
(dp561
sg82
g547
sg75
(lp562
g68
(g69
g70
NtRp563
(dp564
g73
(dp565
g81
I3
ssg82
g559
sg75
(lp566
S''
asbasbasbag68
(g84
g70
NtRp567
(dp568
g73
(dp569
sg82
g463
sg75
(lp570
g68
(g89
g70
NtRp571
(dp572
g73
(dp573
g93
g94
ssg82
g567
sg75
(lp574
g387
asbag68
(g89
g70
NtRp575
(dp576
g73
(dp577
g100
g101
ssg82
g567
sg75
(lp578
S':'
asbag68
(g89
g70
NtRp579
(dp580
g73
(dp581
sg82
g567
sg75
(lp582
g68
(g69
g70
NtRp583
(dp584
g73
(dp585
g81
I3
ssg82
g579
sg75
(lp586
S''
asbasbasbag68
(g84
g70
NtRp587
(dp588
g73
(dp589
sg82
g463
sg75
(lp590
g68
(g89
g70
NtRp591
(dp592
g73
(dp593
g93
g94
ssg82
g587
sg75
(lp594
g408
asbag68
(g89
g70
NtRp595
(dp596
g73
(dp597
g100
g101
ssg82
g587
sg75
(lp598
S':'
asbag68
(g89
g70
NtRp599
(dp600
g73
(dp601
sg82
g587
sg75
(lp602
g68
(g69
g70
NtRp603
(dp604
g73
(dp605
g81
I3
ssg82
g599
sg75
(lp606
S''
asbasbasbag68
(g84
g70
NtRp607
(dp608
g73
(dp609
sg82
g463
sg75
(lp610
g68
(g89
g70
NtRp611
(dp612
g73
(dp613
g93
g94
ssg82
g607
sg75
(lp614
g429
asbag68
(g89
g70
NtRp615
(dp616
g73
(dp617
g100
g101
ssg82
g607
sg75
(lp618
S':'
asbag68
(g89
g70
NtRp619
(dp620
g73
(dp621
sg82
g607
sg75
(lp622
g68
(g69
g70
NtRp623
(dp624
g73
(dp625
g81
I3
ssg82
g619
sg75
(lp626
S''
asbasbasbasbasbasbasbag68
(g84
g70
NtRp627
(dp628
g73
(dp629
sg82
g245
sg75
(lp630
g68
(g89
g70
NtRp631
(dp632
g73
(dp633
g93
g94
ssg82
g627
sg75
(lp634
S'session_id_dalex1'
p635
asbag68
(g89
g70
NtRp636
(dp637
g73
(dp638
g100
g101
ssg82
g627
sg75
(lp639
S':'
asbag68
(g89
g70
NtRp640
(dp641
g73
(dp642
sg82
g627
sg75
(lp643
g68
(g69
g70
NtRp644
(dp645
g73
(dp646
g81
I4
ssg82
g640
sg75
(lp647
g68
(g77
g70
NtRp648
(dp649
g73
(dp650
g81
I3
ssg82
Nsg75
(lp651
g68
(g84
g70
NtRp652
(dp653
g73
(dp654
sg82
g648
sg75
(lp655
g68
(g89
g70
NtRp656
(dp657
g73
(dp658
g93
g94
ssg82
g652
sg75
(lp659
g282
asbag68
(g89
g70
NtRp660
(dp661
g73
(dp662
g100
g101
ssg82
g652
sg75
(lp663
S':'
asbag68
(g89
g70
NtRp664
(dp665
g73
(dp666
sg82
g652
sg75
(lp667
g68
(g69
g70
NtRp668
(dp669
g73
(dp670
g81
I3
ssg82
g664
sg75
(lp671
S''
asbasbasbag68
(g84
g70
NtRp672
(dp673
g73
(dp674
sg82
g648
sg75
(lp675
g68
(g89
g70
NtRp676
(dp677
g73
(dp678
g93
g94
ssg82
g672
sg75
(lp679
g303
asbag68
(g89
g70
NtRp680
(dp681
g73
(dp682
g100
g101
ssg82
g672
sg75
(lp683
S':'
asbag68
(g89
g70
NtRp684
(dp685
g73
(dp686
sg82
g672
sg75
(lp687
g68
(g69
g70
NtRp688
(dp689
g73
(dp690
g81
I3
ssg82
g684
sg75
(lp691
S''
asbasbasbag68
(g84
g70
NtRp692
(dp693
g73
(dp694
sg82
g648
sg75
(lp695
g68
(g89
g70
NtRp696
(dp697
g73
(dp698
g93
g94
ssg82
g692
sg75
(lp699
g324
asbag68
(g89
g70
NtRp700
(dp701
g73
(dp702
g100
g101
ssg82
g692
sg75
(lp703
S':'
asbag68
(g89
g70
NtRp704
(dp705
g73
(dp706
sg82
g692
sg75
(lp707
g68
(g69
g70
NtRp708
(dp709
g73
(dp710
g81
I3
ssg82
g704
sg75
(lp711
S''
asbasbasbag68
(g84
g70
NtRp712
(dp713
g73
(dp714
sg82
g648
sg75
(lp715
g68
(g89
g70
NtRp716
(dp717
g73
(dp718
g93
g94
ssg82
g712
sg75
(lp719
g345
asbag68
(g89
g70
NtRp720
(dp721
g73
(dp722
g100
g101
ssg82
g712
sg75
(lp723
S':'
asbag68
(g89
g70
NtRp724
(dp725
g73
(dp726
sg82
g712
sg75
(lp727
g68
(g69
g70
NtRp728
(dp729
g73
(dp730
g81
I3
ssg82
g724
sg75
(lp731
S''
asbasbasbag68
(g84
g70
NtRp732
(dp733
g73
(dp734
sg82
g648
sg75
(lp735
g68
(g89
g70
NtRp736
(dp737
g73
(dp738
g93
g94
ssg82
g732
sg75
(lp739
g366
asbag68
(g89
g70
NtRp740
(dp741
g73
(dp742
g100
g101
ssg82
g732
sg75
(lp743
S':'
asbag68
(g89
g70
NtRp744
(dp745
g73
(dp746
sg82
g732
sg75
(lp747
g68
(g69
g70
NtRp748
(dp749
g73
(dp750
g81
I3
ssg82
g744
sg75
(lp751
S''
asbasbasbag68
(g84
g70
NtRp752
(dp753
g73
(dp754
sg82
g648
sg75
(lp755
g68
(g89
g70
NtRp756
(dp757
g73
(dp758
g93
g94
ssg82
g752
sg75
(lp759
g387
asbag68
(g89
g70
NtRp760
(dp761
g73
(dp762
g100
g101
ssg82
g752
sg75
(lp763
S':'
asbag68
(g89
g70
NtRp764
(dp765
g73
(dp766
sg82
g752
sg75
(lp767
g68
(g69
g70
NtRp768
(dp769
g73
(dp770
g81
I3
ssg82
g764
sg75
(lp771
S''
asbasbasbag68
(g84
g70
NtRp772
(dp773
g73
(dp774
sg82
g648
sg75
(lp775
g68
(g89
g70
NtRp776
(dp777
g73
(dp778
g93
g94
ssg82
g772
sg75
(lp779
g408
asbag68
(g89
g70
NtRp780
(dp781
g73
(dp782
g100
g101
ssg82
g772
sg75
(lp783
S':'
asbag68
(g89
g70
NtRp784
(dp785
g73
(dp786
sg82
g772
sg75
(lp787
g68
(g69
g70
NtRp788
(dp789
g73
(dp790
g81
I3
ssg82
g784
sg75
(lp791
S''
asbasbasbag68
(g84
g70
NtRp792
(dp793
g73
(dp794
sg82
g648
sg75
(lp795
g68
(g89
g70
NtRp796
(dp797
g73
(dp798
g93
g94
ssg82
g792
sg75
(lp799
g429
asbag68
(g89
g70
NtRp800
(dp801
g73
(dp802
g100
g101
ssg82
g792
sg75
(lp803
S':'
asbag68
(g89
g70
NtRp804
(dp805
g73
(dp806
sg82
g792
sg75
(lp807
g68
(g69
g70
NtRp808
(dp809
g73
(dp810
g81
I3
ssg82
g804
sg75
(lp811
S''
asbasbasbasbasbasbasbag68
(g84
g70
NtRp812
(dp813
g73
(dp814
sg82
g245
sg75
(lp815
g68
(g89
g70
NtRp816
(dp817
g73
(dp818
g93
g94
ssg82
g812
sg75
(lp819
S'session_id_payperiod'
p820
asbag68
(g89
g70
NtRp821
(dp822
g73
(dp823
g100
g101
ssg82
g812
sg75
(lp824
S':'
asbag68
(g89
g70
NtRp825
(dp826
g73
(dp827
sg82
g812
sg75
(lp828
g68
(g69
g70
NtRp829
(dp830
g73
(dp831
g81
I4
ssg82
g825
sg75
(lp832
g68
(g77
g70
NtRp833
(dp834
g73
(dp835
g81
I3
ssg82
Nsg75
(lp836
g68
(g84
g70
NtRp837
(dp838
g73
(dp839
sg82
g833
sg75
(lp840
g68
(g89
g70
NtRp841
(dp842
g73
(dp843
g93
g94
ssg82
g837
sg75
(lp844
g282
asbag68
(g89
g70
NtRp845
(dp846
g73
(dp847
g100
g101
ssg82
g837
sg75
(lp848
S':'
asbag68
(g89
g70
NtRp849
(dp850
g73
(dp851
sg82
g837
sg75
(lp852
g68
(g69
g70
NtRp853
(dp854
g73
(dp855
g81
I3
ssg82
g849
sg75
(lp856
S''
asbasbasbag68
(g84
g70
NtRp857
(dp858
g73
(dp859
sg82
g833
sg75
(lp860
g68
(g89
g70
NtRp861
(dp862
g73
(dp863
g93
g94
ssg82
g857
sg75
(lp864
g303
asbag68
(g89
g70
NtRp865
(dp866
g73
(dp867
g100
g101
ssg82
g857
sg75
(lp868
S':'
asbag68
(g89
g70
NtRp869
(dp870
g73
(dp871
sg82
g857
sg75
(lp872
g68
(g69
g70
NtRp873
(dp874
g73
(dp875
g81
I3
ssg82
g869
sg75
(lp876
S''
asbasbasbag68
(g84
g70
NtRp877
(dp878
g73
(dp879
sg82
g833
sg75
(lp880
g68
(g89
g70
NtRp881
(dp882
g73
(dp883
g93
g94
ssg82
g877
sg75
(lp884
g324
asbag68
(g89
g70
NtRp885
(dp886
g73
(dp887
g100
g101
ssg82
g877
sg75
(lp888
S':'
asbag68
(g89
g70
NtRp889
(dp890
g73
(dp891
sg82
g877
sg75
(lp892
g68
(g69
g70
NtRp893
(dp894
g73
(dp895
g81
I3
ssg82
g889
sg75
(lp896
S''
asbasbasbag68
(g84
g70
NtRp897
(dp898
g73
(dp899
sg82
g833
sg75
(lp900
g68
(g89
g70
NtRp901
(dp902
g73
(dp903
g93
g94
ssg82
g897
sg75
(lp904
g345
asbag68
(g89
g70
NtRp905
(dp906
g73
(dp907
g100
g101
ssg82
g897
sg75
(lp908
S':'
asbag68
(g89
g70
NtRp909
(dp910
g73
(dp911
sg82
g897
sg75
(lp912
g68
(g69
g70
NtRp913
(dp914
g73
(dp915
g81
I3
ssg82
g909
sg75
(lp916
S''
asbasbasbag68
(g84
g70
NtRp917
(dp918
g73
(dp919
sg82
g833
sg75
(lp920
g68
(g89
g70
NtRp921
(dp922
g73
(dp923
g93
g94
ssg82
g917
sg75
(lp924
g366
asbag68
(g89
g70
NtRp925
(dp926
g73
(dp927
g100
g101
ssg82
g917
sg75
(lp928
S':'
asbag68
(g89
g70
NtRp929
(dp930
g73
(dp931
sg82
g917
sg75
(lp932
g68
(g69
g70
NtRp933
(dp934
g73
(dp935
g81
I3
ssg82
g929
sg75
(lp936
S''
asbasbasbag68
(g84
g70
NtRp937
(dp938
g73
(dp939
sg82
g833
sg75
(lp940
g68
(g89
g70
NtRp941
(dp942
g73
(dp943
g93
g94
ssg82
g937
sg75
(lp944
g387
asbag68
(g89
g70
NtRp945
(dp946
g73
(dp947
g100
g101
ssg82
g937
sg75
(lp948
S':'
asbag68
(g89
g70
NtRp949
(dp950
g73
(dp951
sg82
g937
sg75
(lp952
g68
(g69
g70
NtRp953
(dp954
g73
(dp955
g81
I3
ssg82
g949
sg75
(lp956
S''
asbasbasbag68
(g84
g70
NtRp957
(dp958
g73
(dp959
sg82
g833
sg75
(lp960
g68
(g89
g70
NtRp961
(dp962
g73
(dp963
g93
g94
ssg82
g957
sg75
(lp964
g408
asbag68
(g89
g70
NtRp965
(dp966
g73
(dp967
g100
g101
ssg82
g957
sg75
(lp968
S':'
asbag68
(g89
g70
NtRp969
(dp970
g73
(dp971
sg82
g957
sg75
(lp972
g68
(g69
g70
NtRp973
(dp974
g73
(dp975
g81
I3
ssg82
g969
sg75
(lp976
S''
asbasbasbag68
(g84
g70
NtRp977
(dp978
g73
(dp979
sg82
g833
sg75
(lp980
g68
(g89
g70
NtRp981
(dp982
g73
(dp983
g93
g94
ssg82
g977
sg75
(lp984
g429
asbag68
(g89
g70
NtRp985
(dp986
g73
(dp987
g100
g101
ssg82
g977
sg75
(lp988
S':'
asbag68
(g89
g70
NtRp989
(dp990
g73
(dp991
sg82
g977
sg75
(lp992
g68
(g69
g70
NtRp993
(dp994
g73
(dp995
g81
I3
ssg82
g989
sg75
(lp996
S''
asbasbasbasbasbasbasbag68
(g84
g70
NtRp997
(dp998
g73
(dp999
sg82
g245
sg75
(lp1000
g68
(g89
g70
NtRp1001
(dp1002
g73
(dp1003
g93
g94
ssg82
g997
sg75
(lp1004
S'session_id_welcome'
p1005
asbag68
(g89
g70
NtRp1006
(dp1007
g73
(dp1008
g100
g101
ssg82
g997
sg75
(lp1009
S':'
asbag68
(g89
g70
NtRp1010
(dp1011
g73
(dp1012
sg82
g997
sg75
(lp1013
g68
(g69
g70
NtRp1014
(dp1015
g73
(dp1016
g81
I4
ssg82
g1010
sg75
(lp1017
g68
(g77
g70
NtRp1018
(dp1019
g73
(dp1020
g81
I3
ssg82
Nsg75
(lp1021
g68
(g84
g70
NtRp1022
(dp1023
g73
(dp1024
sg82
g1018
sg75
(lp1025
g68
(g89
g70
NtRp1026
(dp1027
g73
(dp1028
g93
g94
ssg82
g1022
sg75
(lp1029
g282
asbag68
(g89
g70
NtRp1030
(dp1031
g73
(dp1032
g100
g101
ssg82
g1022
sg75
(lp1033
S':'
asbag68
(g89
g70
NtRp1034
(dp1035
g73
(dp1036
sg82
g1022
sg75
(lp1037
g68
(g69
g70
NtRp1038
(dp1039
g73
(dp1040
g81
I3
ssg82
g1034
sg75
(lp1041
S''
asbasbasbag68
(g84
g70
NtRp1042
(dp1043
g73
(dp1044
sg82
g1018
sg75
(lp1045
g68
(g89
g70
NtRp1046
(dp1047
g73
(dp1048
g93
g94
ssg82
g1042
sg75
(lp1049
g303
asbag68
(g89
g70
NtRp1050
(dp1051
g73
(dp1052
g100
g101
ssg82
g1042
sg75
(lp1053
S':'
asbag68
(g89
g70
NtRp1054
(dp1055
g73
(dp1056
sg82
g1042
sg75
(lp1057
g68
(g69
g70
NtRp1058
(dp1059
g73
(dp1060
g81
I3
ssg82
g1054
sg75
(lp1061
S''
asbasbasbag68
(g84
g70
NtRp1062
(dp1063
g73
(dp1064
sg82
g1018
sg75
(lp1065
g68
(g89
g70
NtRp1066
(dp1067
g73
(dp1068
g93
g94
ssg82
g1062
sg75
(lp1069
g324
asbag68
(g89
g70
NtRp1070
(dp1071
g73
(dp1072
g100
g101
ssg82
g1062
sg75
(lp1073
S':'
asbag68
(g89
g70
NtRp1074
(dp1075
g73
(dp1076
sg82
g1062
sg75
(lp1077
g68
(g69
g70
NtRp1078
(dp1079
g73
(dp1080
g81
I3
ssg82
g1074
sg75
(lp1081
S''
asbasbasbag68
(g84
g70
NtRp1082
(dp1083
g73
(dp1084
sg82
g1018
sg75
(lp1085
g68
(g89
g70
NtRp1086
(dp1087
g73
(dp1088
g93
g94
ssg82
g1082
sg75
(lp1089
g345
asbag68
(g89
g70
NtRp1090
(dp1091
g73
(dp1092
g100
g101
ssg82
g1082
sg75
(lp1093
S':'
asbag68
(g89
g70
NtRp1094
(dp1095
g73
(dp1096
sg82
g1082
sg75
(lp1097
g68
(g69
g70
NtRp1098
(dp1099
g73
(dp1100
g81
I3
ssg82
g1094
sg75
(lp1101
S''
asbasbasbag68
(g84
g70
NtRp1102
(dp1103
g73
(dp1104
sg82
g1018
sg75
(lp1105
g68
(g89
g70
NtRp1106
(dp1107
g73
(dp1108
g93
g94
ssg82
g1102
sg75
(lp1109
g366
asbag68
(g89
g70
NtRp1110
(dp1111
g73
(dp1112
g100
g101
ssg82
g1102
sg75
(lp1113
S':'
asbag68
(g89
g70
NtRp1114
(dp1115
g73
(dp1116
sg82
g1102
sg75
(lp1117
g68
(g69
g70
NtRp1118
(dp1119
g73
(dp1120
g81
I3
ssg82
g1114
sg75
(lp1121
S''
asbasbasbag68
(g84
g70
NtRp1122
(dp1123
g73
(dp1124
sg82
g1018
sg75
(lp1125
g68
(g89
g70
NtRp1126
(dp1127
g73
(dp1128
g93
g94
ssg82
g1122
sg75
(lp1129
g387
asbag68
(g89
g70
NtRp1130
(dp1131
g73
(dp1132
g100
g101
ssg82
g1122
sg75
(lp1133
S':'
asbag68
(g89
g70
NtRp1134
(dp1135
g73
(dp1136
sg82
g1122
sg75
(lp1137
g68
(g69
g70
NtRp1138
(dp1139
g73
(dp1140
g81
I3
ssg82
g1134
sg75
(lp1141
S''
asbasbasbag68
(g84
g70
NtRp1142
(dp1143
g73
(dp1144
sg82
g1018
sg75
(lp1145
g68
(g89
g70
NtRp1146
(dp1147
g73
(dp1148
g93
g94
ssg82
g1142
sg75
(lp1149
g408
asbag68
(g89
g70
NtRp1150
(dp1151
g73
(dp1152
g100
g101
ssg82
g1142
sg75
(lp1153
S':'
asbag68
(g89
g70
NtRp1154
(dp1155
g73
(dp1156
sg82
g1142
sg75
(lp1157
g68
(g69
g70
NtRp1158
(dp1159
g73
(dp1160
g81
I3
ssg82
g1154
sg75
(lp1161
S''
asbasbasbag68
(g84
g70
NtRp1162
(dp1163
g73
(dp1164
sg82
g1018
sg75
(lp1165
g68
(g89
g70
NtRp1166
(dp1167
g73
(dp1168
g93
g94
ssg82
g1162
sg75
(lp1169
g429
asbag68
(g89
g70
NtRp1170
(dp1171
g73
(dp1172
g100
g101
ssg82
g1162
sg75
(lp1173
S':'
asbag68
(g89
g70
NtRp1174
(dp1175
g73
(dp1176
sg82
g1162
sg75
(lp1177
g68
(g69
g70
NtRp1178
(dp1179
g73
(dp1180
g81
I3
ssg82
g1174
sg75
(lp1181
S''
asbasbasbasbasbasbasbasbasbasbasbag68
(g84
g70
NtRp1182
(dp1183
g73
(dp1184
sg82
g78
sg75
(lp1185
g68
(g89
g70
NtRp1186
(dp1187
g73
(dp1188
g93
g94
ssg82
g1182
sg75
(lp1189
S'env'
p1190
asbag68
(g89
g70
NtRp1191
(dp1192
g73
(dp1193
g100
g101
ssg82
g1182
sg75
(lp1194
S':'
asbag68
(g89
g70
NtRp1195
(dp1196
g73
(dp1197
sg82
g1182
sg75
(lp1198
g68
(g69
g70
NtRp1199
(dp1200
g73
(dp1201
g81
I5
ssg82
g1195
sg75
(lp1202
g68
(g77
g70
NtRp1203
(dp1204
g73
(dp1205
g81
I4
ssg82
Nsg75
(lp1206
g68
(g84
g70
NtRp1207
(dp1208
g73
(dp1209
sg82
g1203
sg75
(lp1210
g68
(g89
g70
NtRp1211
(dp1212
g73
(dp1213
g93
g94
ssg82
g1207
sg75
(lp1214
S'app_folders'
p1215
asbag68
(g89
g70
NtRp1216
(dp1217
g73
(dp1218
g100
g101
ssg82
g1207
sg75
(lp1219
S':'
asbag68
(g89
g70
NtRp1220
(dp1221
g73
(dp1222
sg82
g1207
sg75
(lp1223
g68
(g69
g70
NtRp1224
(dp1225
g73
(dp1226
g81
I4
ssg82
g1220
sg75
(lp1227
S"set(['/home/u4hcsdaw/Python/web2py/applications/ACES/', '/home/u4hcsdaw/Python/web2py/applications/PayPeriod/', '/home/u4hcsdaw/Python/web2py/applications/admin/', '/home/u4hcsdaw/Python/web2py/applications/welcome/', '/home/u4hcsdaw/Python/web2py/applications/DALEX1/'])"
p1228
asbasbasbag68
(g84
g70
NtRp1229
(dp1230
g73
(dp1231
sg82
g1203
sg75
(lp1232
g68
(g89
g70
NtRp1233
(dp1234
g73
(dp1235
g93
g94
ssg82
g1229
sg75
(lp1236
S'applications_parent'
p1237
asbag68
(g89
g70
NtRp1238
(dp1239
g73
(dp1240
g100
g101
ssg82
g1229
sg75
(lp1241
S':'
asbag68
(g89
g70
NtRp1242
(dp1243
g73
(dp1244
sg82
g1229
sg75
(lp1245
g68
(g69
g70
NtRp1246
(dp1247
g73
(dp1248
g81
I4
ssg82
g1242
sg75
(lp1249
S'/home/u4hcsdaw/Python/web2py'
p1250
asbasbasbag68
(g84
g70
NtRp1251
(dp1252
g73
(dp1253
sg82
g1203
sg75
(lp1254
g68
(g89
g70
NtRp1255
(dp1256
g73
(dp1257
g93
g94
ssg82
g1251
sg75
(lp1258
S'cmd_args'
p1259
asbag68
(g89
g70
NtRp1260
(dp1261
g73
(dp1262
g100
g101
ssg82
g1251
sg75
(lp1263
S':'
asbag68
(g89
g70
NtRp1264
(dp1265
g73
(dp1266
sg82
g1251
sg75
(lp1267
g68
(g69
g70
NtRp1268
(dp1269
g73
(dp1270
g81
I4
ssg82
g1264
sg75
(lp1271
g68
(g77
g70
NtRp1272
(dp1273
g73
(dp1274
g81
I3
ssg82
Nsg75
(lp1275
sbasbasbasbag68
(g84
g70
NtRp1276
(dp1277
g73
(dp1278
sg82
g1203
sg75
(lp1279
g68
(g89
g70
NtRp1280
(dp1281
g73
(dp1282
g93
g94
ssg82
g1276
sg75
(lp1283
S'cmd_options'
p1284
asbag68
(g89
g70
NtRp1285
(dp1286
g73
(dp1287
g100
g101
ssg82
g1276
sg75
(lp1288
S':'
asbag68
(g89
g70
NtRp1289
(dp1290
g73
(dp1291
sg82
g1276
sg75
(lp1292
g68
(g69
g70
NtRp1293
(dp1294
g73
(dp1295
g81
I4
ssg82
g1289
sg75
(lp1296
S"<Values at 0xa59ca2c: {'verbose': False, 'ip': '127.0.0.1', 'shutdown_timeout': 5, 'taskbar': False, 'nocron': False, 'pid_filename': 'httpserver.pid', 'maxthreads': None, 'softcron': False, 'server_name': 'CHL-5833E', 'bpython': False, 'nogui': False, 'port': 8000, 'extcron': False, 'debuglevel': 30, 'test': None, 'folder': '/home/u4hcsdaw/Python/web2py', 'config': '', 'import_models': False, 'winservice': '', 'shell': None, 'run': '', 'log_filename': 'httpserver.log', 'args': [''], 'ssl_ca_certificate': None, 'scheduler': None, 'profiler_filename': None, 'ssl_private_key': '', 'password': '<ask>', 'request_queue_size': 5, 'ssl_certificate': '', 'cronjob': False, 'plain': False, 'quiet': False, 'interfaces': None, 'minthreads': None, 'timeout': 10, 'numthreads': None, 'nobanner': False}>"
p1297
asbasbasbag68
(g84
g70
NtRp1298
(dp1299
g73
(dp1300
sg82
g1203
sg75
(lp1301
g68
(g89
g70
NtRp1302
(dp1303
g73
(dp1304
g93
g94
ssg82
g1298
sg75
(lp1305
S'content_length'
p1306
asbag68
(g89
g70
NtRp1307
(dp1308
g73
(dp1309
g100
g101
ssg82
g1298
sg75
(lp1310
S':'
asbag68
(g89
g70
NtRp1311
(dp1312
g73
(dp1313
sg82
g1298
sg75
(lp1314
g68
(g69
g70
NtRp1315
(dp1316
g73
(dp1317
g81
I4
ssg82
g1311
sg75
(lp1318
S'572'
p1319
asbasbasbag68
(g84
g70
NtRp1320
(dp1321
g73
(dp1322
sg82
g1203
sg75
(lp1323
g68
(g89
g70
NtRp1324
(dp1325
g73
(dp1326
g93
g94
ssg82
g1320
sg75
(lp1327
S'content_type'
p1328
asbag68
(g89
g70
NtRp1329
(dp1330
g73
(dp1331
g100
g101
ssg82
g1320
sg75
(lp1332
S':'
asbag68
(g89
g70
NtRp1333
(dp1334
g73
(dp1335
sg82
g1320
sg75
(lp1336
g68
(g69
g70
NtRp1337
(dp1338
g73
(dp1339
g81
I4
ssg82
g1333
sg75
(lp1340
S'multipart/form-data; boundary=---------------------------6710113345368161601040026844'
p1341
asbasbasbag68
(g84
g70
NtRp1342
(dp1343
g73
(dp1344
sg82
g1203
sg75
(lp1345
g68
(g89
g70
NtRp1346
(dp1347
g73
(dp1348
g93
g94
ssg82
g1342
sg75
(lp1349
S'db_sessions'
p1350
asbag68
(g89
g70
NtRp1351
(dp1352
g73
(dp1353
g100
g101
ssg82
g1342
sg75
(lp1354
S':'
asbag68
(g89
g70
NtRp1355
(dp1356
g73
(dp1357
sg82
g1342
sg75
(lp1358
g68
(g69
g70
NtRp1359
(dp1360
g73
(dp1361
g81
I4
ssg82
g1355
sg75
(lp1362
S'set([])'
p1363
asbasbasbag68
(g84
g70
NtRp1364
(dp1365
g73
(dp1366
sg82
g1203
sg75
(lp1367
g68
(g89
g70
NtRp1368
(dp1369
g73
(dp1370
g93
g94
ssg82
g1364
sg75
(lp1371
S'debugging'
p1372
asbag68
(g89
g70
NtRp1373
(dp1374
g73
(dp1375
g100
g101
ssg82
g1364
sg75
(lp1376
S':'
asbag68
(g89
g70
NtRp1377
(dp1378
g73
(dp1379
sg82
g1364
sg75
(lp1380
g68
(g69
g70
NtRp1381
(dp1382
g73
(dp1383
g81
I4
ssg82
g1377
sg75
(lp1384
g111
asbasbasbag68
(g84
g70
NtRp1385
(dp1386
g73
(dp1387
sg82
g1203
sg75
(lp1388
g68
(g89
g70
NtRp1389
(dp1390
g73
(dp1391
g93
g94
ssg82
g1385
sg75
(lp1392
S'gluon_parent'
p1393
asbag68
(g89
g70
NtRp1394
(dp1395
g73
(dp1396
g100
g101
ssg82
g1385
sg75
(lp1397
S':'
asbag68
(g89
g70
NtRp1398
(dp1399
g73
(dp1400
sg82
g1385
sg75
(lp1401
g68
(g69
g70
NtRp1402
(dp1403
g73
(dp1404
g81
I4
ssg82
g1398
sg75
(lp1405
S'/home/u4hcsdaw/Python/web2py'
p1406
asbasbasbag68
(g84
g70
NtRp1407
(dp1408
g73
(dp1409
sg82
g1203
sg75
(lp1410
g68
(g89
g70
NtRp1411
(dp1412
g73
(dp1413
g93
g94
ssg82
g1407
sg75
(lp1414
S'http_accept'
p1415
asbag68
(g89
g70
NtRp1416
(dp1417
g73
(dp1418
g100
g101
ssg82
g1407
sg75
(lp1419
S':'
asbag68
(g89
g70
NtRp1420
(dp1421
g73
(dp1422
sg82
g1407
sg75
(lp1423
g68
(g69
g70
NtRp1424
(dp1425
g73
(dp1426
g81
I4
ssg82
g1420
sg75
(lp1427
S'text/html,application/xhtml+xml,application/xml;q=0.9,*/*;q=0.8'
p1428
asbasbasbag68
(g84
g70
NtRp1429
(dp1430
g73
(dp1431
sg82
g1203
sg75
(lp1432
g68
(g89
g70
NtRp1433
(dp1434
g73
(dp1435
g93
g94
ssg82
g1429
sg75
(lp1436
S'http_accept_encoding'
p1437
asbag68
(g89
g70
NtRp1438
(dp1439
g73
(dp1440
g100
g101
ssg82
g1429
sg75
(lp1441
S':'
asbag68
(g89
g70
NtRp1442
(dp1443
g73
(dp1444
sg82
g1429
sg75
(lp1445
g68
(g69
g70
NtRp1446
(dp1447
g73
(dp1448
g81
I4
ssg82
g1442
sg75
(lp1449
S'gzip, deflate'
p1450
asbasbasbag68
(g84
g70
NtRp1451
(dp1452
g73
(dp1453
sg82
g1203
sg75
(lp1454
g68
(g89
g70
NtRp1455
(dp1456
g73
(dp1457
g93
g94
ssg82
g1451
sg75
(lp1458
S'http_accept_language'
p1459
asbag68
(g89
g70
NtRp1460
(dp1461
g73
(dp1462
g100
g101
ssg82
g1451
sg75
(lp1463
S':'
asbag68
(g89
g70
NtRp1464
(dp1465
g73
(dp1466
sg82
g1451
sg75
(lp1467
g68
(g69
g70
NtRp1468
(dp1469
g73
(dp1470
g81
I4
ssg82
g1464
sg75
(lp1471
S'en-us,en;q=0.5'
p1472
asbasbasbag68
(g84
g70
NtRp1473
(dp1474
g73
(dp1475
sg82
g1203
sg75
(lp1476
g68
(g89
g70
NtRp1477
(dp1478
g73
(dp1479
g93
g94
ssg82
g1473
sg75
(lp1480
S'http_cache_control'
p1481
asbag68
(g89
g70
NtRp1482
(dp1483
g73
(dp1484
g100
g101
ssg82
g1473
sg75
(lp1485
S':'
asbag68
(g89
g70
NtRp1486
(dp1487
g73
(dp1488
sg82
g1473
sg75
(lp1489
g68
(g69
g70
NtRp1490
(dp1491
g73
(dp1492
g81
I4
ssg82
g1486
sg75
(lp1493
S'max-age=0'
p1494
asbasbasbag68
(g84
g70
NtRp1495
(dp1496
g73
(dp1497
sg82
g1203
sg75
(lp1498
g68
(g89
g70
NtRp1499
(dp1500
g73
(dp1501
g93
g94
ssg82
g1495
sg75
(lp1502
S'http_connection'
p1503
asbag68
(g89
g70
NtRp1504
(dp1505
g73
(dp1506
g100
g101
ssg82
g1495
sg75
(lp1507
S':'
asbag68
(g89
g70
NtRp1508
(dp1509
g73
(dp1510
sg82
g1495
sg75
(lp1511
g68
(g69
g70
NtRp1512
(dp1513
g73
(dp1514
g81
I4
ssg82
g1508
sg75
(lp1515
S'keep-alive'
p1516
asbasbasbag68
(g84
g70
NtRp1517
(dp1518
g73
(dp1519
sg82
g1203
sg75
(lp1520
g68
(g89
g70
NtRp1521
(dp1522
g73
(dp1523
g93
g94
ssg82
g1517
sg75
(lp1524
S'http_content_length'
p1525
asbag68
(g89
g70
NtRp1526
(dp1527
g73
(dp1528
g100
g101
ssg82
g1517
sg75
(lp1529
S':'
asbag68
(g89
g70
NtRp1530
(dp1531
g73
(dp1532
sg82
g1517
sg75
(lp1533
g68
(g69
g70
NtRp1534
(dp1535
g73
(dp1536
g81
I4
ssg82
g1530
sg75
(lp1537
g1319
asbasbasbag68
(g84
g70
NtRp1538
(dp1539
g73
(dp1540
sg82
g1203
sg75
(lp1541
g68
(g89
g70
NtRp1542
(dp1543
g73
(dp1544
g93
g94
ssg82
g1538
sg75
(lp1545
S'http_content_type'
p1546
asbag68
(g89
g70
NtRp1547
(dp1548
g73
(dp1549
g100
g101
ssg82
g1538
sg75
(lp1550
S':'
asbag68
(g89
g70
NtRp1551
(dp1552
g73
(dp1553
sg82
g1538
sg75
(lp1554
g68
(g69
g70
NtRp1555
(dp1556
g73
(dp1557
g81
I4
ssg82
g1551
sg75
(lp1558
g1341
asbasbasbag68
(g84
g70
NtRp1559
(dp1560
g73
(dp1561
sg82
g1203
sg75
(lp1562
g68
(g89
g70
NtRp1563
(dp1564
g73
(dp1565
g93
g94
ssg82
g1559
sg75
(lp1566
S'http_cookie'
p1567
asbag68
(g89
g70
NtRp1568
(dp1569
g73
(dp1570
g100
g101
ssg82
g1559
sg75
(lp1571
S':'
asbag68
(g89
g70
NtRp1572
(dp1573
g73
(dp1574
sg82
g1559
sg75
(lp1575
g68
(g69
g70
NtRp1576
(dp1577
g73
(dp1578
g81
I4
ssg82
g1572
sg75
(lp1579
S'session_id_welcome=127.0.0.1-12b98747-1fd8-478d-9049-d46630d93557; session_id_dalex1=127.0.0.1-7e0fdc70-88f0-470f-b29d-66b8055bd8b0; session_id_admin=127.0.0.1-b6612ac5-4ad8-4c3c-a00a-ff553923cd64; session_id_aces=127.0.0.1-41cac65c-3668-453b-9ecc-c26f12d379cc; session_id_payperiod=127.0.0.1-9708cb9c-54bb-4c0f-8cf3-5e7899aff001'
p1580
asbasbasbag68
(g84
g70
NtRp1581
(dp1582
g73
(dp1583
sg82
g1203
sg75
(lp1584
g68
(g89
g70
NtRp1585
(dp1586
g73
(dp1587
g93
g94
ssg82
g1581
sg75
(lp1588
S'http_host'
p1589
asbag68
(g89
g70
NtRp1590
(dp1591
g73
(dp1592
g100
g101
ssg82
g1581
sg75
(lp1593
S':'
asbag68
(g89
g70
NtRp1594
(dp1595
g73
(dp1596
sg82
g1581
sg75
(lp1597
g68
(g69
g70
NtRp1598
(dp1599
g73
(dp1600
g81
I4
ssg82
g1594
sg75
(lp1601
S'127.0.0.1:8000'
p1602
asbasbasbag68
(g84
g70
NtRp1603
(dp1604
g73
(dp1605
sg82
g1203
sg75
(lp1606
g68
(g89
g70
NtRp1607
(dp1608
g73
(dp1609
g93
g94
ssg82
g1603
sg75
(lp1610
S'http_referer'
p1611
asbag68
(g89
g70
NtRp1612
(dp1613
g73
(dp1614
g100
g101
ssg82
g1603
sg75
(lp1615
S':'
asbag68
(g89
g70
NtRp1616
(dp1617
g73
(dp1618
sg82
g1603
sg75
(lp1619
g68
(g69
g70
NtRp1620
(dp1621
g73
(dp1622
g81
I4
ssg82
g1616
sg75
(lp1623
S'http://127.0.0.1:8000/ACES/default/index'
p1624
asbasbasbag68
(g84
g70
NtRp1625
(dp1626
g73
(dp1627
sg82
g1203
sg75
(lp1628
g68
(g89
g70
NtRp1629
(dp1630
g73
(dp1631
g93
g94
ssg82
g1625
sg75
(lp1632
S'http_user_agent'
p1633
asbag68
(g89
g70
NtRp1634
(dp1635
g73
(dp1636
g100
g101
ssg82
g1625
sg75
(lp1637
S':'
asbag68
(g89
g70
NtRp1638
(dp1639
g73
(dp1640
sg82
g1625
sg75
(lp1641
g68
(g69
g70
NtRp1642
(dp1643
g73
(dp1644
g81
I4
ssg82
g1638
sg75
(lp1645
S'Mozilla/5.0 (X11; Ubuntu; Linux i686; rv:11.0) Gecko/20100101 Firefox/11.0'
p1646
asbasbasbag68
(g84
g70
NtRp1647
(dp1648
g73
(dp1649
sg82
g1203
sg75
(lp1650
g68
(g89
g70
NtRp1651
(dp1652
g73
(dp1653
g93
g94
ssg82
g1647
sg75
(lp1654
S'is_jython'
p1655
asbag68
(g89
g70
NtRp1656
(dp1657
g73
(dp1658
g100
g101
ssg82
g1647
sg75
(lp1659
S':'
asbag68
(g89
g70
NtRp1660
(dp1661
g73
(dp1662
sg82
g1647
sg75
(lp1663
g68
(g69
g70
NtRp1664
(dp1665
g73
(dp1666
g81
I4
ssg82
g1660
sg75
(lp1667
g111
asbasbasbag68
(g84
g70
NtRp1668
(dp1669
g73
(dp1670
sg82
g1203
sg75
(lp1671
g68
(g89
g70
NtRp1672
(dp1673
g73
(dp1674
g93
g94
ssg82
g1668
sg75
(lp1675
S'path_info'
p1676
asbag68
(g89
g70
NtRp1677
(dp1678
g73
(dp1679
g100
g101
ssg82
g1668
sg75
(lp1680
S':'
asbag68
(g89
g70
NtRp1681
(dp1682
g73
(dp1683
sg82
g1668
sg75
(lp1684
g68
(g69
g70
NtRp1685
(dp1686
g73
(dp1687
g81
I4
ssg82
g1681
sg75
(lp1688
S'/ACES/default/index'
p1689
asbasbasbag68
(g84
g70
NtRp1690
(dp1691
g73
(dp1692
sg82
g1203
sg75
(lp1693
g68
(g89
g70
NtRp1694
(dp1695
g73
(dp1696
g93
g94
ssg82
g1690
sg75
(lp1697
S'query_string'
p1698
asbag68
(g89
g70
NtRp1699
(dp1700
g73
(dp1701
g100
g101
ssg82
g1690
sg75
(lp1702
S':'
asbag68
(g89
g70
NtRp1703
(dp1704
g73
(dp1705
sg82
g1690
sg75
(lp1706
g68
(g69
g70
NtRp1707
(dp1708
g73
(dp1709
g81
I4
ssg82
g1703
sg75
(lp1710
S''
asbasbasbag68
(g84
g70
NtRp1711
(dp1712
g73
(dp1713
sg82
g1203
sg75
(lp1714
g68
(g89
g70
NtRp1715
(dp1716
g73
(dp1717
g93
g94
ssg82
g1711
sg75
(lp1718
S'remote_addr'
p1719
asbag68
(g89
g70
NtRp1720
(dp1721
g73
(dp1722
g100
g101
ssg82
g1711
sg75
(lp1723
S':'
asbag68
(g89
g70
NtRp1724
(dp1725
g73
(dp1726
sg82
g1711
sg75
(lp1727
g68
(g69
g70
NtRp1728
(dp1729
g73
(dp1730
g81
I4
ssg82
g1724
sg75
(lp1731
g201
asbasbasbag68
(g84
g70
NtRp1732
(dp1733
g73
(dp1734
sg82
g1203
sg75
(lp1735
g68
(g89
g70
NtRp1736
(dp1737
g73
(dp1738
g93
g94
ssg82
g1732
sg75
(lp1739
S'remote_port'
p1740
asbag68
(g89
g70
NtRp1741
(dp1742
g73
(dp1743
g100
g101
ssg82
g1732
sg75
(lp1744
S':'
asbag68
(g89
g70
NtRp1745
(dp1746
g73
(dp1747
sg82
g1732
sg75
(lp1748
g68
(g69
g70
NtRp1749
(dp1750
g73
(dp1751
g81
I4
ssg82
g1745
sg75
(lp1752
S'57972'
p1753
asbasbasbag68
(g84
g70
NtRp1754
(dp1755
g73
(dp1756
sg82
g1203
sg75
(lp1757
g68
(g89
g70
NtRp1758
(dp1759
g73
(dp1760
g93
g94
ssg82
g1754
sg75
(lp1761
S'request_method'
p1762
asbag68
(g89
g70
NtRp1763
(dp1764
g73
(dp1765
g100
g101
ssg82
g1754
sg75
(lp1766
S':'
asbag68
(g89
g70
NtRp1767
(dp1768
g73
(dp1769
sg82
g1754
sg75
(lp1770
g68
(g69
g70
NtRp1771
(dp1772
g73
(dp1773
g81
I4
ssg82
g1767
sg75
(lp1774
S'POST'
p1775
asbasbasbag68
(g84
g70
NtRp1776
(dp1777
g73
(dp1778
sg82
g1203
sg75
(lp1779
g68
(g89
g70
NtRp1780
(dp1781
g73
(dp1782
g93
g94
ssg82
g1776
sg75
(lp1783
S'script_name'
p1784
asbag68
(g89
g70
NtRp1785
(dp1786
g73
(dp1787
g100
g101
ssg82
g1776
sg75
(lp1788
S':'
asbag68
(g89
g70
NtRp1789
(dp1790
g73
(dp1791
sg82
g1776
sg75
(lp1792
g68
(g69
g70
NtRp1793
(dp1794
g73
(dp1795
g81
I4
ssg82
g1789
sg75
(lp1796
S''
asbasbasbag68
(g84
g70
NtRp1797
(dp1798
g73
(dp1799
sg82
g1203
sg75
(lp1800
g68
(g89
g70
NtRp1801
(dp1802
g73
(dp1803
g93
g94
ssg82
g1797
sg75
(lp1804
S'server_name'
p1805
asbag68
(g89
g70
NtRp1806
(dp1807
g73
(dp1808
g100
g101
ssg82
g1797
sg75
(lp1809
S':'
asbag68
(g89
g70
NtRp1810
(dp1811
g73
(dp1812
sg82
g1797
sg75
(lp1813
g68
(g69
g70
NtRp1814
(dp1815
g73
(dp1816
g81
I4
ssg82
g1810
sg75
(lp1817
S'CHL-5833E'
p1818
asbasbasbag68
(g84
g70
NtRp1819
(dp1820
g73
(dp1821
sg82
g1203
sg75
(lp1822
g68
(g89
g70
NtRp1823
(dp1824
g73
(dp1825
g93
g94
ssg82
g1819
sg75
(lp1826
S'server_port'
p1827
asbag68
(g89
g70
NtRp1828
(dp1829
g73
(dp1830
g100
g101
ssg82
g1819
sg75
(lp1831
S':'
asbag68
(g89
g70
NtRp1832
(dp1833
g73
(dp1834
sg82
g1819
sg75
(lp1835
g68
(g69
g70
NtRp1836
(dp1837
g73
(dp1838
g81
I4
ssg82
g1832
sg75
(lp1839
S'8000'
p1840
asbasbasbag68
(g84
g70
NtRp1841
(dp1842
g73
(dp1843
sg82
g1203
sg75
(lp1844
g68
(g89
g70
NtRp1845
(dp1846
g73
(dp1847
g93
g94
ssg82
g1841
sg75
(lp1848
S'server_protocol'
p1849
asbag68
(g89
g70
NtRp1850
(dp1851
g73
(dp1852
g100
g101
ssg82
g1841
sg75
(lp1853
S':'
asbag68
(g89
g70
NtRp1854
(dp1855
g73
(dp1856
sg82
g1841
sg75
(lp1857
g68
(g69
g70
NtRp1858
(dp1859
g73
(dp1860
g81
I4
ssg82
g1854
sg75
(lp1861
S'HTTP/1.1'
p1862
asbasbasbag68
(g84
g70
NtRp1863
(dp1864
g73
(dp1865
sg82
g1203
sg75
(lp1866
g68
(g89
g70
NtRp1867
(dp1868
g73
(dp1869
g93
g94
ssg82
g1863
sg75
(lp1870
S'server_software'
p1871
asbag68
(g89
g70
NtRp1872
(dp1873
g73
(dp1874
g100
g101
ssg82
g1863
sg75
(lp1875
S':'
asbag68
(g89
g70
NtRp1876
(dp1877
g73
(dp1878
sg82
g1863
sg75
(lp1879
g68
(g69
g70
NtRp1880
(dp1881
g73
(dp1882
g81
I4
ssg82
g1876
sg75
(lp1883
S'Rocket 1.2.4'
p1884
asbasbasbag68
(g84
g70
NtRp1885
(dp1886
g73
(dp1887
sg82
g1203
sg75
(lp1888
g68
(g89
g70
NtRp1889
(dp1890
g73
(dp1891
g93
g94
ssg82
g1885
sg75
(lp1892
S'web2py_crontype'
p1893
asbag68
(g89
g70
NtRp1894
(dp1895
g73
(dp1896
g100
g101
ssg82
g1885
sg75
(lp1897
S':'
asbag68
(g89
g70
NtRp1898
(dp1899
g73
(dp1900
sg82
g1885
sg75
(lp1901
g68
(g69
g70
NtRp1902
(dp1903
g73
(dp1904
g81
I4
ssg82
g1898
sg75
(lp1905
S'hard'
p1906
asbasbasbag68
(g84
g70
NtRp1907
(dp1908
g73
(dp1909
sg82
g1203
sg75
(lp1910
g68
(g89
g70
NtRp1911
(dp1912
g73
(dp1913
g93
g94
ssg82
g1907
sg75
(lp1914
S'web2py_path'
p1915
asbag68
(g89
g70
NtRp1916
(dp1917
g73
(dp1918
g100
g101
ssg82
g1907
sg75
(lp1919
S':'
asbag68
(g89
g70
NtRp1920
(dp1921
g73
(dp1922
sg82
g1907
sg75
(lp1923
g68
(g69
g70
NtRp1924
(dp1925
g73
(dp1926
g81
I4
ssg82
g1920
sg75
(lp1927
g1250
asbasbasbag68
(g84
g70
NtRp1928
(dp1929
g73
(dp1930
sg82
g1203
sg75
(lp1931
g68
(g89
g70
NtRp1932
(dp1933
g73
(dp1934
g93
g94
ssg82
g1928
sg75
(lp1935
S'web2py_version'
p1936
asbag68
(g89
g70
NtRp1937
(dp1938
g73
(dp1939
g100
g101
ssg82
g1928
sg75
(lp1940
S':'
asbag68
(g89
g70
NtRp1941
(dp1942
g73
(dp1943
sg82
g1928
sg75
(lp1944
g68
(g69
g70
NtRp1945
(dp1946
g73
(dp1947
g81
I4
ssg82
g1941
sg75
(lp1948
g68
(g77
g70
NtRp1949
(dp1950
g73
(dp1951
g81
I3
ssg82
Nsg75
(lp1952
g68
(g84
g70
NtRp1953
(dp1954
g73
(dp1955
sg82
g1949
sg75
(lp1956
g68
(g89
g70
NtRp1957
(dp1958
g73
(dp1959
sg82
g1953
sg75
(lp1960
g68
(g69
g70
NtRp1961
(dp1962
g73
(dp1963
g81
I3
ssg82
g1957
sg75
(lp1964
S'1'
asbasbasbag68
(g84
g70
NtRp1965
(dp1966
g73
(dp1967
sg82
g1949
sg75
(lp1968
g68
(g89
g70
NtRp1969
(dp1970
g73
(dp1971
sg82
g1965
sg75
(lp1972
g68
(g69
g70
NtRp1973
(dp1974
g73
(dp1975
g81
I3
ssg82
g1969
sg75
(lp1976
S'99'
p1977
asbasbasbag68
(g84
g70
NtRp1978
(dp1979
g73
(dp1980
sg82
g1949
sg75
(lp1981
g68
(g89
g70
NtRp1982
(dp1983
g73
(dp1984
sg82
g1978
sg75
(lp1985
g68
(g69
g70
NtRp1986
(dp1987
g73
(dp1988
g81
I3
ssg82
g1982
sg75
(lp1989
S'2'
asbasbasbag68
(g84
g70
NtRp1990
(dp1991
g73
(dp1992
sg82
g1949
sg75
(lp1993
g68
(g89
g70
NtRp1994
(dp1995
g73
(dp1996
sg82
g1990
sg75
(lp1997
g68
(g69
g70
NtRp1998
(dp1999
g73
(dp2000
g81
I3
ssg82
g1994
sg75
(lp2001
S'datetime.datetime(2011, 9, 26, 6, 55, 33)'
p2002
asbasbasbag68
(g84
g70
NtRp2003
(dp2004
g73
(dp2005
sg82
g1949
sg75
(lp2006
g68
(g89
g70
NtRp2007
(dp2008
g73
(dp2009
sg82
g2003
sg75
(lp2010
g68
(g69
g70
NtRp2011
(dp2012
g73
(dp2013
g81
I3
ssg82
g2007
sg75
(lp2014
S'stable'
p2015
asbasbasbasbasbasbasbag68
(g84
g70
NtRp2016
(dp2017
g73
(dp2018
sg82
g1203
sg75
(lp2019
g68
(g89
g70
NtRp2020
(dp2021
g73
(dp2022
g93
g94
ssg82
g2016
sg75
(lp2023
S'wsgi_errors'
p2024
asbag68
(g89
g70
NtRp2025
(dp2026
g73
(dp2027
g100
g101
ssg82
g2016
sg75
(lp2028
S':'
asbag68
(g89
g70
NtRp2029
(dp2030
g73
(dp2031
sg82
g2016
sg75
(lp2032
g68
(g69
g70
NtRp2033
(dp2034
g73
(dp2035
g81
I4
ssg82
g2029
sg75
(lp2036
S"<open file '<stderr>', mode 'w' at 0xb738b0d0>"
p2037
asbasbasbag68
(g84
g70
NtRp2038
(dp2039
g73
(dp2040
sg82
g1203
sg75
(lp2041
g68
(g89
g70
NtRp2042
(dp2043
g73
(dp2044
g93
g94
ssg82
g2038
sg75
(lp2045
S'wsgi_file_wrapper'
p2046
asbag68
(g89
g70
NtRp2047
(dp2048
g73
(dp2049
g100
g101
ssg82
g2038
sg75
(lp2050
S':'
asbag68
(g89
g70
NtRp2051
(dp2052
g73
(dp2053
sg82
g2038
sg75
(lp2054
g68
(g69
g70
NtRp2055
(dp2056
g73
(dp2057
g81
I4
ssg82
g2051
sg75
(lp2058
S'<class wsgiref.util.FileWrapper at 0xa4ce92c>'
p2059
asbasbasbag68
(g84
g70
NtRp2060
(dp2061
g73
(dp2062
sg82
g1203
sg75
(lp2063
g68
(g89
g70
NtRp2064
(dp2065
g73
(dp2066
g93
g94
ssg82
g2060
sg75
(lp2067
S'wsgi_input'
p2068
asbag68
(g89
g70
NtRp2069
(dp2070
g73
(dp2071
g100
g101
ssg82
g2060
sg75
(lp2072
S':'
asbag68
(g89
g70
NtRp2073
(dp2074
g73
(dp2075
sg82
g2060
sg75
(lp2076
g68
(g69
g70
NtRp2077
(dp2078
g73
(dp2079
g81
I4
ssg82
g2073
sg75
(lp2080
S'<socket._fileobject object at 0xab8adec>'
p2081
asbasbasbag68
(g84
g70
NtRp2082
(dp2083
g73
(dp2084
sg82
g1203
sg75
(lp2085
g68
(g89
g70
NtRp2086
(dp2087
g73
(dp2088
g93
g94
ssg82
g2082
sg75
(lp2089
S'wsgi_multiprocess'
p2090
asbag68
(g89
g70
NtRp2091
(dp2092
g73
(dp2093
g100
g101
ssg82
g2082
sg75
(lp2094
S':'
asbag68
(g89
g70
NtRp2095
(dp2096
g73
(dp2097
sg82
g2082
sg75
(lp2098
g68
(g69
g70
NtRp2099
(dp2100
g73
(dp2101
g81
I4
ssg82
g2095
sg75
(lp2102
g111
asbasbasbag68
(g84
g70
NtRp2103
(dp2104
g73
(dp2105
sg82
g1203
sg75
(lp2106
g68
(g89
g70
NtRp2107
(dp2108
g73
(dp2109
g93
g94
ssg82
g2103
sg75
(lp2110
S'wsgi_multithread'
p2111
asbag68
(g89
g70
NtRp2112
(dp2113
g73
(dp2114
g100
g101
ssg82
g2103
sg75
(lp2115
S':'
asbag68
(g89
g70
NtRp2116
(dp2117
g73
(dp2118
sg82
g2103
sg75
(lp2119
g68
(g69
g70
NtRp2120
(dp2121
g73
(dp2122
g81
I4
ssg82
g2116
sg75
(lp2123
S'True'
p2124
asbasbasbag68
(g84
g70
NtRp2125
(dp2126
g73
(dp2127
sg82
g1203
sg75
(lp2128
g68
(g89
g70
NtRp2129
(dp2130
g73
(dp2131
g93
g94
ssg82
g2125
sg75
(lp2132
S'wsgi_run_once'
p2133
asbag68
(g89
g70
NtRp2134
(dp2135
g73
(dp2136
g100
g101
ssg82
g2125
sg75
(lp2137
S':'
asbag68
(g89
g70
NtRp2138
(dp2139
g73
(dp2140
sg82
g2125
sg75
(lp2141
g68
(g69
g70
NtRp2142
(dp2143
g73
(dp2144
g81
I4
ssg82
g2138
sg75
(lp2145
g111
asbasbasbag68
(g84
g70
NtRp2146
(dp2147
g73
(dp2148
sg82
g1203
sg75
(lp2149
g68
(g89
g70
NtRp2150
(dp2151
g73
(dp2152
g93
g94
ssg82
g2146
sg75
(lp2153
S'wsgi_url_scheme'
p2154
asbag68
(g89
g70
NtRp2155
(dp2156
g73
(dp2157
g100
g101
ssg82
g2146
sg75
(lp2158
S':'
asbag68
(g89
g70
NtRp2159
(dp2160
g73
(dp2161
sg82
g2146
sg75
(lp2162
g68
(g69
g70
NtRp2163
(dp2164
g73
(dp2165
g81
I4
ssg82
g2159
sg75
(lp2166
S'http'
p2167
asbasbasbag68
(g84
g70
NtRp2168
(dp2169
g73
(dp2170
sg82
g1203
sg75
(lp2171
g68
(g89
g70
NtRp2172
(dp2173
g73
(dp2174
g93
g94
ssg82
g2168
sg75
(lp2175
S'wsgi_version'
p2176
asbag68
(g89
g70
NtRp2177
(dp2178
g73
(dp2179
g100
g101
ssg82
g2168
sg75
(lp2180
S':'
asbag68
(g89
g70
NtRp2181
(dp2182
g73
(dp2183
sg82
g2168
sg75
(lp2184
g68
(g69
g70
NtRp2185
(dp2186
g73
(dp2187
g81
I4
ssg82
g2181
sg75
(lp2188
g68
(g77
g70
NtRp2189
(dp2190
g73
(dp2191
g81
I3
ssg82
Nsg75
(lp2192
g68
(g84
g70
NtRp2193
(dp2194
g73
(dp2195
sg82
g2189
sg75
(lp2196
g68
(g89
g70
NtRp2197
(dp2198
g73
(dp2199
sg82
g2193
sg75
(lp2200
g68
(g69
g70
NtRp2201
(dp2202
g73
(dp2203
g81
I3
ssg82
g2197
sg75
(lp2204
S'1'
asbasbasbag68
(g84
g70
NtRp2205
(dp2206
g73
(dp2207
sg82
g2189
sg75
(lp2208
g68
(g89
g70
NtRp2209
(dp2210
g73
(dp2211
sg82
g2205
sg75
(lp2212
g68
(g69
g70
NtRp2213
(dp2214
g73
(dp2215
g81
I3
ssg82
g2209
sg75
(lp2216
S'0'
asbasbasbasbasbasbasbasbasbasbasbag68
(g84
g70
NtRp2217
(dp2218
g73
(dp2219
sg82
g78
sg75
(lp2220
g68
(g89
g70
NtRp2221
(dp2222
g73
(dp2223
g93
g94
ssg82
g2217
sg75
(lp2224
S'extension'
p2225
asbag68
(g89
g70
NtRp2226
(dp2227
g73
(dp2228
g100
g101
ssg82
g2217
sg75
(lp2229
S':'
asbag68
(g89
g70
NtRp2230
(dp2231
g73
(dp2232
sg82
g2217
sg75
(lp2233
g68
(g69
g70
NtRp2234
(dp2235
g73
(dp2236
g81
I5
ssg82
g2230
sg75
(lp2237
S'html'
p2238
asbasbasbag68
(g84
g70
NtRp2239
(dp2240
g73
(dp2241
sg82
g78
sg75
(lp2242
g68
(g89
g70
NtRp2243
(dp2244
g73
(dp2245
g93
g94
ssg82
g2239
sg75
(lp2246
S'folder'
p2247
asbag68
(g89
g70
NtRp2248
(dp2249
g73
(dp2250
g100
g101
ssg82
g2239
sg75
(lp2251
S':'
asbag68
(g89
g70
NtRp2252
(dp2253
g73
(dp2254
sg82
g2239
sg75
(lp2255
g68
(g69
g70
NtRp2256
(dp2257
g73
(dp2258
g81
I5
ssg82
g2252
sg75
(lp2259
S'/home/u4hcsdaw/Python/web2py/applications/ACES/'
p2260
asbasbasbag68
(g84
g70
NtRp2261
(dp2262
g73
(dp2263
sg82
g78
sg75
(lp2264
g68
(g89
g70
NtRp2265
(dp2266
g73
(dp2267
g93
g94
ssg82
g2261
sg75
(lp2268
S'function'
p2269
asbag68
(g89
g70
NtRp2270
(dp2271
g73
(dp2272
g100
g101
ssg82
g2261
sg75
(lp2273
S':'
asbag68
(g89
g70
NtRp2274
(dp2275
g73
(dp2276
sg82
g2261
sg75
(lp2277
g68
(g69
g70
NtRp2278
(dp2279
g73
(dp2280
g81
I5
ssg82
g2274
sg75
(lp2281
S'index'
p2282
asbasbasbag68
(g84
g70
NtRp2283
(dp2284
g73
(dp2285
sg82
g78
sg75
(lp2286
g68
(g89
g70
NtRp2287
(dp2288
g73
(dp2289
g93
g94
ssg82
g2283
sg75
(lp2290
S'get_vars'
p2291
asbag68
(g89
g70
NtRp2292
(dp2293
g73
(dp2294
g100
g101
ssg82
g2283
sg75
(lp2295
S':'
asbag68
(g89
g70
NtRp2296
(dp2297
g73
(dp2298
sg82
g2283
sg75
(lp2299
g68
(g69
g70
NtRp2300
(dp2301
g73
(dp2302
g81
I5
ssg82
g2296
sg75
(lp2303
g68
(g77
g70
NtRp2304
(dp2305
g73
(dp2306
g81
I4
ssg82
Nsg75
(lp2307
sbasbasbasbag68
(g84
g70
NtRp2308
(dp2309
g73
(dp2310
sg82
g78
sg75
(lp2311
g68
(g89
g70
NtRp2312
(dp2313
g73
(dp2314
g93
g94
ssg82
g2308
sg75
(lp2315
S'global_settings'
p2316
asbag68
(g89
g70
NtRp2317
(dp2318
g73
(dp2319
g100
g101
ssg82
g2308
sg75
(lp2320
S':'
asbag68
(g89
g70
NtRp2321
(dp2322
g73
(dp2323
sg82
g2308
sg75
(lp2324
g68
(g69
g70
NtRp2325
(dp2326
g73
(dp2327
g81
I5
ssg82
g2321
sg75
(lp2328
g68
(g77
g70
NtRp2329
(dp2330
g73
(dp2331
g81
I4
ssg82
Nsg75
(lp2332
g68
(g84
g70
NtRp2333
(dp2334
g73
(dp2335
sg82
g2329
sg75
(lp2336
g68
(g89
g70
NtRp2337
(dp2338
g73
(dp2339
g93
g94
ssg82
g2333
sg75
(lp2340
g1215
asbag68
(g89
g70
NtRp2341
(dp2342
g73
(dp2343
g100
g101
ssg82
g2333
sg75
(lp2344
S':'
asbag68
(g89
g70
NtRp2345
(dp2346
g73
(dp2347
sg82
g2333
sg75
(lp2348
g68
(g69
g70
NtRp2349
(dp2350
g73
(dp2351
g81
I4
ssg82
g2345
sg75
(lp2352
S"set(['/home/u4hcsdaw/Python/web2py/applications/ACES/', '/home/u4hcsdaw/Python/web2py/applications/PayPeriod/', '/home/u4hcsdaw/Python/web2py/applications/admin/', '/home/u4hcsdaw/Python/web2py/applications/welcome/', '/home/u4hcsdaw/Python/web2py/applications/DALEX1/'])"
p2353
asbasbasbag68
(g84
g70
NtRp2354
(dp2355
g73
(dp2356
sg82
g2329
sg75
(lp2357
g68
(g89
g70
NtRp2358
(dp2359
g73
(dp2360
g93
g94
ssg82
g2354
sg75
(lp2361
g1237
asbag68
(g89
g70
NtRp2362
(dp2363
g73
(dp2364
g100
g101
ssg82
g2354
sg75
(lp2365
S':'
asbag68
(g89
g70
NtRp2366
(dp2367
g73
(dp2368
sg82
g2354
sg75
(lp2369
g68
(g69
g70
NtRp2370
(dp2371
g73
(dp2372
g81
I4
ssg82
g2366
sg75
(lp2373
g1250
asbasbasbag68
(g84
g70
NtRp2374
(dp2375
g73
(dp2376
sg82
g2329
sg75
(lp2377
g68
(g89
g70
NtRp2378
(dp2379
g73
(dp2380
g93
g94
ssg82
g2374
sg75
(lp2381
g1259
asbag68
(g89
g70
NtRp2382
(dp2383
g73
(dp2384
g100
g101
ssg82
g2374
sg75
(lp2385
S':'
asbag68
(g89
g70
NtRp2386
(dp2387
g73
(dp2388
sg82
g2374
sg75
(lp2389
g68
(g69
g70
NtRp2390
(dp2391
g73
(dp2392
g81
I4
ssg82
g2386
sg75
(lp2393
g68
(g77
g70
NtRp2394
(dp2395
g73
(dp2396
g81
I3
ssg82
Nsg75
(lp2397
sbasbasbasbag68
(g84
g70
NtRp2398
(dp2399
g73
(dp2400
sg82
g2329
sg75
(lp2401
g68
(g89
g70
NtRp2402
(dp2403
g73
(dp2404
g93
g94
ssg82
g2398
sg75
(lp2405
g1284
asbag68
(g89
g70
NtRp2406
(dp2407
g73
(dp2408
g100
g101
ssg82
g2398
sg75
(lp2409
S':'
asbag68
(g89
g70
NtRp2410
(dp2411
g73
(dp2412
sg82
g2398
sg75
(lp2413
g68
(g69
g70
NtRp2414
(dp2415
g73
(dp2416
g81
I4
ssg82
g2410
sg75
(lp2417
S"<Values at 0xa59ca2c: {'verbose': False, 'ip': '127.0.0.1', 'shutdown_timeout': 5, 'taskbar': False, 'nocron': False, 'pid_filename': 'httpserver.pid', 'maxthreads': None, 'softcron': False, 'server_name': 'CHL-5833E', 'bpython': False, 'nogui': False, 'port': 8000, 'extcron': False, 'debuglevel': 30, 'test': None, 'folder': '/home/u4hcsdaw/Python/web2py', 'config': '', 'import_models': False, 'winservice': '', 'shell': None, 'run': '', 'log_filename': 'httpserver.log', 'args': [''], 'ssl_ca_certificate': None, 'scheduler': None, 'profiler_filename': None, 'ssl_private_key': '', 'password': '<ask>', 'request_queue_size': 5, 'ssl_certificate': '', 'cronjob': False, 'plain': False, 'quiet': False, 'interfaces': None, 'minthreads': None, 'timeout': 10, 'numthreads': None, 'nobanner': False}>"
p2418
asbasbasbag68
(g84
g70
NtRp2419
(dp2420
g73
(dp2421
sg82
g2329
sg75
(lp2422
g68
(g89
g70
NtRp2423
(dp2424
g73
(dp2425
g93
g94
ssg82
g2419
sg75
(lp2426
g1350
asbag68
(g89
g70
NtRp2427
(dp2428
g73
(dp2429
g100
g101
ssg82
g2419
sg75
(lp2430
S':'
asbag68
(g89
g70
NtRp2431
(dp2432
g73
(dp2433
sg82
g2419
sg75
(lp2434
g68
(g69
g70
NtRp2435
(dp2436
g73
(dp2437
g81
I4
ssg82
g2431
sg75
(lp2438
S'set([])'
p2439
asbasbasbag68
(g84
g70
NtRp2440
(dp2441
g73
(dp2442
sg82
g2329
sg75
(lp2443
g68
(g89
g70
NtRp2444
(dp2445
g73
(dp2446
g93
g94
ssg82
g2440
sg75
(lp2447
g1372
asbag68
(g89
g70
NtRp2448
(dp2449
g73
(dp2450
g100
g101
ssg82
g2440
sg75
(lp2451
S':'
asbag68
(g89
g70
NtRp2452
(dp2453
g73
(dp2454
sg82
g2440
sg75
(lp2455
g68
(g69
g70
NtRp2456
(dp2457
g73
(dp2458
g81
I4
ssg82
g2452
sg75
(lp2459
g111
asbasbasbag68
(g84
g70
NtRp2460
(dp2461
g73
(dp2462
sg82
g2329
sg75
(lp2463
g68
(g89
g70
NtRp2464
(dp2465
g73
(dp2466
g93
g94
ssg82
g2460
sg75
(lp2467
g1393
asbag68
(g89
g70
NtRp2468
(dp2469
g73
(dp2470
g100
g101
ssg82
g2460
sg75
(lp2471
S':'
asbag68
(g89
g70
NtRp2472
(dp2473
g73
(dp2474
sg82
g2460
sg75
(lp2475
g68
(g69
g70
NtRp2476
(dp2477
g73
(dp2478
g81
I4
ssg82
g2472
sg75
(lp2479
g1406
asbasbasbag68
(g84
g70
NtRp2480
(dp2481
g73
(dp2482
sg82
g2329
sg75
(lp2483
g68
(g89
g70
NtRp2484
(dp2485
g73
(dp2486
g93
g94
ssg82
g2480
sg75
(lp2487
g1655
asbag68
(g89
g70
NtRp2488
(dp2489
g73
(dp2490
g100
g101
ssg82
g2480
sg75
(lp2491
S':'
asbag68
(g89
g70
NtRp2492
(dp2493
g73
(dp2494
sg82
g2480
sg75
(lp2495
g68
(g69
g70
NtRp2496
(dp2497
g73
(dp2498
g81
I4
ssg82
g2492
sg75
(lp2499
g111
asbasbasbag68
(g84
g70
NtRp2500
(dp2501
g73
(dp2502
sg82
g2329
sg75
(lp2503
g68
(g89
g70
NtRp2504
(dp2505
g73
(dp2506
g93
g94
ssg82
g2500
sg75
(lp2507
g1893
asbag68
(g89
g70
NtRp2508
(dp2509
g73
(dp2510
g100
g101
ssg82
g2500
sg75
(lp2511
S':'
asbag68
(g89
g70
NtRp2512
(dp2513
g73
(dp2514
sg82
g2500
sg75
(lp2515
g68
(g69
g70
NtRp2516
(dp2517
g73
(dp2518
g81
I4
ssg82
g2512
sg75
(lp2519
g1906
asbasbasbag68
(g84
g70
NtRp2520
(dp2521
g73
(dp2522
sg82
g2329
sg75
(lp2523
g68
(g89
g70
NtRp2524
(dp2525
g73
(dp2526
g93
g94
ssg82
g2520
sg75
(lp2527
g1936
asbag68
(g89
g70
NtRp2528
(dp2529
g73
(dp2530
g100
g101
ssg82
g2520
sg75
(lp2531
S':'
asbag68
(g89
g70
NtRp2532
(dp2533
g73
(dp2534
sg82
g2520
sg75
(lp2535
g68
(g69
g70
NtRp2536
(dp2537
g73
(dp2538
g81
I4
ssg82
g2532
sg75
(lp2539
g68
(g77
g70
NtRp2540
(dp2541
g73
(dp2542
g81
I3
ssg82
Nsg75
(lp2543
g68
(g84
g70
NtRp2544
(dp2545
g73
(dp2546
sg82
g2540
sg75
(lp2547
g68
(g89
g70
NtRp2548
(dp2549
g73
(dp2550
sg82
g2544
sg75
(lp2551
g68
(g69
g70
NtRp2552
(dp2553
g73
(dp2554
g81
I3
ssg82
g2548
sg75
(lp2555
S'1'
asbasbasbag68
(g84
g70
NtRp2556
(dp2557
g73
(dp2558
sg82
g2540
sg75
(lp2559
g68
(g89
g70
NtRp2560
(dp2561
g73
(dp2562
sg82
g2556
sg75
(lp2563
g68
(g69
g70
NtRp2564
(dp2565
g73
(dp2566
g81
I3
ssg82
g2560
sg75
(lp2567
S'99'
p2568
asbasbasbag68
(g84
g70
NtRp2569
(dp2570
g73
(dp2571
sg82
g2540
sg75
(lp2572
g68
(g89
g70
NtRp2573
(dp2574
g73
(dp2575
sg82
g2569
sg75
(lp2576
g68
(g69
g70
NtRp2577
(dp2578
g73
(dp2579
g81
I3
ssg82
g2573
sg75
(lp2580
S'2'
asbasbasbag68
(g84
g70
NtRp2581
(dp2582
g73
(dp2583
sg82
g2540
sg75
(lp2584
g68
(g89
g70
NtRp2585
(dp2586
g73
(dp2587
sg82
g2581
sg75
(lp2588
g68
(g69
g70
NtRp2589
(dp2590
g73
(dp2591
g81
I3
ssg82
g2585
sg75
(lp2592
S'datetime.datetime(2011, 9, 26, 6, 55, 33)'
p2593
asbasbasbag68
(g84
g70
NtRp2594
(dp2595
g73
(dp2596
sg82
g2540
sg75
(lp2597
g68
(g89
g70
NtRp2598
(dp2599
g73
(dp2600
sg82
g2594
sg75
(lp2601
g68
(g69
g70
NtRp2602
(dp2603
g73
(dp2604
g81
I3
ssg82
g2598
sg75
(lp2605
g2015
asbasbasbasbasbasbasbasbasbasbasbag68
(g84
g70
NtRp2606
(dp2607
g73
(dp2608
sg82
g78
sg75
(lp2609
g68
(g89
g70
NtRp2610
(dp2611
g73
(dp2612
g93
g94
ssg82
g2606
sg75
(lp2613
S'is_https'
p2614
asbag68
(g89
g70
NtRp2615
(dp2616
g73
(dp2617
g100
g101
ssg82
g2606
sg75
(lp2618
S':'
asbag68
(g89
g70
NtRp2619
(dp2620
g73
(dp2621
sg82
g2606
sg75
(lp2622
g68
(g69
g70
NtRp2623
(dp2624
g73
(dp2625
g81
I5
ssg82
g2619
sg75
(lp2626
g111
asbasbasbag68
(g84
g70
NtRp2627
(dp2628
g73
(dp2629
sg82
g78
sg75
(lp2630
g68
(g89
g70
NtRp2631
(dp2632
g73
(dp2633
g93
g94
ssg82
g2627
sg75
(lp2634
S'is_local'
p2635
asbag68
(g89
g70
NtRp2636
(dp2637
g73
(dp2638
g100
g101
ssg82
g2627
sg75
(lp2639
S':'
asbag68
(g89
g70
NtRp2640
(dp2641
g73
(dp2642
sg82
g2627
sg75
(lp2643
g68
(g69
g70
NtRp2644
(dp2645
g73
(dp2646
g81
I5
ssg82
g2640
sg75
(lp2647
g2124
asbasbasbag68
(g84
g70
NtRp2648
(dp2649
g73
(dp2650
sg82
g78
sg75
(lp2651
g68
(g89
g70
NtRp2652
(dp2653
g73
(dp2654
g93
g94
ssg82
g2648
sg75
(lp2655
S'is_restful'
p2656
asbag68
(g89
g70
NtRp2657
(dp2658
g73
(dp2659
g100
g101
ssg82
g2648
sg75
(lp2660
S':'
asbag68
(g89
g70
NtRp2661
(dp2662
g73
(dp2663
sg82
g2648
sg75
(lp2664
g68
(g69
g70
NtRp2665
(dp2666
g73
(dp2667
g81
I5
ssg82
g2661
sg75
(lp2668
g111
asbasbasbag68
(g84
g70
NtRp2669
(dp2670
g73
(dp2671
sg82
g78
sg75
(lp2672
g68
(g89
g70
NtRp2673
(dp2674
g73
(dp2675
g93
g94
ssg82
g2669
sg75
(lp2676
S'now'
p2677
asbag68
(g89
g70
NtRp2678
(dp2679
g73
(dp2680
g100
g101
ssg82
g2669
sg75
(lp2681
S':'
asbag68
(g89
g70
NtRp2682
(dp2683
g73
(dp2684
sg82
g2669
sg75
(lp2685
g68
(g69
g70
NtRp2686
(dp2687
g73
(dp2688
g81
I5
ssg82
g2682
sg75
(lp2689
S'datetime.datetime(2012, 6, 5, 15, 48, 29, 649939)'
p2690
asbasbasbag68
(g84
g70
NtRp2691
(dp2692
g73
(dp2693
sg82
g78
sg75
(lp2694
g68
(g89
g70
NtRp2695
(dp2696
g73
(dp2697
g93
g94
ssg82
g2691
sg75
(lp2698
S'post_vars'
p2699
asbag68
(g89
g70
NtRp2700
(dp2701
g73
(dp2702
g100
g101
ssg82
g2691
sg75
(lp2703
S':'
asbag68
(g89
g70
NtRp2704
(dp2705
g73
(dp2706
sg82
g2691
sg75
(lp2707
g68
(g69
g70
NtRp2708
(dp2709
g73
(dp2710
g81
I5
ssg82
g2704
sg75
(lp2711
g68
(g77
g70
NtRp2712
(dp2713
g73
(dp2714
g81
I4
ssg82
Nsg75
(lp2715
g68
(g84
g70
NtRp2716
(dp2717
g73
(dp2718
sg82
g2712
sg75
(lp2719
g68
(g89
g70
NtRp2720
(dp2721
g73
(dp2722
g93
g94
ssg82
g2716
sg75
(lp2723
S'subButton'
p2724
asbag68
(g89
g70
NtRp2725
(dp2726
g73
(dp2727
g100
g101
ssg82
g2716
sg75
(lp2728
S':'
asbag68
(g89
g70
NtRp2729
(dp2730
g73
(dp2731
sg82
g2716
sg75
(lp2732
g68
(g69
g70
NtRp2733
(dp2734
g73
(dp2735
g81
I4
ssg82
g2729
sg75
(lp2736
S'Submit Query'
p2737
asbasbasbag68
(g84
g70
NtRp2738
(dp2739
g73
(dp2740
sg82
g2712
sg75
(lp2741
g68
(g89
g70
NtRp2742
(dp2743
g73
(dp2744
g93
g94
ssg82
g2738
sg75
(lp2745
S'waveHeight'
p2746
asbag68
(g89
g70
NtRp2747
(dp2748
g73
(dp2749
g100
g101
ssg82
g2738
sg75
(lp2750
S':'
asbag68
(g89
g70
NtRp2751
(dp2752
g73
(dp2753
sg82
g2738
sg75
(lp2754
g68
(g69
g70
NtRp2755
(dp2756
g73
(dp2757
g81
I4
ssg82
g2751
sg75
(lp2758
S'0.85'
p2759
asbasbasbasbasbasbasbag68
(g84
g70
NtRp2760
(dp2761
g73
(dp2762
sg82
g78
sg75
(lp2763
g68
(g89
g70
NtRp2764
(dp2765
g73
(dp2766
g93
g94
ssg82
g2760
sg75
(lp2767
S'url'
p2768
asbag68
(g89
g70
NtRp2769
(dp2770
g73
(dp2771
g100
g101
ssg82
g2760
sg75
(lp2772
S':'
asbag68
(g89
g70
NtRp2773
(dp2774
g73
(dp2775
sg82
g2760
sg75
(lp2776
g68
(g69
g70
NtRp2777
(dp2778
g73
(dp2779
g81
I5
ssg82
g2773
sg75
(lp2780
S'/ACES/default/index'
p2781
asbasbasbag68
(g84
g70
NtRp2782
(dp2783
g73
(dp2784
sg82
g78
sg75
(lp2785
g68
(g89
g70
NtRp2786
(dp2787
g73
(dp2788
g93
g94
ssg82
g2782
sg75
(lp2789
S'utcnow'
p2790
asbag68
(g89
g70
NtRp2791
(dp2792
g73
(dp2793
g100
g101
ssg82
g2782
sg75
(lp2794
S':'
asbag68
(g89
g70
NtRp2795
(dp2796
g73
(dp2797
sg82
g2782
sg75
(lp2798
g68
(g69
g70
NtRp2799
(dp2800
g73
(dp2801
g81
I5
ssg82
g2795
sg75
(lp2802
S'datetime.datetime(2012, 6, 5, 20, 48, 29, 649976)'
p2803
asbasbasbag68
(g84
g70
NtRp2804
(dp2805
g73
(dp2806
sg82
g78
sg75
(lp2807
g68
(g89
g70
NtRp2808
(dp2809
g73
(dp2810
g93
g94
ssg82
g2804
sg75
(lp2811
S'uuid'
p2812
asbag68
(g89
g70
NtRp2813
(dp2814
g73
(dp2815
g100
g101
ssg82
g2804
sg75
(lp2816
S':'
asbag68
(g89
g70
NtRp2817
(dp2818
g73
(dp2819
sg82
g2804
sg75
(lp2820
g68
(g69
g70
NtRp2821
(dp2822
g73
(dp2823
g81
I5
ssg82
g2817
sg75
(lp2824
S'ACES/127.0.0.1.2012-06-05.15-48-29.92bb6bff-81a8-4f0e-b829-93f84f66c4a7'
p2825
asbasbasbag68
(g84
g70
NtRp2826
(dp2827
g73
(dp2828
sg82
g78
sg75
(lp2829
g68
(g89
g70
NtRp2830
(dp2831
g73
(dp2832
g93
g94
ssg82
g2826
sg75
(lp2833
S'vars'
p2834
asbag68
(g89
g70
NtRp2835
(dp2836
g73
(dp2837
g100
g101
ssg82
g2826
sg75
(lp2838
S':'
asbag68
(g89
g70
NtRp2839
(dp2840
g73
(dp2841
sg82
g2826
sg75
(lp2842
g68
(g69
g70
NtRp2843
(dp2844
g73
(dp2845
g81
I5
ssg82
g2839
sg75
(lp2846
g68
(g77
g70
NtRp2847
(dp2848
g73
(dp2849
g81
I4
ssg82
Nsg75
(lp2850
g68
(g84
g70
NtRp2851
(dp2852
g73
(dp2853
sg82
g2847
sg75
(lp2854
g68
(g89
g70
NtRp2855
(dp2856
g73
(dp2857
g93
g94
ssg82
g2851
sg75
(lp2858
g2724
asbag68
(g89
g70
NtRp2859
(dp2860
g73
(dp2861
g100
g101
ssg82
g2851
sg75
(lp2862
S':'
asbag68
(g89
g70
NtRp2863
(dp2864
g73
(dp2865
sg82
g2851
sg75
(lp2866
g68
(g69
g70
NtRp2867
(dp2868
g73
(dp2869
g81
I4
ssg82
g2863
sg75
(lp2870
g2737
asbasbasbag68
(g84
g70
NtRp2871
(dp2872
g73
(dp2873
sg82
g2847
sg75
(lp2874
g68
(g89
g70
NtRp2875
(dp2876
g73
(dp2877
g93
g94
ssg82
g2871
sg75
(lp2878
g2746
asbag68
(g89
g70
NtRp2879
(dp2880
g73
(dp2881
g100
g101
ssg82
g2871
sg75
(lp2882
S':'
asbag68
(g89
g70
NtRp2883
(dp2884
g73
(dp2885
sg82
g2871
sg75
(lp2886
g68
(g69
g70
NtRp2887
(dp2888
g73
(dp2889
g81
I4
ssg82
g2883
sg75
(lp2890
g2759
asbasbasbasbasbasbasbag68
(g84
g70
NtRp2891
(dp2892
g73
(dp2893
sg82
g78
sg75
(lp2894
g68
(g89
g70
NtRp2895
(dp2896
g73
(dp2897
g93
g94
ssg82
g2891
sg75
(lp2898
S'wsgi'
p2899
asbag68
(g89
g70
NtRp2900
(dp2901
g73
(dp2902
g100
g101
ssg82
g2891
sg75
(lp2903
S':'
asbag68
(g89
g70
NtRp2904
(dp2905
g73
(dp2906
sg82
g2891
sg75
(lp2907
g68
(g69
g70
NtRp2908
(dp2909
g73
(dp2910
g81
I5
ssg82
g2904
sg75
(lp2911
g68
(g77
g70
NtRp2912
(dp2913
g73
(dp2914
g81
I4
ssg82
Nsg75
(lp2915
g68
(g84
g70
NtRp2916
(dp2917
g73
(dp2918
sg82
g2912
sg75
(lp2919
g68
(g89
g70
NtRp2920
(dp2921
g73
(dp2922
g93
g94
ssg82
g2916
sg75
(lp2923
S'environ'
p2924
asbag68
(g89
g70
NtRp2925
(dp2926
g73
(dp2927
g100
g101
ssg82
g2916
sg75
(lp2928
S':'
asbag68
(g89
g70
NtRp2929
(dp2930
g73
(dp2931
sg82
g2916
sg75
(lp2932
g68
(g69
g70
NtRp2933
(dp2934
g73
(dp2935
g81
I4
ssg82
g2929
sg75
(lp2936
g68
(g77
g70
NtRp2937
(dp2938
g73
(dp2939
g81
I3
ssg82
Nsg75
(lp2940
g68
(g84
g70
NtRp2941
(dp2942
g73
(dp2943
sg82
g2937
sg75
(lp2944
g68
(g89
g70
NtRp2945
(dp2946
g73
(dp2947
g93
g94
ssg82
g2941
sg75
(lp2948
S'CONTENT_LENGTH'
p2949
asbag68
(g89
g70
NtRp2950
(dp2951
g73
(dp2952
g100
g101
ssg82
g2941
sg75
(lp2953
S':'
asbag68
(g89
g70
NtRp2954
(dp2955
g73
(dp2956
sg82
g2941
sg75
(lp2957
g68
(g69
g70
NtRp2958
(dp2959
g73
(dp2960
g81
I3
ssg82
g2954
sg75
(lp2961
g1319
asbasbasbag68
(g84
g70
NtRp2962
(dp2963
g73
(dp2964
sg82
g2937
sg75
(lp2965
g68
(g89
g70
NtRp2966
(dp2967
g73
(dp2968
g93
g94
ssg82
g2962
sg75
(lp2969
S'CONTENT_TYPE'
p2970
asbag68
(g89
g70
NtRp2971
(dp2972
g73
(dp2973
g100
g101
ssg82
g2962
sg75
(lp2974
S':'
asbag68
(g89
g70
NtRp2975
(dp2976
g73
(dp2977
sg82
g2962
sg75
(lp2978
g68
(g69
g70
NtRp2979
(dp2980
g73
(dp2981
g81
I3
ssg82
g2975
sg75
(lp2982
g1341
asbasbasbag68
(g84
g70
NtRp2983
(dp2984
g73
(dp2985
sg82
g2937
sg75
(lp2986
g68
(g89
g70
NtRp2987
(dp2988
g73
(dp2989
g93
g94
ssg82
g2983
sg75
(lp2990
S'HTTP_ACCEPT'
p2991
asbag68
(g89
g70
NtRp2992
(dp2993
g73
(dp2994
g100
g101
ssg82
g2983
sg75
(lp2995
S':'
asbag68
(g89
g70
NtRp2996
(dp2997
g73
(dp2998
sg82
g2983
sg75
(lp2999
g68
(g69
g70
NtRp3000
(dp3001
g73
(dp3002
g81
I3
ssg82
g2996
sg75
(lp3003
g1428
asbasbasbag68
(g84
g70
NtRp3004
(dp3005
g73
(dp3006
sg82
g2937
sg75
(lp3007
g68
(g89
g70
NtRp3008
(dp3009
g73
(dp3010
g93
g94
ssg82
g3004
sg75
(lp3011
S'HTTP_ACCEPT_ENCODING'
p3012
asbag68
(g89
g70
NtRp3013
(dp3014
g73
(dp3015
g100
g101
ssg82
g3004
sg75
(lp3016
S':'
asbag68
(g89
g70
NtRp3017
(dp3018
g73
(dp3019
sg82
g3004
sg75
(lp3020
g68
(g69
g70
NtRp3021
(dp3022
g73
(dp3023
g81
I3
ssg82
g3017
sg75
(lp3024
g1450
asbasbasbag68
(g84
g70
NtRp3025
(dp3026
g73
(dp3027
sg82
g2937
sg75
(lp3028
g68
(g89
g70
NtRp3029
(dp3030
g73
(dp3031
g93
g94
ssg82
g3025
sg75
(lp3032
S'HTTP_ACCEPT_LANGUAGE'
p3033
asbag68
(g89
g70
NtRp3034
(dp3035
g73
(dp3036
g100
g101
ssg82
g3025
sg75
(lp3037
S':'
asbag68
(g89
g70
NtRp3038
(dp3039
g73
(dp3040
sg82
g3025
sg75
(lp3041
g68
(g69
g70
NtRp3042
(dp3043
g73
(dp3044
g81
I3
ssg82
g3038
sg75
(lp3045
g1472
asbasbasbag68
(g84
g70
NtRp3046
(dp3047
g73
(dp3048
sg82
g2937
sg75
(lp3049
g68
(g89
g70
NtRp3050
(dp3051
g73
(dp3052
g93
g94
ssg82
g3046
sg75
(lp3053
S'HTTP_CACHE_CONTROL'
p3054
asbag68
(g89
g70
NtRp3055
(dp3056
g73
(dp3057
g100
g101
ssg82
g3046
sg75
(lp3058
S':'
asbag68
(g89
g70
NtRp3059
(dp3060
g73
(dp3061
sg82
g3046
sg75
(lp3062
g68
(g69
g70
NtRp3063
(dp3064
g73
(dp3065
g81
I3
ssg82
g3059
sg75
(lp3066
g1494
asbasbasbag68
(g84
g70
NtRp3067
(dp3068
g73
(dp3069
sg82
g2937
sg75
(lp3070
g68
(g89
g70
NtRp3071
(dp3072
g73
(dp3073
g93
g94
ssg82
g3067
sg75
(lp3074
S'HTTP_CONNECTION'
p3075
asbag68
(g89
g70
NtRp3076
(dp3077
g73
(dp3078
g100
g101
ssg82
g3067
sg75
(lp3079
S':'
asbag68
(g89
g70
NtRp3080
(dp3081
g73
(dp3082
sg82
g3067
sg75
(lp3083
g68
(g69
g70
NtRp3084
(dp3085
g73
(dp3086
g81
I3
ssg82
g3080
sg75
(lp3087
g1516
asbasbasbag68
(g84
g70
NtRp3088
(dp3089
g73
(dp3090
sg82
g2937
sg75
(lp3091
g68
(g89
g70
NtRp3092
(dp3093
g73
(dp3094
g93
g94
ssg82
g3088
sg75
(lp3095
S'HTTP_CONTENT_LENGTH'
p3096
asbag68
(g89
g70
NtRp3097
(dp3098
g73
(dp3099
g100
g101
ssg82
g3088
sg75
(lp3100
S':'
asbag68
(g89
g70
NtRp3101
(dp3102
g73
(dp3103
sg82
g3088
sg75
(lp3104
g68
(g69
g70
NtRp3105
(dp3106
g73
(dp3107
g81
I3
ssg82
g3101
sg75
(lp3108
g1319
asbasbasbag68
(g84
g70
NtRp3109
(dp3110
g73
(dp3111
sg82
g2937
sg75
(lp3112
g68
(g89
g70
NtRp3113
(dp3114
g73
(dp3115
g93
g94
ssg82
g3109
sg75
(lp3116
S'HTTP_CONTENT_TYPE'
p3117
asbag68
(g89
g70
NtRp3118
(dp3119
g73
(dp3120
g100
g101
ssg82
g3109
sg75
(lp3121
S':'
asbag68
(g89
g70
NtRp3122
(dp3123
g73
(dp3124
sg82
g3109
sg75
(lp3125
g68
(g69
g70
NtRp3126
(dp3127
g73
(dp3128
g81
I3
ssg82
g3122
sg75
(lp3129
g1341
asbasbasbag68
(g84
g70
NtRp3130
(dp3131
g73
(dp3132
sg82
g2937
sg75
(lp3133
g68
(g89
g70
NtRp3134
(dp3135
g73
(dp3136
g93
g94
ssg82
g3130
sg75
(lp3137
S'HTTP_COOKIE'
p3138
asbag68
(g89
g70
NtRp3139
(dp3140
g73
(dp3141
g100
g101
ssg82
g3130
sg75
(lp3142
S':'
asbag68
(g89
g70
NtRp3143
(dp3144
g73
(dp3145
sg82
g3130
sg75
(lp3146
g68
(g69
g70
NtRp3147
(dp3148
g73
(dp3149
g81
I3
ssg82
g3143
sg75
(lp3150
g1580
asbasbasbag68
(g84
g70
NtRp3151
(dp3152
g73
(dp3153
sg82
g2937
sg75
(lp3154
g68
(g89
g70
NtRp3155
(dp3156
g73
(dp3157
g93
g94
ssg82
g3151
sg75
(lp3158
S'HTTP_HOST'
p3159
asbag68
(g89
g70
NtRp3160
(dp3161
g73
(dp3162
g100
g101
ssg82
g3151
sg75
(lp3163
S':'
asbag68
(g89
g70
NtRp3164
(dp3165
g73
(dp3166
sg82
g3151
sg75
(lp3167
g68
(g69
g70
NtRp3168
(dp3169
g73
(dp3170
g81
I3
ssg82
g3164
sg75
(lp3171
g1602
asbasbasbag68
(g84
g70
NtRp3172
(dp3173
g73
(dp3174
sg82
g2937
sg75
(lp3175
g68
(g89
g70
NtRp3176
(dp3177
g73
(dp3178
g93
g94
ssg82
g3172
sg75
(lp3179
S'HTTP_REFERER'
p3180
asbag68
(g89
g70
NtRp3181
(dp3182
g73
(dp3183
g100
g101
ssg82
g3172
sg75
(lp3184
S':'
asbag68
(g89
g70
NtRp3185
(dp3186
g73
(dp3187
sg82
g3172
sg75
(lp3188
g68
(g69
g70
NtRp3189
(dp3190
g73
(dp3191
g81
I3
ssg82
g3185
sg75
(lp3192
g1624
asbasbasbag68
(g84
g70
NtRp3193
(dp3194
g73
(dp3195
sg82
g2937
sg75
(lp3196
g68
(g89
g70
NtRp3197
(dp3198
g73
(dp3199
g93
g94
ssg82
g3193
sg75
(lp3200
S'HTTP_USER_AGENT'
p3201
asbag68
(g89
g70
NtRp3202
(dp3203
g73
(dp3204
g100
g101
ssg82
g3193
sg75
(lp3205
S':'
asbag68
(g89
g70
NtRp3206
(dp3207
g73
(dp3208
sg82
g3193
sg75
(lp3209
g68
(g69
g70
NtRp3210
(dp3211
g73
(dp3212
g81
I3
ssg82
g3206
sg75
(lp3213
g1646
asbasbasbag68
(g84
g70
NtRp3214
(dp3215
g73
(dp3216
sg82
g2937
sg75
(lp3217
g68
(g89
g70
NtRp3218
(dp3219
g73
(dp3220
g93
g94
ssg82
g3214
sg75
(lp3221
S'PATH_INFO'
p3222
asbag68
(g89
g70
NtRp3223
(dp3224
g73
(dp3225
g100
g101
ssg82
g3214
sg75
(lp3226
S':'
asbag68
(g89
g70
NtRp3227
(dp3228
g73
(dp3229
sg82
g3214
sg75
(lp3230
g68
(g69
g70
NtRp3231
(dp3232
g73
(dp3233
g81
I3
ssg82
g3227
sg75
(lp3234
g1689
asbasbasbag68
(g84
g70
NtRp3235
(dp3236
g73
(dp3237
sg82
g2937
sg75
(lp3238
g68
(g89
g70
NtRp3239
(dp3240
g73
(dp3241
g93
g94
ssg82
g3235
sg75
(lp3242
S'QUERY_STRING'
p3243
asbag68
(g89
g70
NtRp3244
(dp3245
g73
(dp3246
g100
g101
ssg82
g3235
sg75
(lp3247
S':'
asbag68
(g89
g70
NtRp3248
(dp3249
g73
(dp3250
sg82
g3235
sg75
(lp3251
g68
(g69
g70
NtRp3252
(dp3253
g73
(dp3254
g81
I3
ssg82
g3248
sg75
(lp3255
S''
asbasbasbag68
(g84
g70
NtRp3256
(dp3257
g73
(dp3258
sg82
g2937
sg75
(lp3259
g68
(g89
g70
NtRp3260
(dp3261
g73
(dp3262
g93
g94
ssg82
g3256
sg75
(lp3263
S'REMOTE_ADDR'
p3264
asbag68
(g89
g70
NtRp3265
(dp3266
g73
(dp3267
g100
g101
ssg82
g3256
sg75
(lp3268
S':'
asbag68
(g89
g70
NtRp3269
(dp3270
g73
(dp3271
sg82
g3256
sg75
(lp3272
g68
(g69
g70
NtRp3273
(dp3274
g73
(dp3275
g81
I3
ssg82
g3269
sg75
(lp3276
g201
asbasbasbag68
(g84
g70
NtRp3277
(dp3278
g73
(dp3279
sg82
g2937
sg75
(lp3280
g68
(g89
g70
NtRp3281
(dp3282
g73
(dp3283
g93
g94
ssg82
g3277
sg75
(lp3284
S'REMOTE_PORT'
p3285
asbag68
(g89
g70
NtRp3286
(dp3287
g73
(dp3288
g100
g101
ssg82
g3277
sg75
(lp3289
S':'
asbag68
(g89
g70
NtRp3290
(dp3291
g73
(dp3292
sg82
g3277
sg75
(lp3293
g68
(g69
g70
NtRp3294
(dp3295
g73
(dp3296
g81
I3
ssg82
g3290
sg75
(lp3297
g1753
asbasbasbag68
(g84
g70
NtRp3298
(dp3299
g73
(dp3300
sg82
g2937
sg75
(lp3301
g68
(g89
g70
NtRp3302
(dp3303
g73
(dp3304
g93
g94
ssg82
g3298
sg75
(lp3305
S'REQUEST_METHOD'
p3306
asbag68
(g89
g70
NtRp3307
(dp3308
g73
(dp3309
g100
g101
ssg82
g3298
sg75
(lp3310
S':'
asbag68
(g89
g70
NtRp3311
(dp3312
g73
(dp3313
sg82
g3298
sg75
(lp3314
g68
(g69
g70
NtRp3315
(dp3316
g73
(dp3317
g81
I3
ssg82
g3311
sg75
(lp3318
g1775
asbasbasbag68
(g84
g70
NtRp3319
(dp3320
g73
(dp3321
sg82
g2937
sg75
(lp3322
g68
(g89
g70
NtRp3323
(dp3324
g73
(dp3325
g93
g94
ssg82
g3319
sg75
(lp3326
S'SCRIPT_NAME'
p3327
asbag68
(g89
g70
NtRp3328
(dp3329
g73
(dp3330
g100
g101
ssg82
g3319
sg75
(lp3331
S':'
asbag68
(g89
g70
NtRp3332
(dp3333
g73
(dp3334
sg82
g3319
sg75
(lp3335
g68
(g69
g70
NtRp3336
(dp3337
g73
(dp3338
g81
I3
ssg82
g3332
sg75
(lp3339
S''
asbasbasbag68
(g84
g70
NtRp3340
(dp3341
g73
(dp3342
sg82
g2937
sg75
(lp3343
g68
(g89
g70
NtRp3344
(dp3345
g73
(dp3346
g93
g94
ssg82
g3340
sg75
(lp3347
S'SERVER_NAME'
p3348
asbag68
(g89
g70
NtRp3349
(dp3350
g73
(dp3351
g100
g101
ssg82
g3340
sg75
(lp3352
S':'
asbag68
(g89
g70
NtRp3353
(dp3354
g73
(dp3355
sg82
g3340
sg75
(lp3356
g68
(g69
g70
NtRp3357
(dp3358
g73
(dp3359
g81
I3
ssg82
g3353
sg75
(lp3360
g1818
asbasbasbag68
(g84
g70
NtRp3361
(dp3362
g73
(dp3363
sg82
g2937
sg75
(lp3364
g68
(g89
g70
NtRp3365
(dp3366
g73
(dp3367
g93
g94
ssg82
g3361
sg75
(lp3368
S'SERVER_PORT'
p3369
asbag68
(g89
g70
NtRp3370
(dp3371
g73
(dp3372
g100
g101
ssg82
g3361
sg75
(lp3373
S':'
asbag68
(g89
g70
NtRp3374
(dp3375
g73
(dp3376
sg82
g3361
sg75
(lp3377
g68
(g69
g70
NtRp3378
(dp3379
g73
(dp3380
g81
I3
ssg82
g3374
sg75
(lp3381
g1840
asbasbasbag68
(g84
g70
NtRp3382
(dp3383
g73
(dp3384
sg82
g2937
sg75
(lp3385
g68
(g89
g70
NtRp3386
(dp3387
g73
(dp3388
g93
g94
ssg82
g3382
sg75
(lp3389
S'SERVER_PROTOCOL'
p3390
asbag68
(g89
g70
NtRp3391
(dp3392
g73
(dp3393
g100
g101
ssg82
g3382
sg75
(lp3394
S':'
asbag68
(g89
g70
NtRp3395
(dp3396
g73
(dp3397
sg82
g3382
sg75
(lp3398
g68
(g69
g70
NtRp3399
(dp3400
g73
(dp3401
g81
I3
ssg82
g3395
sg75
(lp3402
g1862
asbasbasbag68
(g84
g70
NtRp3403
(dp3404
g73
(dp3405
sg82
g2937
sg75
(lp3406
g68
(g89
g70
NtRp3407
(dp3408
g73
(dp3409
g93
g94
ssg82
g3403
sg75
(lp3410
S'SERVER_SOFTWARE'
p3411
asbag68
(g89
g70
NtRp3412
(dp3413
g73
(dp3414
g100
g101
ssg82
g3403
sg75
(lp3415
S':'
asbag68
(g89
g70
NtRp3416
(dp3417
g73
(dp3418
sg82
g3403
sg75
(lp3419
g68
(g69
g70
NtRp3420
(dp3421
g73
(dp3422
g81
I3
ssg82
g3416
sg75
(lp3423
g1884
asbasbasbag68
(g84
g70
NtRp3424
(dp3425
g73
(dp3426
sg82
g2937
sg75
(lp3427
g68
(g89
g70
NtRp3428
(dp3429
g73
(dp3430
g93
g94
ssg82
g3424
sg75
(lp3431
S'wsgi.errors'
p3432
asbag68
(g89
g70
NtRp3433
(dp3434
g73
(dp3435
g100
g101
ssg82
g3424
sg75
(lp3436
S':'
asbag68
(g89
g70
NtRp3437
(dp3438
g73
(dp3439
sg82
g3424
sg75
(lp3440
g68
(g69
g70
NtRp3441
(dp3442
g73
(dp3443
g81
I3
ssg82
g3437
sg75
(lp3444
S"<open file '<stderr>', mode 'w' at 0xb738b0d0>"
p3445
asbasbasbag68
(g84
g70
NtRp3446
(dp3447
g73
(dp3448
sg82
g2937
sg75
(lp3449
g68
(g89
g70
NtRp3450
(dp3451
g73
(dp3452
g93
g94
ssg82
g3446
sg75
(lp3453
S'wsgi.file_wrapper'
p3454
asbag68
(g89
g70
NtRp3455
(dp3456
g73
(dp3457
g100
g101
ssg82
g3446
sg75
(lp3458
S':'
asbag68
(g89
g70
NtRp3459
(dp3460
g73
(dp3461
sg82
g3446
sg75
(lp3462
g68
(g69
g70
NtRp3463
(dp3464
g73
(dp3465
g81
I3
ssg82
g3459
sg75
(lp3466
S'<class wsgiref.util.FileWrapper at 0xa4ce92c>'
p3467
asbasbasbag68
(g84
g70
NtRp3468
(dp3469
g73
(dp3470
sg82
g2937
sg75
(lp3471
g68
(g89
g70
NtRp3472
(dp3473
g73
(dp3474
g93
g94
ssg82
g3468
sg75
(lp3475
S'wsgi.input'
p3476
asbag68
(g89
g70
NtRp3477
(dp3478
g73
(dp3479
g100
g101
ssg82
g3468
sg75
(lp3480
S':'
asbag68
(g89
g70
NtRp3481
(dp3482
g73
(dp3483
sg82
g3468
sg75
(lp3484
g68
(g69
g70
NtRp3485
(dp3486
g73
(dp3487
g81
I3
ssg82
g3481
sg75
(lp3488
S"<open file '<fdopen>', mode 'w+b' at 0xa91fbd0>"
p3489
asbasbasbag68
(g84
g70
NtRp3490
(dp3491
g73
(dp3492
sg82
g2937
sg75
(lp3493
g68
(g89
g70
NtRp3494
(dp3495
g73
(dp3496
g93
g94
ssg82
g3490
sg75
(lp3497
S'wsgi.multiprocess'
p3498
asbag68
(g89
g70
NtRp3499
(dp3500
g73
(dp3501
g100
g101
ssg82
g3490
sg75
(lp3502
S':'
asbag68
(g89
g70
NtRp3503
(dp3504
g73
(dp3505
sg82
g3490
sg75
(lp3506
g68
(g69
g70
NtRp3507
(dp3508
g73
(dp3509
g81
I3
ssg82
g3503
sg75
(lp3510
g111
asbasbasbag68
(g84
g70
NtRp3511
(dp3512
g73
(dp3513
sg82
g2937
sg75
(lp3514
g68
(g89
g70
NtRp3515
(dp3516
g73
(dp3517
g93
g94
ssg82
g3511
sg75
(lp3518
S'wsgi.multithread'
p3519
asbag68
(g89
g70
NtRp3520
(dp3521
g73
(dp3522
g100
g101
ssg82
g3511
sg75
(lp3523
S':'
asbag68
(g89
g70
NtRp3524
(dp3525
g73
(dp3526
sg82
g3511
sg75
(lp3527
g68
(g69
g70
NtRp3528
(dp3529
g73
(dp3530
g81
I3
ssg82
g3524
sg75
(lp3531
g2124
asbasbasbag68
(g84
g70
NtRp3532
(dp3533
g73
(dp3534
sg82
g2937
sg75
(lp3535
g68
(g89
g70
NtRp3536
(dp3537
g73
(dp3538
g93
g94
ssg82
g3532
sg75
(lp3539
S'wsgi.run_once'
p3540
asbag68
(g89
g70
NtRp3541
(dp3542
g73
(dp3543
g100
g101
ssg82
g3532
sg75
(lp3544
S':'
asbag68
(g89
g70
NtRp3545
(dp3546
g73
(dp3547
sg82
g3532
sg75
(lp3548
g68
(g69
g70
NtRp3549
(dp3550
g73
(dp3551
g81
I3
ssg82
g3545
sg75
(lp3552
g111
asbasbasbag68
(g84
g70
NtRp3553
(dp3554
g73
(dp3555
sg82
g2937
sg75
(lp3556
g68
(g89
g70
NtRp3557
(dp3558
g73
(dp3559
g93
g94
ssg82
g3553
sg75
(lp3560
S'wsgi.url_scheme'
p3561
asbag68
(g89
g70
NtRp3562
(dp3563
g73
(dp3564
g100
g101
ssg82
g3553
sg75
(lp3565
S':'
asbag68
(g89
g70
NtRp3566
(dp3567
g73
(dp3568
sg82
g3553
sg75
(lp3569
g68
(g69
g70
NtRp3570
(dp3571
g73
(dp3572
g81
I3
ssg82
g3566
sg75
(lp3573
g2167
asbasbasbag68
(g84
g70
NtRp3574
(dp3575
g73
(dp3576
sg82
g2937
sg75
(lp3577
g68
(g89
g70
NtRp3578
(dp3579
g73
(dp3580
g93
g94
ssg82
g3574
sg75
(lp3581
S'wsgi.version'
p3582
asbag68
(g89
g70
NtRp3583
(dp3584
g73
(dp3585
g100
g101
ssg82
g3574
sg75
(lp3586
S':'
asbag68
(g89
g70
NtRp3587
(dp3588
g73
(dp3589
sg82
g3574
sg75
(lp3590
g68
(g69
g70
NtRp3591
(dp3592
g73
(dp3593
g81
I3
ssg82
g3587
sg75
(lp3594
S'1'
asbasbasbasbasbasbasbasbasbasbasbasbasbsS'frames'
p3595
(lp3596
(dp3597
S'file'
p3598
S'/home/u4hcsdaw/Python/web2py/gluon/restricted.py'
p3599
sS'dump'
p3600
(dp3601
S'code'
p3602
S"'# -*- coding: utf-8 -*-\\n# this file is released ...=crud())\\n\\nresponse._vars=response._caller(index)\\n'"
p3603
sS'layer'
p3604
S"'/home/u4hcsdaw/Python/web2py/applications/ACES/controllers/default.py'"
p3605
sS'global compile2'
p3606
S'<function compile2>'
p3607
sS'ccode'
p3608
S'undefined'
p3609
ssS'lnum'
p3610
I193
sS'lines'
p3611
(dp3612
I192
S'        else:'
p3613
sI193
S'            ccode = compile2(code,layer)'
p3614
sI194
S'        exec ccode in environment'
p3615
sI195
S'    except HTTP:'
p3616
sI196
S'        raise'
p3617
sI197
S'    except Exception, error:'
p3618
sI188
S"    environment['__file__'] = layer"
p3619
sI189
S'    try:'
p3620
sI190
S'        if type(code) == types.CodeType:'
p3621
sI191
S'            ccode = code'
p3622
ssS'call'
p3623
S"(code='# -*- coding: utf-8 -*-\\n# this file is released ...=crud())\\n\\nresponse._vars=response._caller(index)\\n', environment={'A': <class 'gluon.html.A'>, 'Auth': <class 'gluon.tools.Auth'>, 'B': <class 'gluon.html.B'>, 'BEAUTIFY': <class 'gluon.html.BEAUTIFY'>, 'BODY': <class 'gluon.html.BODY'>, 'BR': <class 'gluon.html.BR'>, 'BUTTON': <class 'gluon.html.BUTTON'>, 'CAT': <class 'gluon.html.CAT'>, 'CENTER': <class 'gluon.html.CENTER'>, 'CLEANUP': <class 'gluon.validators.CLEANUP'>, ...}, layer='/home/u4hcsdaw/Python/web2py/applications/ACES/controllers/default.py')"
p3624
sS'func'
p3625
S'restricted'
p3626
sa(dp3627
g3598
S'/home/u4hcsdaw/Python/web2py/gluon/restricted.py'
p3628
sg3600
(dp3629
S'builtincompile'
p3630
S'<built-in function compile>'
p3631
sS'code'
p3632
S"'# -*- coding: utf-8 -*-\\n# this file is released ...=crud())\\n\\nresponse._vars=response._caller(index)\\n'"
p3633
sS'code.rstrip'
p3634
S'<built-in method rstrip of str object>'
p3635
sS').replace'
p3636
g3609
sS'layer'
p3637
S"'/home/u4hcsdaw/Python/web2py/applications/ACES/controllers/default.py'"
p3638
ssg3610
I179
sg3611
(dp3639
I174
S''
sI175
S'def compile2(code,layer):'
p3640
sI176
S'    """'
p3641
sI177
S"    The +'\\n' is necessary else compile fails when code ends in a comment."
p3642
sI178
S'    """'
p3643
sI179
S"    return compile(code.rstrip().replace('\\r\\n','\\n')+'\\n', layer, 'exec')"
p3644
sI180
S''
sI181
S"def restricted(code, environment=None, layer='Unknown'):"
p3645
sI182
S'    """'
p3646
sI183
S'    runs code in environment and returns the output. if an exception occurs'
p3647
ssg3623
S"(code='# -*- coding: utf-8 -*-\\n# this file is released ...=crud())\\n\\nresponse._vars=response._caller(index)\\n', layer='/home/u4hcsdaw/Python/web2py/applications/ACES/controllers/default.py')"
p3648
sg3625
S'compile2'
p3649
sasS'pyver'
p3650
S'Python 2.7.3: /home/u4hcsdaw/Python/epd/bin/python2.7'
p3651
sS'session'
p3652
g68
(g69
g70
NtRp3653
(dp3654
g73
(dp3655
sg75
(lp3656
g68
(g77
g70
NtRp3657
(dp3658
g73
(dp3659
g81
I5
ssg82
Nsg75
(lp3660
g68
(g84
g70
NtRp3661
(dp3662
g73
(dp3663
sg82
g3657
sg75
(lp3664
g68
(g89
g70
NtRp3665
(dp3666
g73
(dp3667
g93
g94
ssg82
g3661
sg75
(lp3668
S'formVars'
p3669
asbag68
(g89
g70
NtRp3670
(dp3671
g73
(dp3672
g100
g101
ssg82
g3661
sg75
(lp3673
S':'
asbag68
(g89
g70
NtRp3674
(dp3675
g73
(dp3676
sg82
g3661
sg75
(lp3677
g68
(g69
g70
NtRp3678
(dp3679
g73
(dp3680
g81
I5
ssg82
g3674
sg75
(lp3681
g68
(g77
g70
NtRp3682
(dp3683
g73
(dp3684
g81
I4
ssg82
Nsg75
(lp3685
g68
(g84
g70
NtRp3686
(dp3687
g73
(dp3688
sg82
g3682
sg75
(lp3689
g68
(g89
g70
NtRp3690
(dp3691
g73
(dp3692
g93
g94
ssg82
g3686
sg75
(lp3693
S'subButton'
p3694
asbag68
(g89
g70
NtRp3695
(dp3696
g73
(dp3697
g100
g101
ssg82
g3686
sg75
(lp3698
S':'
asbag68
(g89
g70
NtRp3699
(dp3700
g73
(dp3701
sg82
g3686
sg75
(lp3702
g68
(g69
g70
NtRp3703
(dp3704
g73
(dp3705
g81
I4
ssg82
g3699
sg75
(lp3706
S'Submit Query'
p3707
asbasbasbag68
(g84
g70
NtRp3708
(dp3709
g73
(dp3710
sg82
g3682
sg75
(lp3711
g68
(g89
g70
NtRp3712
(dp3713
g73
(dp3714
g93
g94
ssg82
g3708
sg75
(lp3715
S'waveHeight'
p3716
asbag68
(g89
g70
NtRp3717
(dp3718
g73
(dp3719
g100
g101
ssg82
g3708
sg75
(lp3720
S':'
asbag68
(g89
g70
NtRp3721
(dp3722
g73
(dp3723
sg82
g3708
sg75
(lp3724
g68
(g69
g70
NtRp3725
(dp3726
g73
(dp3727
g81
I4
ssg82
g3721
sg75
(lp3728
S'0.85'
p3729
asbasbasbasbasbasbasbasbasbsS'etype'
p3730
S"<type 'exceptions.SyntaxError'>"
p3731
sS'date'
p3732
S'Tue Jun  5 15:48:29 2012'
p3733
sS'response'
p3734
g68
(g69
g70
NtRp3735
(dp3736
g73
(dp3737
sg75
(lp3738
g68
(g77
g70
NtRp3739
(dp3740
g73
(dp3741
g81
I5
ssg82
Nsg75
(lp3742
g68
(g84
g70
NtRp3743
(dp3744
g73
(dp3745
sg82
g3739
sg75
(lp3746
g68
(g89
g70
NtRp3747
(dp3748
g73
(dp3749
g93
g94
ssg82
g3743
sg75
(lp3750
g166
asbag68
(g89
g70
NtRp3751
(dp3752
g73
(dp3753
g100
g101
ssg82
g3743
sg75
(lp3754
S':'
asbag68
(g89
g70
NtRp3755
(dp3756
g73
(dp3757
sg82
g3743
sg75
(lp3758
g68
(g69
g70
NtRp3759
(dp3760
g73
(dp3761
g81
I5
ssg82
g3755
sg75
(lp3762
S'<cStringIO.StringO object at 0xa95de60>'
p3763
asbasbasbag68
(g84
g70
NtRp3764
(dp3765
g73
(dp3766
sg82
g3739
sg75
(lp3767
g68
(g89
g70
NtRp3768
(dp3769
g73
(dp3770
g93
g94
ssg82
g3764
sg75
(lp3771
g232
asbag68
(g89
g70
NtRp3772
(dp3773
g73
(dp3774
g100
g101
ssg82
g3764
sg75
(lp3775
S':'
asbag68
(g89
g70
NtRp3776
(dp3777
g73
(dp3778
sg82
g3764
sg75
(lp3779
g68
(g69
g70
NtRp3780
(dp3781
g73
(dp3782
g81
I5
ssg82
g3776
sg75
(lp3783
g68
(g77
g70
NtRp3784
(dp3785
g73
(dp3786
g81
I4
ssg82
Nsg75
(lp3787
g68
(g84
g70
NtRp3788
(dp3789
g73
(dp3790
sg82
g3784
sg75
(lp3791
g68
(g89
g70
NtRp3792
(dp3793
g73
(dp3794
g93
g94
ssg82
g3788
sg75
(lp3795
S'session_id_aces'
p3796
asbag68
(g89
g70
NtRp3797
(dp3798
g73
(dp3799
g100
g101
ssg82
g3788
sg75
(lp3800
S':'
asbag68
(g89
g70
NtRp3801
(dp3802
g73
(dp3803
sg82
g3788
sg75
(lp3804
g68
(g69
g70
NtRp3805
(dp3806
g73
(dp3807
g81
I4
ssg82
g3801
sg75
(lp3808
g68
(g77
g70
NtRp3809
(dp3810
g73
(dp3811
g81
I3
ssg82
Nsg75
(lp3812
g68
(g84
g70
NtRp3813
(dp3814
g73
(dp3815
sg82
g3809
sg75
(lp3816
g68
(g89
g70
NtRp3817
(dp3818
g73
(dp3819
g93
g94
ssg82
g3813
sg75
(lp3820
g282
asbag68
(g89
g70
NtRp3821
(dp3822
g73
(dp3823
g100
g101
ssg82
g3813
sg75
(lp3824
S':'
asbag68
(g89
g70
NtRp3825
(dp3826
g73
(dp3827
sg82
g3813
sg75
(lp3828
g68
(g69
g70
NtRp3829
(dp3830
g73
(dp3831
g81
I3
ssg82
g3825
sg75
(lp3832
S''
asbasbasbag68
(g84
g70
NtRp3833
(dp3834
g73
(dp3835
sg82
g3809
sg75
(lp3836
g68
(g89
g70
NtRp3837
(dp3838
g73
(dp3839
g93
g94
ssg82
g3833
sg75
(lp3840
g303
asbag68
(g89
g70
NtRp3841
(dp3842
g73
(dp3843
g100
g101
ssg82
g3833
sg75
(lp3844
S':'
asbag68
(g89
g70
NtRp3845
(dp3846
g73
(dp3847
sg82
g3833
sg75
(lp3848
g68
(g69
g70
NtRp3849
(dp3850
g73
(dp3851
g81
I3
ssg82
g3845
sg75
(lp3852
S''
asbasbasbag68
(g84
g70
NtRp3853
(dp3854
g73
(dp3855
sg82
g3809
sg75
(lp3856
g68
(g89
g70
NtRp3857
(dp3858
g73
(dp3859
g93
g94
ssg82
g3853
sg75
(lp3860
g324
asbag68
(g89
g70
NtRp3861
(dp3862
g73
(dp3863
g100
g101
ssg82
g3853
sg75
(lp3864
S':'
asbag68
(g89
g70
NtRp3865
(dp3866
g73
(dp3867
sg82
g3853
sg75
(lp3868
g68
(g69
g70
NtRp3869
(dp3870
g73
(dp3871
g81
I3
ssg82
g3865
sg75
(lp3872
S''
asbasbasbag68
(g84
g70
NtRp3873
(dp3874
g73
(dp3875
sg82
g3809
sg75
(lp3876
g68
(g89
g70
NtRp3877
(dp3878
g73
(dp3879
g93
g94
ssg82
g3873
sg75
(lp3880
g345
asbag68
(g89
g70
NtRp3881
(dp3882
g73
(dp3883
g100
g101
ssg82
g3873
sg75
(lp3884
S':'
asbag68
(g89
g70
NtRp3885
(dp3886
g73
(dp3887
sg82
g3873
sg75
(lp3888
g68
(g69
g70
NtRp3889
(dp3890
g73
(dp3891
g81
I3
ssg82
g3885
sg75
(lp3892
S''
asbasbasbag68
(g84
g70
NtRp3893
(dp3894
g73
(dp3895
sg82
g3809
sg75
(lp3896
g68
(g89
g70
NtRp3897
(dp3898
g73
(dp3899
g93
g94
ssg82
g3893
sg75
(lp3900
g366
asbag68
(g89
g70
NtRp3901
(dp3902
g73
(dp3903
g100
g101
ssg82
g3893
sg75
(lp3904
S':'
asbag68
(g89
g70
NtRp3905
(dp3906
g73
(dp3907
sg82
g3893
sg75
(lp3908
g68
(g69
g70
NtRp3909
(dp3910
g73
(dp3911
g81
I3
ssg82
g3905
sg75
(lp3912
S''
asbasbasbag68
(g84
g70
NtRp3913
(dp3914
g73
(dp3915
sg82
g3809
sg75
(lp3916
g68
(g89
g70
NtRp3917
(dp3918
g73
(dp3919
g93
g94
ssg82
g3913
sg75
(lp3920
g387
asbag68
(g89
g70
NtRp3921
(dp3922
g73
(dp3923
g100
g101
ssg82
g3913
sg75
(lp3924
S':'
asbag68
(g89
g70
NtRp3925
(dp3926
g73
(dp3927
sg82
g3913
sg75
(lp3928
g68
(g69
g70
NtRp3929
(dp3930
g73
(dp3931
g81
I3
ssg82
g3925
sg75
(lp3932
S'/'
asbasbasbag68
(g84
g70
NtRp3933
(dp3934
g73
(dp3935
sg82
g3809
sg75
(lp3936
g68
(g89
g70
NtRp3937
(dp3938
g73
(dp3939
g93
g94
ssg82
g3933
sg75
(lp3940
g408
asbag68
(g89
g70
NtRp3941
(dp3942
g73
(dp3943
g100
g101
ssg82
g3933
sg75
(lp3944
S':'
asbag68
(g89
g70
NtRp3945
(dp3946
g73
(dp3947
sg82
g3933
sg75
(lp3948
g68
(g69
g70
NtRp3949
(dp3950
g73
(dp3951
g81
I3
ssg82
g3945
sg75
(lp3952
S''
asbasbasbag68
(g84
g70
NtRp3953
(dp3954
g73
(dp3955
sg82
g3809
sg75
(lp3956
g68
(g89
g70
NtRp3957
(dp3958
g73
(dp3959
g93
g94
ssg82
g3953
sg75
(lp3960
g429
asbag68
(g89
g70
NtRp3961
(dp3962
g73
(dp3963
g100
g101
ssg82
g3953
sg75
(lp3964
S':'
asbag68
(g89
g70
NtRp3965
(dp3966
g73
(dp3967
sg82
g3953
sg75
(lp3968
g68
(g69
g70
NtRp3969
(dp3970
g73
(dp3971
g81
I3
ssg82
g3965
sg75
(lp3972
S''
asbasbasbasbasbasbasbasbasbasbasbag68
(g84
g70
NtRp3973
(dp3974
g73
(dp3975
sg82
g3739
sg75
(lp3976
g68
(g89
g70
NtRp3977
(dp3978
g73
(dp3979
g93
g94
ssg82
g3973
sg75
(lp3980
S'files'
p3981
asbag68
(g89
g70
NtRp3982
(dp3983
g73
(dp3984
g100
g101
ssg82
g3973
sg75
(lp3985
S':'
asbag68
(g89
g70
NtRp3986
(dp3987
g73
(dp3988
sg82
g3973
sg75
(lp3989
g68
(g69
g70
NtRp3990
(dp3991
g73
(dp3992
g81
I5
ssg82
g3986
sg75
(lp3993
g68
(g77
g70
NtRp3994
(dp3995
g73
(dp3996
g81
I4
ssg82
Nsg75
(lp3997
sbasbasbasbag68
(g84
g70
NtRp3998
(dp3999
g73
(dp4000
sg82
g3739
sg75
(lp4001
g68
(g89
g70
NtRp4002
(dp4003
g73
(dp4004
g93
g94
ssg82
g3998
sg75
(lp4005
S'flash'
p4006
asbag68
(g89
g70
NtRp4007
(dp4008
g73
(dp4009
g100
g101
ssg82
g3998
sg75
(lp4010
S':'
asbag68
(g89
g70
NtRp4011
(dp4012
g73
(dp4013
sg82
g3998
sg75
(lp4014
g68
(g69
g70
NtRp4015
(dp4016
g73
(dp4017
g81
I5
ssg82
g4011
sg75
(lp4018
S''
asbasbasbag68
(g84
g70
NtRp4019
(dp4020
g73
(dp4021
sg82
g3739
sg75
(lp4022
g68
(g89
g70
NtRp4023
(dp4024
g73
(dp4025
g93
g94
ssg82
g4019
sg75
(lp4026
S'generic_patterns'
p4027
asbag68
(g89
g70
NtRp4028
(dp4029
g73
(dp4030
g100
g101
ssg82
g4019
sg75
(lp4031
S':'
asbag68
(g89
g70
NtRp4032
(dp4033
g73
(dp4034
sg82
g4019
sg75
(lp4035
g68
(g69
g70
NtRp4036
(dp4037
g73
(dp4038
g81
I5
ssg82
g4032
sg75
(lp4039
g68
(g77
g70
NtRp4040
(dp4041
g73
(dp4042
g81
I4
ssg82
Nsg75
(lp4043
g68
(g84
g70
NtRp4044
(dp4045
g73
(dp4046
sg82
g4040
sg75
(lp4047
g68
(g89
g70
NtRp4048
(dp4049
g73
(dp4050
sg82
g4044
sg75
(lp4051
g68
(g69
g70
NtRp4052
(dp4053
g73
(dp4054
g81
I4
ssg82
g4048
sg75
(lp4055
S'*'
asbasbasbasbasbasbasbag68
(g84
g70
NtRp4056
(dp4057
g73
(dp4058
sg82
g3739
sg75
(lp4059
g68
(g89
g70
NtRp4060
(dp4061
g73
(dp4062
g93
g94
ssg82
g4056
sg75
(lp4063
S'headers'
p4064
asbag68
(g89
g70
NtRp4065
(dp4066
g73
(dp4067
g100
g101
ssg82
g4056
sg75
(lp4068
S':'
asbag68
(g89
g70
NtRp4069
(dp4070
g73
(dp4071
sg82
g4056
sg75
(lp4072
g68
(g69
g70
NtRp4073
(dp4074
g73
(dp4075
g81
I5
ssg82
g4069
sg75
(lp4076
g68
(g77
g70
NtRp4077
(dp4078
g73
(dp4079
g81
I4
ssg82
Nsg75
(lp4080
g68
(g84
g70
NtRp4081
(dp4082
g73
(dp4083
sg82
g4077
sg75
(lp4084
g68
(g89
g70
NtRp4085
(dp4086
g73
(dp4087
g93
g94
ssg82
g4081
sg75
(lp4088
S'Cache-Control'
p4089
asbag68
(g89
g70
NtRp4090
(dp4091
g73
(dp4092
g100
g101
ssg82
g4081
sg75
(lp4093
S':'
asbag68
(g89
g70
NtRp4094
(dp4095
g73
(dp4096
sg82
g4081
sg75
(lp4097
g68
(g69
g70
NtRp4098
(dp4099
g73
(dp4100
g81
I4
ssg82
g4094
sg75
(lp4101
S'no-store, no-cache, must-revalidate, post-check=0, pre-check=0'
p4102
asbasbasbag68
(g84
g70
NtRp4103
(dp4104
g73
(dp4105
sg82
g4077
sg75
(lp4106
g68
(g89
g70
NtRp4107
(dp4108
g73
(dp4109
g93
g94
ssg82
g4103
sg75
(lp4110
S'Content-Type'
p4111
asbag68
(g89
g70
NtRp4112
(dp4113
g73
(dp4114
g100
g101
ssg82
g4103
sg75
(lp4115
S':'
asbag68
(g89
g70
NtRp4116
(dp4117
g73
(dp4118
sg82
g4103
sg75
(lp4119
g68
(g69
g70
NtRp4120
(dp4121
g73
(dp4122
g81
I4
ssg82
g4116
sg75
(lp4123
S'text/html; charset=utf-8'
p4124
asbasbasbag68
(g84
g70
NtRp4125
(dp4126
g73
(dp4127
sg82
g4077
sg75
(lp4128
g68
(g89
g70
NtRp4129
(dp4130
g73
(dp4131
g93
g94
ssg82
g4125
sg75
(lp4132
S'Expires'
p4133
asbag68
(g89
g70
NtRp4134
(dp4135
g73
(dp4136
g100
g101
ssg82
g4125
sg75
(lp4137
S':'
asbag68
(g89
g70
NtRp4138
(dp4139
g73
(dp4140
sg82
g4125
sg75
(lp4141
g68
(g69
g70
NtRp4142
(dp4143
g73
(dp4144
g81
I4
ssg82
g4138
sg75
(lp4145
S'Tue, 05 Jun 2012 20:48:29 GMT'
p4146
asbasbasbag68
(g84
g70
NtRp4147
(dp4148
g73
(dp4149
sg82
g4077
sg75
(lp4150
g68
(g89
g70
NtRp4151
(dp4152
g73
(dp4153
g93
g94
ssg82
g4147
sg75
(lp4154
S'Pragma'
p4155
asbag68
(g89
g70
NtRp4156
(dp4157
g73
(dp4158
g100
g101
ssg82
g4147
sg75
(lp4159
S':'
asbag68
(g89
g70
NtRp4160
(dp4161
g73
(dp4162
sg82
g4147
sg75
(lp4163
g68
(g69
g70
NtRp4164
(dp4165
g73
(dp4166
g81
I4
ssg82
g4160
sg75
(lp4167
S'no-cache'
p4168
asbasbasbag68
(g84
g70
NtRp4169
(dp4170
g73
(dp4171
sg82
g4077
sg75
(lp4172
g68
(g89
g70
NtRp4173
(dp4174
g73
(dp4175
g93
g94
ssg82
g4169
sg75
(lp4176
S'X-Powered-By'
p4177
asbag68
(g89
g70
NtRp4178
(dp4179
g73
(dp4180
g100
g101
ssg82
g4169
sg75
(lp4181
S':'
asbag68
(g89
g70
NtRp4182
(dp4183
g73
(dp4184
sg82
g4169
sg75
(lp4185
g68
(g69
g70
NtRp4186
(dp4187
g73
(dp4188
g81
I4
ssg82
g4182
sg75
(lp4189
S'web2py'
p4190
asbasbasbasbasbasbasbag68
(g84
g70
NtRp4191
(dp4192
g73
(dp4193
sg82
g3739
sg75
(lp4194
g68
(g89
g70
NtRp4195
(dp4196
g73
(dp4197
g93
g94
ssg82
g4191
sg75
(lp4198
S'menu'
p4199
asbag68
(g89
g70
NtRp4200
(dp4201
g73
(dp4202
g100
g101
ssg82
g4191
sg75
(lp4203
S':'
asbag68
(g89
g70
NtRp4204
(dp4205
g73
(dp4206
sg82
g4191
sg75
(lp4207
g68
(g69
g70
NtRp4208
(dp4209
g73
(dp4210
g81
I5
ssg82
g4204
sg75
(lp4211
g68
(g77
g70
NtRp4212
(dp4213
g73
(dp4214
g81
I4
ssg82
Nsg75
(lp4215
g68
(g84
g70
NtRp4216
(dp4217
g73
(dp4218
sg82
g4212
sg75
(lp4219
g68
(g89
g70
NtRp4220
(dp4221
g73
(dp4222
sg82
g4216
sg75
(lp4223
g68
(g69
g70
NtRp4224
(dp4225
g73
(dp4226
g81
I4
ssg82
g4220
sg75
(lp4227
g68
(g77
g70
NtRp4228
(dp4229
g73
(dp4230
g81
I3
ssg82
Nsg75
(lp4231
g68
(g84
g70
NtRp4232
(dp4233
g73
(dp4234
sg82
g4228
sg75
(lp4235
g68
(g89
g70
NtRp4236
(dp4237
g73
(dp4238
sg82
g4232
sg75
(lp4239
g68
(g69
g70
NtRp4240
(dp4241
g73
(dp4242
g81
I3
ssg82
g4236
sg75
(lp4243
cgluon.languages
lazyT_unpickle
p4244
(S't\x04\x00\x00\x00Home'
tRp4245
asbasbasbag68
(g84
g70
NtRp4246
(dp4247
g73
(dp4248
sg82
g4228
sg75
(lp4249
g68
(g89
g70
NtRp4250
(dp4251
g73
(dp4252
sg82
g4246
sg75
(lp4253
g68
(g69
g70
NtRp4254
(dp4255
g73
(dp4256
g81
I3
ssg82
g4250
sg75
(lp4257
g111
asbasbasbag68
(g84
g70
NtRp4258
(dp4259
g73
(dp4260
sg82
g4228
sg75
(lp4261
g68
(g89
g70
NtRp4262
(dp4263
g73
(dp4264
sg82
g4258
sg75
(lp4265
g68
(g69
g70
NtRp4266
(dp4267
g73
(dp4268
g81
I3
ssg82
g4262
sg75
(lp4269
S'/ACES/default/index'
p4270
asbasbasbag68
(g84
g70
NtRp4271
(dp4272
g73
(dp4273
sg82
g4228
sg75
(lp4274
g68
(g89
g70
NtRp4275
(dp4276
g73
(dp4277
sg82
g4271
sg75
(lp4278
g68
(g69
g70
NtRp4279
(dp4280
g73
(dp4281
g81
I3
ssg82
g4275
sg75
(lp4282
g68
(g77
g70
NtRp4283
(dp4284
g73
(dp4285
g81
I2
ssg82
Nsg75
(lp4286
sbasbasbasbasbasbasbasbag68
(g84
g70
NtRp4287
(dp4288
g73
(dp4289
sg82
g4212
sg75
(lp4290
g68
(g89
g70
NtRp4291
(dp4292
g73
(dp4293
sg82
g4287
sg75
(lp4294
g68
(g69
g70
NtRp4295
(dp4296
g73
(dp4297
g81
I4
ssg82
g4291
sg75
(lp4298
g68
(g77
g70
NtRp4299
(dp4300
g73
(dp4301
g81
I3
ssg82
Nsg75
(lp4302
g68
(g84
g70
NtRp4303
(dp4304
g73
(dp4305
sg82
g4299
sg75
(lp4306
g68
(g89
g70
NtRp4307
(dp4308
g73
(dp4309
sg82
g4303
sg75
(lp4310
g68
(g69
g70
NtRp4311
(dp4312
g73
(dp4313
g81
I3
ssg82
g4307
sg75
(lp4314
g4244
(S's\x08\x00\x00\x00This App'
tRp4315
asbasbasbag68
(g84
g70
NtRp4316
(dp4317
g73
(dp4318
sg82
g4299
sg75
(lp4319
g68
(g89
g70
NtRp4320
(dp4321
g73
(dp4322
sg82
g4316
sg75
(lp4323
g68
(g69
g70
NtRp4324
(dp4325
g73
(dp4326
g81
I3
ssg82
g4320
sg75
(lp4327
g111
asbasbasbag68
(g84
g70
NtRp4328
(dp4329
g73
(dp4330
sg82
g4299
sg75
(lp4331
g68
(g89
g70
NtRp4332
(dp4333
g73
(dp4334
sg82
g4328
sg75
(lp4335
g68
(g69
g70
NtRp4336
(dp4337
g73
(dp4338
g81
I3
ssg82
g4332
sg75
(lp4339
S'/admin/default/design/ACES'
p4340
asbasbasbag68
(g84
g70
NtRp4341
(dp4342
g73
(dp4343
sg82
g4299
sg75
(lp4344
g68
(g89
g70
NtRp4345
(dp4346
g73
(dp4347
sg82
g4341
sg75
(lp4348
g68
(g69
g70
NtRp4349
(dp4350
g73
(dp4351
g81
I3
ssg82
g4345
sg75
(lp4352
g68
(g77
g70
NtRp4353
(dp4354
g73
(dp4355
g81
I2
ssg82
Nsg75
(lp4356
g68
(g84
g70
NtRp4357
(dp4358
g73
(dp4359
sg82
g4353
sg75
(lp4360
g68
(g89
g70
NtRp4361
(dp4362
g73
(dp4363
sg82
g4357
sg75
(lp4364
g68
(g69
g70
NtRp4365
(dp4366
g73
(dp4367
g81
I2
ssg82
g4361
sg75
(lp4368
g68
(g77
g70
NtRp4369
(dp4370
g73
(dp4371
g81
I1
ssg82
Nsg75
(lp4372
g68
(g84
g70
NtRp4373
(dp4374
g73
(dp4375
sg82
g4369
sg75
(lp4376
g68
(g89
g70
NtRp4377
(dp4378
g73
(dp4379
sg82
g4373
sg75
(lp4380
g68
(g69
g70
NtRp4381
(dp4382
g73
(dp4383
g81
I1
ssg82
g4377
sg75
(lp4384
g4244
(S't\n\x00\x00\x00Controller'
tRp4385
asbasbasbag68
(g84
g70
NtRp4386
(dp4387
g73
(dp4388
sg82
g4369
sg75
(lp4389
g68
(g89
g70
NtRp4390
(dp4391
g73
(dp4392
sg82
g4386
sg75
(lp4393
g68
(g69
g70
NtRp4394
(dp4395
g73
(dp4396
g81
I1
ssg82
g4390
sg75
(lp4397
I00
asbasbasbag68
(g84
g70
NtRp4398
(dp4399
g73
(dp4400
sg82
g4369
sg75
(lp4401
g68
(g89
g70
NtRp4402
(dp4403
g73
(dp4404
sg82
g4398
sg75
(lp4405
g68
(g69
g70
NtRp4406
(dp4407
g73
(dp4408
g81
I1
ssg82
g4402
sg75
(lp4409
S'/admin/default/edit/ACES/controllers/default.py'
p4410
asbasbasbasbasbasbasbag68
(g84
g70
NtRp4411
(dp4412
g73
(dp4413
sg82
g4353
sg75
(lp4414
g68
(g89
g70
NtRp4415
(dp4416
g73
(dp4417
sg82
g4411
sg75
(lp4418
g68
(g69
g70
NtRp4419
(dp4420
g73
(dp4421
g81
I2
ssg82
g4415
sg75
(lp4422
g68
(g77
g70
NtRp4423
(dp4424
g73
(dp4425
g81
I1
ssg82
Nsg75
(lp4426
g68
(g84
g70
NtRp4427
(dp4428
g73
(dp4429
sg82
g4423
sg75
(lp4430
g68
(g89
g70
NtRp4431
(dp4432
g73
(dp4433
sg82
g4427
sg75
(lp4434
g68
(g69
g70
NtRp4435
(dp4436
g73
(dp4437
g81
I1
ssg82
g4431
sg75
(lp4438
g4244
(S't\x04\x00\x00\x00View'
tRp4439
asbasbasbag68
(g84
g70
NtRp4440
(dp4441
g73
(dp4442
sg82
g4423
sg75
(lp4443
g68
(g89
g70
NtRp4444
(dp4445
g73
(dp4446
sg82
g4440
sg75
(lp4447
g68
(g69
g70
NtRp4448
(dp4449
g73
(dp4450
g81
I1
ssg82
g4444
sg75
(lp4451
I00
asbasbasbag68
(g84
g70
NtRp4452
(dp4453
g73
(dp4454
sg82
g4423
sg75
(lp4455
g68
(g89
g70
NtRp4456
(dp4457
g73
(dp4458
sg82
g4452
sg75
(lp4459
g68
(g69
g70
NtRp4460
(dp4461
g73
(dp4462
g81
I1
ssg82
g4456
sg75
(lp4463
S'/admin/default/edit/ACES/views/default/index.html'
p4464
asbasbasbasbasbasbasbag68
(g84
g70
NtRp4465
(dp4466
g73
(dp4467
sg82
g4353
sg75
(lp4468
g68
(g89
g70
NtRp4469
(dp4470
g73
(dp4471
sg82
g4465
sg75
(lp4472
g68
(g69
g70
NtRp4473
(dp4474
g73
(dp4475
g81
I2
ssg82
g4469
sg75
(lp4476
g68
(g77
g70
NtRp4477
(dp4478
g73
(dp4479
g81
I1
ssg82
Nsg75
(lp4480
g68
(g84
g70
NtRp4481
(dp4482
g73
(dp4483
sg82
g4477
sg75
(lp4484
g68
(g89
g70
NtRp4485
(dp4486
g73
(dp4487
sg82
g4481
sg75
(lp4488
g68
(g69
g70
NtRp4489
(dp4490
g73
(dp4491
g81
I1
ssg82
g4485
sg75
(lp4492
g4244
(S't\x06\x00\x00\x00Layout'
tRp4493
asbasbasbag68
(g84
g70
NtRp4494
(dp4495
g73
(dp4496
sg82
g4477
sg75
(lp4497
g68
(g89
g70
NtRp4498
(dp4499
g73
(dp4500
sg82
g4494
sg75
(lp4501
g68
(g69
g70
NtRp4502
(dp4503
g73
(dp4504
g81
I1
ssg82
g4498
sg75
(lp4505
I00
asbasbasbag68
(g84
g70
NtRp4506
(dp4507
g73
(dp4508
sg82
g4477
sg75
(lp4509
g68
(g89
g70
NtRp4510
(dp4511
g73
(dp4512
sg82
g4506
sg75
(lp4513
g68
(g69
g70
NtRp4514
(dp4515
g73
(dp4516
g81
I1
ssg82
g4510
sg75
(lp4517
S'/admin/default/edit/ACES/views/layout.html'
p4518
asbasbasbasbasbasbasbag68
(g84
g70
NtRp4519
(dp4520
g73
(dp4521
sg82
g4353
sg75
(lp4522
g68
(g89
g70
NtRp4523
(dp4524
g73
(dp4525
sg82
g4519
sg75
(lp4526
g68
(g69
g70
NtRp4527
(dp4528
g73
(dp4529
g81
I2
ssg82
g4523
sg75
(lp4530
g68
(g77
g70
NtRp4531
(dp4532
g73
(dp4533
g81
I1
ssg82
Nsg75
(lp4534
g68
(g84
g70
NtRp4535
(dp4536
g73
(dp4537
sg82
g4531
sg75
(lp4538
g68
(g89
g70
NtRp4539
(dp4540
g73
(dp4541
sg82
g4535
sg75
(lp4542
g68
(g69
g70
NtRp4543
(dp4544
g73
(dp4545
g81
I1
ssg82
g4539
sg75
(lp4546
g4244
(S't\n\x00\x00\x00Stylesheet'
tRp4547
asbasbasbag68
(g84
g70
NtRp4548
(dp4549
g73
(dp4550
sg82
g4531
sg75
(lp4551
g68
(g89
g70
NtRp4552
(dp4553
g73
(dp4554
sg82
g4548
sg75
(lp4555
g68
(g69
g70
NtRp4556
(dp4557
g73
(dp4558
g81
I1
ssg82
g4552
sg75
(lp4559
I00
asbasbasbag68
(g84
g70
NtRp4560
(dp4561
g73
(dp4562
sg82
g4531
sg75
(lp4563
g68
(g89
g70
NtRp4564
(dp4565
g73
(dp4566
sg82
g4560
sg75
(lp4567
g68
(g69
g70
NtRp4568
(dp4569
g73
(dp4570
g81
I1
ssg82
g4564
sg75
(lp4571
S'/admin/default/edit/ACES/static/base.css'
p4572
asbasbasbasbasbasbasbag68
(g84
g70
NtRp4573
(dp4574
g73
(dp4575
sg82
g4353
sg75
(lp4576
g68
(g89
g70
NtRp4577
(dp4578
g73
(dp4579
sg82
g4573
sg75
(lp4580
g68
(g69
g70
NtRp4581
(dp4582
g73
(dp4583
g81
I2
ssg82
g4577
sg75
(lp4584
g68
(g77
g70
NtRp4585
(dp4586
g73
(dp4587
g81
I1
ssg82
Nsg75
(lp4588
g68
(g84
g70
NtRp4589
(dp4590
g73
(dp4591
sg82
g4585
sg75
(lp4592
g68
(g89
g70
NtRp4593
(dp4594
g73
(dp4595
sg82
g4589
sg75
(lp4596
g68
(g69
g70
NtRp4597
(dp4598
g73
(dp4599
g81
I1
ssg82
g4593
sg75
(lp4600
g4244
(S's\x08\x00\x00\x00DB Model'
tRp4601
asbasbasbag68
(g84
g70
NtRp4602
(dp4603
g73
(dp4604
sg82
g4585
sg75
(lp4605
g68
(g89
g70
NtRp4606
(dp4607
g73
(dp4608
sg82
g4602
sg75
(lp4609
g68
(g69
g70
NtRp4610
(dp4611
g73
(dp4612
g81
I1
ssg82
g4606
sg75
(lp4613
I00
asbasbasbag68
(g84
g70
NtRp4614
(dp4615
g73
(dp4616
sg82
g4585
sg75
(lp4617
g68
(g89
g70
NtRp4618
(dp4619
g73
(dp4620
sg82
g4614
sg75
(lp4621
g68
(g69
g70
NtRp4622
(dp4623
g73
(dp4624
g81
I1
ssg82
g4618
sg75
(lp4625
S'/admin/default/edit/ACES/models/db.py'
p4626
asbasbasbasbasbasbasbag68
(g84
g70
NtRp4627
(dp4628
g73
(dp4629
sg82
g4353
sg75
(lp4630
g68
(g89
g70
NtRp4631
(dp4632
g73
(dp4633
sg82
g4627
sg75
(lp4634
g68
(g69
g70
NtRp4635
(dp4636
g73
(dp4637
g81
I2
ssg82
g4631
sg75
(lp4638
g68
(g77
g70
NtRp4639
(dp4640
g73
(dp4641
g81
I1
ssg82
Nsg75
(lp4642
g68
(g84
g70
NtRp4643
(dp4644
g73
(dp4645
sg82
g4639
sg75
(lp4646
g68
(g89
g70
NtRp4647
(dp4648
g73
(dp4649
sg82
g4643
sg75
(lp4650
g68
(g69
g70
NtRp4651
(dp4652
g73
(dp4653
g81
I1
ssg82
g4647
sg75
(lp4654
g4244
(S's\n\x00\x00\x00Menu Model'
tRp4655
asbasbasbag68
(g84
g70
NtRp4656
(dp4657
g73
(dp4658
sg82
g4639
sg75
(lp4659
g68
(g89
g70
NtRp4660
(dp4661
g73
(dp4662
sg82
g4656
sg75
(lp4663
g68
(g69
g70
NtRp4664
(dp4665
g73
(dp4666
g81
I1
ssg82
g4660
sg75
(lp4667
I00
asbasbasbag68
(g84
g70
NtRp4668
(dp4669
g73
(dp4670
sg82
g4639
sg75
(lp4671
g68
(g89
g70
NtRp4672
(dp4673
g73
(dp4674
sg82
g4668
sg75
(lp4675
g68
(g69
g70
NtRp4676
(dp4677
g73
(dp4678
g81
I1
ssg82
g4672
sg75
(lp4679
S'/admin/default/edit/ACES/models/menu.py'
p4680
asbasbasbasbasbasbasbag68
(g84
g70
NtRp4681
(dp4682
g73
(dp4683
sg82
g4353
sg75
(lp4684
g68
(g89
g70
NtRp4685
(dp4686
g73
(dp4687
sg82
g4681
sg75
(lp4688
g68
(g69
g70
NtRp4689
(dp4690
g73
(dp4691
g81
I2
ssg82
g4685
sg75
(lp4692
g68
(g77
g70
NtRp4693
(dp4694
g73
(dp4695
g81
I1
ssg82
Nsg75
(lp4696
g68
(g84
g70
NtRp4697
(dp4698
g73
(dp4699
sg82
g4693
sg75
(lp4700
g68
(g89
g70
NtRp4701
(dp4702
g73
(dp4703
sg82
g4697
sg75
(lp4704
g68
(g69
g70
NtRp4705
(dp4706
g73
(dp4707
g81
I1
ssg82
g4701
sg75
(lp4708
g4244
(S't\x08\x00\x00\x00Database'
tRp4709
asbasbasbag68
(g84
g70
NtRp4710
(dp4711
g73
(dp4712
sg82
g4693
sg75
(lp4713
g68
(g89
g70
NtRp4714
(dp4715
g73
(dp4716
sg82
g4710
sg75
(lp4717
g68
(g69
g70
NtRp4718
(dp4719
g73
(dp4720
g81
I1
ssg82
g4714
sg75
(lp4721
I00
asbasbasbag68
(g84
g70
NtRp4722
(dp4723
g73
(dp4724
sg82
g4693
sg75
(lp4725
g68
(g89
g70
NtRp4726
(dp4727
g73
(dp4728
sg82
g4722
sg75
(lp4729
g68
(g69
g70
NtRp4730
(dp4731
g73
(dp4732
g81
I1
ssg82
g4726
sg75
(lp4733
S'/ACES/appadmin/index'
p4734
asbasbasbasbasbasbasbag68
(g84
g70
NtRp4735
(dp4736
g73
(dp4737
sg82
g4353
sg75
(lp4738
g68
(g89
g70
NtRp4739
(dp4740
g73
(dp4741
sg82
g4735
sg75
(lp4742
g68
(g69
g70
NtRp4743
(dp4744
g73
(dp4745
g81
I2
ssg82
g4739
sg75
(lp4746
g68
(g77
g70
NtRp4747
(dp4748
g73
(dp4749
g81
I1
ssg82
Nsg75
(lp4750
g68
(g84
g70
NtRp4751
(dp4752
g73
(dp4753
sg82
g4747
sg75
(lp4754
g68
(g89
g70
NtRp4755
(dp4756
g73
(dp4757
sg82
g4751
sg75
(lp4758
g68
(g69
g70
NtRp4759
(dp4760
g73
(dp4761
g81
I1
ssg82
g4755
sg75
(lp4762
g4244
(S't\x06\x00\x00\x00Errors'
tRp4763
asbasbasbag68
(g84
g70
NtRp4764
(dp4765
g73
(dp4766
sg82
g4747
sg75
(lp4767
g68
(g89
g70
NtRp4768
(dp4769
g73
(dp4770
sg82
g4764
sg75
(lp4771
g68
(g69
g70
NtRp4772
(dp4773
g73
(dp4774
g81
I1
ssg82
g4768
sg75
(lp4775
I00
asbasbasbag68
(g84
g70
NtRp4776
(dp4777
g73
(dp4778
sg82
g4747
sg75
(lp4779
g68
(g89
g70
NtRp4780
(dp4781
g73
(dp4782
sg82
g4776
sg75
(lp4783
g68
(g69
g70
NtRp4784
(dp4785
g73
(dp4786
g81
I1
ssg82
g4780
sg75
(lp4787
S'/admin/default/errors/ACES'
p4788
asbasbasbasbasbasbasbag68
(g84
g70
NtRp4789
(dp4790
g73
(dp4791
sg82
g4353
sg75
(lp4792
g68
(g89
g70
NtRp4793
(dp4794
g73
(dp4795
sg82
g4789
sg75
(lp4796
g68
(g69
g70
NtRp4797
(dp4798
g73
(dp4799
g81
I2
ssg82
g4793
sg75
(lp4800
g68
(g77
g70
NtRp4801
(dp4802
g73
(dp4803
g81
I1
ssg82
Nsg75
(lp4804
g68
(g84
g70
NtRp4805
(dp4806
g73
(dp4807
sg82
g4801
sg75
(lp4808
g68
(g89
g70
NtRp4809
(dp4810
g73
(dp4811
sg82
g4805
sg75
(lp4812
g68
(g69
g70
NtRp4813
(dp4814
g73
(dp4815
g81
I1
ssg82
g4809
sg75
(lp4816
g4244
(S't\x05\x00\x00\x00About'
tRp4817
asbasbasbag68
(g84
g70
NtRp4818
(dp4819
g73
(dp4820
sg82
g4801
sg75
(lp4821
g68
(g89
g70
NtRp4822
(dp4823
g73
(dp4824
sg82
g4818
sg75
(lp4825
g68
(g69
g70
NtRp4826
(dp4827
g73
(dp4828
g81
I1
ssg82
g4822
sg75
(lp4829
I00
asbasbasbag68
(g84
g70
NtRp4830
(dp4831
g73
(dp4832
sg82
g4801
sg75
(lp4833
g68
(g89
g70
NtRp4834
(dp4835
g73
(dp4836
sg82
g4830
sg75
(lp4837
g68
(g69
g70
NtRp4838
(dp4839
g73
(dp4840
g81
I1
ssg82
g4834
sg75
(lp4841
S'/admin/default/about/ACES'
p4842
asbasbasbasbasbasbasbasbasbasbasbasbasbasbasbag68
(g84
g70
NtRp4843
(dp4844
g73
(dp4845
sg82
g4212
sg75
(lp4846
g68
(g89
g70
NtRp4847
(dp4848
g73
(dp4849
sg82
g4843
sg75
(lp4850
g68
(g69
g70
NtRp4851
(dp4852
g73
(dp4853
g81
I4
ssg82
g4847
sg75
(lp4854
g68
(g77
g70
NtRp4855
(dp4856
g73
(dp4857
g81
I3
ssg82
Nsg75
(lp4858
g68
(g84
g70
NtRp4859
(dp4860
g73
(dp4861
sg82
g4855
sg75
(lp4862
g68
(g89
g70
NtRp4863
(dp4864
g73
(dp4865
sg82
g4859
sg75
(lp4866
g68
(g69
g70
NtRp4867
(dp4868
g73
(dp4869
g81
I3
ssg82
g4863
sg75
(lp4870
g4244
(S't\t\x00\x00\x00Resources'
tRp4871
asbasbasbag68
(g84
g70
NtRp4872
(dp4873
g73
(dp4874
sg82
g4855
sg75
(lp4875
g68
(g89
g70
NtRp4876
(dp4877
g73
(dp4878
sg82
g4872
sg75
(lp4879
g68
(g69
g70
NtRp4880
(dp4881
g73
(dp4882
g81
I3
ssg82
g4876
sg75
(lp4883
g111
asbasbasbag68
(g84
g70
NtRp4884
(dp4885
g73
(dp4886
sg82
g4855
sg75
(lp4887
g68
(g89
g70
NtRp4888
(dp4889
g73
(dp4890
sg82
g4884
sg75
(lp4891
g68
(g69
g70
NtRp4892
(dp4893
g73
(dp4894
g81
I3
ssg82
g4888
sg75
(lp4895
S'None'
p4896
asbasbasbag68
(g84
g70
NtRp4897
(dp4898
g73
(dp4899
sg82
g4855
sg75
(lp4900
g68
(g89
g70
NtRp4901
(dp4902
g73
(dp4903
sg82
g4897
sg75
(lp4904
g68
(g69
g70
NtRp4905
(dp4906
g73
(dp4907
g81
I3
ssg82
g4901
sg75
(lp4908
g68
(g77
g70
NtRp4909
(dp4910
g73
(dp4911
g81
I2
ssg82
Nsg75
(lp4912
g68
(g84
g70
NtRp4913
(dp4914
g73
(dp4915
sg82
g4909
sg75
(lp4916
g68
(g89
g70
NtRp4917
(dp4918
g73
(dp4919
sg82
g4913
sg75
(lp4920
g68
(g69
g70
NtRp4921
(dp4922
g73
(dp4923
g81
I2
ssg82
g4917
sg75
(lp4924
g68
(g77
g70
NtRp4925
(dp4926
g73
(dp4927
g81
I1
ssg82
Nsg75
(lp4928
g68
(g84
g70
NtRp4929
(dp4930
g73
(dp4931
sg82
g4925
sg75
(lp4932
g68
(g89
g70
NtRp4933
(dp4934
g73
(dp4935
sg82
g4929
sg75
(lp4936
g68
(g69
g70
NtRp4937
(dp4938
g73
(dp4939
g81
I1
ssg82
g4933
sg75
(lp4940
g4244
(S't\r\x00\x00\x00Documentation'
tRp4941
asbasbasbag68
(g84
g70
NtRp4942
(dp4943
g73
(dp4944
sg82
g4925
sg75
(lp4945
g68
(g89
g70
NtRp4946
(dp4947
g73
(dp4948
sg82
g4942
sg75
(lp4949
g68
(g69
g70
NtRp4950
(dp4951
g73
(dp4952
g81
I1
ssg82
g4946
sg75
(lp4953
I00
asbasbasbag68
(g84
g70
NtRp4954
(dp4955
g73
(dp4956
sg82
g4925
sg75
(lp4957
g68
(g89
g70
NtRp4958
(dp4959
g73
(dp4960
sg82
g4954
sg75
(lp4961
g68
(g69
g70
NtRp4962
(dp4963
g73
(dp4964
g81
I1
ssg82
g4958
sg75
(lp4965
S'http://www.web2py.com/book'
p4966
asbasbasbag68
(g84
g70
NtRp4967
(dp4968
g73
(dp4969
sg82
g4925
sg75
(lp4970
g68
(g89
g70
NtRp4971
(dp4972
g73
(dp4973
sg82
g4967
sg75
(lp4974
g68
(g69
g70
NtRp4975
(dp4976
g73
(dp4977
g81
I1
ssg82
g4971
sg75
(lp4978
(lp4979
(g4244
(S't\x07\x00\x00\x00Preface'
tRp4980
I00
S'http://www.web2py.com/book/default/chapter/00'
p4981
tp4982
a(g4244
(S't\x0c\x00\x00\x00Introduction'
tRp4983
I00
S'http://www.web2py.com/book/default/chapter/01'
p4984
tp4985
a(g4244
(S't\x06\x00\x00\x00Python'
tRp4986
I00
S'http://www.web2py.com/book/default/chapter/02'
p4987
tp4988
a(g4244
(S't\x08\x00\x00\x00Overview'
tRp4989
I00
S'http://www.web2py.com/book/default/chapter/03'
p4990
tp4991
a(g4244
(S's\x08\x00\x00\x00The Core'
tRp4992
I00
S'http://www.web2py.com/book/default/chapter/04'
p4993
tp4994
a(g4244
(S's\t\x00\x00\x00The Views'
tRp4995
I00
S'http://www.web2py.com/book/default/chapter/05'
p4996
tp4997
a(g4244
(S't\x08\x00\x00\x00Database'
tRp4998
I00
S'http://www.web2py.com/book/default/chapter/06'
p4999
tp5000
a(g4244
(S's\x14\x00\x00\x00Forms and Validators'
tRp5001
I00
S'http://www.web2py.com/book/default/chapter/07'
p5002
tp5003
a(g4244
(S's\x0e\x00\x00\x00Access Control'
tRp5004
I00
S'http://www.web2py.com/book/default/chapter/08'
p5005
tp5006
a(g4244
(S't\x08\x00\x00\x00Services'
tRp5007
I00
S'http://www.web2py.com/book/default/chapter/09'
p5008
tp5009
a(g4244
(S's\x0c\x00\x00\x00Ajax Recipes'
tRp5010
I00
S'http://www.web2py.com/book/default/chapter/10'
p5011
tp5012
a(g4244
(S's\x12\x00\x00\x00Deployment Recipes'
tRp5013
I00
S'http://www.web2py.com/book/default/chapter/11'
p5014
tp5015
a(g4244
(S's\r\x00\x00\x00Other Recipes'
tRp5016
I00
S'http://www.web2py.com/book/default/chapter/12'
p5017
tp5018
a(g4244
(S's\r\x00\x00\x00Buy this book'
tRp5019
I00
S'http://stores.lulu.com/web2py'
p5020
tp5021
aasbasbasbasbasbasbasbag68
(g84
g70
NtRp5022
(dp5023
g73
(dp5024
sg82
g4909
sg75
(lp5025
g68
(g89
g70
NtRp5026
(dp5027
g73
(dp5028
sg82
g5022
sg75
(lp5029
g68
(g69
g70
NtRp5030
(dp5031
g73
(dp5032
g81
I2
ssg82
g5026
sg75
(lp5033
g68
(g77
g70
NtRp5034
(dp5035
g73
(dp5036
g81
I1
ssg82
Nsg75
(lp5037
g68
(g84
g70
NtRp5038
(dp5039
g73
(dp5040
sg82
g5034
sg75
(lp5041
g68
(g89
g70
NtRp5042
(dp5043
g73
(dp5044
sg82
g5038
sg75
(lp5045
g68
(g69
g70
NtRp5046
(dp5047
g73
(dp5048
g81
I1
ssg82
g5042
sg75
(lp5049
g4244
(S't\t\x00\x00\x00Community'
tRp5050
asbasbasbag68
(g84
g70
NtRp5051
(dp5052
g73
(dp5053
sg82
g5034
sg75
(lp5054
g68
(g89
g70
NtRp5055
(dp5056
g73
(dp5057
sg82
g5051
sg75
(lp5058
g68
(g69
g70
NtRp5059
(dp5060
g73
(dp5061
g81
I1
ssg82
g5055
sg75
(lp5062
I00
asbasbasbag68
(g84
g70
NtRp5063
(dp5064
g73
(dp5065
sg82
g5034
sg75
(lp5066
g68
(g89
g70
NtRp5067
(dp5068
g73
(dp5069
sg82
g5063
sg75
(lp5070
g68
(g69
g70
NtRp5071
(dp5072
g73
(dp5073
g81
I1
ssg82
g5067
sg75
(lp5074
Nasbasbasbag68
(g84
g70
NtRp5075
(dp5076
g73
(dp5077
sg82
g5034
sg75
(lp5078
g68
(g89
g70
NtRp5079
(dp5080
g73
(dp5081
sg82
g5075
sg75
(lp5082
g68
(g69
g70
NtRp5083
(dp5084
g73
(dp5085
g81
I1
ssg82
g5079
sg75
(lp5086
(lp5087
(g4244
(S't\x06\x00\x00\x00Groups'
tRp5088
I00
S'http://www.web2py.com/examples/default/usergroups'
p5089
tp5090
a(g4244
(S't\x07\x00\x00\x00Twitter'
tRp5091
I00
S'http://twitter.com/web2py'
p5092
tp5093
a(g4244
(S's\t\x00\x00\x00Live chat'
tRp5094
I00
S'http://mibbit.com/?channel=%23web2py&server=irc.mibbit.net'
p5095
tp5096
a(g4244
(S's\n\x00\x00\x00User Voice'
tRp5097
I00
S'http://web2py.uservoice.com/'
p5098
tp5099
aasbasbasbasbasbasbasbag68
(g84
g70
NtRp5100
(dp5101
g73
(dp5102
sg82
g4909
sg75
(lp5103
g68
(g89
g70
NtRp5104
(dp5105
g73
(dp5106
sg82
g5100
sg75
(lp5107
g68
(g69
g70
NtRp5108
(dp5109
g73
(dp5110
g81
I2
ssg82
g5104
sg75
(lp5111
g68
(g77
g70
NtRp5112
(dp5113
g73
(dp5114
g81
I1
ssg82
Nsg75
(lp5115
g68
(g84
g70
NtRp5116
(dp5117
g73
(dp5118
sg82
g5112
sg75
(lp5119
g68
(g89
g70
NtRp5120
(dp5121
g73
(dp5122
sg82
g5116
sg75
(lp5123
g68
(g69
g70
NtRp5124
(dp5125
g73
(dp5126
g81
I1
ssg82
g5120
sg75
(lp5127
g4244
(S't\x06\x00\x00\x00Web2py'
tRp5128
asbasbasbag68
(g84
g70
NtRp5129
(dp5130
g73
(dp5131
sg82
g5112
sg75
(lp5132
g68
(g89
g70
NtRp5133
(dp5134
g73
(dp5135
sg82
g5129
sg75
(lp5136
g68
(g69
g70
NtRp5137
(dp5138
g73
(dp5139
g81
I1
ssg82
g5133
sg75
(lp5140
I00
asbasbasbag68
(g84
g70
NtRp5141
(dp5142
g73
(dp5143
sg82
g5112
sg75
(lp5144
g68
(g89
g70
NtRp5145
(dp5146
g73
(dp5147
sg82
g5141
sg75
(lp5148
g68
(g69
g70
NtRp5149
(dp5150
g73
(dp5151
g81
I1
ssg82
g5145
sg75
(lp5152
S'http://www.web2py.com'
p5153
asbasbasbag68
(g84
g70
NtRp5154
(dp5155
g73
(dp5156
sg82
g5112
sg75
(lp5157
g68
(g89
g70
NtRp5158
(dp5159
g73
(dp5160
sg82
g5154
sg75
(lp5161
g68
(g69
g70
NtRp5162
(dp5163
g73
(dp5164
g81
I1
ssg82
g5158
sg75
(lp5165
(lp5166
(g4244
(S't\x08\x00\x00\x00Download'
tRp5167
I00
S'http://www.web2py.com/examples/default/download'
p5168
tp5169
a(g4244
(S't\x07\x00\x00\x00Support'
tRp5170
I00
S'http://www.web2py.com/examples/default/support'
p5171
tp5172
a(g4244
(S's\x0e\x00\x00\x00Quick Examples'
tRp5173
I00
S'http://web2py.com/examples/default/examples'
p5174
tp5175
a(g4244
(S't\x03\x00\x00\x00FAQ'
tRp5176
I00
S'http://web2py.com/AlterEgo'
p5177
tp5178
a(g4244
(S's\x11\x00\x00\x00Free Applications'
tRp5179
I00
S'http://web2py.com/appliances'
p5180
tp5181
a(g4244
(S't\x07\x00\x00\x00Plugins'
tRp5182
I00
S'http://web2py.com/plugins'
p5183
tp5184
a(g4244
(S't\x07\x00\x00\x00Recipes'
tRp5185
I00
S'http://web2pyslices.com/'
p5186
tp5187
a(g4244
(S't\x04\x00\x00\x00Demo'
tRp5188
I00
S'http://web2py.com/demo_admin'
p5189
tp5190
a(g4244
(S't\x08\x00\x00\x00Semantic'
tRp5191
I00
S'http://web2py.com/semantic'
p5192
tp5193
a(g4244
(S't\x07\x00\x00\x00Layouts'
tRp5194
I00
S'http://web2py.com/layouts'
p5195
tp5196
a(g4244
(S't\x06\x00\x00\x00Videos'
tRp5197
I00
S'http://www.web2py.com/examples/default/videos/'
p5198
tp5199
aasbasbasbasbasbasbasbasbasbasbasbasbasbasbasbasbasbasbasbag68
(g84
g70
NtRp5200
(dp5201
g73
(dp5202
sg82
g3739
sg75
(lp5203
g68
(g89
g70
NtRp5204
(dp5205
g73
(dp5206
g93
g94
ssg82
g5200
sg75
(lp5207
S'meta'
p5208
asbag68
(g89
g70
NtRp5209
(dp5210
g73
(dp5211
g100
g101
ssg82
g5200
sg75
(lp5212
S':'
asbag68
(g89
g70
NtRp5213
(dp5214
g73
(dp5215
sg82
g5200
sg75
(lp5216
g68
(g69
g70
NtRp5217
(dp5218
g73
(dp5219
g81
I5
ssg82
g5213
sg75
(lp5220
g68
(g77
g70
NtRp5221
(dp5222
g73
(dp5223
g81
I4
ssg82
Nsg75
(lp5224
g68
(g84
g70
NtRp5225
(dp5226
g73
(dp5227
sg82
g5221
sg75
(lp5228
g68
(g89
g70
NtRp5229
(dp5230
g73
(dp5231
g93
g94
ssg82
g5225
sg75
(lp5232
S'author'
p5233
asbag68
(g89
g70
NtRp5234
(dp5235
g73
(dp5236
g100
g101
ssg82
g5225
sg75
(lp5237
S':'
asbag68
(g89
g70
NtRp5238
(dp5239
g73
(dp5240
sg82
g5225
sg75
(lp5241
g68
(g69
g70
NtRp5242
(dp5243
g73
(dp5244
g81
I4
ssg82
g5238
sg75
(lp5245
S'Your Name <you@example.com>'
p5246
asbasbasbag68
(g84
g70
NtRp5247
(dp5248
g73
(dp5249
sg82
g5221
sg75
(lp5250
g68
(g89
g70
NtRp5251
(dp5252
g73
(dp5253
g93
g94
ssg82
g5247
sg75
(lp5254
S'copyright'
p5255
asbag68
(g89
g70
NtRp5256
(dp5257
g73
(dp5258
g100
g101
ssg82
g5247
sg75
(lp5259
S':'
asbag68
(g89
g70
NtRp5260
(dp5261
g73
(dp5262
sg82
g5247
sg75
(lp5263
g68
(g69
g70
NtRp5264
(dp5265
g73
(dp5266
g81
I4
ssg82
g5260
sg75
(lp5267
S'Copyright 2011'
p5268
asbasbasbag68
(g84
g70
NtRp5269
(dp5270
g73
(dp5271
sg82
g5221
sg75
(lp5272
g68
(g89
g70
NtRp5273
(dp5274
g73
(dp5275
g93
g94
ssg82
g5269
sg75
(lp5276
S'description'
p5277
asbag68
(g89
g70
NtRp5278
(dp5279
g73
(dp5280
g100
g101
ssg82
g5269
sg75
(lp5281
S':'
asbag68
(g89
g70
NtRp5282
(dp5283
g73
(dp5284
sg82
g5269
sg75
(lp5285
g68
(g69
g70
NtRp5286
(dp5287
g73
(dp5288
g81
I4
ssg82
g5282
sg75
(lp5289
S'a cool new app'
p5290
asbasbasbag68
(g84
g70
NtRp5291
(dp5292
g73
(dp5293
sg82
g5221
sg75
(lp5294
g68
(g89
g70
NtRp5295
(dp5296
g73
(dp5297
g93
g94
ssg82
g5291
sg75
(lp5298
S'generator'
p5299
asbag68
(g89
g70
NtRp5300
(dp5301
g73
(dp5302
g100
g101
ssg82
g5291
sg75
(lp5303
S':'
asbag68
(g89
g70
NtRp5304
(dp5305
g73
(dp5306
sg82
g5291
sg75
(lp5307
g68
(g69
g70
NtRp5308
(dp5309
g73
(dp5310
g81
I4
ssg82
g5304
sg75
(lp5311
S'Web2py Web Framework'
p5312
asbasbasbag68
(g84
g70
NtRp5313
(dp5314
g73
(dp5315
sg82
g5221
sg75
(lp5316
g68
(g89
g70
NtRp5317
(dp5318
g73
(dp5319
g93
g94
ssg82
g5313
sg75
(lp5320
S'keywords'
p5321
asbag68
(g89
g70
NtRp5322
(dp5323
g73
(dp5324
g100
g101
ssg82
g5313
sg75
(lp5325
S':'
asbag68
(g89
g70
NtRp5326
(dp5327
g73
(dp5328
sg82
g5313
sg75
(lp5329
g68
(g69
g70
NtRp5330
(dp5331
g73
(dp5332
g81
I4
ssg82
g5326
sg75
(lp5333
S'web2py, python, framework'
p5334
asbasbasbasbasbasbasbag68
(g84
g70
NtRp5335
(dp5336
g73
(dp5337
sg82
g3739
sg75
(lp5338
g68
(g89
g70
NtRp5339
(dp5340
g73
(dp5341
g93
g94
ssg82
g5335
sg75
(lp5342
S'postprocessing'
p5343
asbag68
(g89
g70
NtRp5344
(dp5345
g73
(dp5346
g100
g101
ssg82
g5335
sg75
(lp5347
S':'
asbag68
(g89
g70
NtRp5348
(dp5349
g73
(dp5350
sg82
g5335
sg75
(lp5351
g68
(g69
g70
NtRp5352
(dp5353
g73
(dp5354
g81
I5
ssg82
g5348
sg75
(lp5355
g68
(g77
g70
NtRp5356
(dp5357
g73
(dp5358
g81
I4
ssg82
Nsg75
(lp5359
sbasbasbasbag68
(g84
g70
NtRp5360
(dp5361
g73
(dp5362
sg82
g3739
sg75
(lp5363
g68
(g89
g70
NtRp5364
(dp5365
g73
(dp5366
g93
g94
ssg82
g5360
sg75
(lp5367
S'session_file'
p5368
asbag68
(g89
g70
NtRp5369
(dp5370
g73
(dp5371
g100
g101
ssg82
g5360
sg75
(lp5372
S':'
asbag68
(g89
g70
NtRp5373
(dp5374
g73
(dp5375
sg82
g5360
sg75
(lp5376
g68
(g69
g70
NtRp5377
(dp5378
g73
(dp5379
g81
I5
ssg82
g5373
sg75
(lp5380
S"<open file '/home/u4hcsdaw/Python/web2py/applications/ACES/sessions/127.0.0.1-41cac65c-3668-453b-9ecc-c26f12d379cc', mode 'rb+' at 0xaba47b0>"
p5381
asbasbasbag68
(g84
g70
NtRp5382
(dp5383
g73
(dp5384
sg82
g3739
sg75
(lp5385
g68
(g89
g70
NtRp5386
(dp5387
g73
(dp5388
g93
g94
ssg82
g5382
sg75
(lp5389
S'session_filename'
p5390
asbag68
(g89
g70
NtRp5391
(dp5392
g73
(dp5393
g100
g101
ssg82
g5382
sg75
(lp5394
S':'
asbag68
(g89
g70
NtRp5395
(dp5396
g73
(dp5397
sg82
g5382
sg75
(lp5398
g68
(g69
g70
NtRp5399
(dp5400
g73
(dp5401
g81
I5
ssg82
g5395
sg75
(lp5402
S'/home/u4hcsdaw/Python/web2py/applications/ACES/sessions/127.0.0.1-41cac65c-3668-453b-9ecc-c26f12d379cc'
p5403
asbasbasbag68
(g84
g70
NtRp5404
(dp5405
g73
(dp5406
sg82
g3739
sg75
(lp5407
g68
(g89
g70
NtRp5408
(dp5409
g73
(dp5410
g93
g94
ssg82
g5404
sg75
(lp5411
S'session_id'
p5412
asbag68
(g89
g70
NtRp5413
(dp5414
g73
(dp5415
g100
g101
ssg82
g5404
sg75
(lp5416
S':'
asbag68
(g89
g70
NtRp5417
(dp5418
g73
(dp5419
sg82
g5404
sg75
(lp5420
g68
(g69
g70
NtRp5421
(dp5422
g73
(dp5423
g81
I5
ssg82
g5417
sg75
(lp5424
S'127.0.0.1-41cac65c-3668-453b-9ecc-c26f12d379cc'
p5425
asbasbasbag68
(g84
g70
NtRp5426
(dp5427
g73
(dp5428
sg82
g3739
sg75
(lp5429
g68
(g89
g70
NtRp5430
(dp5431
g73
(dp5432
g93
g94
ssg82
g5426
sg75
(lp5433
S'session_id_name'
p5434
asbag68
(g89
g70
NtRp5435
(dp5436
g73
(dp5437
g100
g101
ssg82
g5426
sg75
(lp5438
S':'
asbag68
(g89
g70
NtRp5439
(dp5440
g73
(dp5441
sg82
g5426
sg75
(lp5442
g68
(g69
g70
NtRp5443
(dp5444
g73
(dp5445
g81
I5
ssg82
g5439
sg75
(lp5446
g3796
asbasbasbag68
(g84
g70
NtRp5447
(dp5448
g73
(dp5449
sg82
g3739
sg75
(lp5450
g68
(g89
g70
NtRp5451
(dp5452
g73
(dp5453
g93
g94
ssg82
g5447
sg75
(lp5454
S'session_locked'
p5455
asbag68
(g89
g70
NtRp5456
(dp5457
g73
(dp5458
g100
g101
ssg82
g5447
sg75
(lp5459
S':'
asbag68
(g89
g70
NtRp5460
(dp5461
g73
(dp5462
sg82
g5447
sg75
(lp5463
g68
(g69
g70
NtRp5464
(dp5465
g73
(dp5466
g81
I5
ssg82
g5460
sg75
(lp5467
g2124
asbasbasbag68
(g84
g70
NtRp5468
(dp5469
g73
(dp5470
sg82
g3739
sg75
(lp5471
g68
(g89
g70
NtRp5472
(dp5473
g73
(dp5474
g93
g94
ssg82
g5468
sg75
(lp5475
S'session_new'
p5476
asbag68
(g89
g70
NtRp5477
(dp5478
g73
(dp5479
g100
g101
ssg82
g5468
sg75
(lp5480
S':'
asbag68
(g89
g70
NtRp5481
(dp5482
g73
(dp5483
sg82
g5468
sg75
(lp5484
g68
(g69
g70
NtRp5485
(dp5486
g73
(dp5487
g81
I5
ssg82
g5481
sg75
(lp5488
g111
asbasbasbag68
(g84
g70
NtRp5489
(dp5490
g73
(dp5491
sg82
g3739
sg75
(lp5492
g68
(g89
g70
NtRp5493
(dp5494
g73
(dp5495
g93
g94
ssg82
g5489
sg75
(lp5496
S'status'
p5497
asbag68
(g89
g70
NtRp5498
(dp5499
g73
(dp5500
g100
g101
ssg82
g5489
sg75
(lp5501
S':'
asbag68
(g89
g70
NtRp5502
(dp5503
g73
(dp5504
sg82
g5489
sg75
(lp5505
g68
(g69
g70
NtRp5506
(dp5507
g73
(dp5508
g81
I5
ssg82
g5502
sg75
(lp5509
S'200'
p5510
asbasbasbag68
(g84
g70
NtRp5511
(dp5512
g73
(dp5513
sg82
g3739
sg75
(lp5514
g68
(g89
g70
NtRp5515
(dp5516
g73
(dp5517
g93
g94
ssg82
g5511
sg75
(lp5518
S'subtitle'
p5519
asbag68
(g89
g70
NtRp5520
(dp5521
g73
(dp5522
g100
g101
ssg82
g5511
sg75
(lp5523
S':'
asbag68
(g89
g70
NtRp5524
(dp5525
g73
(dp5526
sg82
g5511
sg75
(lp5527
g68
(g69
g70
NtRp5528
(dp5529
g73
(dp5530
g81
I5
ssg82
g5524
sg75
(lp5531
g4244
(S's\r\x00\x00\x00customize me!'
tRp5532
asbasbasbag68
(g84
g70
NtRp5533
(dp5534
g73
(dp5535
sg82
g3739
sg75
(lp5536
g68
(g89
g70
NtRp5537
(dp5538
g73
(dp5539
g93
g94
ssg82
g5533
sg75
(lp5540
S'title'
p5541
asbag68
(g89
g70
NtRp5542
(dp5543
g73
(dp5544
g100
g101
ssg82
g5533
sg75
(lp5545
S':'
asbag68
(g89
g70
NtRp5546
(dp5547
g73
(dp5548
sg82
g5533
sg75
(lp5549
g68
(g69
g70
NtRp5550
(dp5551
g73
(dp5552
g81
I5
ssg82
g5546
sg75
(lp5553
g133
asbasbasbag68
(g84
g70
NtRp5554
(dp5555
g73
(dp5556
sg82
g3739
sg75
(lp5557
g68
(g89
g70
NtRp5558
(dp5559
g73
(dp5560
g93
g94
ssg82
g5554
sg75
(lp5561
g2812
asbag68
(g89
g70
NtRp5562
(dp5563
g73
(dp5564
g100
g101
ssg82
g5554
sg75
(lp5565
S':'
asbag68
(g89
g70
NtRp5566
(dp5567
g73
(dp5568
sg82
g5554
sg75
(lp5569
g68
(g69
g70
NtRp5570
(dp5571
g73
(dp5572
g81
I5
ssg82
g5566
sg75
(lp5573
g2825
asbasbasbag68
(g84
g70
NtRp5574
(dp5575
g73
(dp5576
sg82
g3739
sg75
(lp5577
g68
(g89
g70
NtRp5578
(dp5579
g73
(dp5580
g93
g94
ssg82
g5574
sg75
(lp5581
S'view'
p5582
asbag68
(g89
g70
NtRp5583
(dp5584
g73
(dp5585
g100
g101
ssg82
g5574
sg75
(lp5586
S':'
asbag68
(g89
g70
NtRp5587
(dp5588
g73
(dp5589
sg82
g5574
sg75
(lp5590
g68
(g69
g70
NtRp5591
(dp5592
g73
(dp5593
g81
I5
ssg82
g5587
sg75
(lp5594
S'default/index.html'
p5595
asbasbasbasbasbsS'locals'
p5596
(dp5597
g3
S"'/home/u4hcsdaw/Python/web2py/applications/ACES/controllers/default.py'"
p5598
sg5
S"'# -*- coding: utf-8 -*-\\n# this file is released ...=crud())\\n\\nresponse._vars=response._caller(index)\\n'"
p5599
sssS'traceback'
p5600
S'Traceback (most recent call last):\n  File "/home/u4hcsdaw/Python/web2py/gluon/restricted.py", line 193, in restricted\n    ccode = compile2(code,layer)\n  File "/home/u4hcsdaw/Python/web2py/gluon/restricted.py", line 179, in compile2\n    return compile(code.rstrip().replace(\'\\r\\n\',\'\\n\')+\'\\n\', layer, \'exec\')\n  File "/home/u4hcsdaw/Python/web2py/applications/ACES/controllers/default.py", line 17\n    ip1=[INPUT(_type=\'text\', _name=\'waveHeight\', _value=\'0.85\'))]\n                                                               ^\nSyntaxError: invalid syntax\n'
p5601
s.