(dp1
S'output'
p2
S''
sS'layer'
p3
S'/home/u4hcsdaw/Python/web2py/applications/ACES/controllers/default.py'
p4
sS'code'
p5
S'# -*- coding: utf-8 -*-\n# this file is released under public domain and you can use without limitations\n\n#########################################################################\n## This is a samples controller\n## - index is the default action of any application\n## - user is required for authentication and authorization\n## - download is for downloading files uploaded in the db (does streaming)\n## - call exposes all registered services (none by default)\n#########################################################################\n\ndef index():\n    """\n    example action using the internationalization operator T and flash\n    rendered by views/default/index.html or views/generic.html\n    """\n    import datetime\n    now=datetime.datetime.now()\n    nowS=now.strftime(\'%s\')\n    t0=\'\'\n    img1=\'\'\n    ip1=INPUT(_type=\'text\', _name=\'waveHeight\', _value=\'0.85\')\n    sub1=INPUT(_type=\'submit\',_name=\'subButton\')\n    f1=FORM(\'wave\',ip1,sub1,_name=\'Form1\',_action=\'\')\n    if f1.accepts(request.vars,session):\n        session.formVars=f1.vars\n        t0=AcesCall(f1.vars)\n        img1=IMG(_src=URL(\'static\',\'images/Waves.svg?\'+nowS))\n    return dict(form=f1,t0=t0,img1=img1)\n\ndef user():\n    """\n    exposes:\n    http://..../[app]/default/user/login\n    http://..../[app]/default/user/logout\n    http://..../[app]/default/user/register\n    http://..../[app]/default/user/profile\n    http://..../[app]/default/user/retrieve_password\n    http://..../[app]/default/user/change_password\n    use @auth.requires_login()\n        @auth.requires_membership(\'group name\')\n        @auth.requires_permission(\'read\',\'table name\',record_id)\n    to decorate functions that need access control\n    """\n    return dict(form=auth())\n\n\ndef download():\n    """\n    allows downloading of uploaded files\n    http://..../[app]/default/download/[filename]\n    """\n    return response.download(request,db)\n\n\ndef call():\n    """\n    exposes services. for example:\n    http://..../[app]/default/call/jsonrpc\n    decorate with @services.jsonrpc the functions to expose\n    supports xml, json, xmlrpc, jsonrpc, amfrpc, rss, csv\n    """\n    return service()\n\n\n@auth.requires_signature()\ndef data():\n    """\n    http://..../[app]/default/data/tables\n    http://..../[app]/default/data/create/[table]\n    http://..../[app]/default/data/read/[table]/[id]\n    http://..../[app]/default/data/update/[table]/[id]\n    http://..../[app]/default/data/delete/[table]/[id]\n    http://..../[app]/default/data/select/[table]\n    http://..../[app]/default/data/search/[table]\n    but URLs bust be signed, i.e. linked with\n      A(\'table\',_href=URL(\'data/tables\',user_signature=True))\n    or with the signed load operator\n      LOAD(\'default\',\'data.load\',args=\'tables\',ajax=True,user_signature=True)\n    """\n    return dict(form=crud())\n\nresponse._vars=response._caller(index)\n'
p6
sS'snapshot'
p7
(dp8
S'exception'
p9
(dp10
S'__getslice__'
p11
S"<method-wrapper '__getslice__' of exceptions.OSError object>"
p12
sS'__str__'
p13
S"<method-wrapper '__str__' of exceptions.OSError object>"
p14
sS'__reduce__'
p15
S'<built-in method __reduce__ of exceptions.OSError object>'
p16
sS'__dict__'
p17
S'{\'child_traceback\': \'Traceback (most recent call last):\\n  File "/home...st)\\nOSError: [Errno 2] No such file or directory\\n\'}'
p18
sS'__sizeof__'
p19
S'<built-in method __sizeof__ of exceptions.OSError object>'
p20
sS'__init__'
p21
S"<method-wrapper '__init__' of exceptions.OSError object>"
p22
sS'__setattr__'
p23
S"<method-wrapper '__setattr__' of exceptions.OSError object>"
p24
sS'__reduce_ex__'
p25
S'<built-in method __reduce_ex__ of exceptions.OSError object>'
p26
sS'__new__'
p27
S'<built-in method __new__ of type object>'
p28
sS'child_traceback'
p29
S'\'Traceback (most recent call last):\\n  File "/home...st)\\nOSError: [Errno 2] No such file or directory\\n\''
p30
sS'errno'
p31
S'2'
sS'__format__'
p32
S'<built-in method __format__ of exceptions.OSError object>'
p33
sS'__class__'
p34
S"<type 'exceptions.OSError'>"
p35
sS'filename'
p36
S'None'
p37
sS'__doc__'
p38
S"'OS system call failed.'"
p39
sS'__getitem__'
p40
S"<method-wrapper '__getitem__' of exceptions.OSError object>"
p41
sS'__setstate__'
p42
S'<built-in method __setstate__ of exceptions.OSError object>'
p43
sS'__getattribute__'
p44
S"<method-wrapper '__getattribute__' of exceptions.OSError object>"
p45
sS'args'
p46
S"(2, 'No such file or directory')"
p47
sS'__subclasshook__'
p48
S'<built-in method __subclasshook__ of type object>'
p49
sS'__unicode__'
p50
S'<built-in method __unicode__ of exceptions.OSError object>'
p51
sS'strerror'
p52
S"'No such file or directory'"
p53
sS'__delattr__'
p54
S"<method-wrapper '__delattr__' of exceptions.OSError object>"
p55
sS'__repr__'
p56
S"<method-wrapper '__repr__' of exceptions.OSError object>"
p57
sS'__hash__'
p58
S"<method-wrapper '__hash__' of exceptions.OSError object>"
p59
ssS'evalue'
p60
S'[Errno 2] No such file or directory'
p61
sS'request'
p62
ccopy_reg
_reconstructor
p63
(cgluon.html
BEAUTIFY
p64
c__builtin__
object
p65
NtRp66
(dp67
S'attributes'
p68
(dp69
sS'components'
p70
(lp71
g63
(cgluon.html
TABLE
p72
g65
NtRp73
(dp74
g68
(dp75
S'level'
p76
I5
ssS'parent'
p77
Nsg70
(lp78
g63
(cgluon.html
TR
p79
g65
NtRp80
(dp81
g68
(dp82
sg77
g73
sg70
(lp83
g63
(cgluon.html
TD
p84
g65
NtRp85
(dp86
g68
(dp87
S'_style'
p88
S'font-weight:bold;'
p89
ssg77
g80
sg70
(lp90
S'ajax'
p91
asbag63
(g84
g65
NtRp92
(dp93
g68
(dp94
S'_valign'
p95
S'top'
p96
ssg77
g80
sg70
(lp97
S':'
asbag63
(g84
g65
NtRp98
(dp99
g68
(dp100
sg77
g80
sg70
(lp101
g63
(g64
g65
NtRp102
(dp103
g68
(dp104
g76
I5
ssg77
g98
sg70
(lp105
S'False'
p106
asbasbasbag63
(g79
g65
NtRp107
(dp108
g68
(dp109
sg77
g73
sg70
(lp110
g63
(g84
g65
NtRp111
(dp112
g68
(dp113
g88
g89
ssg77
g107
sg70
(lp114
S'application'
p115
asbag63
(g84
g65
NtRp116
(dp117
g68
(dp118
g95
g96
ssg77
g107
sg70
(lp119
S':'
asbag63
(g84
g65
NtRp120
(dp121
g68
(dp122
sg77
g107
sg70
(lp123
g63
(g64
g65
NtRp124
(dp125
g68
(dp126
g76
I5
ssg77
g120
sg70
(lp127
S'ACES'
p128
asbasbasbag63
(g79
g65
NtRp129
(dp130
g68
(dp131
sg77
g73
sg70
(lp132
g63
(g84
g65
NtRp133
(dp134
g68
(dp135
g88
g89
ssg77
g129
sg70
(lp136
g46
asbag63
(g84
g65
NtRp137
(dp138
g68
(dp139
g95
g96
ssg77
g129
sg70
(lp140
S':'
asbag63
(g84
g65
NtRp141
(dp142
g68
(dp143
sg77
g129
sg70
(lp144
g63
(g64
g65
NtRp145
(dp146
g68
(dp147
g76
I5
ssg77
g141
sg70
(lp148
g63
(g72
g65
NtRp149
(dp150
g68
(dp151
g76
I4
ssg77
Nsg70
(lp152
sbasbasbasbag63
(g79
g65
NtRp153
(dp154
g68
(dp155
sg77
g73
sg70
(lp156
g63
(g84
g65
NtRp157
(dp158
g68
(dp159
g88
g89
ssg77
g153
sg70
(lp160
S'body'
p161
asbag63
(g84
g65
NtRp162
(dp163
g68
(dp164
g95
g96
ssg77
g153
sg70
(lp165
S':'
asbag63
(g84
g65
NtRp166
(dp167
g68
(dp168
sg77
g153
sg70
(lp169
g63
(g64
g65
NtRp170
(dp171
g68
(dp172
g76
I5
ssg77
g166
sg70
(lp173
S"<open file '<fdopen>', mode 'w+b' at 0xa8cfd30>"
p174
asbasbasbag63
(g79
g65
NtRp175
(dp176
g68
(dp177
sg77
g73
sg70
(lp178
g63
(g84
g65
NtRp179
(dp180
g68
(dp181
g88
g89
ssg77
g175
sg70
(lp182
S'client'
p183
asbag63
(g84
g65
NtRp184
(dp185
g68
(dp186
g95
g96
ssg77
g175
sg70
(lp187
S':'
asbag63
(g84
g65
NtRp188
(dp189
g68
(dp190
sg77
g175
sg70
(lp191
g63
(g64
g65
NtRp192
(dp193
g68
(dp194
g76
I5
ssg77
g188
sg70
(lp195
S'127.0.0.1'
p196
asbasbasbag63
(g79
g65
NtRp197
(dp198
g68
(dp199
sg77
g73
sg70
(lp200
g63
(g84
g65
NtRp201
(dp202
g68
(dp203
g88
g89
ssg77
g197
sg70
(lp204
S'controller'
p205
asbag63
(g84
g65
NtRp206
(dp207
g68
(dp208
g95
g96
ssg77
g197
sg70
(lp209
S':'
asbag63
(g84
g65
NtRp210
(dp211
g68
(dp212
sg77
g197
sg70
(lp213
g63
(g64
g65
NtRp214
(dp215
g68
(dp216
g76
I5
ssg77
g210
sg70
(lp217
S'default'
p218
asbasbasbag63
(g79
g65
NtRp219
(dp220
g68
(dp221
sg77
g73
sg70
(lp222
g63
(g84
g65
NtRp223
(dp224
g68
(dp225
g88
g89
ssg77
g219
sg70
(lp226
S'cookies'
p227
asbag63
(g84
g65
NtRp228
(dp229
g68
(dp230
g95
g96
ssg77
g219
sg70
(lp231
S':'
asbag63
(g84
g65
NtRp232
(dp233
g68
(dp234
sg77
g219
sg70
(lp235
g63
(g64
g65
NtRp236
(dp237
g68
(dp238
g76
I5
ssg77
g232
sg70
(lp239
g63
(g72
g65
NtRp240
(dp241
g68
(dp242
g76
I4
ssg77
Nsg70
(lp243
g63
(g79
g65
NtRp244
(dp245
g68
(dp246
sg77
g240
sg70
(lp247
g63
(g84
g65
NtRp248
(dp249
g68
(dp250
g88
g89
ssg77
g244
sg70
(lp251
S'session_id_aces'
p252
asbag63
(g84
g65
NtRp253
(dp254
g68
(dp255
g95
g96
ssg77
g244
sg70
(lp256
S':'
asbag63
(g84
g65
NtRp257
(dp258
g68
(dp259
sg77
g244
sg70
(lp260
g63
(g64
g65
NtRp261
(dp262
g68
(dp263
g76
I4
ssg77
g257
sg70
(lp264
g63
(g72
g65
NtRp265
(dp266
g68
(dp267
g76
I3
ssg77
Nsg70
(lp268
g63
(g79
g65
NtRp269
(dp270
g68
(dp271
sg77
g265
sg70
(lp272
g63
(g84
g65
NtRp273
(dp274
g68
(dp275
g88
g89
ssg77
g269
sg70
(lp276
S'comment'
p277
asbag63
(g84
g65
NtRp278
(dp279
g68
(dp280
g95
g96
ssg77
g269
sg70
(lp281
S':'
asbag63
(g84
g65
NtRp282
(dp283
g68
(dp284
sg77
g269
sg70
(lp285
g63
(g64
g65
NtRp286
(dp287
g68
(dp288
g76
I3
ssg77
g282
sg70
(lp289
S''
asbasbasbag63
(g79
g65
NtRp290
(dp291
g68
(dp292
sg77
g265
sg70
(lp293
g63
(g84
g65
NtRp294
(dp295
g68
(dp296
g88
g89
ssg77
g290
sg70
(lp297
S'domain'
p298
asbag63
(g84
g65
NtRp299
(dp300
g68
(dp301
g95
g96
ssg77
g290
sg70
(lp302
S':'
asbag63
(g84
g65
NtRp303
(dp304
g68
(dp305
sg77
g290
sg70
(lp306
g63
(g64
g65
NtRp307
(dp308
g68
(dp309
g76
I3
ssg77
g303
sg70
(lp310
S''
asbasbasbag63
(g79
g65
NtRp311
(dp312
g68
(dp313
sg77
g265
sg70
(lp314
g63
(g84
g65
NtRp315
(dp316
g68
(dp317
g88
g89
ssg77
g311
sg70
(lp318
S'expires'
p319
asbag63
(g84
g65
NtRp320
(dp321
g68
(dp322
g95
g96
ssg77
g311
sg70
(lp323
S':'
asbag63
(g84
g65
NtRp324
(dp325
g68
(dp326
sg77
g311
sg70
(lp327
g63
(g64
g65
NtRp328
(dp329
g68
(dp330
g76
I3
ssg77
g324
sg70
(lp331
S''
asbasbasbag63
(g79
g65
NtRp332
(dp333
g68
(dp334
sg77
g265
sg70
(lp335
g63
(g84
g65
NtRp336
(dp337
g68
(dp338
g88
g89
ssg77
g332
sg70
(lp339
S'httponly'
p340
asbag63
(g84
g65
NtRp341
(dp342
g68
(dp343
g95
g96
ssg77
g332
sg70
(lp344
S':'
asbag63
(g84
g65
NtRp345
(dp346
g68
(dp347
sg77
g332
sg70
(lp348
g63
(g64
g65
NtRp349
(dp350
g68
(dp351
g76
I3
ssg77
g345
sg70
(lp352
S''
asbasbasbag63
(g79
g65
NtRp353
(dp354
g68
(dp355
sg77
g265
sg70
(lp356
g63
(g84
g65
NtRp357
(dp358
g68
(dp359
g88
g89
ssg77
g353
sg70
(lp360
S'max-age'
p361
asbag63
(g84
g65
NtRp362
(dp363
g68
(dp364
g95
g96
ssg77
g353
sg70
(lp365
S':'
asbag63
(g84
g65
NtRp366
(dp367
g68
(dp368
sg77
g353
sg70
(lp369
g63
(g64
g65
NtRp370
(dp371
g68
(dp372
g76
I3
ssg77
g366
sg70
(lp373
S''
asbasbasbag63
(g79
g65
NtRp374
(dp375
g68
(dp376
sg77
g265
sg70
(lp377
g63
(g84
g65
NtRp378
(dp379
g68
(dp380
g88
g89
ssg77
g374
sg70
(lp381
S'path'
p382
asbag63
(g84
g65
NtRp383
(dp384
g68
(dp385
g95
g96
ssg77
g374
sg70
(lp386
S':'
asbag63
(g84
g65
NtRp387
(dp388
g68
(dp389
sg77
g374
sg70
(lp390
g63
(g64
g65
NtRp391
(dp392
g68
(dp393
g76
I3
ssg77
g387
sg70
(lp394
S''
asbasbasbag63
(g79
g65
NtRp395
(dp396
g68
(dp397
sg77
g265
sg70
(lp398
g63
(g84
g65
NtRp399
(dp400
g68
(dp401
g88
g89
ssg77
g395
sg70
(lp402
S'secure'
p403
asbag63
(g84
g65
NtRp404
(dp405
g68
(dp406
g95
g96
ssg77
g395
sg70
(lp407
S':'
asbag63
(g84
g65
NtRp408
(dp409
g68
(dp410
sg77
g395
sg70
(lp411
g63
(g64
g65
NtRp412
(dp413
g68
(dp414
g76
I3
ssg77
g408
sg70
(lp415
S''
asbasbasbag63
(g79
g65
NtRp416
(dp417
g68
(dp418
sg77
g265
sg70
(lp419
g63
(g84
g65
NtRp420
(dp421
g68
(dp422
g88
g89
ssg77
g416
sg70
(lp423
S'version'
p424
asbag63
(g84
g65
NtRp425
(dp426
g68
(dp427
g95
g96
ssg77
g416
sg70
(lp428
S':'
asbag63
(g84
g65
NtRp429
(dp430
g68
(dp431
sg77
g416
sg70
(lp432
g63
(g64
g65
NtRp433
(dp434
g68
(dp435
g76
I3
ssg77
g429
sg70
(lp436
S''
asbasbasbasbasbasbasbag63
(g79
g65
NtRp437
(dp438
g68
(dp439
sg77
g240
sg70
(lp440
g63
(g84
g65
NtRp441
(dp442
g68
(dp443
g88
g89
ssg77
g437
sg70
(lp444
S'session_id_admin'
p445
asbag63
(g84
g65
NtRp446
(dp447
g68
(dp448
g95
g96
ssg77
g437
sg70
(lp449
S':'
asbag63
(g84
g65
NtRp450
(dp451
g68
(dp452
sg77
g437
sg70
(lp453
g63
(g64
g65
NtRp454
(dp455
g68
(dp456
g76
I4
ssg77
g450
sg70
(lp457
g63
(g72
g65
NtRp458
(dp459
g68
(dp460
g76
I3
ssg77
Nsg70
(lp461
g63
(g79
g65
NtRp462
(dp463
g68
(dp464
sg77
g458
sg70
(lp465
g63
(g84
g65
NtRp466
(dp467
g68
(dp468
g88
g89
ssg77
g462
sg70
(lp469
g277
asbag63
(g84
g65
NtRp470
(dp471
g68
(dp472
g95
g96
ssg77
g462
sg70
(lp473
S':'
asbag63
(g84
g65
NtRp474
(dp475
g68
(dp476
sg77
g462
sg70
(lp477
g63
(g64
g65
NtRp478
(dp479
g68
(dp480
g76
I3
ssg77
g474
sg70
(lp481
S''
asbasbasbag63
(g79
g65
NtRp482
(dp483
g68
(dp484
sg77
g458
sg70
(lp485
g63
(g84
g65
NtRp486
(dp487
g68
(dp488
g88
g89
ssg77
g482
sg70
(lp489
g298
asbag63
(g84
g65
NtRp490
(dp491
g68
(dp492
g95
g96
ssg77
g482
sg70
(lp493
S':'
asbag63
(g84
g65
NtRp494
(dp495
g68
(dp496
sg77
g482
sg70
(lp497
g63
(g64
g65
NtRp498
(dp499
g68
(dp500
g76
I3
ssg77
g494
sg70
(lp501
S''
asbasbasbag63
(g79
g65
NtRp502
(dp503
g68
(dp504
sg77
g458
sg70
(lp505
g63
(g84
g65
NtRp506
(dp507
g68
(dp508
g88
g89
ssg77
g502
sg70
(lp509
g319
asbag63
(g84
g65
NtRp510
(dp511
g68
(dp512
g95
g96
ssg77
g502
sg70
(lp513
S':'
asbag63
(g84
g65
NtRp514
(dp515
g68
(dp516
sg77
g502
sg70
(lp517
g63
(g64
g65
NtRp518
(dp519
g68
(dp520
g76
I3
ssg77
g514
sg70
(lp521
S''
asbasbasbag63
(g79
g65
NtRp522
(dp523
g68
(dp524
sg77
g458
sg70
(lp525
g63
(g84
g65
NtRp526
(dp527
g68
(dp528
g88
g89
ssg77
g522
sg70
(lp529
g340
asbag63
(g84
g65
NtRp530
(dp531
g68
(dp532
g95
g96
ssg77
g522
sg70
(lp533
S':'
asbag63
(g84
g65
NtRp534
(dp535
g68
(dp536
sg77
g522
sg70
(lp537
g63
(g64
g65
NtRp538
(dp539
g68
(dp540
g76
I3
ssg77
g534
sg70
(lp541
S''
asbasbasbag63
(g79
g65
NtRp542
(dp543
g68
(dp544
sg77
g458
sg70
(lp545
g63
(g84
g65
NtRp546
(dp547
g68
(dp548
g88
g89
ssg77
g542
sg70
(lp549
g361
asbag63
(g84
g65
NtRp550
(dp551
g68
(dp552
g95
g96
ssg77
g542
sg70
(lp553
S':'
asbag63
(g84
g65
NtRp554
(dp555
g68
(dp556
sg77
g542
sg70
(lp557
g63
(g64
g65
NtRp558
(dp559
g68
(dp560
g76
I3
ssg77
g554
sg70
(lp561
S''
asbasbasbag63
(g79
g65
NtRp562
(dp563
g68
(dp564
sg77
g458
sg70
(lp565
g63
(g84
g65
NtRp566
(dp567
g68
(dp568
g88
g89
ssg77
g562
sg70
(lp569
g382
asbag63
(g84
g65
NtRp570
(dp571
g68
(dp572
g95
g96
ssg77
g562
sg70
(lp573
S':'
asbag63
(g84
g65
NtRp574
(dp575
g68
(dp576
sg77
g562
sg70
(lp577
g63
(g64
g65
NtRp578
(dp579
g68
(dp580
g76
I3
ssg77
g574
sg70
(lp581
S''
asbasbasbag63
(g79
g65
NtRp582
(dp583
g68
(dp584
sg77
g458
sg70
(lp585
g63
(g84
g65
NtRp586
(dp587
g68
(dp588
g88
g89
ssg77
g582
sg70
(lp589
g403
asbag63
(g84
g65
NtRp590
(dp591
g68
(dp592
g95
g96
ssg77
g582
sg70
(lp593
S':'
asbag63
(g84
g65
NtRp594
(dp595
g68
(dp596
sg77
g582
sg70
(lp597
g63
(g64
g65
NtRp598
(dp599
g68
(dp600
g76
I3
ssg77
g594
sg70
(lp601
S''
asbasbasbag63
(g79
g65
NtRp602
(dp603
g68
(dp604
sg77
g458
sg70
(lp605
g63
(g84
g65
NtRp606
(dp607
g68
(dp608
g88
g89
ssg77
g602
sg70
(lp609
g424
asbag63
(g84
g65
NtRp610
(dp611
g68
(dp612
g95
g96
ssg77
g602
sg70
(lp613
S':'
asbag63
(g84
g65
NtRp614
(dp615
g68
(dp616
sg77
g602
sg70
(lp617
g63
(g64
g65
NtRp618
(dp619
g68
(dp620
g76
I3
ssg77
g614
sg70
(lp621
S''
asbasbasbasbasbasbasbag63
(g79
g65
NtRp622
(dp623
g68
(dp624
sg77
g240
sg70
(lp625
g63
(g84
g65
NtRp626
(dp627
g68
(dp628
g88
g89
ssg77
g622
sg70
(lp629
S'session_id_dalex1'
p630
asbag63
(g84
g65
NtRp631
(dp632
g68
(dp633
g95
g96
ssg77
g622
sg70
(lp634
S':'
asbag63
(g84
g65
NtRp635
(dp636
g68
(dp637
sg77
g622
sg70
(lp638
g63
(g64
g65
NtRp639
(dp640
g68
(dp641
g76
I4
ssg77
g635
sg70
(lp642
g63
(g72
g65
NtRp643
(dp644
g68
(dp645
g76
I3
ssg77
Nsg70
(lp646
g63
(g79
g65
NtRp647
(dp648
g68
(dp649
sg77
g643
sg70
(lp650
g63
(g84
g65
NtRp651
(dp652
g68
(dp653
g88
g89
ssg77
g647
sg70
(lp654
g277
asbag63
(g84
g65
NtRp655
(dp656
g68
(dp657
g95
g96
ssg77
g647
sg70
(lp658
S':'
asbag63
(g84
g65
NtRp659
(dp660
g68
(dp661
sg77
g647
sg70
(lp662
g63
(g64
g65
NtRp663
(dp664
g68
(dp665
g76
I3
ssg77
g659
sg70
(lp666
S''
asbasbasbag63
(g79
g65
NtRp667
(dp668
g68
(dp669
sg77
g643
sg70
(lp670
g63
(g84
g65
NtRp671
(dp672
g68
(dp673
g88
g89
ssg77
g667
sg70
(lp674
g298
asbag63
(g84
g65
NtRp675
(dp676
g68
(dp677
g95
g96
ssg77
g667
sg70
(lp678
S':'
asbag63
(g84
g65
NtRp679
(dp680
g68
(dp681
sg77
g667
sg70
(lp682
g63
(g64
g65
NtRp683
(dp684
g68
(dp685
g76
I3
ssg77
g679
sg70
(lp686
S''
asbasbasbag63
(g79
g65
NtRp687
(dp688
g68
(dp689
sg77
g643
sg70
(lp690
g63
(g84
g65
NtRp691
(dp692
g68
(dp693
g88
g89
ssg77
g687
sg70
(lp694
g319
asbag63
(g84
g65
NtRp695
(dp696
g68
(dp697
g95
g96
ssg77
g687
sg70
(lp698
S':'
asbag63
(g84
g65
NtRp699
(dp700
g68
(dp701
sg77
g687
sg70
(lp702
g63
(g64
g65
NtRp703
(dp704
g68
(dp705
g76
I3
ssg77
g699
sg70
(lp706
S''
asbasbasbag63
(g79
g65
NtRp707
(dp708
g68
(dp709
sg77
g643
sg70
(lp710
g63
(g84
g65
NtRp711
(dp712
g68
(dp713
g88
g89
ssg77
g707
sg70
(lp714
g340
asbag63
(g84
g65
NtRp715
(dp716
g68
(dp717
g95
g96
ssg77
g707
sg70
(lp718
S':'
asbag63
(g84
g65
NtRp719
(dp720
g68
(dp721
sg77
g707
sg70
(lp722
g63
(g64
g65
NtRp723
(dp724
g68
(dp725
g76
I3
ssg77
g719
sg70
(lp726
S''
asbasbasbag63
(g79
g65
NtRp727
(dp728
g68
(dp729
sg77
g643
sg70
(lp730
g63
(g84
g65
NtRp731
(dp732
g68
(dp733
g88
g89
ssg77
g727
sg70
(lp734
g361
asbag63
(g84
g65
NtRp735
(dp736
g68
(dp737
g95
g96
ssg77
g727
sg70
(lp738
S':'
asbag63
(g84
g65
NtRp739
(dp740
g68
(dp741
sg77
g727
sg70
(lp742
g63
(g64
g65
NtRp743
(dp744
g68
(dp745
g76
I3
ssg77
g739
sg70
(lp746
S''
asbasbasbag63
(g79
g65
NtRp747
(dp748
g68
(dp749
sg77
g643
sg70
(lp750
g63
(g84
g65
NtRp751
(dp752
g68
(dp753
g88
g89
ssg77
g747
sg70
(lp754
g382
asbag63
(g84
g65
NtRp755
(dp756
g68
(dp757
g95
g96
ssg77
g747
sg70
(lp758
S':'
asbag63
(g84
g65
NtRp759
(dp760
g68
(dp761
sg77
g747
sg70
(lp762
g63
(g64
g65
NtRp763
(dp764
g68
(dp765
g76
I3
ssg77
g759
sg70
(lp766
S''
asbasbasbag63
(g79
g65
NtRp767
(dp768
g68
(dp769
sg77
g643
sg70
(lp770
g63
(g84
g65
NtRp771
(dp772
g68
(dp773
g88
g89
ssg77
g767
sg70
(lp774
g403
asbag63
(g84
g65
NtRp775
(dp776
g68
(dp777
g95
g96
ssg77
g767
sg70
(lp778
S':'
asbag63
(g84
g65
NtRp779
(dp780
g68
(dp781
sg77
g767
sg70
(lp782
g63
(g64
g65
NtRp783
(dp784
g68
(dp785
g76
I3
ssg77
g779
sg70
(lp786
S''
asbasbasbag63
(g79
g65
NtRp787
(dp788
g68
(dp789
sg77
g643
sg70
(lp790
g63
(g84
g65
NtRp791
(dp792
g68
(dp793
g88
g89
ssg77
g787
sg70
(lp794
g424
asbag63
(g84
g65
NtRp795
(dp796
g68
(dp797
g95
g96
ssg77
g787
sg70
(lp798
S':'
asbag63
(g84
g65
NtRp799
(dp800
g68
(dp801
sg77
g787
sg70
(lp802
g63
(g64
g65
NtRp803
(dp804
g68
(dp805
g76
I3
ssg77
g799
sg70
(lp806
S''
asbasbasbasbasbasbasbag63
(g79
g65
NtRp807
(dp808
g68
(dp809
sg77
g240
sg70
(lp810
g63
(g84
g65
NtRp811
(dp812
g68
(dp813
g88
g89
ssg77
g807
sg70
(lp814
S'session_id_payperiod'
p815
asbag63
(g84
g65
NtRp816
(dp817
g68
(dp818
g95
g96
ssg77
g807
sg70
(lp819
S':'
asbag63
(g84
g65
NtRp820
(dp821
g68
(dp822
sg77
g807
sg70
(lp823
g63
(g64
g65
NtRp824
(dp825
g68
(dp826
g76
I4
ssg77
g820
sg70
(lp827
g63
(g72
g65
NtRp828
(dp829
g68
(dp830
g76
I3
ssg77
Nsg70
(lp831
g63
(g79
g65
NtRp832
(dp833
g68
(dp834
sg77
g828
sg70
(lp835
g63
(g84
g65
NtRp836
(dp837
g68
(dp838
g88
g89
ssg77
g832
sg70
(lp839
g277
asbag63
(g84
g65
NtRp840
(dp841
g68
(dp842
g95
g96
ssg77
g832
sg70
(lp843
S':'
asbag63
(g84
g65
NtRp844
(dp845
g68
(dp846
sg77
g832
sg70
(lp847
g63
(g64
g65
NtRp848
(dp849
g68
(dp850
g76
I3
ssg77
g844
sg70
(lp851
S''
asbasbasbag63
(g79
g65
NtRp852
(dp853
g68
(dp854
sg77
g828
sg70
(lp855
g63
(g84
g65
NtRp856
(dp857
g68
(dp858
g88
g89
ssg77
g852
sg70
(lp859
g298
asbag63
(g84
g65
NtRp860
(dp861
g68
(dp862
g95
g96
ssg77
g852
sg70
(lp863
S':'
asbag63
(g84
g65
NtRp864
(dp865
g68
(dp866
sg77
g852
sg70
(lp867
g63
(g64
g65
NtRp868
(dp869
g68
(dp870
g76
I3
ssg77
g864
sg70
(lp871
S''
asbasbasbag63
(g79
g65
NtRp872
(dp873
g68
(dp874
sg77
g828
sg70
(lp875
g63
(g84
g65
NtRp876
(dp877
g68
(dp878
g88
g89
ssg77
g872
sg70
(lp879
g319
asbag63
(g84
g65
NtRp880
(dp881
g68
(dp882
g95
g96
ssg77
g872
sg70
(lp883
S':'
asbag63
(g84
g65
NtRp884
(dp885
g68
(dp886
sg77
g872
sg70
(lp887
g63
(g64
g65
NtRp888
(dp889
g68
(dp890
g76
I3
ssg77
g884
sg70
(lp891
S''
asbasbasbag63
(g79
g65
NtRp892
(dp893
g68
(dp894
sg77
g828
sg70
(lp895
g63
(g84
g65
NtRp896
(dp897
g68
(dp898
g88
g89
ssg77
g892
sg70
(lp899
g340
asbag63
(g84
g65
NtRp900
(dp901
g68
(dp902
g95
g96
ssg77
g892
sg70
(lp903
S':'
asbag63
(g84
g65
NtRp904
(dp905
g68
(dp906
sg77
g892
sg70
(lp907
g63
(g64
g65
NtRp908
(dp909
g68
(dp910
g76
I3
ssg77
g904
sg70
(lp911
S''
asbasbasbag63
(g79
g65
NtRp912
(dp913
g68
(dp914
sg77
g828
sg70
(lp915
g63
(g84
g65
NtRp916
(dp917
g68
(dp918
g88
g89
ssg77
g912
sg70
(lp919
g361
asbag63
(g84
g65
NtRp920
(dp921
g68
(dp922
g95
g96
ssg77
g912
sg70
(lp923
S':'
asbag63
(g84
g65
NtRp924
(dp925
g68
(dp926
sg77
g912
sg70
(lp927
g63
(g64
g65
NtRp928
(dp929
g68
(dp930
g76
I3
ssg77
g924
sg70
(lp931
S''
asbasbasbag63
(g79
g65
NtRp932
(dp933
g68
(dp934
sg77
g828
sg70
(lp935
g63
(g84
g65
NtRp936
(dp937
g68
(dp938
g88
g89
ssg77
g932
sg70
(lp939
g382
asbag63
(g84
g65
NtRp940
(dp941
g68
(dp942
g95
g96
ssg77
g932
sg70
(lp943
S':'
asbag63
(g84
g65
NtRp944
(dp945
g68
(dp946
sg77
g932
sg70
(lp947
g63
(g64
g65
NtRp948
(dp949
g68
(dp950
g76
I3
ssg77
g944
sg70
(lp951
S''
asbasbasbag63
(g79
g65
NtRp952
(dp953
g68
(dp954
sg77
g828
sg70
(lp955
g63
(g84
g65
NtRp956
(dp957
g68
(dp958
g88
g89
ssg77
g952
sg70
(lp959
g403
asbag63
(g84
g65
NtRp960
(dp961
g68
(dp962
g95
g96
ssg77
g952
sg70
(lp963
S':'
asbag63
(g84
g65
NtRp964
(dp965
g68
(dp966
sg77
g952
sg70
(lp967
g63
(g64
g65
NtRp968
(dp969
g68
(dp970
g76
I3
ssg77
g964
sg70
(lp971
S''
asbasbasbag63
(g79
g65
NtRp972
(dp973
g68
(dp974
sg77
g828
sg70
(lp975
g63
(g84
g65
NtRp976
(dp977
g68
(dp978
g88
g89
ssg77
g972
sg70
(lp979
g424
asbag63
(g84
g65
NtRp980
(dp981
g68
(dp982
g95
g96
ssg77
g972
sg70
(lp983
S':'
asbag63
(g84
g65
NtRp984
(dp985
g68
(dp986
sg77
g972
sg70
(lp987
g63
(g64
g65
NtRp988
(dp989
g68
(dp990
g76
I3
ssg77
g984
sg70
(lp991
S''
asbasbasbasbasbasbasbag63
(g79
g65
NtRp992
(dp993
g68
(dp994
sg77
g240
sg70
(lp995
g63
(g84
g65
NtRp996
(dp997
g68
(dp998
g88
g89
ssg77
g992
sg70
(lp999
S'session_id_welcome'
p1000
asbag63
(g84
g65
NtRp1001
(dp1002
g68
(dp1003
g95
g96
ssg77
g992
sg70
(lp1004
S':'
asbag63
(g84
g65
NtRp1005
(dp1006
g68
(dp1007
sg77
g992
sg70
(lp1008
g63
(g64
g65
NtRp1009
(dp1010
g68
(dp1011
g76
I4
ssg77
g1005
sg70
(lp1012
g63
(g72
g65
NtRp1013
(dp1014
g68
(dp1015
g76
I3
ssg77
Nsg70
(lp1016
g63
(g79
g65
NtRp1017
(dp1018
g68
(dp1019
sg77
g1013
sg70
(lp1020
g63
(g84
g65
NtRp1021
(dp1022
g68
(dp1023
g88
g89
ssg77
g1017
sg70
(lp1024
g277
asbag63
(g84
g65
NtRp1025
(dp1026
g68
(dp1027
g95
g96
ssg77
g1017
sg70
(lp1028
S':'
asbag63
(g84
g65
NtRp1029
(dp1030
g68
(dp1031
sg77
g1017
sg70
(lp1032
g63
(g64
g65
NtRp1033
(dp1034
g68
(dp1035
g76
I3
ssg77
g1029
sg70
(lp1036
S''
asbasbasbag63
(g79
g65
NtRp1037
(dp1038
g68
(dp1039
sg77
g1013
sg70
(lp1040
g63
(g84
g65
NtRp1041
(dp1042
g68
(dp1043
g88
g89
ssg77
g1037
sg70
(lp1044
g298
asbag63
(g84
g65
NtRp1045
(dp1046
g68
(dp1047
g95
g96
ssg77
g1037
sg70
(lp1048
S':'
asbag63
(g84
g65
NtRp1049
(dp1050
g68
(dp1051
sg77
g1037
sg70
(lp1052
g63
(g64
g65
NtRp1053
(dp1054
g68
(dp1055
g76
I3
ssg77
g1049
sg70
(lp1056
S''
asbasbasbag63
(g79
g65
NtRp1057
(dp1058
g68
(dp1059
sg77
g1013
sg70
(lp1060
g63
(g84
g65
NtRp1061
(dp1062
g68
(dp1063
g88
g89
ssg77
g1057
sg70
(lp1064
g319
asbag63
(g84
g65
NtRp1065
(dp1066
g68
(dp1067
g95
g96
ssg77
g1057
sg70
(lp1068
S':'
asbag63
(g84
g65
NtRp1069
(dp1070
g68
(dp1071
sg77
g1057
sg70
(lp1072
g63
(g64
g65
NtRp1073
(dp1074
g68
(dp1075
g76
I3
ssg77
g1069
sg70
(lp1076
S''
asbasbasbag63
(g79
g65
NtRp1077
(dp1078
g68
(dp1079
sg77
g1013
sg70
(lp1080
g63
(g84
g65
NtRp1081
(dp1082
g68
(dp1083
g88
g89
ssg77
g1077
sg70
(lp1084
g340
asbag63
(g84
g65
NtRp1085
(dp1086
g68
(dp1087
g95
g96
ssg77
g1077
sg70
(lp1088
S':'
asbag63
(g84
g65
NtRp1089
(dp1090
g68
(dp1091
sg77
g1077
sg70
(lp1092
g63
(g64
g65
NtRp1093
(dp1094
g68
(dp1095
g76
I3
ssg77
g1089
sg70
(lp1096
S''
asbasbasbag63
(g79
g65
NtRp1097
(dp1098
g68
(dp1099
sg77
g1013
sg70
(lp1100
g63
(g84
g65
NtRp1101
(dp1102
g68
(dp1103
g88
g89
ssg77
g1097
sg70
(lp1104
g361
asbag63
(g84
g65
NtRp1105
(dp1106
g68
(dp1107
g95
g96
ssg77
g1097
sg70
(lp1108
S':'
asbag63
(g84
g65
NtRp1109
(dp1110
g68
(dp1111
sg77
g1097
sg70
(lp1112
g63
(g64
g65
NtRp1113
(dp1114
g68
(dp1115
g76
I3
ssg77
g1109
sg70
(lp1116
S''
asbasbasbag63
(g79
g65
NtRp1117
(dp1118
g68
(dp1119
sg77
g1013
sg70
(lp1120
g63
(g84
g65
NtRp1121
(dp1122
g68
(dp1123
g88
g89
ssg77
g1117
sg70
(lp1124
g382
asbag63
(g84
g65
NtRp1125
(dp1126
g68
(dp1127
g95
g96
ssg77
g1117
sg70
(lp1128
S':'
asbag63
(g84
g65
NtRp1129
(dp1130
g68
(dp1131
sg77
g1117
sg70
(lp1132
g63
(g64
g65
NtRp1133
(dp1134
g68
(dp1135
g76
I3
ssg77
g1129
sg70
(lp1136
S''
asbasbasbag63
(g79
g65
NtRp1137
(dp1138
g68
(dp1139
sg77
g1013
sg70
(lp1140
g63
(g84
g65
NtRp1141
(dp1142
g68
(dp1143
g88
g89
ssg77
g1137
sg70
(lp1144
g403
asbag63
(g84
g65
NtRp1145
(dp1146
g68
(dp1147
g95
g96
ssg77
g1137
sg70
(lp1148
S':'
asbag63
(g84
g65
NtRp1149
(dp1150
g68
(dp1151
sg77
g1137
sg70
(lp1152
g63
(g64
g65
NtRp1153
(dp1154
g68
(dp1155
g76
I3
ssg77
g1149
sg70
(lp1156
S''
asbasbasbag63
(g79
g65
NtRp1157
(dp1158
g68
(dp1159
sg77
g1013
sg70
(lp1160
g63
(g84
g65
NtRp1161
(dp1162
g68
(dp1163
g88
g89
ssg77
g1157
sg70
(lp1164
g424
asbag63
(g84
g65
NtRp1165
(dp1166
g68
(dp1167
g95
g96
ssg77
g1157
sg70
(lp1168
S':'
asbag63
(g84
g65
NtRp1169
(dp1170
g68
(dp1171
sg77
g1157
sg70
(lp1172
g63
(g64
g65
NtRp1173
(dp1174
g68
(dp1175
g76
I3
ssg77
g1169
sg70
(lp1176
S''
asbasbasbasbasbasbasbasbasbasbasbag63
(g79
g65
NtRp1177
(dp1178
g68
(dp1179
sg77
g73
sg70
(lp1180
g63
(g84
g65
NtRp1181
(dp1182
g68
(dp1183
g88
g89
ssg77
g1177
sg70
(lp1184
S'env'
p1185
asbag63
(g84
g65
NtRp1186
(dp1187
g68
(dp1188
g95
g96
ssg77
g1177
sg70
(lp1189
S':'
asbag63
(g84
g65
NtRp1190
(dp1191
g68
(dp1192
sg77
g1177
sg70
(lp1193
g63
(g64
g65
NtRp1194
(dp1195
g68
(dp1196
g76
I5
ssg77
g1190
sg70
(lp1197
g63
(g72
g65
NtRp1198
(dp1199
g68
(dp1200
g76
I4
ssg77
Nsg70
(lp1201
g63
(g79
g65
NtRp1202
(dp1203
g68
(dp1204
sg77
g1198
sg70
(lp1205
g63
(g84
g65
NtRp1206
(dp1207
g68
(dp1208
g88
g89
ssg77
g1202
sg70
(lp1209
S'app_folders'
p1210
asbag63
(g84
g65
NtRp1211
(dp1212
g68
(dp1213
g95
g96
ssg77
g1202
sg70
(lp1214
S':'
asbag63
(g84
g65
NtRp1215
(dp1216
g68
(dp1217
sg77
g1202
sg70
(lp1218
g63
(g64
g65
NtRp1219
(dp1220
g68
(dp1221
g76
I4
ssg77
g1215
sg70
(lp1222
S"set(['/home/u4hcsdaw/Python/web2py/applications/ACES/', '/home/u4hcsdaw/Python/web2py/applications/PayPeriod/', '/home/u4hcsdaw/Python/web2py/applications/admin/', '/home/u4hcsdaw/Python/web2py/applications/welcome/', '/home/u4hcsdaw/Python/web2py/applications/DALEX1/'])"
p1223
asbasbasbag63
(g79
g65
NtRp1224
(dp1225
g68
(dp1226
sg77
g1198
sg70
(lp1227
g63
(g84
g65
NtRp1228
(dp1229
g68
(dp1230
g88
g89
ssg77
g1224
sg70
(lp1231
S'applications_parent'
p1232
asbag63
(g84
g65
NtRp1233
(dp1234
g68
(dp1235
g95
g96
ssg77
g1224
sg70
(lp1236
S':'
asbag63
(g84
g65
NtRp1237
(dp1238
g68
(dp1239
sg77
g1224
sg70
(lp1240
g63
(g64
g65
NtRp1241
(dp1242
g68
(dp1243
g76
I4
ssg77
g1237
sg70
(lp1244
S'/home/u4hcsdaw/Python/web2py'
p1245
asbasbasbag63
(g79
g65
NtRp1246
(dp1247
g68
(dp1248
sg77
g1198
sg70
(lp1249
g63
(g84
g65
NtRp1250
(dp1251
g68
(dp1252
g88
g89
ssg77
g1246
sg70
(lp1253
S'cmd_args'
p1254
asbag63
(g84
g65
NtRp1255
(dp1256
g68
(dp1257
g95
g96
ssg77
g1246
sg70
(lp1258
S':'
asbag63
(g84
g65
NtRp1259
(dp1260
g68
(dp1261
sg77
g1246
sg70
(lp1262
g63
(g64
g65
NtRp1263
(dp1264
g68
(dp1265
g76
I4
ssg77
g1259
sg70
(lp1266
g63
(g72
g65
NtRp1267
(dp1268
g68
(dp1269
g76
I3
ssg77
Nsg70
(lp1270
sbasbasbasbag63
(g79
g65
NtRp1271
(dp1272
g68
(dp1273
sg77
g1198
sg70
(lp1274
g63
(g84
g65
NtRp1275
(dp1276
g68
(dp1277
g88
g89
ssg77
g1271
sg70
(lp1278
S'cmd_options'
p1279
asbag63
(g84
g65
NtRp1280
(dp1281
g68
(dp1282
g95
g96
ssg77
g1271
sg70
(lp1283
S':'
asbag63
(g84
g65
NtRp1284
(dp1285
g68
(dp1286
sg77
g1271
sg70
(lp1287
g63
(g64
g65
NtRp1288
(dp1289
g68
(dp1290
g76
I4
ssg77
g1284
sg70
(lp1291
S"<Values at 0xa59ca2c: {'verbose': False, 'ip': '127.0.0.1', 'shutdown_timeout': 5, 'taskbar': False, 'nocron': False, 'pid_filename': 'httpserver.pid', 'maxthreads': None, 'softcron': False, 'server_name': 'CHL-5833E', 'bpython': False, 'nogui': False, 'port': 8000, 'extcron': False, 'debuglevel': 30, 'test': None, 'folder': '/home/u4hcsdaw/Python/web2py', 'config': '', 'import_models': False, 'winservice': '', 'shell': None, 'run': '', 'log_filename': 'httpserver.log', 'args': [''], 'ssl_ca_certificate': None, 'scheduler': None, 'profiler_filename': None, 'ssl_private_key': '', 'password': '<ask>', 'request_queue_size': 5, 'ssl_certificate': '', 'cronjob': False, 'plain': False, 'quiet': False, 'interfaces': None, 'minthreads': None, 'timeout': 10, 'numthreads': None, 'nobanner': False}>"
p1292
asbasbasbag63
(g79
g65
NtRp1293
(dp1294
g68
(dp1295
sg77
g1198
sg70
(lp1296
g63
(g84
g65
NtRp1297
(dp1298
g68
(dp1299
g88
g89
ssg77
g1293
sg70
(lp1300
S'content_length'
p1301
asbag63
(g84
g65
NtRp1302
(dp1303
g68
(dp1304
g95
g96
ssg77
g1293
sg70
(lp1305
S':'
asbag63
(g84
g65
NtRp1306
(dp1307
g68
(dp1308
sg77
g1293
sg70
(lp1309
g63
(g64
g65
NtRp1310
(dp1311
g68
(dp1312
g76
I4
ssg77
g1306
sg70
(lp1313
S'582'
p1314
asbasbasbag63
(g79
g65
NtRp1315
(dp1316
g68
(dp1317
sg77
g1198
sg70
(lp1318
g63
(g84
g65
NtRp1319
(dp1320
g68
(dp1321
g88
g89
ssg77
g1315
sg70
(lp1322
S'content_type'
p1323
asbag63
(g84
g65
NtRp1324
(dp1325
g68
(dp1326
g95
g96
ssg77
g1315
sg70
(lp1327
S':'
asbag63
(g84
g65
NtRp1328
(dp1329
g68
(dp1330
sg77
g1315
sg70
(lp1331
g63
(g64
g65
NtRp1332
(dp1333
g68
(dp1334
g76
I4
ssg77
g1328
sg70
(lp1335
S'multipart/form-data; boundary=---------------------------104688414115278758031525041185'
p1336
asbasbasbag63
(g79
g65
NtRp1337
(dp1338
g68
(dp1339
sg77
g1198
sg70
(lp1340
g63
(g84
g65
NtRp1341
(dp1342
g68
(dp1343
g88
g89
ssg77
g1337
sg70
(lp1344
S'db_sessions'
p1345
asbag63
(g84
g65
NtRp1346
(dp1347
g68
(dp1348
g95
g96
ssg77
g1337
sg70
(lp1349
S':'
asbag63
(g84
g65
NtRp1350
(dp1351
g68
(dp1352
sg77
g1337
sg70
(lp1353
g63
(g64
g65
NtRp1354
(dp1355
g68
(dp1356
g76
I4
ssg77
g1350
sg70
(lp1357
S'set([])'
p1358
asbasbasbag63
(g79
g65
NtRp1359
(dp1360
g68
(dp1361
sg77
g1198
sg70
(lp1362
g63
(g84
g65
NtRp1363
(dp1364
g68
(dp1365
g88
g89
ssg77
g1359
sg70
(lp1366
S'debugging'
p1367
asbag63
(g84
g65
NtRp1368
(dp1369
g68
(dp1370
g95
g96
ssg77
g1359
sg70
(lp1371
S':'
asbag63
(g84
g65
NtRp1372
(dp1373
g68
(dp1374
sg77
g1359
sg70
(lp1375
g63
(g64
g65
NtRp1376
(dp1377
g68
(dp1378
g76
I4
ssg77
g1372
sg70
(lp1379
g106
asbasbasbag63
(g79
g65
NtRp1380
(dp1381
g68
(dp1382
sg77
g1198
sg70
(lp1383
g63
(g84
g65
NtRp1384
(dp1385
g68
(dp1386
g88
g89
ssg77
g1380
sg70
(lp1387
S'gluon_parent'
p1388
asbag63
(g84
g65
NtRp1389
(dp1390
g68
(dp1391
g95
g96
ssg77
g1380
sg70
(lp1392
S':'
asbag63
(g84
g65
NtRp1393
(dp1394
g68
(dp1395
sg77
g1380
sg70
(lp1396
g63
(g64
g65
NtRp1397
(dp1398
g68
(dp1399
g76
I4
ssg77
g1393
sg70
(lp1400
S'/home/u4hcsdaw/Python/web2py'
p1401
asbasbasbag63
(g79
g65
NtRp1402
(dp1403
g68
(dp1404
sg77
g1198
sg70
(lp1405
g63
(g84
g65
NtRp1406
(dp1407
g68
(dp1408
g88
g89
ssg77
g1402
sg70
(lp1409
S'http_accept'
p1410
asbag63
(g84
g65
NtRp1411
(dp1412
g68
(dp1413
g95
g96
ssg77
g1402
sg70
(lp1414
S':'
asbag63
(g84
g65
NtRp1415
(dp1416
g68
(dp1417
sg77
g1402
sg70
(lp1418
g63
(g64
g65
NtRp1419
(dp1420
g68
(dp1421
g76
I4
ssg77
g1415
sg70
(lp1422
S'text/html,application/xhtml+xml,application/xml;q=0.9,*/*;q=0.8'
p1423
asbasbasbag63
(g79
g65
NtRp1424
(dp1425
g68
(dp1426
sg77
g1198
sg70
(lp1427
g63
(g84
g65
NtRp1428
(dp1429
g68
(dp1430
g88
g89
ssg77
g1424
sg70
(lp1431
S'http_accept_encoding'
p1432
asbag63
(g84
g65
NtRp1433
(dp1434
g68
(dp1435
g95
g96
ssg77
g1424
sg70
(lp1436
S':'
asbag63
(g84
g65
NtRp1437
(dp1438
g68
(dp1439
sg77
g1424
sg70
(lp1440
g63
(g64
g65
NtRp1441
(dp1442
g68
(dp1443
g76
I4
ssg77
g1437
sg70
(lp1444
S'gzip, deflate'
p1445
asbasbasbag63
(g79
g65
NtRp1446
(dp1447
g68
(dp1448
sg77
g1198
sg70
(lp1449
g63
(g84
g65
NtRp1450
(dp1451
g68
(dp1452
g88
g89
ssg77
g1446
sg70
(lp1453
S'http_accept_language'
p1454
asbag63
(g84
g65
NtRp1455
(dp1456
g68
(dp1457
g95
g96
ssg77
g1446
sg70
(lp1458
S':'
asbag63
(g84
g65
NtRp1459
(dp1460
g68
(dp1461
sg77
g1446
sg70
(lp1462
g63
(g64
g65
NtRp1463
(dp1464
g68
(dp1465
g76
I4
ssg77
g1459
sg70
(lp1466
S'en-us,en;q=0.5'
p1467
asbasbasbag63
(g79
g65
NtRp1468
(dp1469
g68
(dp1470
sg77
g1198
sg70
(lp1471
g63
(g84
g65
NtRp1472
(dp1473
g68
(dp1474
g88
g89
ssg77
g1468
sg70
(lp1475
S'http_cache_control'
p1476
asbag63
(g84
g65
NtRp1477
(dp1478
g68
(dp1479
g95
g96
ssg77
g1468
sg70
(lp1480
S':'
asbag63
(g84
g65
NtRp1481
(dp1482
g68
(dp1483
sg77
g1468
sg70
(lp1484
g63
(g64
g65
NtRp1485
(dp1486
g68
(dp1487
g76
I4
ssg77
g1481
sg70
(lp1488
S'max-age=0'
p1489
asbasbasbag63
(g79
g65
NtRp1490
(dp1491
g68
(dp1492
sg77
g1198
sg70
(lp1493
g63
(g84
g65
NtRp1494
(dp1495
g68
(dp1496
g88
g89
ssg77
g1490
sg70
(lp1497
S'http_connection'
p1498
asbag63
(g84
g65
NtRp1499
(dp1500
g68
(dp1501
g95
g96
ssg77
g1490
sg70
(lp1502
S':'
asbag63
(g84
g65
NtRp1503
(dp1504
g68
(dp1505
sg77
g1490
sg70
(lp1506
g63
(g64
g65
NtRp1507
(dp1508
g68
(dp1509
g76
I4
ssg77
g1503
sg70
(lp1510
S'keep-alive'
p1511
asbasbasbag63
(g79
g65
NtRp1512
(dp1513
g68
(dp1514
sg77
g1198
sg70
(lp1515
g63
(g84
g65
NtRp1516
(dp1517
g68
(dp1518
g88
g89
ssg77
g1512
sg70
(lp1519
S'http_content_length'
p1520
asbag63
(g84
g65
NtRp1521
(dp1522
g68
(dp1523
g95
g96
ssg77
g1512
sg70
(lp1524
S':'
asbag63
(g84
g65
NtRp1525
(dp1526
g68
(dp1527
sg77
g1512
sg70
(lp1528
g63
(g64
g65
NtRp1529
(dp1530
g68
(dp1531
g76
I4
ssg77
g1525
sg70
(lp1532
g1314
asbasbasbag63
(g79
g65
NtRp1533
(dp1534
g68
(dp1535
sg77
g1198
sg70
(lp1536
g63
(g84
g65
NtRp1537
(dp1538
g68
(dp1539
g88
g89
ssg77
g1533
sg70
(lp1540
S'http_content_type'
p1541
asbag63
(g84
g65
NtRp1542
(dp1543
g68
(dp1544
g95
g96
ssg77
g1533
sg70
(lp1545
S':'
asbag63
(g84
g65
NtRp1546
(dp1547
g68
(dp1548
sg77
g1533
sg70
(lp1549
g63
(g64
g65
NtRp1550
(dp1551
g68
(dp1552
g76
I4
ssg77
g1546
sg70
(lp1553
g1336
asbasbasbag63
(g79
g65
NtRp1554
(dp1555
g68
(dp1556
sg77
g1198
sg70
(lp1557
g63
(g84
g65
NtRp1558
(dp1559
g68
(dp1560
g88
g89
ssg77
g1554
sg70
(lp1561
S'http_cookie'
p1562
asbag63
(g84
g65
NtRp1563
(dp1564
g68
(dp1565
g95
g96
ssg77
g1554
sg70
(lp1566
S':'
asbag63
(g84
g65
NtRp1567
(dp1568
g68
(dp1569
sg77
g1554
sg70
(lp1570
g63
(g64
g65
NtRp1571
(dp1572
g68
(dp1573
g76
I4
ssg77
g1567
sg70
(lp1574
S'session_id_welcome=127.0.0.1-12b98747-1fd8-478d-9049-d46630d93557; session_id_dalex1=127.0.0.1-7e0fdc70-88f0-470f-b29d-66b8055bd8b0; session_id_admin=127.0.0.1-b6612ac5-4ad8-4c3c-a00a-ff553923cd64; session_id_aces=127.0.0.1-41cac65c-3668-453b-9ecc-c26f12d379cc; session_id_payperiod=127.0.0.1-9708cb9c-54bb-4c0f-8cf3-5e7899aff001'
p1575
asbasbasbag63
(g79
g65
NtRp1576
(dp1577
g68
(dp1578
sg77
g1198
sg70
(lp1579
g63
(g84
g65
NtRp1580
(dp1581
g68
(dp1582
g88
g89
ssg77
g1576
sg70
(lp1583
S'http_host'
p1584
asbag63
(g84
g65
NtRp1585
(dp1586
g68
(dp1587
g95
g96
ssg77
g1576
sg70
(lp1588
S':'
asbag63
(g84
g65
NtRp1589
(dp1590
g68
(dp1591
sg77
g1576
sg70
(lp1592
g63
(g64
g65
NtRp1593
(dp1594
g68
(dp1595
g76
I4
ssg77
g1589
sg70
(lp1596
S'127.0.0.1:8000'
p1597
asbasbasbag63
(g79
g65
NtRp1598
(dp1599
g68
(dp1600
sg77
g1198
sg70
(lp1601
g63
(g84
g65
NtRp1602
(dp1603
g68
(dp1604
g88
g89
ssg77
g1598
sg70
(lp1605
S'http_referer'
p1606
asbag63
(g84
g65
NtRp1607
(dp1608
g68
(dp1609
g95
g96
ssg77
g1598
sg70
(lp1610
S':'
asbag63
(g84
g65
NtRp1611
(dp1612
g68
(dp1613
sg77
g1598
sg70
(lp1614
g63
(g64
g65
NtRp1615
(dp1616
g68
(dp1617
g76
I4
ssg77
g1611
sg70
(lp1618
S'http://127.0.0.1:8000/ACES/default/index'
p1619
asbasbasbag63
(g79
g65
NtRp1620
(dp1621
g68
(dp1622
sg77
g1198
sg70
(lp1623
g63
(g84
g65
NtRp1624
(dp1625
g68
(dp1626
g88
g89
ssg77
g1620
sg70
(lp1627
S'http_user_agent'
p1628
asbag63
(g84
g65
NtRp1629
(dp1630
g68
(dp1631
g95
g96
ssg77
g1620
sg70
(lp1632
S':'
asbag63
(g84
g65
NtRp1633
(dp1634
g68
(dp1635
sg77
g1620
sg70
(lp1636
g63
(g64
g65
NtRp1637
(dp1638
g68
(dp1639
g76
I4
ssg77
g1633
sg70
(lp1640
S'Mozilla/5.0 (X11; Ubuntu; Linux i686; rv:11.0) Gecko/20100101 Firefox/11.0'
p1641
asbasbasbag63
(g79
g65
NtRp1642
(dp1643
g68
(dp1644
sg77
g1198
sg70
(lp1645
g63
(g84
g65
NtRp1646
(dp1647
g68
(dp1648
g88
g89
ssg77
g1642
sg70
(lp1649
S'is_jython'
p1650
asbag63
(g84
g65
NtRp1651
(dp1652
g68
(dp1653
g95
g96
ssg77
g1642
sg70
(lp1654
S':'
asbag63
(g84
g65
NtRp1655
(dp1656
g68
(dp1657
sg77
g1642
sg70
(lp1658
g63
(g64
g65
NtRp1659
(dp1660
g68
(dp1661
g76
I4
ssg77
g1655
sg70
(lp1662
g106
asbasbasbag63
(g79
g65
NtRp1663
(dp1664
g68
(dp1665
sg77
g1198
sg70
(lp1666
g63
(g84
g65
NtRp1667
(dp1668
g68
(dp1669
g88
g89
ssg77
g1663
sg70
(lp1670
S'path_info'
p1671
asbag63
(g84
g65
NtRp1672
(dp1673
g68
(dp1674
g95
g96
ssg77
g1663
sg70
(lp1675
S':'
asbag63
(g84
g65
NtRp1676
(dp1677
g68
(dp1678
sg77
g1663
sg70
(lp1679
g63
(g64
g65
NtRp1680
(dp1681
g68
(dp1682
g76
I4
ssg77
g1676
sg70
(lp1683
S'/ACES/default/index'
p1684
asbasbasbag63
(g79
g65
NtRp1685
(dp1686
g68
(dp1687
sg77
g1198
sg70
(lp1688
g63
(g84
g65
NtRp1689
(dp1690
g68
(dp1691
g88
g89
ssg77
g1685
sg70
(lp1692
S'query_string'
p1693
asbag63
(g84
g65
NtRp1694
(dp1695
g68
(dp1696
g95
g96
ssg77
g1685
sg70
(lp1697
S':'
asbag63
(g84
g65
NtRp1698
(dp1699
g68
(dp1700
sg77
g1685
sg70
(lp1701
g63
(g64
g65
NtRp1702
(dp1703
g68
(dp1704
g76
I4
ssg77
g1698
sg70
(lp1705
S''
asbasbasbag63
(g79
g65
NtRp1706
(dp1707
g68
(dp1708
sg77
g1198
sg70
(lp1709
g63
(g84
g65
NtRp1710
(dp1711
g68
(dp1712
g88
g89
ssg77
g1706
sg70
(lp1713
S'remote_addr'
p1714
asbag63
(g84
g65
NtRp1715
(dp1716
g68
(dp1717
g95
g96
ssg77
g1706
sg70
(lp1718
S':'
asbag63
(g84
g65
NtRp1719
(dp1720
g68
(dp1721
sg77
g1706
sg70
(lp1722
g63
(g64
g65
NtRp1723
(dp1724
g68
(dp1725
g76
I4
ssg77
g1719
sg70
(lp1726
g196
asbasbasbag63
(g79
g65
NtRp1727
(dp1728
g68
(dp1729
sg77
g1198
sg70
(lp1730
g63
(g84
g65
NtRp1731
(dp1732
g68
(dp1733
g88
g89
ssg77
g1727
sg70
(lp1734
S'remote_port'
p1735
asbag63
(g84
g65
NtRp1736
(dp1737
g68
(dp1738
g95
g96
ssg77
g1727
sg70
(lp1739
S':'
asbag63
(g84
g65
NtRp1740
(dp1741
g68
(dp1742
sg77
g1727
sg70
(lp1743
g63
(g64
g65
NtRp1744
(dp1745
g68
(dp1746
g76
I4
ssg77
g1740
sg70
(lp1747
S'58352'
p1748
asbasbasbag63
(g79
g65
NtRp1749
(dp1750
g68
(dp1751
sg77
g1198
sg70
(lp1752
g63
(g84
g65
NtRp1753
(dp1754
g68
(dp1755
g88
g89
ssg77
g1749
sg70
(lp1756
S'request_method'
p1757
asbag63
(g84
g65
NtRp1758
(dp1759
g68
(dp1760
g95
g96
ssg77
g1749
sg70
(lp1761
S':'
asbag63
(g84
g65
NtRp1762
(dp1763
g68
(dp1764
sg77
g1749
sg70
(lp1765
g63
(g64
g65
NtRp1766
(dp1767
g68
(dp1768
g76
I4
ssg77
g1762
sg70
(lp1769
S'POST'
p1770
asbasbasbag63
(g79
g65
NtRp1771
(dp1772
g68
(dp1773
sg77
g1198
sg70
(lp1774
g63
(g84
g65
NtRp1775
(dp1776
g68
(dp1777
g88
g89
ssg77
g1771
sg70
(lp1778
S'script_name'
p1779
asbag63
(g84
g65
NtRp1780
(dp1781
g68
(dp1782
g95
g96
ssg77
g1771
sg70
(lp1783
S':'
asbag63
(g84
g65
NtRp1784
(dp1785
g68
(dp1786
sg77
g1771
sg70
(lp1787
g63
(g64
g65
NtRp1788
(dp1789
g68
(dp1790
g76
I4
ssg77
g1784
sg70
(lp1791
S''
asbasbasbag63
(g79
g65
NtRp1792
(dp1793
g68
(dp1794
sg77
g1198
sg70
(lp1795
g63
(g84
g65
NtRp1796
(dp1797
g68
(dp1798
g88
g89
ssg77
g1792
sg70
(lp1799
S'server_name'
p1800
asbag63
(g84
g65
NtRp1801
(dp1802
g68
(dp1803
g95
g96
ssg77
g1792
sg70
(lp1804
S':'
asbag63
(g84
g65
NtRp1805
(dp1806
g68
(dp1807
sg77
g1792
sg70
(lp1808
g63
(g64
g65
NtRp1809
(dp1810
g68
(dp1811
g76
I4
ssg77
g1805
sg70
(lp1812
S'CHL-5833E'
p1813
asbasbasbag63
(g79
g65
NtRp1814
(dp1815
g68
(dp1816
sg77
g1198
sg70
(lp1817
g63
(g84
g65
NtRp1818
(dp1819
g68
(dp1820
g88
g89
ssg77
g1814
sg70
(lp1821
S'server_port'
p1822
asbag63
(g84
g65
NtRp1823
(dp1824
g68
(dp1825
g95
g96
ssg77
g1814
sg70
(lp1826
S':'
asbag63
(g84
g65
NtRp1827
(dp1828
g68
(dp1829
sg77
g1814
sg70
(lp1830
g63
(g64
g65
NtRp1831
(dp1832
g68
(dp1833
g76
I4
ssg77
g1827
sg70
(lp1834
S'8000'
p1835
asbasbasbag63
(g79
g65
NtRp1836
(dp1837
g68
(dp1838
sg77
g1198
sg70
(lp1839
g63
(g84
g65
NtRp1840
(dp1841
g68
(dp1842
g88
g89
ssg77
g1836
sg70
(lp1843
S'server_protocol'
p1844
asbag63
(g84
g65
NtRp1845
(dp1846
g68
(dp1847
g95
g96
ssg77
g1836
sg70
(lp1848
S':'
asbag63
(g84
g65
NtRp1849
(dp1850
g68
(dp1851
sg77
g1836
sg70
(lp1852
g63
(g64
g65
NtRp1853
(dp1854
g68
(dp1855
g76
I4
ssg77
g1849
sg70
(lp1856
S'HTTP/1.1'
p1857
asbasbasbag63
(g79
g65
NtRp1858
(dp1859
g68
(dp1860
sg77
g1198
sg70
(lp1861
g63
(g84
g65
NtRp1862
(dp1863
g68
(dp1864
g88
g89
ssg77
g1858
sg70
(lp1865
S'server_software'
p1866
asbag63
(g84
g65
NtRp1867
(dp1868
g68
(dp1869
g95
g96
ssg77
g1858
sg70
(lp1870
S':'
asbag63
(g84
g65
NtRp1871
(dp1872
g68
(dp1873
sg77
g1858
sg70
(lp1874
g63
(g64
g65
NtRp1875
(dp1876
g68
(dp1877
g76
I4
ssg77
g1871
sg70
(lp1878
S'Rocket 1.2.4'
p1879
asbasbasbag63
(g79
g65
NtRp1880
(dp1881
g68
(dp1882
sg77
g1198
sg70
(lp1883
g63
(g84
g65
NtRp1884
(dp1885
g68
(dp1886
g88
g89
ssg77
g1880
sg70
(lp1887
S'web2py_crontype'
p1888
asbag63
(g84
g65
NtRp1889
(dp1890
g68
(dp1891
g95
g96
ssg77
g1880
sg70
(lp1892
S':'
asbag63
(g84
g65
NtRp1893
(dp1894
g68
(dp1895
sg77
g1880
sg70
(lp1896
g63
(g64
g65
NtRp1897
(dp1898
g68
(dp1899
g76
I4
ssg77
g1893
sg70
(lp1900
S'hard'
p1901
asbasbasbag63
(g79
g65
NtRp1902
(dp1903
g68
(dp1904
sg77
g1198
sg70
(lp1905
g63
(g84
g65
NtRp1906
(dp1907
g68
(dp1908
g88
g89
ssg77
g1902
sg70
(lp1909
S'web2py_path'
p1910
asbag63
(g84
g65
NtRp1911
(dp1912
g68
(dp1913
g95
g96
ssg77
g1902
sg70
(lp1914
S':'
asbag63
(g84
g65
NtRp1915
(dp1916
g68
(dp1917
sg77
g1902
sg70
(lp1918
g63
(g64
g65
NtRp1919
(dp1920
g68
(dp1921
g76
I4
ssg77
g1915
sg70
(lp1922
g1245
asbasbasbag63
(g79
g65
NtRp1923
(dp1924
g68
(dp1925
sg77
g1198
sg70
(lp1926
g63
(g84
g65
NtRp1927
(dp1928
g68
(dp1929
g88
g89
ssg77
g1923
sg70
(lp1930
S'web2py_version'
p1931
asbag63
(g84
g65
NtRp1932
(dp1933
g68
(dp1934
g95
g96
ssg77
g1923
sg70
(lp1935
S':'
asbag63
(g84
g65
NtRp1936
(dp1937
g68
(dp1938
sg77
g1923
sg70
(lp1939
g63
(g64
g65
NtRp1940
(dp1941
g68
(dp1942
g76
I4
ssg77
g1936
sg70
(lp1943
g63
(g72
g65
NtRp1944
(dp1945
g68
(dp1946
g76
I3
ssg77
Nsg70
(lp1947
g63
(g79
g65
NtRp1948
(dp1949
g68
(dp1950
sg77
g1944
sg70
(lp1951
g63
(g84
g65
NtRp1952
(dp1953
g68
(dp1954
sg77
g1948
sg70
(lp1955
g63
(g64
g65
NtRp1956
(dp1957
g68
(dp1958
g76
I3
ssg77
g1952
sg70
(lp1959
S'1'
asbasbasbag63
(g79
g65
NtRp1960
(dp1961
g68
(dp1962
sg77
g1944
sg70
(lp1963
g63
(g84
g65
NtRp1964
(dp1965
g68
(dp1966
sg77
g1960
sg70
(lp1967
g63
(g64
g65
NtRp1968
(dp1969
g68
(dp1970
g76
I3
ssg77
g1964
sg70
(lp1971
S'99'
p1972
asbasbasbag63
(g79
g65
NtRp1973
(dp1974
g68
(dp1975
sg77
g1944
sg70
(lp1976
g63
(g84
g65
NtRp1977
(dp1978
g68
(dp1979
sg77
g1973
sg70
(lp1980
g63
(g64
g65
NtRp1981
(dp1982
g68
(dp1983
g76
I3
ssg77
g1977
sg70
(lp1984
S'2'
asbasbasbag63
(g79
g65
NtRp1985
(dp1986
g68
(dp1987
sg77
g1944
sg70
(lp1988
g63
(g84
g65
NtRp1989
(dp1990
g68
(dp1991
sg77
g1985
sg70
(lp1992
g63
(g64
g65
NtRp1993
(dp1994
g68
(dp1995
g76
I3
ssg77
g1989
sg70
(lp1996
S'datetime.datetime(2011, 9, 26, 6, 55, 33)'
p1997
asbasbasbag63
(g79
g65
NtRp1998
(dp1999
g68
(dp2000
sg77
g1944
sg70
(lp2001
g63
(g84
g65
NtRp2002
(dp2003
g68
(dp2004
sg77
g1998
sg70
(lp2005
g63
(g64
g65
NtRp2006
(dp2007
g68
(dp2008
g76
I3
ssg77
g2002
sg70
(lp2009
S'stable'
p2010
asbasbasbasbasbasbasbag63
(g79
g65
NtRp2011
(dp2012
g68
(dp2013
sg77
g1198
sg70
(lp2014
g63
(g84
g65
NtRp2015
(dp2016
g68
(dp2017
g88
g89
ssg77
g2011
sg70
(lp2018
S'wsgi_errors'
p2019
asbag63
(g84
g65
NtRp2020
(dp2021
g68
(dp2022
g95
g96
ssg77
g2011
sg70
(lp2023
S':'
asbag63
(g84
g65
NtRp2024
(dp2025
g68
(dp2026
sg77
g2011
sg70
(lp2027
g63
(g64
g65
NtRp2028
(dp2029
g68
(dp2030
g76
I4
ssg77
g2024
sg70
(lp2031
S"<open file '<stderr>', mode 'w' at 0xb738b0d0>"
p2032
asbasbasbag63
(g79
g65
NtRp2033
(dp2034
g68
(dp2035
sg77
g1198
sg70
(lp2036
g63
(g84
g65
NtRp2037
(dp2038
g68
(dp2039
g88
g89
ssg77
g2033
sg70
(lp2040
S'wsgi_file_wrapper'
p2041
asbag63
(g84
g65
NtRp2042
(dp2043
g68
(dp2044
g95
g96
ssg77
g2033
sg70
(lp2045
S':'
asbag63
(g84
g65
NtRp2046
(dp2047
g68
(dp2048
sg77
g2033
sg70
(lp2049
g63
(g64
g65
NtRp2050
(dp2051
g68
(dp2052
g76
I4
ssg77
g2046
sg70
(lp2053
S'<class wsgiref.util.FileWrapper at 0xa4ce92c>'
p2054
asbasbasbag63
(g79
g65
NtRp2055
(dp2056
g68
(dp2057
sg77
g1198
sg70
(lp2058
g63
(g84
g65
NtRp2059
(dp2060
g68
(dp2061
g88
g89
ssg77
g2055
sg70
(lp2062
S'wsgi_input'
p2063
asbag63
(g84
g65
NtRp2064
(dp2065
g68
(dp2066
g95
g96
ssg77
g2055
sg70
(lp2067
S':'
asbag63
(g84
g65
NtRp2068
(dp2069
g68
(dp2070
sg77
g2055
sg70
(lp2071
g63
(g64
g65
NtRp2072
(dp2073
g68
(dp2074
g76
I4
ssg77
g2068
sg70
(lp2075
S'<socket._fileobject object at 0xa5b3cec>'
p2076
asbasbasbag63
(g79
g65
NtRp2077
(dp2078
g68
(dp2079
sg77
g1198
sg70
(lp2080
g63
(g84
g65
NtRp2081
(dp2082
g68
(dp2083
g88
g89
ssg77
g2077
sg70
(lp2084
S'wsgi_multiprocess'
p2085
asbag63
(g84
g65
NtRp2086
(dp2087
g68
(dp2088
g95
g96
ssg77
g2077
sg70
(lp2089
S':'
asbag63
(g84
g65
NtRp2090
(dp2091
g68
(dp2092
sg77
g2077
sg70
(lp2093
g63
(g64
g65
NtRp2094
(dp2095
g68
(dp2096
g76
I4
ssg77
g2090
sg70
(lp2097
g106
asbasbasbag63
(g79
g65
NtRp2098
(dp2099
g68
(dp2100
sg77
g1198
sg70
(lp2101
g63
(g84
g65
NtRp2102
(dp2103
g68
(dp2104
g88
g89
ssg77
g2098
sg70
(lp2105
S'wsgi_multithread'
p2106
asbag63
(g84
g65
NtRp2107
(dp2108
g68
(dp2109
g95
g96
ssg77
g2098
sg70
(lp2110
S':'
asbag63
(g84
g65
NtRp2111
(dp2112
g68
(dp2113
sg77
g2098
sg70
(lp2114
g63
(g64
g65
NtRp2115
(dp2116
g68
(dp2117
g76
I4
ssg77
g2111
sg70
(lp2118
S'True'
p2119
asbasbasbag63
(g79
g65
NtRp2120
(dp2121
g68
(dp2122
sg77
g1198
sg70
(lp2123
g63
(g84
g65
NtRp2124
(dp2125
g68
(dp2126
g88
g89
ssg77
g2120
sg70
(lp2127
S'wsgi_run_once'
p2128
asbag63
(g84
g65
NtRp2129
(dp2130
g68
(dp2131
g95
g96
ssg77
g2120
sg70
(lp2132
S':'
asbag63
(g84
g65
NtRp2133
(dp2134
g68
(dp2135
sg77
g2120
sg70
(lp2136
g63
(g64
g65
NtRp2137
(dp2138
g68
(dp2139
g76
I4
ssg77
g2133
sg70
(lp2140
g106
asbasbasbag63
(g79
g65
NtRp2141
(dp2142
g68
(dp2143
sg77
g1198
sg70
(lp2144
g63
(g84
g65
NtRp2145
(dp2146
g68
(dp2147
g88
g89
ssg77
g2141
sg70
(lp2148
S'wsgi_url_scheme'
p2149
asbag63
(g84
g65
NtRp2150
(dp2151
g68
(dp2152
g95
g96
ssg77
g2141
sg70
(lp2153
S':'
asbag63
(g84
g65
NtRp2154
(dp2155
g68
(dp2156
sg77
g2141
sg70
(lp2157
g63
(g64
g65
NtRp2158
(dp2159
g68
(dp2160
g76
I4
ssg77
g2154
sg70
(lp2161
S'http'
p2162
asbasbasbag63
(g79
g65
NtRp2163
(dp2164
g68
(dp2165
sg77
g1198
sg70
(lp2166
g63
(g84
g65
NtRp2167
(dp2168
g68
(dp2169
g88
g89
ssg77
g2163
sg70
(lp2170
S'wsgi_version'
p2171
asbag63
(g84
g65
NtRp2172
(dp2173
g68
(dp2174
g95
g96
ssg77
g2163
sg70
(lp2175
S':'
asbag63
(g84
g65
NtRp2176
(dp2177
g68
(dp2178
sg77
g2163
sg70
(lp2179
g63
(g64
g65
NtRp2180
(dp2181
g68
(dp2182
g76
I4
ssg77
g2176
sg70
(lp2183
g63
(g72
g65
NtRp2184
(dp2185
g68
(dp2186
g76
I3
ssg77
Nsg70
(lp2187
g63
(g79
g65
NtRp2188
(dp2189
g68
(dp2190
sg77
g2184
sg70
(lp2191
g63
(g84
g65
NtRp2192
(dp2193
g68
(dp2194
sg77
g2188
sg70
(lp2195
g63
(g64
g65
NtRp2196
(dp2197
g68
(dp2198
g76
I3
ssg77
g2192
sg70
(lp2199
S'1'
asbasbasbag63
(g79
g65
NtRp2200
(dp2201
g68
(dp2202
sg77
g2184
sg70
(lp2203
g63
(g84
g65
NtRp2204
(dp2205
g68
(dp2206
sg77
g2200
sg70
(lp2207
g63
(g64
g65
NtRp2208
(dp2209
g68
(dp2210
g76
I3
ssg77
g2204
sg70
(lp2211
S'0'
asbasbasbasbasbasbasbasbasbasbasbag63
(g79
g65
NtRp2212
(dp2213
g68
(dp2214
sg77
g73
sg70
(lp2215
g63
(g84
g65
NtRp2216
(dp2217
g68
(dp2218
g88
g89
ssg77
g2212
sg70
(lp2219
S'extension'
p2220
asbag63
(g84
g65
NtRp2221
(dp2222
g68
(dp2223
g95
g96
ssg77
g2212
sg70
(lp2224
S':'
asbag63
(g84
g65
NtRp2225
(dp2226
g68
(dp2227
sg77
g2212
sg70
(lp2228
g63
(g64
g65
NtRp2229
(dp2230
g68
(dp2231
g76
I5
ssg77
g2225
sg70
(lp2232
S'html'
p2233
asbasbasbag63
(g79
g65
NtRp2234
(dp2235
g68
(dp2236
sg77
g73
sg70
(lp2237
g63
(g84
g65
NtRp2238
(dp2239
g68
(dp2240
g88
g89
ssg77
g2234
sg70
(lp2241
S'folder'
p2242
asbag63
(g84
g65
NtRp2243
(dp2244
g68
(dp2245
g95
g96
ssg77
g2234
sg70
(lp2246
S':'
asbag63
(g84
g65
NtRp2247
(dp2248
g68
(dp2249
sg77
g2234
sg70
(lp2250
g63
(g64
g65
NtRp2251
(dp2252
g68
(dp2253
g76
I5
ssg77
g2247
sg70
(lp2254
S'/home/u4hcsdaw/Python/web2py/applications/ACES/'
p2255
asbasbasbag63
(g79
g65
NtRp2256
(dp2257
g68
(dp2258
sg77
g73
sg70
(lp2259
g63
(g84
g65
NtRp2260
(dp2261
g68
(dp2262
g88
g89
ssg77
g2256
sg70
(lp2263
S'function'
p2264
asbag63
(g84
g65
NtRp2265
(dp2266
g68
(dp2267
g95
g96
ssg77
g2256
sg70
(lp2268
S':'
asbag63
(g84
g65
NtRp2269
(dp2270
g68
(dp2271
sg77
g2256
sg70
(lp2272
g63
(g64
g65
NtRp2273
(dp2274
g68
(dp2275
g76
I5
ssg77
g2269
sg70
(lp2276
S'index'
p2277
asbasbasbag63
(g79
g65
NtRp2278
(dp2279
g68
(dp2280
sg77
g73
sg70
(lp2281
g63
(g84
g65
NtRp2282
(dp2283
g68
(dp2284
g88
g89
ssg77
g2278
sg70
(lp2285
S'get_vars'
p2286
asbag63
(g84
g65
NtRp2287
(dp2288
g68
(dp2289
g95
g96
ssg77
g2278
sg70
(lp2290
S':'
asbag63
(g84
g65
NtRp2291
(dp2292
g68
(dp2293
sg77
g2278
sg70
(lp2294
g63
(g64
g65
NtRp2295
(dp2296
g68
(dp2297
g76
I5
ssg77
g2291
sg70
(lp2298
g63
(g72
g65
NtRp2299
(dp2300
g68
(dp2301
g76
I4
ssg77
Nsg70
(lp2302
sbasbasbasbag63
(g79
g65
NtRp2303
(dp2304
g68
(dp2305
sg77
g73
sg70
(lp2306
g63
(g84
g65
NtRp2307
(dp2308
g68
(dp2309
g88
g89
ssg77
g2303
sg70
(lp2310
S'global_settings'
p2311
asbag63
(g84
g65
NtRp2312
(dp2313
g68
(dp2314
g95
g96
ssg77
g2303
sg70
(lp2315
S':'
asbag63
(g84
g65
NtRp2316
(dp2317
g68
(dp2318
sg77
g2303
sg70
(lp2319
g63
(g64
g65
NtRp2320
(dp2321
g68
(dp2322
g76
I5
ssg77
g2316
sg70
(lp2323
g63
(g72
g65
NtRp2324
(dp2325
g68
(dp2326
g76
I4
ssg77
Nsg70
(lp2327
g63
(g79
g65
NtRp2328
(dp2329
g68
(dp2330
sg77
g2324
sg70
(lp2331
g63
(g84
g65
NtRp2332
(dp2333
g68
(dp2334
g88
g89
ssg77
g2328
sg70
(lp2335
g1210
asbag63
(g84
g65
NtRp2336
(dp2337
g68
(dp2338
g95
g96
ssg77
g2328
sg70
(lp2339
S':'
asbag63
(g84
g65
NtRp2340
(dp2341
g68
(dp2342
sg77
g2328
sg70
(lp2343
g63
(g64
g65
NtRp2344
(dp2345
g68
(dp2346
g76
I4
ssg77
g2340
sg70
(lp2347
S"set(['/home/u4hcsdaw/Python/web2py/applications/ACES/', '/home/u4hcsdaw/Python/web2py/applications/PayPeriod/', '/home/u4hcsdaw/Python/web2py/applications/admin/', '/home/u4hcsdaw/Python/web2py/applications/welcome/', '/home/u4hcsdaw/Python/web2py/applications/DALEX1/'])"
p2348
asbasbasbag63
(g79
g65
NtRp2349
(dp2350
g68
(dp2351
sg77
g2324
sg70
(lp2352
g63
(g84
g65
NtRp2353
(dp2354
g68
(dp2355
g88
g89
ssg77
g2349
sg70
(lp2356
g1232
asbag63
(g84
g65
NtRp2357
(dp2358
g68
(dp2359
g95
g96
ssg77
g2349
sg70
(lp2360
S':'
asbag63
(g84
g65
NtRp2361
(dp2362
g68
(dp2363
sg77
g2349
sg70
(lp2364
g63
(g64
g65
NtRp2365
(dp2366
g68
(dp2367
g76
I4
ssg77
g2361
sg70
(lp2368
g1245
asbasbasbag63
(g79
g65
NtRp2369
(dp2370
g68
(dp2371
sg77
g2324
sg70
(lp2372
g63
(g84
g65
NtRp2373
(dp2374
g68
(dp2375
g88
g89
ssg77
g2369
sg70
(lp2376
g1254
asbag63
(g84
g65
NtRp2377
(dp2378
g68
(dp2379
g95
g96
ssg77
g2369
sg70
(lp2380
S':'
asbag63
(g84
g65
NtRp2381
(dp2382
g68
(dp2383
sg77
g2369
sg70
(lp2384
g63
(g64
g65
NtRp2385
(dp2386
g68
(dp2387
g76
I4
ssg77
g2381
sg70
(lp2388
g63
(g72
g65
NtRp2389
(dp2390
g68
(dp2391
g76
I3
ssg77
Nsg70
(lp2392
sbasbasbasbag63
(g79
g65
NtRp2393
(dp2394
g68
(dp2395
sg77
g2324
sg70
(lp2396
g63
(g84
g65
NtRp2397
(dp2398
g68
(dp2399
g88
g89
ssg77
g2393
sg70
(lp2400
g1279
asbag63
(g84
g65
NtRp2401
(dp2402
g68
(dp2403
g95
g96
ssg77
g2393
sg70
(lp2404
S':'
asbag63
(g84
g65
NtRp2405
(dp2406
g68
(dp2407
sg77
g2393
sg70
(lp2408
g63
(g64
g65
NtRp2409
(dp2410
g68
(dp2411
g76
I4
ssg77
g2405
sg70
(lp2412
S"<Values at 0xa59ca2c: {'verbose': False, 'ip': '127.0.0.1', 'shutdown_timeout': 5, 'taskbar': False, 'nocron': False, 'pid_filename': 'httpserver.pid', 'maxthreads': None, 'softcron': False, 'server_name': 'CHL-5833E', 'bpython': False, 'nogui': False, 'port': 8000, 'extcron': False, 'debuglevel': 30, 'test': None, 'folder': '/home/u4hcsdaw/Python/web2py', 'config': '', 'import_models': False, 'winservice': '', 'shell': None, 'run': '', 'log_filename': 'httpserver.log', 'args': [''], 'ssl_ca_certificate': None, 'scheduler': None, 'profiler_filename': None, 'ssl_private_key': '', 'password': '<ask>', 'request_queue_size': 5, 'ssl_certificate': '', 'cronjob': False, 'plain': False, 'quiet': False, 'interfaces': None, 'minthreads': None, 'timeout': 10, 'numthreads': None, 'nobanner': False}>"
p2413
asbasbasbag63
(g79
g65
NtRp2414
(dp2415
g68
(dp2416
sg77
g2324
sg70
(lp2417
g63
(g84
g65
NtRp2418
(dp2419
g68
(dp2420
g88
g89
ssg77
g2414
sg70
(lp2421
g1345
asbag63
(g84
g65
NtRp2422
(dp2423
g68
(dp2424
g95
g96
ssg77
g2414
sg70
(lp2425
S':'
asbag63
(g84
g65
NtRp2426
(dp2427
g68
(dp2428
sg77
g2414
sg70
(lp2429
g63
(g64
g65
NtRp2430
(dp2431
g68
(dp2432
g76
I4
ssg77
g2426
sg70
(lp2433
S'set([])'
p2434
asbasbasbag63
(g79
g65
NtRp2435
(dp2436
g68
(dp2437
sg77
g2324
sg70
(lp2438
g63
(g84
g65
NtRp2439
(dp2440
g68
(dp2441
g88
g89
ssg77
g2435
sg70
(lp2442
g1367
asbag63
(g84
g65
NtRp2443
(dp2444
g68
(dp2445
g95
g96
ssg77
g2435
sg70
(lp2446
S':'
asbag63
(g84
g65
NtRp2447
(dp2448
g68
(dp2449
sg77
g2435
sg70
(lp2450
g63
(g64
g65
NtRp2451
(dp2452
g68
(dp2453
g76
I4
ssg77
g2447
sg70
(lp2454
g106
asbasbasbag63
(g79
g65
NtRp2455
(dp2456
g68
(dp2457
sg77
g2324
sg70
(lp2458
g63
(g84
g65
NtRp2459
(dp2460
g68
(dp2461
g88
g89
ssg77
g2455
sg70
(lp2462
g1388
asbag63
(g84
g65
NtRp2463
(dp2464
g68
(dp2465
g95
g96
ssg77
g2455
sg70
(lp2466
S':'
asbag63
(g84
g65
NtRp2467
(dp2468
g68
(dp2469
sg77
g2455
sg70
(lp2470
g63
(g64
g65
NtRp2471
(dp2472
g68
(dp2473
g76
I4
ssg77
g2467
sg70
(lp2474
g1401
asbasbasbag63
(g79
g65
NtRp2475
(dp2476
g68
(dp2477
sg77
g2324
sg70
(lp2478
g63
(g84
g65
NtRp2479
(dp2480
g68
(dp2481
g88
g89
ssg77
g2475
sg70
(lp2482
g1650
asbag63
(g84
g65
NtRp2483
(dp2484
g68
(dp2485
g95
g96
ssg77
g2475
sg70
(lp2486
S':'
asbag63
(g84
g65
NtRp2487
(dp2488
g68
(dp2489
sg77
g2475
sg70
(lp2490
g63
(g64
g65
NtRp2491
(dp2492
g68
(dp2493
g76
I4
ssg77
g2487
sg70
(lp2494
g106
asbasbasbag63
(g79
g65
NtRp2495
(dp2496
g68
(dp2497
sg77
g2324
sg70
(lp2498
g63
(g84
g65
NtRp2499
(dp2500
g68
(dp2501
g88
g89
ssg77
g2495
sg70
(lp2502
g1888
asbag63
(g84
g65
NtRp2503
(dp2504
g68
(dp2505
g95
g96
ssg77
g2495
sg70
(lp2506
S':'
asbag63
(g84
g65
NtRp2507
(dp2508
g68
(dp2509
sg77
g2495
sg70
(lp2510
g63
(g64
g65
NtRp2511
(dp2512
g68
(dp2513
g76
I4
ssg77
g2507
sg70
(lp2514
g1901
asbasbasbag63
(g79
g65
NtRp2515
(dp2516
g68
(dp2517
sg77
g2324
sg70
(lp2518
g63
(g84
g65
NtRp2519
(dp2520
g68
(dp2521
g88
g89
ssg77
g2515
sg70
(lp2522
g1931
asbag63
(g84
g65
NtRp2523
(dp2524
g68
(dp2525
g95
g96
ssg77
g2515
sg70
(lp2526
S':'
asbag63
(g84
g65
NtRp2527
(dp2528
g68
(dp2529
sg77
g2515
sg70
(lp2530
g63
(g64
g65
NtRp2531
(dp2532
g68
(dp2533
g76
I4
ssg77
g2527
sg70
(lp2534
g63
(g72
g65
NtRp2535
(dp2536
g68
(dp2537
g76
I3
ssg77
Nsg70
(lp2538
g63
(g79
g65
NtRp2539
(dp2540
g68
(dp2541
sg77
g2535
sg70
(lp2542
g63
(g84
g65
NtRp2543
(dp2544
g68
(dp2545
sg77
g2539
sg70
(lp2546
g63
(g64
g65
NtRp2547
(dp2548
g68
(dp2549
g76
I3
ssg77
g2543
sg70
(lp2550
S'1'
asbasbasbag63
(g79
g65
NtRp2551
(dp2552
g68
(dp2553
sg77
g2535
sg70
(lp2554
g63
(g84
g65
NtRp2555
(dp2556
g68
(dp2557
sg77
g2551
sg70
(lp2558
g63
(g64
g65
NtRp2559
(dp2560
g68
(dp2561
g76
I3
ssg77
g2555
sg70
(lp2562
S'99'
p2563
asbasbasbag63
(g79
g65
NtRp2564
(dp2565
g68
(dp2566
sg77
g2535
sg70
(lp2567
g63
(g84
g65
NtRp2568
(dp2569
g68
(dp2570
sg77
g2564
sg70
(lp2571
g63
(g64
g65
NtRp2572
(dp2573
g68
(dp2574
g76
I3
ssg77
g2568
sg70
(lp2575
S'2'
asbasbasbag63
(g79
g65
NtRp2576
(dp2577
g68
(dp2578
sg77
g2535
sg70
(lp2579
g63
(g84
g65
NtRp2580
(dp2581
g68
(dp2582
sg77
g2576
sg70
(lp2583
g63
(g64
g65
NtRp2584
(dp2585
g68
(dp2586
g76
I3
ssg77
g2580
sg70
(lp2587
S'datetime.datetime(2011, 9, 26, 6, 55, 33)'
p2588
asbasbasbag63
(g79
g65
NtRp2589
(dp2590
g68
(dp2591
sg77
g2535
sg70
(lp2592
g63
(g84
g65
NtRp2593
(dp2594
g68
(dp2595
sg77
g2589
sg70
(lp2596
g63
(g64
g65
NtRp2597
(dp2598
g68
(dp2599
g76
I3
ssg77
g2593
sg70
(lp2600
g2010
asbasbasbasbasbasbasbasbasbasbasbag63
(g79
g65
NtRp2601
(dp2602
g68
(dp2603
sg77
g73
sg70
(lp2604
g63
(g84
g65
NtRp2605
(dp2606
g68
(dp2607
g88
g89
ssg77
g2601
sg70
(lp2608
S'is_https'
p2609
asbag63
(g84
g65
NtRp2610
(dp2611
g68
(dp2612
g95
g96
ssg77
g2601
sg70
(lp2613
S':'
asbag63
(g84
g65
NtRp2614
(dp2615
g68
(dp2616
sg77
g2601
sg70
(lp2617
g63
(g64
g65
NtRp2618
(dp2619
g68
(dp2620
g76
I5
ssg77
g2614
sg70
(lp2621
g106
asbasbasbag63
(g79
g65
NtRp2622
(dp2623
g68
(dp2624
sg77
g73
sg70
(lp2625
g63
(g84
g65
NtRp2626
(dp2627
g68
(dp2628
g88
g89
ssg77
g2622
sg70
(lp2629
S'is_local'
p2630
asbag63
(g84
g65
NtRp2631
(dp2632
g68
(dp2633
g95
g96
ssg77
g2622
sg70
(lp2634
S':'
asbag63
(g84
g65
NtRp2635
(dp2636
g68
(dp2637
sg77
g2622
sg70
(lp2638
g63
(g64
g65
NtRp2639
(dp2640
g68
(dp2641
g76
I5
ssg77
g2635
sg70
(lp2642
g2119
asbasbasbag63
(g79
g65
NtRp2643
(dp2644
g68
(dp2645
sg77
g73
sg70
(lp2646
g63
(g84
g65
NtRp2647
(dp2648
g68
(dp2649
g88
g89
ssg77
g2643
sg70
(lp2650
S'is_restful'
p2651
asbag63
(g84
g65
NtRp2652
(dp2653
g68
(dp2654
g95
g96
ssg77
g2643
sg70
(lp2655
S':'
asbag63
(g84
g65
NtRp2656
(dp2657
g68
(dp2658
sg77
g2643
sg70
(lp2659
g63
(g64
g65
NtRp2660
(dp2661
g68
(dp2662
g76
I5
ssg77
g2656
sg70
(lp2663
g106
asbasbasbag63
(g79
g65
NtRp2664
(dp2665
g68
(dp2666
sg77
g73
sg70
(lp2667
g63
(g84
g65
NtRp2668
(dp2669
g68
(dp2670
g88
g89
ssg77
g2664
sg70
(lp2671
S'now'
p2672
asbag63
(g84
g65
NtRp2673
(dp2674
g68
(dp2675
g95
g96
ssg77
g2664
sg70
(lp2676
S':'
asbag63
(g84
g65
NtRp2677
(dp2678
g68
(dp2679
sg77
g2664
sg70
(lp2680
g63
(g64
g65
NtRp2681
(dp2682
g68
(dp2683
g76
I5
ssg77
g2677
sg70
(lp2684
S'datetime.datetime(2012, 6, 5, 17, 36, 33, 192586)'
p2685
asbasbasbag63
(g79
g65
NtRp2686
(dp2687
g68
(dp2688
sg77
g73
sg70
(lp2689
g63
(g84
g65
NtRp2690
(dp2691
g68
(dp2692
g88
g89
ssg77
g2686
sg70
(lp2693
S'post_vars'
p2694
asbag63
(g84
g65
NtRp2695
(dp2696
g68
(dp2697
g95
g96
ssg77
g2686
sg70
(lp2698
S':'
asbag63
(g84
g65
NtRp2699
(dp2700
g68
(dp2701
sg77
g2686
sg70
(lp2702
g63
(g64
g65
NtRp2703
(dp2704
g68
(dp2705
g76
I5
ssg77
g2699
sg70
(lp2706
g63
(g72
g65
NtRp2707
(dp2708
g68
(dp2709
g76
I4
ssg77
Nsg70
(lp2710
g63
(g79
g65
NtRp2711
(dp2712
g68
(dp2713
sg77
g2707
sg70
(lp2714
g63
(g84
g65
NtRp2715
(dp2716
g68
(dp2717
g88
g89
ssg77
g2711
sg70
(lp2718
S'subButton'
p2719
asbag63
(g84
g65
NtRp2720
(dp2721
g68
(dp2722
g95
g96
ssg77
g2711
sg70
(lp2723
S':'
asbag63
(g84
g65
NtRp2724
(dp2725
g68
(dp2726
sg77
g2711
sg70
(lp2727
g63
(g64
g65
NtRp2728
(dp2729
g68
(dp2730
g76
I4
ssg77
g2724
sg70
(lp2731
S'Submit Query'
p2732
asbasbasbag63
(g79
g65
NtRp2733
(dp2734
g68
(dp2735
sg77
g2707
sg70
(lp2736
g63
(g84
g65
NtRp2737
(dp2738
g68
(dp2739
g88
g89
ssg77
g2733
sg70
(lp2740
S'waveHeight'
p2741
asbag63
(g84
g65
NtRp2742
(dp2743
g68
(dp2744
g95
g96
ssg77
g2733
sg70
(lp2745
S':'
asbag63
(g84
g65
NtRp2746
(dp2747
g68
(dp2748
sg77
g2733
sg70
(lp2749
g63
(g64
g65
NtRp2750
(dp2751
g68
(dp2752
g76
I4
ssg77
g2746
sg70
(lp2753
S'0.85'
p2754
asbasbasbasbasbasbasbag63
(g79
g65
NtRp2755
(dp2756
g68
(dp2757
sg77
g73
sg70
(lp2758
g63
(g84
g65
NtRp2759
(dp2760
g68
(dp2761
g88
g89
ssg77
g2755
sg70
(lp2762
S'url'
p2763
asbag63
(g84
g65
NtRp2764
(dp2765
g68
(dp2766
g95
g96
ssg77
g2755
sg70
(lp2767
S':'
asbag63
(g84
g65
NtRp2768
(dp2769
g68
(dp2770
sg77
g2755
sg70
(lp2771
g63
(g64
g65
NtRp2772
(dp2773
g68
(dp2774
g76
I5
ssg77
g2768
sg70
(lp2775
S'/ACES/default/index'
p2776
asbasbasbag63
(g79
g65
NtRp2777
(dp2778
g68
(dp2779
sg77
g73
sg70
(lp2780
g63
(g84
g65
NtRp2781
(dp2782
g68
(dp2783
g88
g89
ssg77
g2777
sg70
(lp2784
S'utcnow'
p2785
asbag63
(g84
g65
NtRp2786
(dp2787
g68
(dp2788
g95
g96
ssg77
g2777
sg70
(lp2789
S':'
asbag63
(g84
g65
NtRp2790
(dp2791
g68
(dp2792
sg77
g2777
sg70
(lp2793
g63
(g64
g65
NtRp2794
(dp2795
g68
(dp2796
g76
I5
ssg77
g2790
sg70
(lp2797
S'datetime.datetime(2012, 6, 5, 22, 36, 33, 192618)'
p2798
asbasbasbag63
(g79
g65
NtRp2799
(dp2800
g68
(dp2801
sg77
g73
sg70
(lp2802
g63
(g84
g65
NtRp2803
(dp2804
g68
(dp2805
g88
g89
ssg77
g2799
sg70
(lp2806
S'uuid'
p2807
asbag63
(g84
g65
NtRp2808
(dp2809
g68
(dp2810
g95
g96
ssg77
g2799
sg70
(lp2811
S':'
asbag63
(g84
g65
NtRp2812
(dp2813
g68
(dp2814
sg77
g2799
sg70
(lp2815
g63
(g64
g65
NtRp2816
(dp2817
g68
(dp2818
g76
I5
ssg77
g2812
sg70
(lp2819
S'ACES/127.0.0.1.2012-06-05.17-36-33.ab4ab36c-f810-4bb7-a96f-e3925e9e6c87'
p2820
asbasbasbag63
(g79
g65
NtRp2821
(dp2822
g68
(dp2823
sg77
g73
sg70
(lp2824
g63
(g84
g65
NtRp2825
(dp2826
g68
(dp2827
g88
g89
ssg77
g2821
sg70
(lp2828
S'vars'
p2829
asbag63
(g84
g65
NtRp2830
(dp2831
g68
(dp2832
g95
g96
ssg77
g2821
sg70
(lp2833
S':'
asbag63
(g84
g65
NtRp2834
(dp2835
g68
(dp2836
sg77
g2821
sg70
(lp2837
g63
(g64
g65
NtRp2838
(dp2839
g68
(dp2840
g76
I5
ssg77
g2834
sg70
(lp2841
g63
(g72
g65
NtRp2842
(dp2843
g68
(dp2844
g76
I4
ssg77
Nsg70
(lp2845
g63
(g79
g65
NtRp2846
(dp2847
g68
(dp2848
sg77
g2842
sg70
(lp2849
g63
(g84
g65
NtRp2850
(dp2851
g68
(dp2852
g88
g89
ssg77
g2846
sg70
(lp2853
g2719
asbag63
(g84
g65
NtRp2854
(dp2855
g68
(dp2856
g95
g96
ssg77
g2846
sg70
(lp2857
S':'
asbag63
(g84
g65
NtRp2858
(dp2859
g68
(dp2860
sg77
g2846
sg70
(lp2861
g63
(g64
g65
NtRp2862
(dp2863
g68
(dp2864
g76
I4
ssg77
g2858
sg70
(lp2865
g2732
asbasbasbag63
(g79
g65
NtRp2866
(dp2867
g68
(dp2868
sg77
g2842
sg70
(lp2869
g63
(g84
g65
NtRp2870
(dp2871
g68
(dp2872
g88
g89
ssg77
g2866
sg70
(lp2873
g2741
asbag63
(g84
g65
NtRp2874
(dp2875
g68
(dp2876
g95
g96
ssg77
g2866
sg70
(lp2877
S':'
asbag63
(g84
g65
NtRp2878
(dp2879
g68
(dp2880
sg77
g2866
sg70
(lp2881
g63
(g64
g65
NtRp2882
(dp2883
g68
(dp2884
g76
I4
ssg77
g2878
sg70
(lp2885
g2754
asbasbasbasbasbasbasbag63
(g79
g65
NtRp2886
(dp2887
g68
(dp2888
sg77
g73
sg70
(lp2889
g63
(g84
g65
NtRp2890
(dp2891
g68
(dp2892
g88
g89
ssg77
g2886
sg70
(lp2893
S'wsgi'
p2894
asbag63
(g84
g65
NtRp2895
(dp2896
g68
(dp2897
g95
g96
ssg77
g2886
sg70
(lp2898
S':'
asbag63
(g84
g65
NtRp2899
(dp2900
g68
(dp2901
sg77
g2886
sg70
(lp2902
g63
(g64
g65
NtRp2903
(dp2904
g68
(dp2905
g76
I5
ssg77
g2899
sg70
(lp2906
g63
(g72
g65
NtRp2907
(dp2908
g68
(dp2909
g76
I4
ssg77
Nsg70
(lp2910
g63
(g79
g65
NtRp2911
(dp2912
g68
(dp2913
sg77
g2907
sg70
(lp2914
g63
(g84
g65
NtRp2915
(dp2916
g68
(dp2917
g88
g89
ssg77
g2911
sg70
(lp2918
S'environ'
p2919
asbag63
(g84
g65
NtRp2920
(dp2921
g68
(dp2922
g95
g96
ssg77
g2911
sg70
(lp2923
S':'
asbag63
(g84
g65
NtRp2924
(dp2925
g68
(dp2926
sg77
g2911
sg70
(lp2927
g63
(g64
g65
NtRp2928
(dp2929
g68
(dp2930
g76
I4
ssg77
g2924
sg70
(lp2931
g63
(g72
g65
NtRp2932
(dp2933
g68
(dp2934
g76
I3
ssg77
Nsg70
(lp2935
g63
(g79
g65
NtRp2936
(dp2937
g68
(dp2938
sg77
g2932
sg70
(lp2939
g63
(g84
g65
NtRp2940
(dp2941
g68
(dp2942
g88
g89
ssg77
g2936
sg70
(lp2943
S'CONTENT_LENGTH'
p2944
asbag63
(g84
g65
NtRp2945
(dp2946
g68
(dp2947
g95
g96
ssg77
g2936
sg70
(lp2948
S':'
asbag63
(g84
g65
NtRp2949
(dp2950
g68
(dp2951
sg77
g2936
sg70
(lp2952
g63
(g64
g65
NtRp2953
(dp2954
g68
(dp2955
g76
I3
ssg77
g2949
sg70
(lp2956
g1314
asbasbasbag63
(g79
g65
NtRp2957
(dp2958
g68
(dp2959
sg77
g2932
sg70
(lp2960
g63
(g84
g65
NtRp2961
(dp2962
g68
(dp2963
g88
g89
ssg77
g2957
sg70
(lp2964
S'CONTENT_TYPE'
p2965
asbag63
(g84
g65
NtRp2966
(dp2967
g68
(dp2968
g95
g96
ssg77
g2957
sg70
(lp2969
S':'
asbag63
(g84
g65
NtRp2970
(dp2971
g68
(dp2972
sg77
g2957
sg70
(lp2973
g63
(g64
g65
NtRp2974
(dp2975
g68
(dp2976
g76
I3
ssg77
g2970
sg70
(lp2977
g1336
asbasbasbag63
(g79
g65
NtRp2978
(dp2979
g68
(dp2980
sg77
g2932
sg70
(lp2981
g63
(g84
g65
NtRp2982
(dp2983
g68
(dp2984
g88
g89
ssg77
g2978
sg70
(lp2985
S'HTTP_ACCEPT'
p2986
asbag63
(g84
g65
NtRp2987
(dp2988
g68
(dp2989
g95
g96
ssg77
g2978
sg70
(lp2990
S':'
asbag63
(g84
g65
NtRp2991
(dp2992
g68
(dp2993
sg77
g2978
sg70
(lp2994
g63
(g64
g65
NtRp2995
(dp2996
g68
(dp2997
g76
I3
ssg77
g2991
sg70
(lp2998
g1423
asbasbasbag63
(g79
g65
NtRp2999
(dp3000
g68
(dp3001
sg77
g2932
sg70
(lp3002
g63
(g84
g65
NtRp3003
(dp3004
g68
(dp3005
g88
g89
ssg77
g2999
sg70
(lp3006
S'HTTP_ACCEPT_ENCODING'
p3007
asbag63
(g84
g65
NtRp3008
(dp3009
g68
(dp3010
g95
g96
ssg77
g2999
sg70
(lp3011
S':'
asbag63
(g84
g65
NtRp3012
(dp3013
g68
(dp3014
sg77
g2999
sg70
(lp3015
g63
(g64
g65
NtRp3016
(dp3017
g68
(dp3018
g76
I3
ssg77
g3012
sg70
(lp3019
g1445
asbasbasbag63
(g79
g65
NtRp3020
(dp3021
g68
(dp3022
sg77
g2932
sg70
(lp3023
g63
(g84
g65
NtRp3024
(dp3025
g68
(dp3026
g88
g89
ssg77
g3020
sg70
(lp3027
S'HTTP_ACCEPT_LANGUAGE'
p3028
asbag63
(g84
g65
NtRp3029
(dp3030
g68
(dp3031
g95
g96
ssg77
g3020
sg70
(lp3032
S':'
asbag63
(g84
g65
NtRp3033
(dp3034
g68
(dp3035
sg77
g3020
sg70
(lp3036
g63
(g64
g65
NtRp3037
(dp3038
g68
(dp3039
g76
I3
ssg77
g3033
sg70
(lp3040
g1467
asbasbasbag63
(g79
g65
NtRp3041
(dp3042
g68
(dp3043
sg77
g2932
sg70
(lp3044
g63
(g84
g65
NtRp3045
(dp3046
g68
(dp3047
g88
g89
ssg77
g3041
sg70
(lp3048
S'HTTP_CACHE_CONTROL'
p3049
asbag63
(g84
g65
NtRp3050
(dp3051
g68
(dp3052
g95
g96
ssg77
g3041
sg70
(lp3053
S':'
asbag63
(g84
g65
NtRp3054
(dp3055
g68
(dp3056
sg77
g3041
sg70
(lp3057
g63
(g64
g65
NtRp3058
(dp3059
g68
(dp3060
g76
I3
ssg77
g3054
sg70
(lp3061
g1489
asbasbasbag63
(g79
g65
NtRp3062
(dp3063
g68
(dp3064
sg77
g2932
sg70
(lp3065
g63
(g84
g65
NtRp3066
(dp3067
g68
(dp3068
g88
g89
ssg77
g3062
sg70
(lp3069
S'HTTP_CONNECTION'
p3070
asbag63
(g84
g65
NtRp3071
(dp3072
g68
(dp3073
g95
g96
ssg77
g3062
sg70
(lp3074
S':'
asbag63
(g84
g65
NtRp3075
(dp3076
g68
(dp3077
sg77
g3062
sg70
(lp3078
g63
(g64
g65
NtRp3079
(dp3080
g68
(dp3081
g76
I3
ssg77
g3075
sg70
(lp3082
g1511
asbasbasbag63
(g79
g65
NtRp3083
(dp3084
g68
(dp3085
sg77
g2932
sg70
(lp3086
g63
(g84
g65
NtRp3087
(dp3088
g68
(dp3089
g88
g89
ssg77
g3083
sg70
(lp3090
S'HTTP_CONTENT_LENGTH'
p3091
asbag63
(g84
g65
NtRp3092
(dp3093
g68
(dp3094
g95
g96
ssg77
g3083
sg70
(lp3095
S':'
asbag63
(g84
g65
NtRp3096
(dp3097
g68
(dp3098
sg77
g3083
sg70
(lp3099
g63
(g64
g65
NtRp3100
(dp3101
g68
(dp3102
g76
I3
ssg77
g3096
sg70
(lp3103
g1314
asbasbasbag63
(g79
g65
NtRp3104
(dp3105
g68
(dp3106
sg77
g2932
sg70
(lp3107
g63
(g84
g65
NtRp3108
(dp3109
g68
(dp3110
g88
g89
ssg77
g3104
sg70
(lp3111
S'HTTP_CONTENT_TYPE'
p3112
asbag63
(g84
g65
NtRp3113
(dp3114
g68
(dp3115
g95
g96
ssg77
g3104
sg70
(lp3116
S':'
asbag63
(g84
g65
NtRp3117
(dp3118
g68
(dp3119
sg77
g3104
sg70
(lp3120
g63
(g64
g65
NtRp3121
(dp3122
g68
(dp3123
g76
I3
ssg77
g3117
sg70
(lp3124
g1336
asbasbasbag63
(g79
g65
NtRp3125
(dp3126
g68
(dp3127
sg77
g2932
sg70
(lp3128
g63
(g84
g65
NtRp3129
(dp3130
g68
(dp3131
g88
g89
ssg77
g3125
sg70
(lp3132
S'HTTP_COOKIE'
p3133
asbag63
(g84
g65
NtRp3134
(dp3135
g68
(dp3136
g95
g96
ssg77
g3125
sg70
(lp3137
S':'
asbag63
(g84
g65
NtRp3138
(dp3139
g68
(dp3140
sg77
g3125
sg70
(lp3141
g63
(g64
g65
NtRp3142
(dp3143
g68
(dp3144
g76
I3
ssg77
g3138
sg70
(lp3145
g1575
asbasbasbag63
(g79
g65
NtRp3146
(dp3147
g68
(dp3148
sg77
g2932
sg70
(lp3149
g63
(g84
g65
NtRp3150
(dp3151
g68
(dp3152
g88
g89
ssg77
g3146
sg70
(lp3153
S'HTTP_HOST'
p3154
asbag63
(g84
g65
NtRp3155
(dp3156
g68
(dp3157
g95
g96
ssg77
g3146
sg70
(lp3158
S':'
asbag63
(g84
g65
NtRp3159
(dp3160
g68
(dp3161
sg77
g3146
sg70
(lp3162
g63
(g64
g65
NtRp3163
(dp3164
g68
(dp3165
g76
I3
ssg77
g3159
sg70
(lp3166
g1597
asbasbasbag63
(g79
g65
NtRp3167
(dp3168
g68
(dp3169
sg77
g2932
sg70
(lp3170
g63
(g84
g65
NtRp3171
(dp3172
g68
(dp3173
g88
g89
ssg77
g3167
sg70
(lp3174
S'HTTP_REFERER'
p3175
asbag63
(g84
g65
NtRp3176
(dp3177
g68
(dp3178
g95
g96
ssg77
g3167
sg70
(lp3179
S':'
asbag63
(g84
g65
NtRp3180
(dp3181
g68
(dp3182
sg77
g3167
sg70
(lp3183
g63
(g64
g65
NtRp3184
(dp3185
g68
(dp3186
g76
I3
ssg77
g3180
sg70
(lp3187
g1619
asbasbasbag63
(g79
g65
NtRp3188
(dp3189
g68
(dp3190
sg77
g2932
sg70
(lp3191
g63
(g84
g65
NtRp3192
(dp3193
g68
(dp3194
g88
g89
ssg77
g3188
sg70
(lp3195
S'HTTP_USER_AGENT'
p3196
asbag63
(g84
g65
NtRp3197
(dp3198
g68
(dp3199
g95
g96
ssg77
g3188
sg70
(lp3200
S':'
asbag63
(g84
g65
NtRp3201
(dp3202
g68
(dp3203
sg77
g3188
sg70
(lp3204
g63
(g64
g65
NtRp3205
(dp3206
g68
(dp3207
g76
I3
ssg77
g3201
sg70
(lp3208
g1641
asbasbasbag63
(g79
g65
NtRp3209
(dp3210
g68
(dp3211
sg77
g2932
sg70
(lp3212
g63
(g84
g65
NtRp3213
(dp3214
g68
(dp3215
g88
g89
ssg77
g3209
sg70
(lp3216
S'PATH_INFO'
p3217
asbag63
(g84
g65
NtRp3218
(dp3219
g68
(dp3220
g95
g96
ssg77
g3209
sg70
(lp3221
S':'
asbag63
(g84
g65
NtRp3222
(dp3223
g68
(dp3224
sg77
g3209
sg70
(lp3225
g63
(g64
g65
NtRp3226
(dp3227
g68
(dp3228
g76
I3
ssg77
g3222
sg70
(lp3229
g1684
asbasbasbag63
(g79
g65
NtRp3230
(dp3231
g68
(dp3232
sg77
g2932
sg70
(lp3233
g63
(g84
g65
NtRp3234
(dp3235
g68
(dp3236
g88
g89
ssg77
g3230
sg70
(lp3237
S'QUERY_STRING'
p3238
asbag63
(g84
g65
NtRp3239
(dp3240
g68
(dp3241
g95
g96
ssg77
g3230
sg70
(lp3242
S':'
asbag63
(g84
g65
NtRp3243
(dp3244
g68
(dp3245
sg77
g3230
sg70
(lp3246
g63
(g64
g65
NtRp3247
(dp3248
g68
(dp3249
g76
I3
ssg77
g3243
sg70
(lp3250
S''
asbasbasbag63
(g79
g65
NtRp3251
(dp3252
g68
(dp3253
sg77
g2932
sg70
(lp3254
g63
(g84
g65
NtRp3255
(dp3256
g68
(dp3257
g88
g89
ssg77
g3251
sg70
(lp3258
S'REMOTE_ADDR'
p3259
asbag63
(g84
g65
NtRp3260
(dp3261
g68
(dp3262
g95
g96
ssg77
g3251
sg70
(lp3263
S':'
asbag63
(g84
g65
NtRp3264
(dp3265
g68
(dp3266
sg77
g3251
sg70
(lp3267
g63
(g64
g65
NtRp3268
(dp3269
g68
(dp3270
g76
I3
ssg77
g3264
sg70
(lp3271
g196
asbasbasbag63
(g79
g65
NtRp3272
(dp3273
g68
(dp3274
sg77
g2932
sg70
(lp3275
g63
(g84
g65
NtRp3276
(dp3277
g68
(dp3278
g88
g89
ssg77
g3272
sg70
(lp3279
S'REMOTE_PORT'
p3280
asbag63
(g84
g65
NtRp3281
(dp3282
g68
(dp3283
g95
g96
ssg77
g3272
sg70
(lp3284
S':'
asbag63
(g84
g65
NtRp3285
(dp3286
g68
(dp3287
sg77
g3272
sg70
(lp3288
g63
(g64
g65
NtRp3289
(dp3290
g68
(dp3291
g76
I3
ssg77
g3285
sg70
(lp3292
g1748
asbasbasbag63
(g79
g65
NtRp3293
(dp3294
g68
(dp3295
sg77
g2932
sg70
(lp3296
g63
(g84
g65
NtRp3297
(dp3298
g68
(dp3299
g88
g89
ssg77
g3293
sg70
(lp3300
S'REQUEST_METHOD'
p3301
asbag63
(g84
g65
NtRp3302
(dp3303
g68
(dp3304
g95
g96
ssg77
g3293
sg70
(lp3305
S':'
asbag63
(g84
g65
NtRp3306
(dp3307
g68
(dp3308
sg77
g3293
sg70
(lp3309
g63
(g64
g65
NtRp3310
(dp3311
g68
(dp3312
g76
I3
ssg77
g3306
sg70
(lp3313
g1770
asbasbasbag63
(g79
g65
NtRp3314
(dp3315
g68
(dp3316
sg77
g2932
sg70
(lp3317
g63
(g84
g65
NtRp3318
(dp3319
g68
(dp3320
g88
g89
ssg77
g3314
sg70
(lp3321
S'SCRIPT_NAME'
p3322
asbag63
(g84
g65
NtRp3323
(dp3324
g68
(dp3325
g95
g96
ssg77
g3314
sg70
(lp3326
S':'
asbag63
(g84
g65
NtRp3327
(dp3328
g68
(dp3329
sg77
g3314
sg70
(lp3330
g63
(g64
g65
NtRp3331
(dp3332
g68
(dp3333
g76
I3
ssg77
g3327
sg70
(lp3334
S''
asbasbasbag63
(g79
g65
NtRp3335
(dp3336
g68
(dp3337
sg77
g2932
sg70
(lp3338
g63
(g84
g65
NtRp3339
(dp3340
g68
(dp3341
g88
g89
ssg77
g3335
sg70
(lp3342
S'SERVER_NAME'
p3343
asbag63
(g84
g65
NtRp3344
(dp3345
g68
(dp3346
g95
g96
ssg77
g3335
sg70
(lp3347
S':'
asbag63
(g84
g65
NtRp3348
(dp3349
g68
(dp3350
sg77
g3335
sg70
(lp3351
g63
(g64
g65
NtRp3352
(dp3353
g68
(dp3354
g76
I3
ssg77
g3348
sg70
(lp3355
g1813
asbasbasbag63
(g79
g65
NtRp3356
(dp3357
g68
(dp3358
sg77
g2932
sg70
(lp3359
g63
(g84
g65
NtRp3360
(dp3361
g68
(dp3362
g88
g89
ssg77
g3356
sg70
(lp3363
S'SERVER_PORT'
p3364
asbag63
(g84
g65
NtRp3365
(dp3366
g68
(dp3367
g95
g96
ssg77
g3356
sg70
(lp3368
S':'
asbag63
(g84
g65
NtRp3369
(dp3370
g68
(dp3371
sg77
g3356
sg70
(lp3372
g63
(g64
g65
NtRp3373
(dp3374
g68
(dp3375
g76
I3
ssg77
g3369
sg70
(lp3376
g1835
asbasbasbag63
(g79
g65
NtRp3377
(dp3378
g68
(dp3379
sg77
g2932
sg70
(lp3380
g63
(g84
g65
NtRp3381
(dp3382
g68
(dp3383
g88
g89
ssg77
g3377
sg70
(lp3384
S'SERVER_PROTOCOL'
p3385
asbag63
(g84
g65
NtRp3386
(dp3387
g68
(dp3388
g95
g96
ssg77
g3377
sg70
(lp3389
S':'
asbag63
(g84
g65
NtRp3390
(dp3391
g68
(dp3392
sg77
g3377
sg70
(lp3393
g63
(g64
g65
NtRp3394
(dp3395
g68
(dp3396
g76
I3
ssg77
g3390
sg70
(lp3397
g1857
asbasbasbag63
(g79
g65
NtRp3398
(dp3399
g68
(dp3400
sg77
g2932
sg70
(lp3401
g63
(g84
g65
NtRp3402
(dp3403
g68
(dp3404
g88
g89
ssg77
g3398
sg70
(lp3405
S'SERVER_SOFTWARE'
p3406
asbag63
(g84
g65
NtRp3407
(dp3408
g68
(dp3409
g95
g96
ssg77
g3398
sg70
(lp3410
S':'
asbag63
(g84
g65
NtRp3411
(dp3412
g68
(dp3413
sg77
g3398
sg70
(lp3414
g63
(g64
g65
NtRp3415
(dp3416
g68
(dp3417
g76
I3
ssg77
g3411
sg70
(lp3418
g1879
asbasbasbag63
(g79
g65
NtRp3419
(dp3420
g68
(dp3421
sg77
g2932
sg70
(lp3422
g63
(g84
g65
NtRp3423
(dp3424
g68
(dp3425
g88
g89
ssg77
g3419
sg70
(lp3426
S'wsgi.errors'
p3427
asbag63
(g84
g65
NtRp3428
(dp3429
g68
(dp3430
g95
g96
ssg77
g3419
sg70
(lp3431
S':'
asbag63
(g84
g65
NtRp3432
(dp3433
g68
(dp3434
sg77
g3419
sg70
(lp3435
g63
(g64
g65
NtRp3436
(dp3437
g68
(dp3438
g76
I3
ssg77
g3432
sg70
(lp3439
S"<open file '<stderr>', mode 'w' at 0xb738b0d0>"
p3440
asbasbasbag63
(g79
g65
NtRp3441
(dp3442
g68
(dp3443
sg77
g2932
sg70
(lp3444
g63
(g84
g65
NtRp3445
(dp3446
g68
(dp3447
g88
g89
ssg77
g3441
sg70
(lp3448
S'wsgi.file_wrapper'
p3449
asbag63
(g84
g65
NtRp3450
(dp3451
g68
(dp3452
g95
g96
ssg77
g3441
sg70
(lp3453
S':'
asbag63
(g84
g65
NtRp3454
(dp3455
g68
(dp3456
sg77
g3441
sg70
(lp3457
g63
(g64
g65
NtRp3458
(dp3459
g68
(dp3460
g76
I3
ssg77
g3454
sg70
(lp3461
S'<class wsgiref.util.FileWrapper at 0xa4ce92c>'
p3462
asbasbasbag63
(g79
g65
NtRp3463
(dp3464
g68
(dp3465
sg77
g2932
sg70
(lp3466
g63
(g84
g65
NtRp3467
(dp3468
g68
(dp3469
g88
g89
ssg77
g3463
sg70
(lp3470
S'wsgi.input'
p3471
asbag63
(g84
g65
NtRp3472
(dp3473
g68
(dp3474
g95
g96
ssg77
g3463
sg70
(lp3475
S':'
asbag63
(g84
g65
NtRp3476
(dp3477
g68
(dp3478
sg77
g3463
sg70
(lp3479
g63
(g64
g65
NtRp3480
(dp3481
g68
(dp3482
g76
I3
ssg77
g3476
sg70
(lp3483
S"<open file '<fdopen>', mode 'w+b' at 0xa8cfd30>"
p3484
asbasbasbag63
(g79
g65
NtRp3485
(dp3486
g68
(dp3487
sg77
g2932
sg70
(lp3488
g63
(g84
g65
NtRp3489
(dp3490
g68
(dp3491
g88
g89
ssg77
g3485
sg70
(lp3492
S'wsgi.multiprocess'
p3493
asbag63
(g84
g65
NtRp3494
(dp3495
g68
(dp3496
g95
g96
ssg77
g3485
sg70
(lp3497
S':'
asbag63
(g84
g65
NtRp3498
(dp3499
g68
(dp3500
sg77
g3485
sg70
(lp3501
g63
(g64
g65
NtRp3502
(dp3503
g68
(dp3504
g76
I3
ssg77
g3498
sg70
(lp3505
g106
asbasbasbag63
(g79
g65
NtRp3506
(dp3507
g68
(dp3508
sg77
g2932
sg70
(lp3509
g63
(g84
g65
NtRp3510
(dp3511
g68
(dp3512
g88
g89
ssg77
g3506
sg70
(lp3513
S'wsgi.multithread'
p3514
asbag63
(g84
g65
NtRp3515
(dp3516
g68
(dp3517
g95
g96
ssg77
g3506
sg70
(lp3518
S':'
asbag63
(g84
g65
NtRp3519
(dp3520
g68
(dp3521
sg77
g3506
sg70
(lp3522
g63
(g64
g65
NtRp3523
(dp3524
g68
(dp3525
g76
I3
ssg77
g3519
sg70
(lp3526
g2119
asbasbasbag63
(g79
g65
NtRp3527
(dp3528
g68
(dp3529
sg77
g2932
sg70
(lp3530
g63
(g84
g65
NtRp3531
(dp3532
g68
(dp3533
g88
g89
ssg77
g3527
sg70
(lp3534
S'wsgi.run_once'
p3535
asbag63
(g84
g65
NtRp3536
(dp3537
g68
(dp3538
g95
g96
ssg77
g3527
sg70
(lp3539
S':'
asbag63
(g84
g65
NtRp3540
(dp3541
g68
(dp3542
sg77
g3527
sg70
(lp3543
g63
(g64
g65
NtRp3544
(dp3545
g68
(dp3546
g76
I3
ssg77
g3540
sg70
(lp3547
g106
asbasbasbag63
(g79
g65
NtRp3548
(dp3549
g68
(dp3550
sg77
g2932
sg70
(lp3551
g63
(g84
g65
NtRp3552
(dp3553
g68
(dp3554
g88
g89
ssg77
g3548
sg70
(lp3555
S'wsgi.url_scheme'
p3556
asbag63
(g84
g65
NtRp3557
(dp3558
g68
(dp3559
g95
g96
ssg77
g3548
sg70
(lp3560
S':'
asbag63
(g84
g65
NtRp3561
(dp3562
g68
(dp3563
sg77
g3548
sg70
(lp3564
g63
(g64
g65
NtRp3565
(dp3566
g68
(dp3567
g76
I3
ssg77
g3561
sg70
(lp3568
g2162
asbasbasbag63
(g79
g65
NtRp3569
(dp3570
g68
(dp3571
sg77
g2932
sg70
(lp3572
g63
(g84
g65
NtRp3573
(dp3574
g68
(dp3575
g88
g89
ssg77
g3569
sg70
(lp3576
S'wsgi.version'
p3577
asbag63
(g84
g65
NtRp3578
(dp3579
g68
(dp3580
g95
g96
ssg77
g3569
sg70
(lp3581
S':'
asbag63
(g84
g65
NtRp3582
(dp3583
g68
(dp3584
sg77
g3569
sg70
(lp3585
g63
(g64
g65
NtRp3586
(dp3587
g68
(dp3588
g76
I3
ssg77
g3582
sg70
(lp3589
S'1'
asbasbasbasbasbasbasbasbasbasbasbasbasbsS'frames'
p3590
(lp3591
(dp3592
S'file'
p3593
S'/home/u4hcsdaw/Python/web2py/gluon/restricted.py'
p3594
sS'dump'
p3595
(dp3596
S'environment'
p3597
S"{'A': <class 'gluon.html.A'>, 'AcesCall': <function AcesCall>, 'Auth': <class 'gluon.tools.Auth'>, 'B': <class 'gluon.html.B'>, 'BEAUTIFY': <class 'gluon.html.BEAUTIFY'>, 'BODY': <class 'gluon.html.BODY'>, 'BR': <class 'gluon.html.BR'>, 'BUTTON': <class 'gluon.html.BUTTON'>, 'CAT': <class 'gluon.html.CAT'>, 'CENTER': <class 'gluon.html.CENTER'>, ...}"
p3598
sS'ccode'
p3599
S'<code object <module> at 0xab0da40, file "/home/...plications/ACES/controllers/default.py", line 12>'
p3600
ssS'lnum'
p3601
I194
sS'lines'
p3602
(dp3603
I192
S'        else:'
p3604
sI193
S'            ccode = compile2(code,layer)'
p3605
sI194
S'        exec ccode in environment'
p3606
sI195
S'    except HTTP:'
p3607
sI196
S'        raise'
p3608
sI197
S'    except Exception, error:'
p3609
sI198
S'        # XXX Show exception in Wing IDE if running in debugger'
p3610
sI189
S'    try:'
p3611
sI190
S'        if type(code) == types.CodeType:'
p3612
sI191
S'            ccode = code'
p3613
ssS'call'
p3614
S"(code='# -*- coding: utf-8 -*-\\n# this file is released ...=crud())\\n\\nresponse._vars=response._caller(index)\\n', environment={'A': <class 'gluon.html.A'>, 'AcesCall': <function AcesCall>, 'Auth': <class 'gluon.tools.Auth'>, 'B': <class 'gluon.html.B'>, 'BEAUTIFY': <class 'gluon.html.BEAUTIFY'>, 'BODY': <class 'gluon.html.BODY'>, 'BR': <class 'gluon.html.BR'>, 'BUTTON': <class 'gluon.html.BUTTON'>, 'CAT': <class 'gluon.html.CAT'>, 'CENTER': <class 'gluon.html.CENTER'>, ...}, layer='/home/u4hcsdaw/Python/web2py/applications/ACES/controllers/default.py')"
p3615
sS'func'
p3616
S'restricted'
p3617
sa(dp3618
g3593
S'/home/u4hcsdaw/Python/web2py/applications/ACES/controllers/default.py'
p3619
sg3595
(dp3620
sg3601
I83
sg3602
(dp3621
I72
S'    http://..../[app]/default/data/update/[table]/[id]'
p3622
sI73
S'    http://..../[app]/default/data/delete/[table]/[id]'
p3623
sI74
S'    http://..../[app]/default/data/select/[table]'
p3624
sI75
S'    http://..../[app]/default/data/search/[table]'
p3625
sI76
S'    but URLs bust be signed, i.e. linked with'
p3626
sI77
S"      A('table',_href=URL('data/tables',user_signature=True))"
p3627
sI78
S'    or with the signed load operator'
p3628
sI79
S"      LOAD('default','data.load',args='tables',ajax=True,user_signature=True)"
p3629
sI80
S'    """'
p3630
sI81
S'    return dict(form=crud())'
p3631
ssg3614
S'()'
p3632
sg3616
S'<module>'
p3633
sa(dp3634
g3593
S'/home/u4hcsdaw/Python/web2py/gluon/globals.py'
p3635
sg3595
(dp3636
S'self'
p3637
S'undefined'
p3638
sS'f'
S'<function index>'
p3639
ssg3601
I149
sg3602
(dp3640
I144
S'        self.meta = Storage()      # used by web2py_ajax.html'
p3641
sI145
S'        self.menu = []             # used by the default view layout'
p3642
sI146
S'        self.files = []            # used by web2py_ajax.html'
p3643
sI147
S'        self.generic_patterns = [] # patterns to allow generic views'
p3644
sI148
S'        self._vars = None'
p3645
sI149
S'        self._caller = lambda f: f()'
p3646
sI150
S'        self._view_environment = None'
p3647
sI151
S'        self._custom_commit = None'
p3648
sI152
S'        self._custom_rollback = None'
p3649
sI153
S''
ssg3614
S'(f=<function index>)'
p3650
sg3616
S'<lambda>'
p3651
sa(dp3652
g3593
S'/home/u4hcsdaw/Python/web2py/applications/ACES/controllers/default.py'
p3653
sg3595
(dp3654
S'global AcesCall'
p3655
S'<function AcesCall>'
p3656
sS'f1'
p3657
S'<gluon.html.FORM object>'
p3658
sS'f1.vars'
p3659
S"<Storage {'waveHeight': '0.85', 'subButton': 'Submit Query'}>"
p3660
sS't0'
p3661
S"''"
p3662
ssg3601
I27
sg3602
(dp3663
I22
S"    ip1=INPUT(_type='text', _name='waveHeight', _value='0.85')"
p3664
sI23
S"    sub1=INPUT(_type='submit',_name='subButton')"
p3665
sI24
S"    f1=FORM('wave',ip1,sub1,_name='Form1',_action='')"
p3666
sI25
S'    if f1.accepts(request.vars,session):'
p3667
sI26
S'        session.formVars=f1.vars'
p3668
sI27
S'        t0=AcesCall(f1.vars)'
p3669
sI28
S"        img1=IMG(_src=URL('static','images/Waves.svg?'+nowS))"
p3670
sI29
S'    return dict(form=f1,t0=t0,img1=img1)'
p3671
sI30
S''
sI31
S'def user():'
p3672
ssg3614
S'()'
p3673
sg3616
S'index'
p3674
sa(dp3675
g3593
S'/home/u4hcsdaw/Python/web2py/applications/ACES/models/functionsAces.py'
p3676
sg3595
(dp3677
S'res'
p3678
g3638
sS'comm'
p3679
S'[\'octave -q --eval "H=0.85" \', \'applications/ACES/Waves/linear_wave_theory.m\']'
p3680
sS'subprocess.call'
p3681
S'<function call>'
p3682
sS'subprocess'
p3683
S"<module 'subprocess' from '/home/u4hcsdaw/Python/epd/lib/python2.7/subprocess.pyc'>"
p3684
ssg3601
I9
sg3602
(dp3685
I3
S'    import subprocess'
p3686
sI4
S''
sI5
S"    WaveHeight=formVars['waveHeight']"
p3687
sI6
S"    ##WavePeriod=formVars['wavePeriod'] or 9.0"
p3688
sI7
S'    EvalString=\'octave -q --eval "H=%(H)s" \' % dict(H=WaveHeight)'
p3689
sI8
S"    comm=[EvalString,'applications/ACES/Waves/linear_wave_theory.m']"
p3690
sI9
S'    res=subprocess.call(comm)'
p3691
sI10
S"    retString='%s %s' %(WaveHeight,res)"
p3692
sI11
S''
sI12
S'    return retString'
p3693
ssg3614
S"(formVars=<Storage {'waveHeight': '0.85', 'subButton': 'Submit Query'}>)"
p3694
sg3616
S'AcesCall'
p3695
sa(dp3696
g3593
S'/home/u4hcsdaw/Python/epd/lib/python2.7/subprocess.py'
p3697
sg3595
(dp3698
S').wait'
p3699
g3638
sS'global Popen'
p3700
S"<class 'subprocess.Popen'>"
p3701
sS'popenargs'
p3702
S'([\'octave -q --eval "H=0.85" \', \'applications/ACES/Waves/linear_wave_theory.m\'],)'
p3703
sS'kwargs'
p3704
S'{}'
p3705
ssg3601
I493
sg3602
(dp3706
I488
S''
sI489
S'    The arguments are the same as for the Popen constructor.  Example:'
p3707
sI490
S''
sI491
S'    retcode = call(["ls", "-l"])'
p3708
sI492
S'    """'
p3709
sI493
S'    return Popen(*popenargs, **kwargs).wait()'
p3710
sI494
S''
sI495
S''
sI496
S'def check_call(*popenargs, **kwargs):'
p3711
sI497
S'    """Run command with arguments.  Wait for command to complete.  If'
p3712
ssg3614
S'(*popenargs=([\'octave -q --eval "H=0.85" \', \'applications/ACES/Waves/linear_wave_theory.m\'],), **kwargs={})'
p3713
sg3616
g3614
sa(dp3714
g3593
S'/home/u4hcsdaw/Python/epd/lib/python2.7/subprocess.py'
p3715
sg3595
(dp3716
S'errwrite'
p3717
S'None'
p3718
sS'errread'
p3719
S'None'
p3720
ssg3601
I679
sg3602
(dp3721
I674
S'        self._execute_child(args, executable, preexec_fn, close_fds,'
p3722
sI675
S'                            cwd, env, universal_newlines,'
p3723
sI676
S'                            startupinfo, creationflags, shell,'
p3724
sI677
S'                            p2cread, p2cwrite,'
p3725
sI678
S'                            c2pread, c2pwrite,'
p3726
sI679
S'                            errread, errwrite)'
p3727
sI680
S''
sI681
S'        if mswindows:'
p3728
sI682
S'            if p2cwrite is not None:'
p3729
sI683
S'                p2cwrite = msvcrt.open_osfhandle(p2cwrite.Detach(), 0)'
p3730
ssg3614
S'(self=<subprocess.Popen object>, args=[\'octave -q --eval "H=0.85" \', \'applications/ACES/Waves/linear_wave_theory.m\'], bufsize=0, executable=None, stdin=None, stdout=None, stderr=None, preexec_fn=None, close_fds=False, shell=False, cwd=None, env=None, universal_newlines=False, startupinfo=None, creationflags=0)'
p3731
sg3616
g21
sa(dp3732
g3593
S'/home/u4hcsdaw/Python/epd/lib/python2.7/subprocess.py'
p3733
sg3595
(dp3734
S'child_exception'
p3735
S"OSError(2, 'No such file or directory')"
p3736
ssg3601
I1249
sg3602
(dp3737
I1248
S'                        os.close(fd)'
p3738
sI1249
S'                raise child_exception'
p3739
sI1250
S''
sI1251
S''
sI1252
S'        def _handle_exitstatus(self, sts, _WIFSIGNALED=os.WIFSIGNALED,'
p3740
sI1253
S'                _WTERMSIG=os.WTERMSIG, _WIFEXITED=os.WIFEXITED,'
p3741
sI1244
S'                        raise'
p3742
sI1245
S'                child_exception = pickle.loads(data)'
p3743
sI1246
S'                for fd in (p2cwrite, c2pread, errread):'
p3744
sI1247
S'                    if fd is not None:'
p3745
ssg3614
S'(self=<subprocess.Popen object>, args=[\'octave -q --eval "H=0.85" \', \'applications/ACES/Waves/linear_wave_theory.m\'], executable=\'octave -q --eval "H=0.85" \', preexec_fn=None, close_fds=False, cwd=None, env=None, universal_newlines=False, startupinfo=None, creationflags=0, shell=False, p2cread=None, p2cwrite=None, c2pread=None, c2pwrite=None, errread=None, errwrite=None)'
p3746
sg3616
S'_execute_child'
p3747
sasS'pyver'
p3748
S'Python 2.7.3: /home/u4hcsdaw/Python/epd/bin/python2.7'
p3749
sS'session'
p3750
g63
(g64
g65
NtRp3751
(dp3752
g68
(dp3753
sg70
(lp3754
g63
(g72
g65
NtRp3755
(dp3756
g68
(dp3757
g76
I5
ssg77
Nsg70
(lp3758
g63
(g79
g65
NtRp3759
(dp3760
g68
(dp3761
sg77
g3755
sg70
(lp3762
g63
(g84
g65
NtRp3763
(dp3764
g68
(dp3765
g88
g89
ssg77
g3759
sg70
(lp3766
S'formVars'
p3767
asbag63
(g84
g65
NtRp3768
(dp3769
g68
(dp3770
g95
g96
ssg77
g3759
sg70
(lp3771
S':'
asbag63
(g84
g65
NtRp3772
(dp3773
g68
(dp3774
sg77
g3759
sg70
(lp3775
g63
(g64
g65
NtRp3776
(dp3777
g68
(dp3778
g76
I5
ssg77
g3772
sg70
(lp3779
g63
(g72
g65
NtRp3780
(dp3781
g68
(dp3782
g76
I4
ssg77
Nsg70
(lp3783
g63
(g79
g65
NtRp3784
(dp3785
g68
(dp3786
sg77
g3780
sg70
(lp3787
g63
(g84
g65
NtRp3788
(dp3789
g68
(dp3790
g88
g89
ssg77
g3784
sg70
(lp3791
S'subButton'
p3792
asbag63
(g84
g65
NtRp3793
(dp3794
g68
(dp3795
g95
g96
ssg77
g3784
sg70
(lp3796
S':'
asbag63
(g84
g65
NtRp3797
(dp3798
g68
(dp3799
sg77
g3784
sg70
(lp3800
g63
(g64
g65
NtRp3801
(dp3802
g68
(dp3803
g76
I4
ssg77
g3797
sg70
(lp3804
g2732
asbasbasbag63
(g79
g65
NtRp3805
(dp3806
g68
(dp3807
sg77
g3780
sg70
(lp3808
g63
(g84
g65
NtRp3809
(dp3810
g68
(dp3811
g88
g89
ssg77
g3805
sg70
(lp3812
S'waveHeight'
p3813
asbag63
(g84
g65
NtRp3814
(dp3815
g68
(dp3816
g95
g96
ssg77
g3805
sg70
(lp3817
S':'
asbag63
(g84
g65
NtRp3818
(dp3819
g68
(dp3820
sg77
g3805
sg70
(lp3821
g63
(g64
g65
NtRp3822
(dp3823
g68
(dp3824
g76
I4
ssg77
g3818
sg70
(lp3825
g2754
asbasbasbasbasbasbasbasbasbsS'etype'
p3826
S"<type 'exceptions.OSError'>"
p3827
sS'date'
p3828
S'Tue Jun  5 17:36:33 2012'
p3829
sS'response'
p3830
g63
(g64
g65
NtRp3831
(dp3832
g68
(dp3833
sg70
(lp3834
g63
(g72
g65
NtRp3835
(dp3836
g68
(dp3837
g76
I5
ssg77
Nsg70
(lp3838
g63
(g79
g65
NtRp3839
(dp3840
g68
(dp3841
sg77
g3835
sg70
(lp3842
g63
(g84
g65
NtRp3843
(dp3844
g68
(dp3845
g88
g89
ssg77
g3839
sg70
(lp3846
g161
asbag63
(g84
g65
NtRp3847
(dp3848
g68
(dp3849
g95
g96
ssg77
g3839
sg70
(lp3850
S':'
asbag63
(g84
g65
NtRp3851
(dp3852
g68
(dp3853
sg77
g3839
sg70
(lp3854
g63
(g64
g65
NtRp3855
(dp3856
g68
(dp3857
g76
I5
ssg77
g3851
sg70
(lp3858
S'<cStringIO.StringO object at 0xb2a9260>'
p3859
asbasbasbag63
(g79
g65
NtRp3860
(dp3861
g68
(dp3862
sg77
g3835
sg70
(lp3863
g63
(g84
g65
NtRp3864
(dp3865
g68
(dp3866
g88
g89
ssg77
g3860
sg70
(lp3867
g227
asbag63
(g84
g65
NtRp3868
(dp3869
g68
(dp3870
g95
g96
ssg77
g3860
sg70
(lp3871
S':'
asbag63
(g84
g65
NtRp3872
(dp3873
g68
(dp3874
sg77
g3860
sg70
(lp3875
g63
(g64
g65
NtRp3876
(dp3877
g68
(dp3878
g76
I5
ssg77
g3872
sg70
(lp3879
g63
(g72
g65
NtRp3880
(dp3881
g68
(dp3882
g76
I4
ssg77
Nsg70
(lp3883
g63
(g79
g65
NtRp3884
(dp3885
g68
(dp3886
sg77
g3880
sg70
(lp3887
g63
(g84
g65
NtRp3888
(dp3889
g68
(dp3890
g88
g89
ssg77
g3884
sg70
(lp3891
S'session_id_aces'
p3892
asbag63
(g84
g65
NtRp3893
(dp3894
g68
(dp3895
g95
g96
ssg77
g3884
sg70
(lp3896
S':'
asbag63
(g84
g65
NtRp3897
(dp3898
g68
(dp3899
sg77
g3884
sg70
(lp3900
g63
(g64
g65
NtRp3901
(dp3902
g68
(dp3903
g76
I4
ssg77
g3897
sg70
(lp3904
g63
(g72
g65
NtRp3905
(dp3906
g68
(dp3907
g76
I3
ssg77
Nsg70
(lp3908
g63
(g79
g65
NtRp3909
(dp3910
g68
(dp3911
sg77
g3905
sg70
(lp3912
g63
(g84
g65
NtRp3913
(dp3914
g68
(dp3915
g88
g89
ssg77
g3909
sg70
(lp3916
g277
asbag63
(g84
g65
NtRp3917
(dp3918
g68
(dp3919
g95
g96
ssg77
g3909
sg70
(lp3920
S':'
asbag63
(g84
g65
NtRp3921
(dp3922
g68
(dp3923
sg77
g3909
sg70
(lp3924
g63
(g64
g65
NtRp3925
(dp3926
g68
(dp3927
g76
I3
ssg77
g3921
sg70
(lp3928
S''
asbasbasbag63
(g79
g65
NtRp3929
(dp3930
g68
(dp3931
sg77
g3905
sg70
(lp3932
g63
(g84
g65
NtRp3933
(dp3934
g68
(dp3935
g88
g89
ssg77
g3929
sg70
(lp3936
g298
asbag63
(g84
g65
NtRp3937
(dp3938
g68
(dp3939
g95
g96
ssg77
g3929
sg70
(lp3940
S':'
asbag63
(g84
g65
NtRp3941
(dp3942
g68
(dp3943
sg77
g3929
sg70
(lp3944
g63
(g64
g65
NtRp3945
(dp3946
g68
(dp3947
g76
I3
ssg77
g3941
sg70
(lp3948
S''
asbasbasbag63
(g79
g65
NtRp3949
(dp3950
g68
(dp3951
sg77
g3905
sg70
(lp3952
g63
(g84
g65
NtRp3953
(dp3954
g68
(dp3955
g88
g89
ssg77
g3949
sg70
(lp3956
g319
asbag63
(g84
g65
NtRp3957
(dp3958
g68
(dp3959
g95
g96
ssg77
g3949
sg70
(lp3960
S':'
asbag63
(g84
g65
NtRp3961
(dp3962
g68
(dp3963
sg77
g3949
sg70
(lp3964
g63
(g64
g65
NtRp3965
(dp3966
g68
(dp3967
g76
I3
ssg77
g3961
sg70
(lp3968
S''
asbasbasbag63
(g79
g65
NtRp3969
(dp3970
g68
(dp3971
sg77
g3905
sg70
(lp3972
g63
(g84
g65
NtRp3973
(dp3974
g68
(dp3975
g88
g89
ssg77
g3969
sg70
(lp3976
g340
asbag63
(g84
g65
NtRp3977
(dp3978
g68
(dp3979
g95
g96
ssg77
g3969
sg70
(lp3980
S':'
asbag63
(g84
g65
NtRp3981
(dp3982
g68
(dp3983
sg77
g3969
sg70
(lp3984
g63
(g64
g65
NtRp3985
(dp3986
g68
(dp3987
g76
I3
ssg77
g3981
sg70
(lp3988
S''
asbasbasbag63
(g79
g65
NtRp3989
(dp3990
g68
(dp3991
sg77
g3905
sg70
(lp3992
g63
(g84
g65
NtRp3993
(dp3994
g68
(dp3995
g88
g89
ssg77
g3989
sg70
(lp3996
g361
asbag63
(g84
g65
NtRp3997
(dp3998
g68
(dp3999
g95
g96
ssg77
g3989
sg70
(lp4000
S':'
asbag63
(g84
g65
NtRp4001
(dp4002
g68
(dp4003
sg77
g3989
sg70
(lp4004
g63
(g64
g65
NtRp4005
(dp4006
g68
(dp4007
g76
I3
ssg77
g4001
sg70
(lp4008
S''
asbasbasbag63
(g79
g65
NtRp4009
(dp4010
g68
(dp4011
sg77
g3905
sg70
(lp4012
g63
(g84
g65
NtRp4013
(dp4014
g68
(dp4015
g88
g89
ssg77
g4009
sg70
(lp4016
g382
asbag63
(g84
g65
NtRp4017
(dp4018
g68
(dp4019
g95
g96
ssg77
g4009
sg70
(lp4020
S':'
asbag63
(g84
g65
NtRp4021
(dp4022
g68
(dp4023
sg77
g4009
sg70
(lp4024
g63
(g64
g65
NtRp4025
(dp4026
g68
(dp4027
g76
I3
ssg77
g4021
sg70
(lp4028
S'/'
asbasbasbag63
(g79
g65
NtRp4029
(dp4030
g68
(dp4031
sg77
g3905
sg70
(lp4032
g63
(g84
g65
NtRp4033
(dp4034
g68
(dp4035
g88
g89
ssg77
g4029
sg70
(lp4036
g403
asbag63
(g84
g65
NtRp4037
(dp4038
g68
(dp4039
g95
g96
ssg77
g4029
sg70
(lp4040
S':'
asbag63
(g84
g65
NtRp4041
(dp4042
g68
(dp4043
sg77
g4029
sg70
(lp4044
g63
(g64
g65
NtRp4045
(dp4046
g68
(dp4047
g76
I3
ssg77
g4041
sg70
(lp4048
S''
asbasbasbag63
(g79
g65
NtRp4049
(dp4050
g68
(dp4051
sg77
g3905
sg70
(lp4052
g63
(g84
g65
NtRp4053
(dp4054
g68
(dp4055
g88
g89
ssg77
g4049
sg70
(lp4056
g424
asbag63
(g84
g65
NtRp4057
(dp4058
g68
(dp4059
g95
g96
ssg77
g4049
sg70
(lp4060
S':'
asbag63
(g84
g65
NtRp4061
(dp4062
g68
(dp4063
sg77
g4049
sg70
(lp4064
g63
(g64
g65
NtRp4065
(dp4066
g68
(dp4067
g76
I3
ssg77
g4061
sg70
(lp4068
S''
asbasbasbasbasbasbasbasbasbasbasbag63
(g79
g65
NtRp4069
(dp4070
g68
(dp4071
sg77
g3835
sg70
(lp4072
g63
(g84
g65
NtRp4073
(dp4074
g68
(dp4075
g88
g89
ssg77
g4069
sg70
(lp4076
S'files'
p4077
asbag63
(g84
g65
NtRp4078
(dp4079
g68
(dp4080
g95
g96
ssg77
g4069
sg70
(lp4081
S':'
asbag63
(g84
g65
NtRp4082
(dp4083
g68
(dp4084
sg77
g4069
sg70
(lp4085
g63
(g64
g65
NtRp4086
(dp4087
g68
(dp4088
g76
I5
ssg77
g4082
sg70
(lp4089
g63
(g72
g65
NtRp4090
(dp4091
g68
(dp4092
g76
I4
ssg77
Nsg70
(lp4093
sbasbasbasbag63
(g79
g65
NtRp4094
(dp4095
g68
(dp4096
sg77
g3835
sg70
(lp4097
g63
(g84
g65
NtRp4098
(dp4099
g68
(dp4100
g88
g89
ssg77
g4094
sg70
(lp4101
S'flash'
p4102
asbag63
(g84
g65
NtRp4103
(dp4104
g68
(dp4105
g95
g96
ssg77
g4094
sg70
(lp4106
S':'
asbag63
(g84
g65
NtRp4107
(dp4108
g68
(dp4109
sg77
g4094
sg70
(lp4110
g63
(g64
g65
NtRp4111
(dp4112
g68
(dp4113
g76
I5
ssg77
g4107
sg70
(lp4114
S''
asbasbasbag63
(g79
g65
NtRp4115
(dp4116
g68
(dp4117
sg77
g3835
sg70
(lp4118
g63
(g84
g65
NtRp4119
(dp4120
g68
(dp4121
g88
g89
ssg77
g4115
sg70
(lp4122
S'generic_patterns'
p4123
asbag63
(g84
g65
NtRp4124
(dp4125
g68
(dp4126
g95
g96
ssg77
g4115
sg70
(lp4127
S':'
asbag63
(g84
g65
NtRp4128
(dp4129
g68
(dp4130
sg77
g4115
sg70
(lp4131
g63
(g64
g65
NtRp4132
(dp4133
g68
(dp4134
g76
I5
ssg77
g4128
sg70
(lp4135
g63
(g72
g65
NtRp4136
(dp4137
g68
(dp4138
g76
I4
ssg77
Nsg70
(lp4139
g63
(g79
g65
NtRp4140
(dp4141
g68
(dp4142
sg77
g4136
sg70
(lp4143
g63
(g84
g65
NtRp4144
(dp4145
g68
(dp4146
sg77
g4140
sg70
(lp4147
g63
(g64
g65
NtRp4148
(dp4149
g68
(dp4150
g76
I4
ssg77
g4144
sg70
(lp4151
S'*'
asbasbasbasbasbasbasbag63
(g79
g65
NtRp4152
(dp4153
g68
(dp4154
sg77
g3835
sg70
(lp4155
g63
(g84
g65
NtRp4156
(dp4157
g68
(dp4158
g88
g89
ssg77
g4152
sg70
(lp4159
S'headers'
p4160
asbag63
(g84
g65
NtRp4161
(dp4162
g68
(dp4163
g95
g96
ssg77
g4152
sg70
(lp4164
S':'
asbag63
(g84
g65
NtRp4165
(dp4166
g68
(dp4167
sg77
g4152
sg70
(lp4168
g63
(g64
g65
NtRp4169
(dp4170
g68
(dp4171
g76
I5
ssg77
g4165
sg70
(lp4172
g63
(g72
g65
NtRp4173
(dp4174
g68
(dp4175
g76
I4
ssg77
Nsg70
(lp4176
g63
(g79
g65
NtRp4177
(dp4178
g68
(dp4179
sg77
g4173
sg70
(lp4180
g63
(g84
g65
NtRp4181
(dp4182
g68
(dp4183
g88
g89
ssg77
g4177
sg70
(lp4184
S'Cache-Control'
p4185
asbag63
(g84
g65
NtRp4186
(dp4187
g68
(dp4188
g95
g96
ssg77
g4177
sg70
(lp4189
S':'
asbag63
(g84
g65
NtRp4190
(dp4191
g68
(dp4192
sg77
g4177
sg70
(lp4193
g63
(g64
g65
NtRp4194
(dp4195
g68
(dp4196
g76
I4
ssg77
g4190
sg70
(lp4197
S'no-store, no-cache, must-revalidate, post-check=0, pre-check=0'
p4198
asbasbasbag63
(g79
g65
NtRp4199
(dp4200
g68
(dp4201
sg77
g4173
sg70
(lp4202
g63
(g84
g65
NtRp4203
(dp4204
g68
(dp4205
g88
g89
ssg77
g4199
sg70
(lp4206
S'Content-Type'
p4207
asbag63
(g84
g65
NtRp4208
(dp4209
g68
(dp4210
g95
g96
ssg77
g4199
sg70
(lp4211
S':'
asbag63
(g84
g65
NtRp4212
(dp4213
g68
(dp4214
sg77
g4199
sg70
(lp4215
g63
(g64
g65
NtRp4216
(dp4217
g68
(dp4218
g76
I4
ssg77
g4212
sg70
(lp4219
S'text/html; charset=utf-8'
p4220
asbasbasbag63
(g79
g65
NtRp4221
(dp4222
g68
(dp4223
sg77
g4173
sg70
(lp4224
g63
(g84
g65
NtRp4225
(dp4226
g68
(dp4227
g88
g89
ssg77
g4221
sg70
(lp4228
S'Expires'
p4229
asbag63
(g84
g65
NtRp4230
(dp4231
g68
(dp4232
g95
g96
ssg77
g4221
sg70
(lp4233
S':'
asbag63
(g84
g65
NtRp4234
(dp4235
g68
(dp4236
sg77
g4221
sg70
(lp4237
g63
(g64
g65
NtRp4238
(dp4239
g68
(dp4240
g76
I4
ssg77
g4234
sg70
(lp4241
S'Tue, 05 Jun 2012 22:36:33 GMT'
p4242
asbasbasbag63
(g79
g65
NtRp4243
(dp4244
g68
(dp4245
sg77
g4173
sg70
(lp4246
g63
(g84
g65
NtRp4247
(dp4248
g68
(dp4249
g88
g89
ssg77
g4243
sg70
(lp4250
S'Pragma'
p4251
asbag63
(g84
g65
NtRp4252
(dp4253
g68
(dp4254
g95
g96
ssg77
g4243
sg70
(lp4255
S':'
asbag63
(g84
g65
NtRp4256
(dp4257
g68
(dp4258
sg77
g4243
sg70
(lp4259
g63
(g64
g65
NtRp4260
(dp4261
g68
(dp4262
g76
I4
ssg77
g4256
sg70
(lp4263
S'no-cache'
p4264
asbasbasbag63
(g79
g65
NtRp4265
(dp4266
g68
(dp4267
sg77
g4173
sg70
(lp4268
g63
(g84
g65
NtRp4269
(dp4270
g68
(dp4271
g88
g89
ssg77
g4265
sg70
(lp4272
S'X-Powered-By'
p4273
asbag63
(g84
g65
NtRp4274
(dp4275
g68
(dp4276
g95
g96
ssg77
g4265
sg70
(lp4277
S':'
asbag63
(g84
g65
NtRp4278
(dp4279
g68
(dp4280
sg77
g4265
sg70
(lp4281
g63
(g64
g65
NtRp4282
(dp4283
g68
(dp4284
g76
I4
ssg77
g4278
sg70
(lp4285
S'web2py'
p4286
asbasbasbasbasbasbasbag63
(g79
g65
NtRp4287
(dp4288
g68
(dp4289
sg77
g3835
sg70
(lp4290
g63
(g84
g65
NtRp4291
(dp4292
g68
(dp4293
g88
g89
ssg77
g4287
sg70
(lp4294
S'menu'
p4295
asbag63
(g84
g65
NtRp4296
(dp4297
g68
(dp4298
g95
g96
ssg77
g4287
sg70
(lp4299
S':'
asbag63
(g84
g65
NtRp4300
(dp4301
g68
(dp4302
sg77
g4287
sg70
(lp4303
g63
(g64
g65
NtRp4304
(dp4305
g68
(dp4306
g76
I5
ssg77
g4300
sg70
(lp4307
g63
(g72
g65
NtRp4308
(dp4309
g68
(dp4310
g76
I4
ssg77
Nsg70
(lp4311
g63
(g79
g65
NtRp4312
(dp4313
g68
(dp4314
sg77
g4308
sg70
(lp4315
g63
(g84
g65
NtRp4316
(dp4317
g68
(dp4318
sg77
g4312
sg70
(lp4319
g63
(g64
g65
NtRp4320
(dp4321
g68
(dp4322
g76
I4
ssg77
g4316
sg70
(lp4323
g63
(g72
g65
NtRp4324
(dp4325
g68
(dp4326
g76
I3
ssg77
Nsg70
(lp4327
g63
(g79
g65
NtRp4328
(dp4329
g68
(dp4330
sg77
g4324
sg70
(lp4331
g63
(g84
g65
NtRp4332
(dp4333
g68
(dp4334
sg77
g4328
sg70
(lp4335
g63
(g64
g65
NtRp4336
(dp4337
g68
(dp4338
g76
I3
ssg77
g4332
sg70
(lp4339
cgluon.languages
lazyT_unpickle
p4340
(S't\x04\x00\x00\x00Home'
tRp4341
asbasbasbag63
(g79
g65
NtRp4342
(dp4343
g68
(dp4344
sg77
g4324
sg70
(lp4345
g63
(g84
g65
NtRp4346
(dp4347
g68
(dp4348
sg77
g4342
sg70
(lp4349
g63
(g64
g65
NtRp4350
(dp4351
g68
(dp4352
g76
I3
ssg77
g4346
sg70
(lp4353
g106
asbasbasbag63
(g79
g65
NtRp4354
(dp4355
g68
(dp4356
sg77
g4324
sg70
(lp4357
g63
(g84
g65
NtRp4358
(dp4359
g68
(dp4360
sg77
g4354
sg70
(lp4361
g63
(g64
g65
NtRp4362
(dp4363
g68
(dp4364
g76
I3
ssg77
g4358
sg70
(lp4365
S'/ACES/default/index'
p4366
asbasbasbag63
(g79
g65
NtRp4367
(dp4368
g68
(dp4369
sg77
g4324
sg70
(lp4370
g63
(g84
g65
NtRp4371
(dp4372
g68
(dp4373
sg77
g4367
sg70
(lp4374
g63
(g64
g65
NtRp4375
(dp4376
g68
(dp4377
g76
I3
ssg77
g4371
sg70
(lp4378
g63
(g72
g65
NtRp4379
(dp4380
g68
(dp4381
g76
I2
ssg77
Nsg70
(lp4382
sbasbasbasbasbasbasbasbag63
(g79
g65
NtRp4383
(dp4384
g68
(dp4385
sg77
g4308
sg70
(lp4386
g63
(g84
g65
NtRp4387
(dp4388
g68
(dp4389
sg77
g4383
sg70
(lp4390
g63
(g64
g65
NtRp4391
(dp4392
g68
(dp4393
g76
I4
ssg77
g4387
sg70
(lp4394
g63
(g72
g65
NtRp4395
(dp4396
g68
(dp4397
g76
I3
ssg77
Nsg70
(lp4398
g63
(g79
g65
NtRp4399
(dp4400
g68
(dp4401
sg77
g4395
sg70
(lp4402
g63
(g84
g65
NtRp4403
(dp4404
g68
(dp4405
sg77
g4399
sg70
(lp4406
g63
(g64
g65
NtRp4407
(dp4408
g68
(dp4409
g76
I3
ssg77
g4403
sg70
(lp4410
g4340
(S's\x08\x00\x00\x00This App'
tRp4411
asbasbasbag63
(g79
g65
NtRp4412
(dp4413
g68
(dp4414
sg77
g4395
sg70
(lp4415
g63
(g84
g65
NtRp4416
(dp4417
g68
(dp4418
sg77
g4412
sg70
(lp4419
g63
(g64
g65
NtRp4420
(dp4421
g68
(dp4422
g76
I3
ssg77
g4416
sg70
(lp4423
g106
asbasbasbag63
(g79
g65
NtRp4424
(dp4425
g68
(dp4426
sg77
g4395
sg70
(lp4427
g63
(g84
g65
NtRp4428
(dp4429
g68
(dp4430
sg77
g4424
sg70
(lp4431
g63
(g64
g65
NtRp4432
(dp4433
g68
(dp4434
g76
I3
ssg77
g4428
sg70
(lp4435
S'/admin/default/design/ACES'
p4436
asbasbasbag63
(g79
g65
NtRp4437
(dp4438
g68
(dp4439
sg77
g4395
sg70
(lp4440
g63
(g84
g65
NtRp4441
(dp4442
g68
(dp4443
sg77
g4437
sg70
(lp4444
g63
(g64
g65
NtRp4445
(dp4446
g68
(dp4447
g76
I3
ssg77
g4441
sg70
(lp4448
g63
(g72
g65
NtRp4449
(dp4450
g68
(dp4451
g76
I2
ssg77
Nsg70
(lp4452
g63
(g79
g65
NtRp4453
(dp4454
g68
(dp4455
sg77
g4449
sg70
(lp4456
g63
(g84
g65
NtRp4457
(dp4458
g68
(dp4459
sg77
g4453
sg70
(lp4460
g63
(g64
g65
NtRp4461
(dp4462
g68
(dp4463
g76
I2
ssg77
g4457
sg70
(lp4464
g63
(g72
g65
NtRp4465
(dp4466
g68
(dp4467
g76
I1
ssg77
Nsg70
(lp4468
g63
(g79
g65
NtRp4469
(dp4470
g68
(dp4471
sg77
g4465
sg70
(lp4472
g63
(g84
g65
NtRp4473
(dp4474
g68
(dp4475
sg77
g4469
sg70
(lp4476
g63
(g64
g65
NtRp4477
(dp4478
g68
(dp4479
g76
I1
ssg77
g4473
sg70
(lp4480
g4340
(S't\n\x00\x00\x00Controller'
tRp4481
asbasbasbag63
(g79
g65
NtRp4482
(dp4483
g68
(dp4484
sg77
g4465
sg70
(lp4485
g63
(g84
g65
NtRp4486
(dp4487
g68
(dp4488
sg77
g4482
sg70
(lp4489
g63
(g64
g65
NtRp4490
(dp4491
g68
(dp4492
g76
I1
ssg77
g4486
sg70
(lp4493
I00
asbasbasbag63
(g79
g65
NtRp4494
(dp4495
g68
(dp4496
sg77
g4465
sg70
(lp4497
g63
(g84
g65
NtRp4498
(dp4499
g68
(dp4500
sg77
g4494
sg70
(lp4501
g63
(g64
g65
NtRp4502
(dp4503
g68
(dp4504
g76
I1
ssg77
g4498
sg70
(lp4505
S'/admin/default/edit/ACES/controllers/default.py'
p4506
asbasbasbasbasbasbasbag63
(g79
g65
NtRp4507
(dp4508
g68
(dp4509
sg77
g4449
sg70
(lp4510
g63
(g84
g65
NtRp4511
(dp4512
g68
(dp4513
sg77
g4507
sg70
(lp4514
g63
(g64
g65
NtRp4515
(dp4516
g68
(dp4517
g76
I2
ssg77
g4511
sg70
(lp4518
g63
(g72
g65
NtRp4519
(dp4520
g68
(dp4521
g76
I1
ssg77
Nsg70
(lp4522
g63
(g79
g65
NtRp4523
(dp4524
g68
(dp4525
sg77
g4519
sg70
(lp4526
g63
(g84
g65
NtRp4527
(dp4528
g68
(dp4529
sg77
g4523
sg70
(lp4530
g63
(g64
g65
NtRp4531
(dp4532
g68
(dp4533
g76
I1
ssg77
g4527
sg70
(lp4534
g4340
(S't\x04\x00\x00\x00View'
tRp4535
asbasbasbag63
(g79
g65
NtRp4536
(dp4537
g68
(dp4538
sg77
g4519
sg70
(lp4539
g63
(g84
g65
NtRp4540
(dp4541
g68
(dp4542
sg77
g4536
sg70
(lp4543
g63
(g64
g65
NtRp4544
(dp4545
g68
(dp4546
g76
I1
ssg77
g4540
sg70
(lp4547
I00
asbasbasbag63
(g79
g65
NtRp4548
(dp4549
g68
(dp4550
sg77
g4519
sg70
(lp4551
g63
(g84
g65
NtRp4552
(dp4553
g68
(dp4554
sg77
g4548
sg70
(lp4555
g63
(g64
g65
NtRp4556
(dp4557
g68
(dp4558
g76
I1
ssg77
g4552
sg70
(lp4559
S'/admin/default/edit/ACES/views/default/index.html'
p4560
asbasbasbasbasbasbasbag63
(g79
g65
NtRp4561
(dp4562
g68
(dp4563
sg77
g4449
sg70
(lp4564
g63
(g84
g65
NtRp4565
(dp4566
g68
(dp4567
sg77
g4561
sg70
(lp4568
g63
(g64
g65
NtRp4569
(dp4570
g68
(dp4571
g76
I2
ssg77
g4565
sg70
(lp4572
g63
(g72
g65
NtRp4573
(dp4574
g68
(dp4575
g76
I1
ssg77
Nsg70
(lp4576
g63
(g79
g65
NtRp4577
(dp4578
g68
(dp4579
sg77
g4573
sg70
(lp4580
g63
(g84
g65
NtRp4581
(dp4582
g68
(dp4583
sg77
g4577
sg70
(lp4584
g63
(g64
g65
NtRp4585
(dp4586
g68
(dp4587
g76
I1
ssg77
g4581
sg70
(lp4588
g4340
(S't\x06\x00\x00\x00Layout'
tRp4589
asbasbasbag63
(g79
g65
NtRp4590
(dp4591
g68
(dp4592
sg77
g4573
sg70
(lp4593
g63
(g84
g65
NtRp4594
(dp4595
g68
(dp4596
sg77
g4590
sg70
(lp4597
g63
(g64
g65
NtRp4598
(dp4599
g68
(dp4600
g76
I1
ssg77
g4594
sg70
(lp4601
I00
asbasbasbag63
(g79
g65
NtRp4602
(dp4603
g68
(dp4604
sg77
g4573
sg70
(lp4605
g63
(g84
g65
NtRp4606
(dp4607
g68
(dp4608
sg77
g4602
sg70
(lp4609
g63
(g64
g65
NtRp4610
(dp4611
g68
(dp4612
g76
I1
ssg77
g4606
sg70
(lp4613
S'/admin/default/edit/ACES/views/layout.html'
p4614
asbasbasbasbasbasbasbag63
(g79
g65
NtRp4615
(dp4616
g68
(dp4617
sg77
g4449
sg70
(lp4618
g63
(g84
g65
NtRp4619
(dp4620
g68
(dp4621
sg77
g4615
sg70
(lp4622
g63
(g64
g65
NtRp4623
(dp4624
g68
(dp4625
g76
I2
ssg77
g4619
sg70
(lp4626
g63
(g72
g65
NtRp4627
(dp4628
g68
(dp4629
g76
I1
ssg77
Nsg70
(lp4630
g63
(g79
g65
NtRp4631
(dp4632
g68
(dp4633
sg77
g4627
sg70
(lp4634
g63
(g84
g65
NtRp4635
(dp4636
g68
(dp4637
sg77
g4631
sg70
(lp4638
g63
(g64
g65
NtRp4639
(dp4640
g68
(dp4641
g76
I1
ssg77
g4635
sg70
(lp4642
g4340
(S't\n\x00\x00\x00Stylesheet'
tRp4643
asbasbasbag63
(g79
g65
NtRp4644
(dp4645
g68
(dp4646
sg77
g4627
sg70
(lp4647
g63
(g84
g65
NtRp4648
(dp4649
g68
(dp4650
sg77
g4644
sg70
(lp4651
g63
(g64
g65
NtRp4652
(dp4653
g68
(dp4654
g76
I1
ssg77
g4648
sg70
(lp4655
I00
asbasbasbag63
(g79
g65
NtRp4656
(dp4657
g68
(dp4658
sg77
g4627
sg70
(lp4659
g63
(g84
g65
NtRp4660
(dp4661
g68
(dp4662
sg77
g4656
sg70
(lp4663
g63
(g64
g65
NtRp4664
(dp4665
g68
(dp4666
g76
I1
ssg77
g4660
sg70
(lp4667
S'/admin/default/edit/ACES/static/base.css'
p4668
asbasbasbasbasbasbasbag63
(g79
g65
NtRp4669
(dp4670
g68
(dp4671
sg77
g4449
sg70
(lp4672
g63
(g84
g65
NtRp4673
(dp4674
g68
(dp4675
sg77
g4669
sg70
(lp4676
g63
(g64
g65
NtRp4677
(dp4678
g68
(dp4679
g76
I2
ssg77
g4673
sg70
(lp4680
g63
(g72
g65
NtRp4681
(dp4682
g68
(dp4683
g76
I1
ssg77
Nsg70
(lp4684
g63
(g79
g65
NtRp4685
(dp4686
g68
(dp4687
sg77
g4681
sg70
(lp4688
g63
(g84
g65
NtRp4689
(dp4690
g68
(dp4691
sg77
g4685
sg70
(lp4692
g63
(g64
g65
NtRp4693
(dp4694
g68
(dp4695
g76
I1
ssg77
g4689
sg70
(lp4696
g4340
(S's\x08\x00\x00\x00DB Model'
tRp4697
asbasbasbag63
(g79
g65
NtRp4698
(dp4699
g68
(dp4700
sg77
g4681
sg70
(lp4701
g63
(g84
g65
NtRp4702
(dp4703
g68
(dp4704
sg77
g4698
sg70
(lp4705
g63
(g64
g65
NtRp4706
(dp4707
g68
(dp4708
g76
I1
ssg77
g4702
sg70
(lp4709
I00
asbasbasbag63
(g79
g65
NtRp4710
(dp4711
g68
(dp4712
sg77
g4681
sg70
(lp4713
g63
(g84
g65
NtRp4714
(dp4715
g68
(dp4716
sg77
g4710
sg70
(lp4717
g63
(g64
g65
NtRp4718
(dp4719
g68
(dp4720
g76
I1
ssg77
g4714
sg70
(lp4721
S'/admin/default/edit/ACES/models/db.py'
p4722
asbasbasbasbasbasbasbag63
(g79
g65
NtRp4723
(dp4724
g68
(dp4725
sg77
g4449
sg70
(lp4726
g63
(g84
g65
NtRp4727
(dp4728
g68
(dp4729
sg77
g4723
sg70
(lp4730
g63
(g64
g65
NtRp4731
(dp4732
g68
(dp4733
g76
I2
ssg77
g4727
sg70
(lp4734
g63
(g72
g65
NtRp4735
(dp4736
g68
(dp4737
g76
I1
ssg77
Nsg70
(lp4738
g63
(g79
g65
NtRp4739
(dp4740
g68
(dp4741
sg77
g4735
sg70
(lp4742
g63
(g84
g65
NtRp4743
(dp4744
g68
(dp4745
sg77
g4739
sg70
(lp4746
g63
(g64
g65
NtRp4747
(dp4748
g68
(dp4749
g76
I1
ssg77
g4743
sg70
(lp4750
g4340
(S's\n\x00\x00\x00Menu Model'
tRp4751
asbasbasbag63
(g79
g65
NtRp4752
(dp4753
g68
(dp4754
sg77
g4735
sg70
(lp4755
g63
(g84
g65
NtRp4756
(dp4757
g68
(dp4758
sg77
g4752
sg70
(lp4759
g63
(g64
g65
NtRp4760
(dp4761
g68
(dp4762
g76
I1
ssg77
g4756
sg70
(lp4763
I00
asbasbasbag63
(g79
g65
NtRp4764
(dp4765
g68
(dp4766
sg77
g4735
sg70
(lp4767
g63
(g84
g65
NtRp4768
(dp4769
g68
(dp4770
sg77
g4764
sg70
(lp4771
g63
(g64
g65
NtRp4772
(dp4773
g68
(dp4774
g76
I1
ssg77
g4768
sg70
(lp4775
S'/admin/default/edit/ACES/models/menu.py'
p4776
asbasbasbasbasbasbasbag63
(g79
g65
NtRp4777
(dp4778
g68
(dp4779
sg77
g4449
sg70
(lp4780
g63
(g84
g65
NtRp4781
(dp4782
g68
(dp4783
sg77
g4777
sg70
(lp4784
g63
(g64
g65
NtRp4785
(dp4786
g68
(dp4787
g76
I2
ssg77
g4781
sg70
(lp4788
g63
(g72
g65
NtRp4789
(dp4790
g68
(dp4791
g76
I1
ssg77
Nsg70
(lp4792
g63
(g79
g65
NtRp4793
(dp4794
g68
(dp4795
sg77
g4789
sg70
(lp4796
g63
(g84
g65
NtRp4797
(dp4798
g68
(dp4799
sg77
g4793
sg70
(lp4800
g63
(g64
g65
NtRp4801
(dp4802
g68
(dp4803
g76
I1
ssg77
g4797
sg70
(lp4804
g4340
(S't\x08\x00\x00\x00Database'
tRp4805
asbasbasbag63
(g79
g65
NtRp4806
(dp4807
g68
(dp4808
sg77
g4789
sg70
(lp4809
g63
(g84
g65
NtRp4810
(dp4811
g68
(dp4812
sg77
g4806
sg70
(lp4813
g63
(g64
g65
NtRp4814
(dp4815
g68
(dp4816
g76
I1
ssg77
g4810
sg70
(lp4817
I00
asbasbasbag63
(g79
g65
NtRp4818
(dp4819
g68
(dp4820
sg77
g4789
sg70
(lp4821
g63
(g84
g65
NtRp4822
(dp4823
g68
(dp4824
sg77
g4818
sg70
(lp4825
g63
(g64
g65
NtRp4826
(dp4827
g68
(dp4828
g76
I1
ssg77
g4822
sg70
(lp4829
S'/ACES/appadmin/index'
p4830
asbasbasbasbasbasbasbag63
(g79
g65
NtRp4831
(dp4832
g68
(dp4833
sg77
g4449
sg70
(lp4834
g63
(g84
g65
NtRp4835
(dp4836
g68
(dp4837
sg77
g4831
sg70
(lp4838
g63
(g64
g65
NtRp4839
(dp4840
g68
(dp4841
g76
I2
ssg77
g4835
sg70
(lp4842
g63
(g72
g65
NtRp4843
(dp4844
g68
(dp4845
g76
I1
ssg77
Nsg70
(lp4846
g63
(g79
g65
NtRp4847
(dp4848
g68
(dp4849
sg77
g4843
sg70
(lp4850
g63
(g84
g65
NtRp4851
(dp4852
g68
(dp4853
sg77
g4847
sg70
(lp4854
g63
(g64
g65
NtRp4855
(dp4856
g68
(dp4857
g76
I1
ssg77
g4851
sg70
(lp4858
g4340
(S't\x06\x00\x00\x00Errors'
tRp4859
asbasbasbag63
(g79
g65
NtRp4860
(dp4861
g68
(dp4862
sg77
g4843
sg70
(lp4863
g63
(g84
g65
NtRp4864
(dp4865
g68
(dp4866
sg77
g4860
sg70
(lp4867
g63
(g64
g65
NtRp4868
(dp4869
g68
(dp4870
g76
I1
ssg77
g4864
sg70
(lp4871
I00
asbasbasbag63
(g79
g65
NtRp4872
(dp4873
g68
(dp4874
sg77
g4843
sg70
(lp4875
g63
(g84
g65
NtRp4876
(dp4877
g68
(dp4878
sg77
g4872
sg70
(lp4879
g63
(g64
g65
NtRp4880
(dp4881
g68
(dp4882
g76
I1
ssg77
g4876
sg70
(lp4883
S'/admin/default/errors/ACES'
p4884
asbasbasbasbasbasbasbag63
(g79
g65
NtRp4885
(dp4886
g68
(dp4887
sg77
g4449
sg70
(lp4888
g63
(g84
g65
NtRp4889
(dp4890
g68
(dp4891
sg77
g4885
sg70
(lp4892
g63
(g64
g65
NtRp4893
(dp4894
g68
(dp4895
g76
I2
ssg77
g4889
sg70
(lp4896
g63
(g72
g65
NtRp4897
(dp4898
g68
(dp4899
g76
I1
ssg77
Nsg70
(lp4900
g63
(g79
g65
NtRp4901
(dp4902
g68
(dp4903
sg77
g4897
sg70
(lp4904
g63
(g84
g65
NtRp4905
(dp4906
g68
(dp4907
sg77
g4901
sg70
(lp4908
g63
(g64
g65
NtRp4909
(dp4910
g68
(dp4911
g76
I1
ssg77
g4905
sg70
(lp4912
g4340
(S't\x05\x00\x00\x00About'
tRp4913
asbasbasbag63
(g79
g65
NtRp4914
(dp4915
g68
(dp4916
sg77
g4897
sg70
(lp4917
g63
(g84
g65
NtRp4918
(dp4919
g68
(dp4920
sg77
g4914
sg70
(lp4921
g63
(g64
g65
NtRp4922
(dp4923
g68
(dp4924
g76
I1
ssg77
g4918
sg70
(lp4925
I00
asbasbasbag63
(g79
g65
NtRp4926
(dp4927
g68
(dp4928
sg77
g4897
sg70
(lp4929
g63
(g84
g65
NtRp4930
(dp4931
g68
(dp4932
sg77
g4926
sg70
(lp4933
g63
(g64
g65
NtRp4934
(dp4935
g68
(dp4936
g76
I1
ssg77
g4930
sg70
(lp4937
S'/admin/default/about/ACES'
p4938
asbasbasbasbasbasbasbasbasbasbasbasbasbasbasbag63
(g79
g65
NtRp4939
(dp4940
g68
(dp4941
sg77
g4308
sg70
(lp4942
g63
(g84
g65
NtRp4943
(dp4944
g68
(dp4945
sg77
g4939
sg70
(lp4946
g63
(g64
g65
NtRp4947
(dp4948
g68
(dp4949
g76
I4
ssg77
g4943
sg70
(lp4950
g63
(g72
g65
NtRp4951
(dp4952
g68
(dp4953
g76
I3
ssg77
Nsg70
(lp4954
g63
(g79
g65
NtRp4955
(dp4956
g68
(dp4957
sg77
g4951
sg70
(lp4958
g63
(g84
g65
NtRp4959
(dp4960
g68
(dp4961
sg77
g4955
sg70
(lp4962
g63
(g64
g65
NtRp4963
(dp4964
g68
(dp4965
g76
I3
ssg77
g4959
sg70
(lp4966
g4340
(S't\t\x00\x00\x00Resources'
tRp4967
asbasbasbag63
(g79
g65
NtRp4968
(dp4969
g68
(dp4970
sg77
g4951
sg70
(lp4971
g63
(g84
g65
NtRp4972
(dp4973
g68
(dp4974
sg77
g4968
sg70
(lp4975
g63
(g64
g65
NtRp4976
(dp4977
g68
(dp4978
g76
I3
ssg77
g4972
sg70
(lp4979
g106
asbasbasbag63
(g79
g65
NtRp4980
(dp4981
g68
(dp4982
sg77
g4951
sg70
(lp4983
g63
(g84
g65
NtRp4984
(dp4985
g68
(dp4986
sg77
g4980
sg70
(lp4987
g63
(g64
g65
NtRp4988
(dp4989
g68
(dp4990
g76
I3
ssg77
g4984
sg70
(lp4991
S'None'
p4992
asbasbasbag63
(g79
g65
NtRp4993
(dp4994
g68
(dp4995
sg77
g4951
sg70
(lp4996
g63
(g84
g65
NtRp4997
(dp4998
g68
(dp4999
sg77
g4993
sg70
(lp5000
g63
(g64
g65
NtRp5001
(dp5002
g68
(dp5003
g76
I3
ssg77
g4997
sg70
(lp5004
g63
(g72
g65
NtRp5005
(dp5006
g68
(dp5007
g76
I2
ssg77
Nsg70
(lp5008
g63
(g79
g65
NtRp5009
(dp5010
g68
(dp5011
sg77
g5005
sg70
(lp5012
g63
(g84
g65
NtRp5013
(dp5014
g68
(dp5015
sg77
g5009
sg70
(lp5016
g63
(g64
g65
NtRp5017
(dp5018
g68
(dp5019
g76
I2
ssg77
g5013
sg70
(lp5020
g63
(g72
g65
NtRp5021
(dp5022
g68
(dp5023
g76
I1
ssg77
Nsg70
(lp5024
g63
(g79
g65
NtRp5025
(dp5026
g68
(dp5027
sg77
g5021
sg70
(lp5028
g63
(g84
g65
NtRp5029
(dp5030
g68
(dp5031
sg77
g5025
sg70
(lp5032
g63
(g64
g65
NtRp5033
(dp5034
g68
(dp5035
g76
I1
ssg77
g5029
sg70
(lp5036
g4340
(S't\r\x00\x00\x00Documentation'
tRp5037
asbasbasbag63
(g79
g65
NtRp5038
(dp5039
g68
(dp5040
sg77
g5021
sg70
(lp5041
g63
(g84
g65
NtRp5042
(dp5043
g68
(dp5044
sg77
g5038
sg70
(lp5045
g63
(g64
g65
NtRp5046
(dp5047
g68
(dp5048
g76
I1
ssg77
g5042
sg70
(lp5049
I00
asbasbasbag63
(g79
g65
NtRp5050
(dp5051
g68
(dp5052
sg77
g5021
sg70
(lp5053
g63
(g84
g65
NtRp5054
(dp5055
g68
(dp5056
sg77
g5050
sg70
(lp5057
g63
(g64
g65
NtRp5058
(dp5059
g68
(dp5060
g76
I1
ssg77
g5054
sg70
(lp5061
S'http://www.web2py.com/book'
p5062
asbasbasbag63
(g79
g65
NtRp5063
(dp5064
g68
(dp5065
sg77
g5021
sg70
(lp5066
g63
(g84
g65
NtRp5067
(dp5068
g68
(dp5069
sg77
g5063
sg70
(lp5070
g63
(g64
g65
NtRp5071
(dp5072
g68
(dp5073
g76
I1
ssg77
g5067
sg70
(lp5074
(lp5075
(g4340
(S't\x07\x00\x00\x00Preface'
tRp5076
I00
S'http://www.web2py.com/book/default/chapter/00'
p5077
tp5078
a(g4340
(S't\x0c\x00\x00\x00Introduction'
tRp5079
I00
S'http://www.web2py.com/book/default/chapter/01'
p5080
tp5081
a(g4340
(S't\x06\x00\x00\x00Python'
tRp5082
I00
S'http://www.web2py.com/book/default/chapter/02'
p5083
tp5084
a(g4340
(S't\x08\x00\x00\x00Overview'
tRp5085
I00
S'http://www.web2py.com/book/default/chapter/03'
p5086
tp5087
a(g4340
(S's\x08\x00\x00\x00The Core'
tRp5088
I00
S'http://www.web2py.com/book/default/chapter/04'
p5089
tp5090
a(g4340
(S's\t\x00\x00\x00The Views'
tRp5091
I00
S'http://www.web2py.com/book/default/chapter/05'
p5092
tp5093
a(g4340
(S't\x08\x00\x00\x00Database'
tRp5094
I00
S'http://www.web2py.com/book/default/chapter/06'
p5095
tp5096
a(g4340
(S's\x14\x00\x00\x00Forms and Validators'
tRp5097
I00
S'http://www.web2py.com/book/default/chapter/07'
p5098
tp5099
a(g4340
(S's\x0e\x00\x00\x00Access Control'
tRp5100
I00
S'http://www.web2py.com/book/default/chapter/08'
p5101
tp5102
a(g4340
(S't\x08\x00\x00\x00Services'
tRp5103
I00
S'http://www.web2py.com/book/default/chapter/09'
p5104
tp5105
a(g4340
(S's\x0c\x00\x00\x00Ajax Recipes'
tRp5106
I00
S'http://www.web2py.com/book/default/chapter/10'
p5107
tp5108
a(g4340
(S's\x12\x00\x00\x00Deployment Recipes'
tRp5109
I00
S'http://www.web2py.com/book/default/chapter/11'
p5110
tp5111
a(g4340
(S's\r\x00\x00\x00Other Recipes'
tRp5112
I00
S'http://www.web2py.com/book/default/chapter/12'
p5113
tp5114
a(g4340
(S's\r\x00\x00\x00Buy this book'
tRp5115
I00
S'http://stores.lulu.com/web2py'
p5116
tp5117
aasbasbasbasbasbasbasbag63
(g79
g65
NtRp5118
(dp5119
g68
(dp5120
sg77
g5005
sg70
(lp5121
g63
(g84
g65
NtRp5122
(dp5123
g68
(dp5124
sg77
g5118
sg70
(lp5125
g63
(g64
g65
NtRp5126
(dp5127
g68
(dp5128
g76
I2
ssg77
g5122
sg70
(lp5129
g63
(g72
g65
NtRp5130
(dp5131
g68
(dp5132
g76
I1
ssg77
Nsg70
(lp5133
g63
(g79
g65
NtRp5134
(dp5135
g68
(dp5136
sg77
g5130
sg70
(lp5137
g63
(g84
g65
NtRp5138
(dp5139
g68
(dp5140
sg77
g5134
sg70
(lp5141
g63
(g64
g65
NtRp5142
(dp5143
g68
(dp5144
g76
I1
ssg77
g5138
sg70
(lp5145
g4340
(S't\t\x00\x00\x00Community'
tRp5146
asbasbasbag63
(g79
g65
NtRp5147
(dp5148
g68
(dp5149
sg77
g5130
sg70
(lp5150
g63
(g84
g65
NtRp5151
(dp5152
g68
(dp5153
sg77
g5147
sg70
(lp5154
g63
(g64
g65
NtRp5155
(dp5156
g68
(dp5157
g76
I1
ssg77
g5151
sg70
(lp5158
I00
asbasbasbag63
(g79
g65
NtRp5159
(dp5160
g68
(dp5161
sg77
g5130
sg70
(lp5162
g63
(g84
g65
NtRp5163
(dp5164
g68
(dp5165
sg77
g5159
sg70
(lp5166
g63
(g64
g65
NtRp5167
(dp5168
g68
(dp5169
g76
I1
ssg77
g5163
sg70
(lp5170
Nasbasbasbag63
(g79
g65
NtRp5171
(dp5172
g68
(dp5173
sg77
g5130
sg70
(lp5174
g63
(g84
g65
NtRp5175
(dp5176
g68
(dp5177
sg77
g5171
sg70
(lp5178
g63
(g64
g65
NtRp5179
(dp5180
g68
(dp5181
g76
I1
ssg77
g5175
sg70
(lp5182
(lp5183
(g4340
(S't\x06\x00\x00\x00Groups'
tRp5184
I00
S'http://www.web2py.com/examples/default/usergroups'
p5185
tp5186
a(g4340
(S't\x07\x00\x00\x00Twitter'
tRp5187
I00
S'http://twitter.com/web2py'
p5188
tp5189
a(g4340
(S's\t\x00\x00\x00Live chat'
tRp5190
I00
S'http://mibbit.com/?channel=%23web2py&server=irc.mibbit.net'
p5191
tp5192
a(g4340
(S's\n\x00\x00\x00User Voice'
tRp5193
I00
S'http://web2py.uservoice.com/'
p5194
tp5195
aasbasbasbasbasbasbasbag63
(g79
g65
NtRp5196
(dp5197
g68
(dp5198
sg77
g5005
sg70
(lp5199
g63
(g84
g65
NtRp5200
(dp5201
g68
(dp5202
sg77
g5196
sg70
(lp5203
g63
(g64
g65
NtRp5204
(dp5205
g68
(dp5206
g76
I2
ssg77
g5200
sg70
(lp5207
g63
(g72
g65
NtRp5208
(dp5209
g68
(dp5210
g76
I1
ssg77
Nsg70
(lp5211
g63
(g79
g65
NtRp5212
(dp5213
g68
(dp5214
sg77
g5208
sg70
(lp5215
g63
(g84
g65
NtRp5216
(dp5217
g68
(dp5218
sg77
g5212
sg70
(lp5219
g63
(g64
g65
NtRp5220
(dp5221
g68
(dp5222
g76
I1
ssg77
g5216
sg70
(lp5223
g4340
(S't\x06\x00\x00\x00Web2py'
tRp5224
asbasbasbag63
(g79
g65
NtRp5225
(dp5226
g68
(dp5227
sg77
g5208
sg70
(lp5228
g63
(g84
g65
NtRp5229
(dp5230
g68
(dp5231
sg77
g5225
sg70
(lp5232
g63
(g64
g65
NtRp5233
(dp5234
g68
(dp5235
g76
I1
ssg77
g5229
sg70
(lp5236
I00
asbasbasbag63
(g79
g65
NtRp5237
(dp5238
g68
(dp5239
sg77
g5208
sg70
(lp5240
g63
(g84
g65
NtRp5241
(dp5242
g68
(dp5243
sg77
g5237
sg70
(lp5244
g63
(g64
g65
NtRp5245
(dp5246
g68
(dp5247
g76
I1
ssg77
g5241
sg70
(lp5248
S'http://www.web2py.com'
p5249
asbasbasbag63
(g79
g65
NtRp5250
(dp5251
g68
(dp5252
sg77
g5208
sg70
(lp5253
g63
(g84
g65
NtRp5254
(dp5255
g68
(dp5256
sg77
g5250
sg70
(lp5257
g63
(g64
g65
NtRp5258
(dp5259
g68
(dp5260
g76
I1
ssg77
g5254
sg70
(lp5261
(lp5262
(g4340
(S't\x08\x00\x00\x00Download'
tRp5263
I00
S'http://www.web2py.com/examples/default/download'
p5264
tp5265
a(g4340
(S't\x07\x00\x00\x00Support'
tRp5266
I00
S'http://www.web2py.com/examples/default/support'
p5267
tp5268
a(g4340
(S's\x0e\x00\x00\x00Quick Examples'
tRp5269
I00
S'http://web2py.com/examples/default/examples'
p5270
tp5271
a(g4340
(S't\x03\x00\x00\x00FAQ'
tRp5272
I00
S'http://web2py.com/AlterEgo'
p5273
tp5274
a(g4340
(S's\x11\x00\x00\x00Free Applications'
tRp5275
I00
S'http://web2py.com/appliances'
p5276
tp5277
a(g4340
(S't\x07\x00\x00\x00Plugins'
tRp5278
I00
S'http://web2py.com/plugins'
p5279
tp5280
a(g4340
(S't\x07\x00\x00\x00Recipes'
tRp5281
I00
S'http://web2pyslices.com/'
p5282
tp5283
a(g4340
(S't\x04\x00\x00\x00Demo'
tRp5284
I00
S'http://web2py.com/demo_admin'
p5285
tp5286
a(g4340
(S't\x08\x00\x00\x00Semantic'
tRp5287
I00
S'http://web2py.com/semantic'
p5288
tp5289
a(g4340
(S't\x07\x00\x00\x00Layouts'
tRp5290
I00
S'http://web2py.com/layouts'
p5291
tp5292
a(g4340
(S't\x06\x00\x00\x00Videos'
tRp5293
I00
S'http://www.web2py.com/examples/default/videos/'
p5294
tp5295
aasbasbasbasbasbasbasbasbasbasbasbasbasbasbasbasbasbasbasbag63
(g79
g65
NtRp5296
(dp5297
g68
(dp5298
sg77
g3835
sg70
(lp5299
g63
(g84
g65
NtRp5300
(dp5301
g68
(dp5302
g88
g89
ssg77
g5296
sg70
(lp5303
S'meta'
p5304
asbag63
(g84
g65
NtRp5305
(dp5306
g68
(dp5307
g95
g96
ssg77
g5296
sg70
(lp5308
S':'
asbag63
(g84
g65
NtRp5309
(dp5310
g68
(dp5311
sg77
g5296
sg70
(lp5312
g63
(g64
g65
NtRp5313
(dp5314
g68
(dp5315
g76
I5
ssg77
g5309
sg70
(lp5316
g63
(g72
g65
NtRp5317
(dp5318
g68
(dp5319
g76
I4
ssg77
Nsg70
(lp5320
g63
(g79
g65
NtRp5321
(dp5322
g68
(dp5323
sg77
g5317
sg70
(lp5324
g63
(g84
g65
NtRp5325
(dp5326
g68
(dp5327
g88
g89
ssg77
g5321
sg70
(lp5328
S'author'
p5329
asbag63
(g84
g65
NtRp5330
(dp5331
g68
(dp5332
g95
g96
ssg77
g5321
sg70
(lp5333
S':'
asbag63
(g84
g65
NtRp5334
(dp5335
g68
(dp5336
sg77
g5321
sg70
(lp5337
g63
(g64
g65
NtRp5338
(dp5339
g68
(dp5340
g76
I4
ssg77
g5334
sg70
(lp5341
S'Your Name <you@example.com>'
p5342
asbasbasbag63
(g79
g65
NtRp5343
(dp5344
g68
(dp5345
sg77
g5317
sg70
(lp5346
g63
(g84
g65
NtRp5347
(dp5348
g68
(dp5349
g88
g89
ssg77
g5343
sg70
(lp5350
S'copyright'
p5351
asbag63
(g84
g65
NtRp5352
(dp5353
g68
(dp5354
g95
g96
ssg77
g5343
sg70
(lp5355
S':'
asbag63
(g84
g65
NtRp5356
(dp5357
g68
(dp5358
sg77
g5343
sg70
(lp5359
g63
(g64
g65
NtRp5360
(dp5361
g68
(dp5362
g76
I4
ssg77
g5356
sg70
(lp5363
S'Copyright 2011'
p5364
asbasbasbag63
(g79
g65
NtRp5365
(dp5366
g68
(dp5367
sg77
g5317
sg70
(lp5368
g63
(g84
g65
NtRp5369
(dp5370
g68
(dp5371
g88
g89
ssg77
g5365
sg70
(lp5372
S'description'
p5373
asbag63
(g84
g65
NtRp5374
(dp5375
g68
(dp5376
g95
g96
ssg77
g5365
sg70
(lp5377
S':'
asbag63
(g84
g65
NtRp5378
(dp5379
g68
(dp5380
sg77
g5365
sg70
(lp5381
g63
(g64
g65
NtRp5382
(dp5383
g68
(dp5384
g76
I4
ssg77
g5378
sg70
(lp5385
S'a cool new app'
p5386
asbasbasbag63
(g79
g65
NtRp5387
(dp5388
g68
(dp5389
sg77
g5317
sg70
(lp5390
g63
(g84
g65
NtRp5391
(dp5392
g68
(dp5393
g88
g89
ssg77
g5387
sg70
(lp5394
S'generator'
p5395
asbag63
(g84
g65
NtRp5396
(dp5397
g68
(dp5398
g95
g96
ssg77
g5387
sg70
(lp5399
S':'
asbag63
(g84
g65
NtRp5400
(dp5401
g68
(dp5402
sg77
g5387
sg70
(lp5403
g63
(g64
g65
NtRp5404
(dp5405
g68
(dp5406
g76
I4
ssg77
g5400
sg70
(lp5407
S'Web2py Web Framework'
p5408
asbasbasbag63
(g79
g65
NtRp5409
(dp5410
g68
(dp5411
sg77
g5317
sg70
(lp5412
g63
(g84
g65
NtRp5413
(dp5414
g68
(dp5415
g88
g89
ssg77
g5409
sg70
(lp5416
S'keywords'
p5417
asbag63
(g84
g65
NtRp5418
(dp5419
g68
(dp5420
g95
g96
ssg77
g5409
sg70
(lp5421
S':'
asbag63
(g84
g65
NtRp5422
(dp5423
g68
(dp5424
sg77
g5409
sg70
(lp5425
g63
(g64
g65
NtRp5426
(dp5427
g68
(dp5428
g76
I4
ssg77
g5422
sg70
(lp5429
S'web2py, python, framework'
p5430
asbasbasbasbasbasbasbag63
(g79
g65
NtRp5431
(dp5432
g68
(dp5433
sg77
g3835
sg70
(lp5434
g63
(g84
g65
NtRp5435
(dp5436
g68
(dp5437
g88
g89
ssg77
g5431
sg70
(lp5438
S'postprocessing'
p5439
asbag63
(g84
g65
NtRp5440
(dp5441
g68
(dp5442
g95
g96
ssg77
g5431
sg70
(lp5443
S':'
asbag63
(g84
g65
NtRp5444
(dp5445
g68
(dp5446
sg77
g5431
sg70
(lp5447
g63
(g64
g65
NtRp5448
(dp5449
g68
(dp5450
g76
I5
ssg77
g5444
sg70
(lp5451
g63
(g72
g65
NtRp5452
(dp5453
g68
(dp5454
g76
I4
ssg77
Nsg70
(lp5455
sbasbasbasbag63
(g79
g65
NtRp5456
(dp5457
g68
(dp5458
sg77
g3835
sg70
(lp5459
g63
(g84
g65
NtRp5460
(dp5461
g68
(dp5462
g88
g89
ssg77
g5456
sg70
(lp5463
S'session_file'
p5464
asbag63
(g84
g65
NtRp5465
(dp5466
g68
(dp5467
g95
g96
ssg77
g5456
sg70
(lp5468
S':'
asbag63
(g84
g65
NtRp5469
(dp5470
g68
(dp5471
sg77
g5456
sg70
(lp5472
g63
(g64
g65
NtRp5473
(dp5474
g68
(dp5475
g76
I5
ssg77
g5469
sg70
(lp5476
S"<open file '/home/u4hcsdaw/Python/web2py/applications/ACES/sessions/127.0.0.1-41cac65c-3668-453b-9ecc-c26f12d379cc', mode 'rb+' at 0xa931498>"
p5477
asbasbasbag63
(g79
g65
NtRp5478
(dp5479
g68
(dp5480
sg77
g3835
sg70
(lp5481
g63
(g84
g65
NtRp5482
(dp5483
g68
(dp5484
g88
g89
ssg77
g5478
sg70
(lp5485
S'session_filename'
p5486
asbag63
(g84
g65
NtRp5487
(dp5488
g68
(dp5489
g95
g96
ssg77
g5478
sg70
(lp5490
S':'
asbag63
(g84
g65
NtRp5491
(dp5492
g68
(dp5493
sg77
g5478
sg70
(lp5494
g63
(g64
g65
NtRp5495
(dp5496
g68
(dp5497
g76
I5
ssg77
g5491
sg70
(lp5498
S'/home/u4hcsdaw/Python/web2py/applications/ACES/sessions/127.0.0.1-41cac65c-3668-453b-9ecc-c26f12d379cc'
p5499
asbasbasbag63
(g79
g65
NtRp5500
(dp5501
g68
(dp5502
sg77
g3835
sg70
(lp5503
g63
(g84
g65
NtRp5504
(dp5505
g68
(dp5506
g88
g89
ssg77
g5500
sg70
(lp5507
S'session_id'
p5508
asbag63
(g84
g65
NtRp5509
(dp5510
g68
(dp5511
g95
g96
ssg77
g5500
sg70
(lp5512
S':'
asbag63
(g84
g65
NtRp5513
(dp5514
g68
(dp5515
sg77
g5500
sg70
(lp5516
g63
(g64
g65
NtRp5517
(dp5518
g68
(dp5519
g76
I5
ssg77
g5513
sg70
(lp5520
S'127.0.0.1-41cac65c-3668-453b-9ecc-c26f12d379cc'
p5521
asbasbasbag63
(g79
g65
NtRp5522
(dp5523
g68
(dp5524
sg77
g3835
sg70
(lp5525
g63
(g84
g65
NtRp5526
(dp5527
g68
(dp5528
g88
g89
ssg77
g5522
sg70
(lp5529
S'session_id_name'
p5530
asbag63
(g84
g65
NtRp5531
(dp5532
g68
(dp5533
g95
g96
ssg77
g5522
sg70
(lp5534
S':'
asbag63
(g84
g65
NtRp5535
(dp5536
g68
(dp5537
sg77
g5522
sg70
(lp5538
g63
(g64
g65
NtRp5539
(dp5540
g68
(dp5541
g76
I5
ssg77
g5535
sg70
(lp5542
g3892
asbasbasbag63
(g79
g65
NtRp5543
(dp5544
g68
(dp5545
sg77
g3835
sg70
(lp5546
g63
(g84
g65
NtRp5547
(dp5548
g68
(dp5549
g88
g89
ssg77
g5543
sg70
(lp5550
S'session_locked'
p5551
asbag63
(g84
g65
NtRp5552
(dp5553
g68
(dp5554
g95
g96
ssg77
g5543
sg70
(lp5555
S':'
asbag63
(g84
g65
NtRp5556
(dp5557
g68
(dp5558
sg77
g5543
sg70
(lp5559
g63
(g64
g65
NtRp5560
(dp5561
g68
(dp5562
g76
I5
ssg77
g5556
sg70
(lp5563
g2119
asbasbasbag63
(g79
g65
NtRp5564
(dp5565
g68
(dp5566
sg77
g3835
sg70
(lp5567
g63
(g84
g65
NtRp5568
(dp5569
g68
(dp5570
g88
g89
ssg77
g5564
sg70
(lp5571
S'session_new'
p5572
asbag63
(g84
g65
NtRp5573
(dp5574
g68
(dp5575
g95
g96
ssg77
g5564
sg70
(lp5576
S':'
asbag63
(g84
g65
NtRp5577
(dp5578
g68
(dp5579
sg77
g5564
sg70
(lp5580
g63
(g64
g65
NtRp5581
(dp5582
g68
(dp5583
g76
I5
ssg77
g5577
sg70
(lp5584
g106
asbasbasbag63
(g79
g65
NtRp5585
(dp5586
g68
(dp5587
sg77
g3835
sg70
(lp5588
g63
(g84
g65
NtRp5589
(dp5590
g68
(dp5591
g88
g89
ssg77
g5585
sg70
(lp5592
S'status'
p5593
asbag63
(g84
g65
NtRp5594
(dp5595
g68
(dp5596
g95
g96
ssg77
g5585
sg70
(lp5597
S':'
asbag63
(g84
g65
NtRp5598
(dp5599
g68
(dp5600
sg77
g5585
sg70
(lp5601
g63
(g64
g65
NtRp5602
(dp5603
g68
(dp5604
g76
I5
ssg77
g5598
sg70
(lp5605
S'200'
p5606
asbasbasbag63
(g79
g65
NtRp5607
(dp5608
g68
(dp5609
sg77
g3835
sg70
(lp5610
g63
(g84
g65
NtRp5611
(dp5612
g68
(dp5613
g88
g89
ssg77
g5607
sg70
(lp5614
S'subtitle'
p5615
asbag63
(g84
g65
NtRp5616
(dp5617
g68
(dp5618
g95
g96
ssg77
g5607
sg70
(lp5619
S':'
asbag63
(g84
g65
NtRp5620
(dp5621
g68
(dp5622
sg77
g5607
sg70
(lp5623
g63
(g64
g65
NtRp5624
(dp5625
g68
(dp5626
g76
I5
ssg77
g5620
sg70
(lp5627
g4340
(S's\r\x00\x00\x00customize me!'
tRp5628
asbasbasbag63
(g79
g65
NtRp5629
(dp5630
g68
(dp5631
sg77
g3835
sg70
(lp5632
g63
(g84
g65
NtRp5633
(dp5634
g68
(dp5635
g88
g89
ssg77
g5629
sg70
(lp5636
S'title'
p5637
asbag63
(g84
g65
NtRp5638
(dp5639
g68
(dp5640
g95
g96
ssg77
g5629
sg70
(lp5641
S':'
asbag63
(g84
g65
NtRp5642
(dp5643
g68
(dp5644
sg77
g5629
sg70
(lp5645
g63
(g64
g65
NtRp5646
(dp5647
g68
(dp5648
g76
I5
ssg77
g5642
sg70
(lp5649
g128
asbasbasbag63
(g79
g65
NtRp5650
(dp5651
g68
(dp5652
sg77
g3835
sg70
(lp5653
g63
(g84
g65
NtRp5654
(dp5655
g68
(dp5656
g88
g89
ssg77
g5650
sg70
(lp5657
g2807
asbag63
(g84
g65
NtRp5658
(dp5659
g68
(dp5660
g95
g96
ssg77
g5650
sg70
(lp5661
S':'
asbag63
(g84
g65
NtRp5662
(dp5663
g68
(dp5664
sg77
g5650
sg70
(lp5665
g63
(g64
g65
NtRp5666
(dp5667
g68
(dp5668
g76
I5
ssg77
g5662
sg70
(lp5669
g2820
asbasbasbag63
(g79
g65
NtRp5670
(dp5671
g68
(dp5672
sg77
g3835
sg70
(lp5673
g63
(g84
g65
NtRp5674
(dp5675
g68
(dp5676
g88
g89
ssg77
g5670
sg70
(lp5677
S'view'
p5678
asbag63
(g84
g65
NtRp5679
(dp5680
g68
(dp5681
g95
g96
ssg77
g5670
sg70
(lp5682
S':'
asbag63
(g84
g65
NtRp5683
(dp5684
g68
(dp5685
sg77
g5670
sg70
(lp5686
g63
(g64
g65
NtRp5687
(dp5688
g68
(dp5689
g76
I5
ssg77
g5683
sg70
(lp5690
S'default/index.html'
p5691
asbasbasbasbasbsS'locals'
p5692
(dp5693
S'errread'
p5694
S'None'
p5695
sS'c2pread'
p5696
S'None'
p5697
sS'gc_was_enabled'
p5698
g2119
sS'errwrite'
p5699
S'None'
p5700
sS'child_exception'
p5701
S"OSError(2, 'No such file or directory')"
p5702
sS'errpipe_write'
p5703
S'12'
p5704
sS'executable'
p5705
S'\'octave -q --eval "H=0.85" \''
p5706
sS'close_fds'
p5707
g106
sS'self'
p5708
S'<subprocess.Popen object>'
p5709
sg1185
S'None'
p5710
sS'cwd'
p5711
S'None'
p5712
sS'shell'
p5713
g106
sg46
S'[\'octave -q --eval "H=0.85" \', \'applications/ACES/Waves/linear_wave_theory.m\']'
p5714
sS'fd'
p5715
S'None'
p5716
sS'c2pwrite'
p5717
S'None'
p5718
sS'data'
p5719
S'"cexceptions\\nOSError\\np0\\n(I2\\nS\'No such file or dir...or: [Errno 2] No such file or directory\\\\n\'\\np6\\nsb."'
p5720
sS'creationflags'
p5721
S'0'
sS'errpipe_read'
p5722
S'11'
p5723
sS'preexec_fn'
p5724
S'None'
p5725
sS'p2cread'
p5726
S'None'
p5727
sS'startupinfo'
p5728
S'None'
p5729
sS'p2cwrite'
p5730
S'None'
p5731
sS'universal_newlines'
p5732
g106
sssS'traceback'
p5733
S'Traceback (most recent call last):\n  File "/home/u4hcsdaw/Python/web2py/gluon/restricted.py", line 194, in restricted\n    exec ccode in environment\n  File "/home/u4hcsdaw/Python/web2py/applications/ACES/controllers/default.py", line 83, in <module>\n  File "/home/u4hcsdaw/Python/web2py/gluon/globals.py", line 149, in <lambda>\n    self._caller = lambda f: f()\n  File "/home/u4hcsdaw/Python/web2py/applications/ACES/controllers/default.py", line 27, in index\n    t0=AcesCall(f1.vars)\n  File "/home/u4hcsdaw/Python/web2py/applications/ACES/models/functionsAces.py", line 9, in AcesCall\n    res=subprocess.call(comm)\n  File "/home/u4hcsdaw/Python/epd/lib/python2.7/subprocess.py", line 493, in call\n    return Popen(*popenargs, **kwargs).wait()\n  File "/home/u4hcsdaw/Python/epd/lib/python2.7/subprocess.py", line 679, in __init__\n    errread, errwrite)\n  File "/home/u4hcsdaw/Python/epd/lib/python2.7/subprocess.py", line 1249, in _execute_child\n    raise child_exception\nOSError: [Errno 2] No such file or directory\n'
p5734
s.